gd:_glClearStencil
dFi:_Array_InternalArray__ICollection_Add_TisMark_t2724874473_m1613484179_gshared
IHc:__ZN5physx2Gu19gjkLocalPenetrationINS0_8CapsuleVENS0_17ShrunkConvexHullVEEEjRKT_RKT0_RKNS_6shdfnd3aos6FloatVERNSB_5Vec3VESG_SG_RSC_PhSI_Rhb
KLk:__ZL80Graphic_t2426225576_CustomAttributesCacheGenerator_Graphic_OnFillVBO_m1723985607P21CustomAttributesCache
Kgg:_RuntimeTypeHandle_GetObjectData_m3567098501
JPb:__ZN18StreamedBinaryReadILb1EE21TransferSTLStyleArrayIN4core12basic_stringIcNS2_20StringStorageDefaultIcEEEEEEvRT_17TransferMetaFlags
M1h:__ZN6il2cpp2vm5Array13GetByteLengthEP11Il2CppArray
g2g:_Raycast3DCallback_BeginInvoke_m3028685017
ioj:__Z79RuntimeInvoker_RuntimeObject_Int64_t909078037_Int64_t909078037_Int64_t909078037PFvvEPK10MethodInfoPvPS4_
Zdk:__ZL61IRemotingFormatter_t4112065742_CustomAttributesCacheGeneratorP21CustomAttributesCache
Gnl:_TextGenerator_get_lineCount_m4287181941
hDe:__ZN15DownloadHandler7OnAbortEv
MCl:_Comparison_1_Invoke_m353639462_gshared
pug:_UInt64_System_IConvertible_ToDecimal_m4205696037
cqi:_GraphicRegistry_RegisterGraphicForCanvas_m2284226562
NHa:__Z21SourceMipLevelForBlitiiii
Ilb:__ZN31CanvasBatchIntermediateRenderer15AddAsRenderNodeER15RenderNodeQueueRK20DeprecatedSourceData
eCg:_GenericTypeParameterBuilder_GetEvent_m4210567427
F0j:_Playable__ctor_m2954384102
L3e:_Enumerator_get_Key_m2908810861
QDk:__ZL90GUIStyle_t1799908754_CustomAttributesCacheGenerator_GUIStyle_get_imagePosition_m1104201320P21CustomAttributesCache
qze:__ZN11UnityEngine7Connect14AppUpdateEventD0Ev
INg:_AnimatorControllerPlayable_SetBool_m1780824884_AdjustorThunk
tyd:__ZNK5physx2Sc5Scene24getContactModifyCallbackEv
JZ:__ZdlPv
EG:__ZN23AnimationOffsetPlayable11SetRotationE11Quaternionf
jt:__ZN11UnityEngine9Animation28GenericAnimationBindingCacheD2Ev
zBd:__ZN5physx2Sq10AABBPruner10addObjectsEPjPKNS_9PxBounds3EPKNS0_13PrunerPayloadEj
kMg:_AnimationOffsetPlayable_op_Explicit_m363086289
eek:__ZL68RemotingSurrogateSelector_t2821375126_CustomAttributesCacheGeneratorP21CustomAttributesCache
E2k:_EqualityComparer_1__cctor_m968537130_gshared
cSi:_List_1_System_Collections_IList_IndexOf_m39706221_gshared
ayl:_UnityEvent_1_RemoveListener_m219620396_gshared
BYk:_Dictionary_2_Remove_m1849931834_gshared
o6e:_Decimal_op_Implicit_m2971610317
hc:invoke_viiiifiiiiif
U7a:__Z18RestoreRenderStateR20CameraRenderOldStateR17ShaderPassContext
q$e:_SynchronizedArrayListWrapper_get_Item_m3309425850
WOb:__Z18Transfer_BlittableI18StreamedBinaryReadILb1EELb1E5RectTIfEEvRK29SerializationCommandArgumentsR31RuntimeSerializationCommandInfo
kLb:__Z18Transfer_BlittableI24GenerateTypeTreeTransferLb0E11ColorRGBA32EvRK29SerializationCommandArgumentsR31RuntimeSerializationCommandInfo
X3:__Z25scripting_class_from_name17ScriptingImagePtrPKcS1_
rQh:__ZN14dense_hash_mapI10KeyWrapperINSt3__24pairIPK12PropertyInfoP11Il2CppClassEEEj17ReflectionMapHashIS8_ENS9_14EqualsComparerINS1_8equal_toIS8_EEEENS1_9allocatorINS2_IKS9_jEEEEE15set_deleted_keyERSH_
eEb:__Z29scripting_class_enum_basetype17ScriptingClassPtr
pKj:__Z105RuntimeInvoker_Int32_t2071877448_RuntimeObject_UILineInfo_t3621277874_Int32_t2071877448_Int32_t2071877448PFvvEPK10MethodInfoPvPS4_
OQc:__ZN5physx6shdfnd8PoolBaseINS_2Sc10NPhaseCore16ClothListElementENS0_19ReflectionAllocatorIS4_EEE17releaseEmptySlabsEv
Tqi:_GraphicRaycaster_get_ignoreReversedGraphics_m2757724367
Qzj:__Z111RuntimeInvoker_Void_t1841601450_Vector4_t2243707581_Vector4_t2243707581_Vector4_t2243707581_Vector4_t2243707581PFvvEPK10MethodInfoPvPS4_
Wib:__ZNK12BaseRenderer18GetRenderNodeCountEv
xXg:_Collision_t2876846408_marshal_pinvoke_back
wUd:__ZN5physx2Sc14ConstraintCore10breakApartEv
RCg:_GenericTypeParameterBuilder_GetHashCode_m867619899
NZd:__ZN5physx2Gu15EdgeListBuilderC2Ev
X1k:_EqualityComparer_1__cctor_m3397254040_gshared
eea:__ZNK20LocalFileSystemPosix6ParentERK13FileEntryDataRN4core12basic_stringIcNS3_20StringStorageDefaultIcEEEE
k$d:__ZN5physx7Cooking20loadTriangleMeshDescERKNS_18PxTriangleMeshDescERNS_19TriangleMeshBuilderE
Qzk:__ZL136AnimatorControllerPlayable_t1744083903_CustomAttributesCacheGenerator_AnimatorControllerPlayable_CrossFadeInternal_m1106561990____layer3P21CustomAttributesCache
yhl:_RaycastHit2D_get_distance_m4065977169
Anl:_TextGenerator_get_verts_m3124035267
Izf:_MonoType_CheckMethodSecurity_m4116906190
RTc:__ZN5physx9NpFactory21releaseConnectorArrayEPNS_16NpConnectorArrayE
Ejl:_Vector2_get_one_m3174311904
AEd:__ZNK5physx2Gu29EPASupportMapPairRelativeImplINS0_9TriangleVENS0_4BoxVEE6getDirEv
xKi:_Array_Sort_TisVector2_t2243707579_m1307634946_gshared
sxa:__ZN17PersistentManager22CheckInstanceIDsLoadedEPii
HFa:__ZN7ApiGLES17CopyBufferSubDataEjjlll
Tsl:_PistolFactory__ctor_m4026858278
Lob:__ZNK20ScriptPlayableOutput7GetTypeEv
Ntk:__ZL99Sprite_t309593783_CustomAttributesCacheGenerator_Sprite_get_associatedAlphaSplitTexture_m3617241169P21CustomAttributesCache
vxh:__ZNSt3__26vectorIPK10Il2CppTypeNS_9allocatorIS3_EEE7reserveEj
IDl:_U3CCreateWhereIteratorU3Ec__Iterator1D_1_Reset_m1773515612_gshared
p$a:__ZN25CameraStackRenderingState20GetOrCreateBuiltinRTE24BuiltinRenderTextureTypeii17DepthBufferFormat19RenderTextureFormatj22RenderTextureReadWrite14VRTextureUsagei
uui:_InputField_get_caretPosition_m1005871812
gmb:__Z32TransferEnumWithNameForceIntSizeI14SafeBinaryRead16LightmappingMaskEvRT_RT0_PKc17TransferMetaFlags
cXk:_Dictionary_2__ctor_m3111963761_gshared
IS:__ZN11AudioModule26SetDefaultMicrophoneDriverEPv
fhd:__ZNK5physx15NpActorTemplateINS_15PxParticleFluidEE22getClientBehaviorFlagsEv
bqh:_AesManaged_CreateEncryptor_m1729287824
Kvb:__ZNK14Texture2DArray26CanReuploadDataToGfxDeviceEv
V3a:__ZN17PrePassRenderLoop14RenderBasePassEP13RenderTextureRK14LightingLayersR13dynamic_arrayI16RenderObjectDataLj4EERbR10MinMaxAABB
_hb:__ZN17GlobalGameManager23VirtualRedirectTransferER17RemapPPtrTransfer
cje:_sfnt_stream_close
uYe:_Char_System_IConvertible_ToInt16_m2741348777_AdjustorThunk
Loc:__ZN5IMGUI18RepaintModalWindowER8GUIState
zpi:_FontData_get_verticalOverflow_m83665814
ldj:_ReadOnlyCollection_1_System_Collections_Generic_IListU3CTU3E_set_Item_m1547026160_gshared
l7j:__ZL61MarshalAsAttribute_t2900773360_CustomAttributesCacheGeneratorP21CustomAttributesCache
pub:__Z23SetSpriteMeshIndexCountP14SharedMeshDataj
xha:__ZN7Texture13SetFilterModeEi
Ydc:__Z46Register_UnityEngine_Application_get_isPlayingv
o3h:__ZN6il2cpp8metadata13GenericMethod9GetMethodEPK19Il2CppGenericMethod
Pr:__ZNSt3__26vectorIN4core12basic_stringIcNS1_20StringStorageDefaultIcEEEENS_9allocatorIS5_EEE7reserveEj
J8e:_Convert_ToUInt16_m2130758075
f8i:_Collection_1_get_Item_m1415164804_gshared
XBj:__Z132RuntimeInvoker_Void_t1841601450_RuntimeObject_AnimatorStateInfo_t2577870592_Int32_t2071877448_AnimatorControllerPlayable_t1744083903PFvvEPK10MethodInfoPvPS4_
ztl:_MoveForwardPlayerState_Enter_m1821257630
t3f:_X509BasicConstraintsExtension_Encode_m3505127076
yAa:__ZN13GfxDeviceGLES11SetViewportERK5RectTIiE
xsi:_Image_get_pixelsPerUnit_m4104195799
F8g:_Toggle_InternalToggle_m2323729210
Acf:_Decimal_System_IConvertible_ToInt64_m2504363272
Zb:invoke_vifiiii
CTe:_Array_GetValue_m3182152438
ze:_emscripten_glDepthRange
Kig:_DESTransform_CipherFunct_m3559419566
GCc:__ZN5physx2Gu24contactConvexHeightfieldERKNS0_13GeometryUnionES3_RKNS_11PxTransformES6_RKfRNS0_5CacheERNS0_13ContactBufferE
sVc:__ZN5physx6shdfnd5ArrayIPvNS0_19ReflectionAllocatorINS_2Cm5BlockIS2_Lj8EEEEEE15growAndPushBackERKS2_
Dii:_StandaloneInputModule_get_repeatDelay_m3025279
YSj:_GUILayoutGroup_CalcWidth_m4107152934
ngg:_RuntimeFieldHandle_get_Value_m3963757144
yUb:__Z14resize_trimmedINSt3__26vectorIN9ShaderLab20SerializedSubProgram12UAVParameterENS0_9allocatorIS4_EEEEEvRT_j
D9f:_SerializationInfo_AddValue_m1781549036
DLj:__Z59RuntimeInvoker_Void_t1841601450_PlayableBinding_t2498078091PFvvEPK10MethodInfoPvPS4_
QLg:_AnimationLayerMixerPlayable_SetLayerMaskFromAvatarMask_m2582039992_AdjustorThunk
gTf:_TlsServerKeyExchange_verifySignature_m3641534563
Aac:__ZN13BuildSettings34ConvertScenePathToDisplayScenePathERKN4core12basic_stringIcNS0_20StringStorageDefaultIcEEEE
o9i:_Collection_1_Clear_m445145071_gshared
S6g:_Slider_FindSelectableOnLeft_m3136767885
lHa:__ZN4crndL20crnd_default_reallocEPvjPjbS0_
jqi:__ZN21InterfaceFuncInvoker1IP19Material_t193706927S1_E6InvokeEjP11Il2CppClassP12Il2CppObjectS1_
ZBi:_Array_BinarySearch_TisInt32_t2071877448_m51233948_gshared
lIl:__ZNSt3__212basic_stringIcNS_11char_traitsIcEENS_9allocatorIcEEEC2ERKS5_
CJd:__ZN5physx24PxsComputeAABBLocalSpaceERKNS_18PxcAABBDataDynamicERNS_9PxBounds3E
ncg:_ProviderData_CopyFrom_m431414335
tDj:__Z74RuntimeInvoker_Boolean_t3825574718_Vector2_t2243707579_Vector2_t2243707579PFvvEPK10MethodInfoPvPS4_
gvb:__ZN18SpriteAtlasManager19AddRequestingSpriteE4PPtrI6SpriteE
fmg:_UTF32Encoding_GetPreamble_m767706727
jlc:__Z33Texture_CUSTOM_Internal_GetHeightP12Il2CppObject
i6i:_Collection_1_System_Collections_IList_Add_m1953936885_gshared
Nwi:_LayoutGroup_get_preferredHeight_m3901163825
zsj:__Z111RuntimeInvoker_Void_t1841601450_RuntimeObject_SByte_t454417549_ObjectU26_t597476745_HeaderU5BU5DU26_t2818328198PFvvEPK10MethodInfoPvPS4_
T6a:__ZN23ScriptableRenderContextC2Ev
Djb:__ZN4PPtrI13RenderTextureE8TransferI18StreamedBinaryReadILb0EEEEvRT_
zdc:__Z22InverseTransformVector23TransformAccessReadOnlyRKN4math7_float3E
_5e:_DateTime_AbsoluteDays_m3061694073
$pe:_UNITY_FT_Stream_GetChar
tPb:__Z18Transfer_BlittableI18StreamedBinaryReadILb1EELb1EdEvRK29SerializationCommandArgumentsR31RuntimeSerializationCommandInfo
zSk:_Enumerator_System_Collections_IEnumerator_get_Current_m229223308_gshared
Gok:__ZL202U3CCreateWhereIteratorU3Ec__Iterator1D_1_t2523986802_CustomAttributesCacheGenerator_U3CCreateWhereIteratorU3Ec__Iterator1D_1_System_Collections_Generic_IEnumerableU3CTSourceU3E_GetEnumerator_m2392330777P21CustomAttributesCache
bCd:__ZN5physx6shdfnd8internal8HashBaseINS0_4PairIKNS_2Sq13PrunerPayloadEjEES5_NS0_4HashIS5_EENS1_11HashMapBaseIS5_jS9_NS0_9AllocatorEE6GetKeyESB_Lb1EE5eraseERS6_
nEb:__Z26BuildSerializationCacheFor17ScriptingClassPtrRb
VJa:__ZN7ApiGLES15BlitFramebufferEN2gl6HandleILNS0_10ObjectTypeE9EEENS0_15FramebufferReadES3_S3_iiiiiiiiNS0_15FramebufferTypeE
VVd:__ZN5physx13GuMeshFactory16createConvexMeshERNS_13PxInputStreamE
V4d:__ZN5physx6shdfnd8internal8HashBaseINS0_4PairIKPKcjEES5_NS0_4HashIS5_EENS1_11HashMapBaseIS5_jS9_NS_7profile26WrapperReflectionAllocatorIjEEE6GetKeyESD_Lb1EE6createERS6_Rb
pxj:__Z112RuntimeInvoker_RuntimeObject_RuntimeObject_RuntimeObject_RuntimeObject_RuntimeObject_RuntimeObject_RuntimeObjectPFvvEPK10MethodInfoPvPS4_
xck:__ZL55GCHandleType_t1970708122_CustomAttributesCacheGeneratorP21CustomAttributesCache
z_g:_Event_Init_m3901382626
dth:__ZL25UnresolvedVirtualCall_150P12Il2CppObject23SpriteState_t1353336012S1_PK10MethodInfo
fnj:__Z51RuntimeInvoker_Int32_t2071877448_Decimal_t724701077PFvvEPK10MethodInfoPvPS4_
$_e:_FixedSizeArrayListWrapper_AddRange_m2071800418
UE:__ZN13ProduceHelperI8AnimatorLb0EE7ProduceE18MemLabelIdentifier18ObjectCreationMode
vfa:__Z9InitInputv
Utj:__Z85RuntimeInvoker_Boolean_t3825574718_Int64_t909078037_Int64_t909078037_SByte_t454417549PFvvEPK10MethodInfoPvPS4_
DPh:__ZN30dense_hashtable_const_iteratorINSt3__24pairIK10KeyWrapperIPK22Il2CppGenericParameterEPK24MonoGenericParameterInfoEES6_N6il2cpp5utils11PointerHashIS4_EEN14dense_hash_mapIS6_SA_SF_NS6_14EqualsComparerINS0_8equal_toIS5_EEEENS0_9allocatorISB_EEE9SelectKeyESK_SM_E30advance_past_empty_and_deletedEv
RQi:_Enumerator_VerifyState_m2358705882_AdjustorThunk
iMb:__Z29Transfer_Blittable_ArrayFieldI24GenerateTypeTreeTransfer11ColorRGBA32EvRT_R9ArrayInfoRK23StaticTransferFieldInfo
TVd:__ZNK5physx13GuMeshFactory15getConvexMeshesEPPNS_12PxConvexMeshEjj
g3g:_Selectable_Navigate_m915280351
SLf:_AppDomain_getCurDomain_m591611373
geb:__ZN16MemoryFileSystem6DeleteER13FileEntryDatab
pql:_Vector3_get_normalized_m936072361
Wua:__ZL21BlitScaleStbImageImplRK14ImageReferenceRS_NS_10ColorSpaceE
u8c:__ZN5physx10NpMaterial17setStaticFrictionEf
NZf:_TlsStream_set_Position_m378064217
zE:__ZN18StreamedBinaryReadILb0EE21TransferSTLStyleArrayI13dynamic_arrayIjLj4EEEEvRT_17TransferMetaFlags
Tsd:__ZNK5physx7NpScene19getFilterShaderDataEv
FHb:__Z29Transfer_Blittable_ArrayFieldI14SafeBinaryReadyEvRT_R9ArrayInfoRK23StaticTransferFieldInfo
hP:__ZN20SoundChannelInstance15setChannelGroupEPN4FMOD12ChannelGroupE
jLh:__ZNK15dense_hashtableINSt3__24pairIK10KeyWrapperINS1_IPK9FieldInfoP11Il2CppClassEEEjEES9_17ReflectionMapHashIS8_EN14dense_hash_mapIS9_jSD_NS9_14EqualsComparerINS0_8equal_toIS8_EEEENS0_9allocatorISB_EEE9SelectKeyESI_SK_E12test_deletedERK24dense_hashtable_iteratorISB_S9_SD_SM_SI_SK_E
x3c:__ZN5physx2Sc19ShapeInstancePairLL26onPoseChangedWhileSleepingEv
BMe:_Evidence_Equals_m2325859915
KDd:__ZN5physx22PxcSweepCapsuleCapsuleERKNS_11PxsCCDShapeES2_PKNS_12PxsRigidBodyES5_RKNS_11PxTransformES8_S8_S8_fRNS_6PxVec3ESA_RNS_10PxcNpCacheERNS_18PxcNpThreadContextEf
Ugk:__ZL93WindowsIdentity_t373339331_CustomAttributesCacheGenerator_WindowsIdentity_Dispose_m2649088337P21CustomAttributesCache
Zxg:_Default__ctor_m172834064
Vc:invoke_vifffii
$Jk:__ZL77StandaloneInputModule_t70867863_CustomAttributesCacheGenerator_m_VerticalAxisP21CustomAttributesCache
KRb:__Z35Transfer_Blittable_FixedBufferFieldI18StreamedBinaryReadILb0EEaEvRK29SerializationCommandArgumentsR31RuntimeSerializationCommandInfo
tYg:_Component_GetComponents_m637589504
zih:_Regex_IsMatch_m2159202025
JMc:__ZNK5physx3Cct17CapsuleController21getHalfHeightInternalEv
yQa:__ZNK25MultiBlocksMemoryFileData5CloneEv
Wdj:_ReadOnlyCollection_1_System_Collections_IList_IndexOf_m3466286536_gshared
T8h:_GC_add_ext_descriptor
ULc:__ZN5physx21PxQueryFilterCallbackD2Ev
R9h:__ZN6il2cpp2os14WindowsRuntime22GetRestrictedErrorInfoEv
Psi:_Image_CalculateLayoutInputHorizontal_m3275149860
e9f:_RemotingServices_GetMethodBaseFromName_m3271095947
oSa:__ZN17ArchiveFileSystem11CreateAsDirER13FileEntryData
vsh:__ZL25UnresolvedVirtualCall_114P12Il2CppObjectssaaaPK10MethodInfo
ZSc:__ZL30GeomOverlapCallback_CapsuleBoxRKN5physx10PxGeometryERKNS_11PxTransformES2_S5_PNS_2Gu12TriggerCacheE
rKl:dynCall_iiiiiiiiiiii
HRe:_ASCIIEncoding_GetBytes_m3617160053
Wae:__Z38Rigidbody_CUSTOM_INTERNAL_get_velocityP12Il2CppObjectP8Vector3f
_cl:_InternalEnumerator_1_MoveNext_m2289229080_AdjustorThunk
kSf:_CipherSuiteCollection_System_Collections_IList_RemoveAt_m143866082
Bdh:_Context_get_HasGlobalDynamicSinks_m3205328884
PF:__ZN26AnimatorControllerPlayable26ParameterControlledByCurveEi
tza:__ZN22VertexDeclarationCacheD0Ev
OYb:__ZL26KeywordSetToStringDontSortRKNSt3__26vectorIN4core12basic_stringIcNS1_20StringStorageDefaultIcEEEENS_9allocatorIS5_EEEERS5_
zye:__Z54Register_UnityEngine_Analytics_CustomEventData_AddCharv
Zpa:__ZN6prcoreL17RemapGenericFloatI16TexFormatRGFloat17TexFormatRGBAHalfEEvPKNS_9InnerInfoE
lK:__ZN12AudioManager22CreateFMODSoundFromWWWEP10IWWWStream15FMOD_SOUND_TYPE17FMOD_SOUND_FORMATjjbbP10SampleClip
s3b:__ZNK32RendererMaterialAnimationBinding15GenerateBindingERKN4core12basic_stringIcNS0_20StringStorageDefaultIcEEEEbRN11UnityEngine9Animation14GenericBindingE
ZMh:__ZN24dense_hashtable_iteratorINSt3__24pairIK10KeyWrapperINS1_IPK11Il2CppImageP11Il2CppClassEEEjEES9_17ReflectionMapHashIS8_EN14dense_hash_mapIS9_jSD_NS9_14EqualsComparerINS0_8equal_toIS8_EEEENS0_9allocatorISB_EEE9SelectKeyESI_SK_E30advance_past_empty_and_deletedEv
axj:__Z40RuntimeInvoker_HandshakeType_t2540099417PFvvEPK10MethodInfoPvPS4_
pQj:_UnityEventBase_UnityEngine_ISerializationCallbackReceiver_OnBeforeSerialize_m1773826808
O$k:_DefaultComparer_GetHashCode_m361278435_gshared
AFh:__ZNSt3__26vectorIN6il2cpp6icalls8mscorlib6System12PropertyPairENS_9allocatorIS5_EEE21__push_back_slow_pathIS5_EEvOT_
l3:__ZN8Remapper23GetOrGenerateInstanceIDERK26SerializedObjectIdentifier
swf:_StreamWriter_Flush_m3426120024
uSa:__ZN17FileSystemHandler10AtomicMoveER13FileEntryDataS1_
ib:invoke_iiiiiifffiiifii
Xtf:_MemoryStream__ctor_m1489366847
WMe:_SecurityElement_IsValidTag_m64902195
CSk:_Enumerator_System_Collections_IEnumerator_get_Current_m229223308_AdjustorThunk
SIg:_PropertyInfo_SetValue_m2961483868
BSj:_GUILayoutEntry_set_style_m70917293
Yrk:__ZL115TouchScreenKeyboard_t601950206_CustomAttributesCacheGenerator_TouchScreenKeyboard_Open_m3410222954____keyboardType1P21CustomAttributesCache
JXi:_List_1_System_Collections_IList_Contains_m4193366963_gshared
lEh:__ZNSt3__214__split_bufferI6pollfdRNS_9allocatorIS1_EEED2Ev
oag:_DictionaryEnumerator_get_Value_m1915638953
vyg:_ConstructorInfo_Invoke_m2144827141
A6g:_Slider_set_onValueChanged_m1751815187
Cub:__ZN6Sprite8TransferI24GenerateTypeTreeTransferEEvRT_
tmc:__Z48Register_UnityEngine_Transform_SetAsFirstSiblingv
QQj:_Font_get_fontSize_m1732593415
Fub:__ZN7SubMesh8TransferI24GenerateTypeTreeTransferEEvRT_
yuh:__ZL25UnresolvedVirtualCall_225P12Il2CppObjecti23RaycastResult_t21186376PK10MethodInfo
VHg:_MonoProperty_get_CanWrite_m2124922514
GBc:__ZN5physx3Cct10Controller6setPosERKNS_14PxExtendedVec3E
REh:__ZN6il2cpp6icalls8mscorlib6SystemL16CheckMemberMatchI9FieldInfoNS_5utils10functional6FilterINSt3__212basic_stringIcNS8_11char_traitsIcEENS8_9allocatorIcEEEENS5_13VmStringUtils23CaseInsensitiveComparerEEEEEbPKT_PK11Il2CppClassSN_iRKT0_
NDc:__ZN5physx2GuL14testFaceNormalERKNS0_13PolygonalDataES3_PNS0_12SupportLocalES5_RKNS_6shdfnd3aos15PsMatTransformVESA_RKNS7_6FloatVERSB_RjRNS7_5Vec3VENS0_13FeatureStatusERSI_
oHl:_poll
Itf:_Stream_BeginRead_m1985960185
Ani:_Graphic_UnregisterDirtyVerticesCallback_m1526739224
y1b:__ZN13ProduceHelperI14Texture2DArrayLb0EE7ProduceE18MemLabelIdentifier18ObjectCreationMode
sKk:__ZL88TweenRunner_1_t2584777480_CustomAttributesCacheGenerator_TweenRunner_1_Start_m2640577060P21CustomAttributesCache
APf:_MD4Managed_GG_m1462438360
pic:__Z46Mesh_CUSTOM_PrintErrorCantAccessMeshForIndicesP12Il2CppObject
wJi:_Array_Resize_TisColor32_t874517518_m2219502085_gshared
odc:__ZN9Transform23SetSiblingIndexInternalEib
rDf:_SimpleCollator_LastIndexOfOrdinal_m45234497
dTc:__ZL32GeomOverlapCallback_ConvexConvexRKN5physx10PxGeometryERKNS_11PxTransformES2_S5_PNS_2Gu12TriggerCacheE
WGl:___fseeko
eqi:_Graphic_get_canvasRenderer_m2902370808
$u:__ZN7mecanim5human12HumanPoseSubERNS0_9HumanPoseERKS1_S4_
mPf:_MD4_Create_m2582504069
uCl:_HashSet_1_System_Collections_IEnumerable_GetEnumerator_m2498631708_gshared
pZh:__ZN6il2cpp8metadata15GenericMetadata15GetGenericClassEiPK17Il2CppGenericInst
fWe:_Boolean_System_IConvertible_ToInt16_m977801621
tGb:__Z18Transfer_BlittableI14SafeBinaryReadLb0E10Matrix4x4fEvRK29SerializationCommandArgumentsR31RuntimeSerializationCommandInfo
jUa:__Z24GetFixedBehaviourManagerv
lJj:__Z69RuntimeInvoker_Void_t1841601450_Int32_t2071877448_Vector4_t2243707581PFvvEPK10MethodInfoPvPS4_
BYa:__ZN12FlareManager9UpdateJobEP25FlareManagerUpdateJobData
uEh:__ZN6il2cpp2vm10ThreadPool4WaitEP17Il2CppAsyncResultPPv
zFl:_vfprintf
E9f:_SerializationException__ctor_m1019897788
Xna:__ZL13SortTexByNameRKNSt3__24pairIN9ShaderLab16FastPropertyNameEN18UnityPropertySheet11UnityTexEnvEEES7_
mZa:__ZN20DynamicPropertySheetD0Ev
Hbb:__ZN14SafeBinaryRead17RegisterConverterEPKcS1_PFbPvRS_E
HZ:__ZN35RegisterRuntimeInitializeAndCleanup8RegisterEPFvPvES2_iS0_
wmd:__ZNK5physx19NpRigidBodyTemplateINS_14PxRigidDynamicEE17getRigidBodyFlagsEv
YUe:_AsyncCallback__ctor_m3071689932
y2d:__ZN14PhysicMaterial8TransferI18StreamedBinaryReadILb0EEEEvRT_
Uij:_ReadOnlyCollection_1_System_Collections_IList_Clear_m2600246370_gshared
fob:__ZN20SphericalHarmonicsL215AddAmbientLightERK10ColorRGBAf
sce:__Z47Register_UnityEngine_MeshCollider_get_skinWidthv
ODd:__ZN5physx25PxcSweepConvexHeightfieldERKNS_11PxsCCDShapeES2_PKNS_12PxsRigidBodyES5_RKNS_11PxTransformES8_S8_S8_fRNS_6PxVec3ESA_RNS_10PxcNpCacheERNS_18PxcNpThreadContextEf
KKj:__Z62RuntimeInvoker_Int32_t2071877448_ParameterModifier_t1820634920PFvvEPK10MethodInfoPvPS4_
JGf:_DSAManaged_NormalizeArray_m2287089393
Cmc:__Z21Object_CUSTOM_DestroyP12Il2CppObjectf
Tdl:_InternalEnumerator_1_System_Collections_IEnumerator_get_Current_m2389982234_AdjustorThunk
nUa:__ZN8Material26ResetAllCachedMaterialDataEP6Shader
x5g:_Selectable_get_interactable_m1725029500
j6j:__ZL66RuntimeArray_CustomAttributesCacheGenerator_Array_Sort_m3002148658P21CustomAttributesCache
kqe:_UNITY_TT_Get_MM_Var
kvh:__ZN6il2cpp6icalls8mscorlib6System7Decimal13decimal2Int64EP19il2cpp_decimal_reprPx
aa:invoke_diddi
Fgi:_ExecuteEvents__cctor_m288775360
Vre:__ZNK2UI6Canvas13GetRenderModeEv
d7e:_Double_TryParseStringConstant_m2585405703
zti:__ZN21InterfaceFuncInvoker1I22UICharInfo_t3056636800iE6InvokeEjP11Il2CppClassP12Il2CppObjecti
MGg:_MonoField_get_Attributes_m4138688533
CSg:_AudioClipPlayable_GetHandle_m234442096_AdjustorThunk
NFb:__Z18Transfer_BlittableI14SafeBinaryReadLb0EiEvRK29SerializationCommandArgumentsR31RuntimeSerializationCommandInfo
iDh:__ZN6il2cpp2vm13MetadataCache30GetPropertyDefinitionFromIndexEi
p9g:_ResourceEnumerator__ctor_m1679839941
zHe:_RijndaelTransform_Clear_m1652144089
Ald:__ZN5physx14NpRigidDynamic7releaseEv
ksf:_MonoIO_GetException_m2577367044
xBe:__ZN22BaseUnityConnectClient17InitializeSessionERKN4core12basic_stringIcNS0_20StringStorageDefaultIcEEEES6_N19CloudServiceHandler13InitModeFlagsE
bVk:_Enumerator_MoveNext_m1404007384_gshared
cBf:_NumberFormatter_get_IsZero_m1325357749
cAd:__ZN5physx6shdfnd8PoolBaseINS_21PxsBodyTransformVault13PxsBody2WorldENS0_19ReflectionAllocatorIS3_EEE15disposeElementsEv
bRl:_emscripten_glDeleteBuffers__wrapper
$Dj:__Z121RuntimeInvoker_Void_t1841601450_Single_t2076509932_Single_t2076509932_Single_t2076509932_Single_t2076509932_RuntimeObjectPFvvEPK10MethodInfoPvPS4_
ogf:_Enum_ToObject_m322320225
WQk:_Enumerator_get_Current_m2754383612_gshared
Bbc:__ZN13MonoBehaviour34StopCoroutineFromEnumeratorManagedE18ScriptingObjectPtr
gLe:_X509Certificate__ctor_m3860837120
Ghe:_gray_raster_reset
fMg:_AnimationOffsetPlayable_CreateHandle_m1204489623
WQj:_GameObject_Internal_CreateGameObject_m3428198595
SHj:__Z109RuntimeInvoker_RuntimeObject_Ray_t2469606224_Single_t2076509932_Int32_t2071877448_RuntimeObject_RuntimeObjectPFvvEPK10MethodInfoPvPS4_
yVg:_Camera_RaycastTry2D_m755036866
Pij:_ReadOnlyCollection_1_System_Collections_Generic_IListU3CTU3E_set_Item_m3663361643_gshared
PJc:__ZN5physx2Gu30computeCapsule_TriangleMeshMTDERKNS_22PxTriangleMeshGeometryERKNS_11PxTransformERNS0_8CapsuleVEffbRNS_10PxSweepHitE
hAc:__ZN11UnityEngine9Analytics18SceneLoadTimeEvent12SetSceneLoadERKN4core12basic_stringIcNS2_20StringStorageDefaultIcEEEEiyyyy
PCb:__ZN30RuntimeInitializeOnLoadManager8TransferI18StreamedBinaryReadILb0EEEEvRT_
r_k:_Dictionary_2__ctor_m1206668798_gshared
$Ag:_TypeBuilder_not_supported_m3178173643
pie:_UNITY_tt_face_load_pclt
lcc:__ZL34GetComponentsImplementationRecurseILb1ELi0ELi2EEbR10GameObjectbRK17CompareParametersRK39GetComponentsImplementation_ReturnValue
prd:__ZThn8_N5physx2Sc19ShapeInstancePairLL10onActivateEj
K_k:_Dictionary_2_Init_m1045257495_gshared
I_e:_ArrayListWrapper_Remove_m1105489978
CYa:__ZNK6Camera18WorldToScreenPointERK8Vector3fPb
UJd:__ZN5physx2Cm12DelegateTaskINS_10PxsContextEXadL_ZNS2_28mergeCMDiscreteUpdateResultsEPNS_10PxBaseTaskEEEE11runInternalEv
gxe:__ZN14UnityAnalyticsD0Ev
Kpl:_Vector2_ToString_m775491729
JSf:_TlsClientSettings_set_TargetHost_m3421266913
H_d:__ZN5physx19TriangleMeshBuilder10importMeshERKNS_18PxTriangleMeshDescERKNS_15PxCookingParamsEb
DMj:__Z84RuntimeInvoker_Void_t1841601450_RaycastResultU5BU5DU26_t2399554255_Int32_t2071877448PFvvEPK10MethodInfoPvPS4_
A2e:_HashKeys_CopyTo_m3566668422
Jza:__Z18IsCompressedFormat14GraphicsFormat
sv:__ZN7mecanim9animation19AdjustPoseForMotionERKNS0_14AvatarConstantERKNS0_14SkeletonTQSMapERKN4math4trsXERNS_10ValueArrayERNS_8skeleton13SkeletonPoseTIS8_EESG_
m9k:_InternalEnumerator_1_Dispose_m549215360_AdjustorThunk
CYe:_Convert_ToSByte_m2665932200
B2:__ZNSt3__227__insertion_sort_incompleteIRPFbRKN18AwakeFromLoadQueue4ItemES4_EPS2_EEbT0_S9_T_
Wzg:_ILGenerator_label_fixup_m1325994348
JWk:_ValueCollection_System_Collections_ICollection_get_IsSynchronized_m45572582_gshared
mBh:__ZN14dense_hash_mapI10KeyWrapperIN6il2cpp5utils13dynamic_arrayIPK10Il2CppTypeLj4EEEEPFvvENS1_8metadata19Il2CppSignatureHashENS8_14EqualsComparerINSB_22Il2CppSignatureCompareEEENSt3__29allocatorINSG_4pairIKS8_SA_EEEEE15set_deleted_keyERSJ_
k1g:_Navigation_Equals_m4214630671_AdjustorThunk
$fj:_ReadOnlyCollection_1_System_Collections_Generic_IListU3CTU3E_set_Item_m257196015_gshared
Bed:__ZN5physx6shdfnd5ArrayINS_18PxClothFabricPhaseENS0_19ReflectionAllocatorIS2_EEE8recreateEj
Grb:__ZN26EnlightenSystemInformation8TransferI14SafeBinaryReadEEvRT_
EMi:_Array_InternalArray__get_Item_TisLink_t2723257478_m2281261655_gshared
TSg:_AudioClipPlayable_INTERNAL_CALL_GetIsPlayingInternal_m4246314919
cud:__ZN5physx2Sq17SceneQueryManager11shiftOriginERKNS_6PxVec3E
fyb:__ZN12MeshRendererD0Ev
THc:__ZN5physx2Gu16sweepBoxTriangleERKNS_10PxTriangleERKNS_9PxBounds3ERKNS_6PxVec3ES9_RS7_SA_Rf
Zjh:_ExpressionAssertion_IsComplex_m783019628
B1e:_Hashtable__ctor_m2702360557
hi:_utime
r$d:__ZN5physx10writeChunkEaaaaRNS_14PxOutputStreamE
skf:_DateTimeFormatInfo_get_RawAbbreviatedDayNames_m3998113647
rJh:__ZNSt3__26vectorIN6il2cpp2vm17TypeNameParseInfoENS_9allocatorIS3_EEE8allocateEj
_Nf:_PrimalityTest_Invoke_m4058801829
bOi:_Mesh_GetAllocArrayFromChannel_TisRuntimeObject_m1450958222_gshared
Dn:FUNCTION_TABLE_viiiiif
Xcg:_RemotingConfiguration_SetCustomErrorsMode_m1844153208
no:FUNCTION_TABLE_viiiiii
o5c:__ZN5physx2Sc9RigidCore13onShapeChangeERNS0_9ShapeCoreENS_7PxFlagsINS0_21ShapeChangeNotifyFlag4EnumEjEENS4_INS_11PxShapeFlag4EnumEhEE
wMi:_Array_InternalArray__get_Item_TisChar_t3454481338_m3646615547_gshared
QD:__ZN7mecanim9animation22DestroyAvatarWorkspaceEPNS0_15AvatarWorkspaceERNS_6memory9AllocatorE
OLl:dynCall_viddi
kll:_ScriptableObject_CreateInstance_m3271154163
Qsi:_Image_CalculateLayoutInputVertical_m1340533162
_id:__ZN5physx6shdfnd5ArrayIPvNS0_15InlineAllocatorILj256ENS0_19ReflectionAllocatorINS_2Sc19ParticlePacketShapeEEEEEE15growAndPushBackERKS2_
rGd:__ZN5physx17solveContactBlockEPKNS_23PxcSolverConstraintDescEjRNS_16PxcSolverContextE
A$d:__ZN5physx6shdfnd10FoundationD2Ev
JDi:_Array_InternalArray__IndexOf_TisResourceCacheItem_t333236149_m761772858_gshared
Goc:__ZNSt3__210__list_impIN10GUIManager12SortedScriptE11memory_poolIS2_EE5clearEv
Mjk:__ZL76Convert_t2607082565_CustomAttributesCacheGenerator_Convert_ToInt64_m44696721P21CustomAttributesCache
Job:__ZN14PlayableOutput17SetSourcePlayableEP8Playable
nBj:__Z68RuntimeInvoker_RuntimeObject_Vector3_t2243707580_Vector3_t2243707580PFvvEPK10MethodInfoPvPS4_
mdg:_TrackingServices__cctor_m3639412334
Vvl:_InvokableCall_1_add_Delegate_m3068046591_gshared
jrc:__Z32GUIStyle_Set_Custom_PropRichTextP12Il2CppObjecth
iD:__ZN7mecanim9animation29MotionOutputGetDeltaTransformEPKNS0_12MotionOutputE
mMe:_StrongNamePublicKeyBlob_Equals_m2407250401
VWk:_ValueCollection_System_Collections_IEnumerable_GetEnumerator_m1773104428_gshared
gAc:__ZN27PerformanceReportingManager21OnSceneTimingCallbackERK15SceneLoadTimingRKN4core12basic_stringIcNS3_20StringStorageDefaultIcEEEE
BF:__ZN8Animator14OnAddComponentEPN5Unity9ComponentE
O1i:_List_1_CheckMatch_m1184924052_gshared
Mlc:__Z43Transform_CUSTOM_INTERNAL_get_localRotationP12Il2CppObjectP11Quaternionf
zAd:__ZN5physx2Sc10NPhaseCoreD2Ev
aVc:__ZN5physx2Sc7BodySim18onConstraintDetachEv
Ynl:_Touch_get_fingerId_m4109475843_AdjustorThunk
n4b:__ZZL23RegisterLightPropertiesR22GenericPropertyBindingEN20Wrapper_LightColorr013SetFloatValueEPvf
Li:_emscripten_glGetTexParameteriv
Zsd:__ZN5physx7NpScene8simulateEfPNS_10PxBaseTaskEPvjb
vXi:_List_1_ToArray_m3752387798_gshared
Erd:__ZThn8_N5physx2Sc24ElementInteractionMarker10onActivateEj
I8k:_InternalEnumerator_1_get_Current_m3206960238_gshared
vQf:_RSAManaged_ImportParameters_m3060955884
xKf:_DeriveBytes__ctor_m3089550878
MAf:_NotImplementedException__ctor_m1305569814
Rbh:_ChannelData_CopyFrom_m4049054607
y$b:__Z13RegisterClassI4MeshEvv
RIk:__ZL94AxisEventData_t1524870173_CustomAttributesCacheGenerator_AxisEventData_get_moveDir_m3968662359P21CustomAttributesCache
hob:__ZN8PlayableD0Ev
Kxk:__ZL96MeshCollider_t2718867283_CustomAttributesCacheGenerator_MeshCollider_get_inflateMesh_m3430853575P21CustomAttributesCache
FT:__Z84Register_UnityEngine_Audio_AudioMixerPlayable_INTERNAL_CALL_SetAutoNormalizeInternalv
CL:__ZN12AudioManager8TransferI19StreamedBinaryWriteILb0EEEEvRT_
ouf:_WriteDelegate_Invoke_m2103848735
uYi:_List_1_get_Capacity_m4262042666_gshared
Qoh:_X509Crl_get_IssuerName_m756409840
jQb:__ZN18StreamedBinaryReadILb1EE21TransferSTLStyleArrayI13dynamic_arrayI11ColorRGBA32Lj4EEEEvRT_17TransferMetaFlags
eLi:_Dictionary_2_Do_CopyTo_TisDictionaryEntry_t3048875398_TisDictionaryEntry_t3048875398_m3350986264_gshared
FUk:_Transform_1_EndInvoke_m687617772_gshared
qph:_Locale_GetText_m512920887
r3b:__ZNK32RendererMaterialAnimationBinding12GetPPtrValueERKN11UnityEngine9Animation10BoundCurveE
$Qb:__Z18Transfer_BlittableI18StreamedBinaryReadILb0EELb0E8Vector2fEvRK29SerializationCommandArgumentsR31RuntimeSerializationCommandInfo
c2c:__ZN5physx18NpArticulationLink10clearForceENS_11PxForceMode4EnumE
Fcg:_RemotingConfiguration_get_ProcessId_m3870172209
DEc:__ZN5physx2Gu30distanceSegmentTriangleSquaredERKNS_6PxVec3ES3_S3_S3_S3_PfS4_S4_
Cue:__ZN2UI11CanvasGroup12CleanupClassEv
omf:_SortKey_ToString_m2406913228
wea:__ZN22LocalFileSystemHandler9MakeLocalER13FileEntryDatab
Y4h:__ZN6il2cpp2vm8Profiler10AllocationEP12Il2CppObjectP11Il2CppClass
j6e:_Convert_ToDateTime_m1020507389
Hmi:_ColorTween_AddOnChangedCallback_m3190875685
Kfe:__ZNSt3__23mapIN20TextRenderingPrivate7FontRefENS1_6OSFontENS_4lessIS2_EENS_9allocatorINS_4pairIKS2_S3_EEEEEixERS8_
hca:__Z13FormatOrderedPKcz
qYk:_Dictionary_2_CopyToCheck_m1657324124_gshared
isf:_Path_IsPathRooted_m1347207448
yeg:_ObjectManager_RegisterObjectInternal_m879109503
Kxi:_Array_get_swapper_TisVector4_t2243707581_m97441823_gshared
Dcd:__ZNK5physx15NpActorTemplateINS_7PxClothEE12getAggregateEv
uxa:__ZNSt3__26__sortIRNS_4lessIiEEPiEEvT0_S5_T_
Wce:__ZN14SafeBinaryRead21TransferSTLStyleArrayI10vector_mapINSt3__24pairIttEEfN20TextRenderingPrivate8FontImpl14KerningCompareENS2_9allocatorINS3_IS4_fEEEEEEEvRT_17TransferMetaFlags
U$b:__Z13RegisterClassI15QualitySettingsEvv
F3h:__ZN6il2cpp2vm6String21InitializeEmptyStringEP11Il2CppClass
K3a:__ZN25DeferredRenderLoopScratchD0Ev
nx:__ZN27AnimationLayerMixerPlayable14SetInputWeightEif
Xu:__ZN7mecanim9animation17EvaluateHumanPoseERKNS0_18ClipMuscleConstantERKNS0_15ClipMuscleInputEPKfRKNS0_12MotionOutputERNS_5human9HumanPoseE
Mhk:__ZL90UTF7Encoding_t741406939_CustomAttributesCacheGenerator_UTF7Encoding_GetHashCode_m359766848P21CustomAttributesCache
Rvi:_InputField_get_preferredHeight_m4231621064
TCd:__ZNK5physx2Cm12DelegateTaskINS_13PxsCCDContextEXadL_ZNS2_14postCCDAdvanceEPNS_10PxBaseTaskEEEE7getNameEv
gUb:__ZN15dense_hashtableINSt3__24pairIKiN4core17string_with_labelILi1EEEEEi18SInt32HashFunctionN14dense_hash_mapIiS5_S7_NS0_8equal_toIiEE13stl_allocatorIS6_L18MemLabelIdentifier1ELi16EEE9SelectKeyESA_SD_E9copy_fromERKSG_j
Yja:__ZN6Camera11ResetAspectEv
_rg:_Type_get_IsGenericType_m3396841573
JXa:__ZNSt3__227__insertion_sort_incompleteIRPFbP10GUIElementS2_EPS2_EEbT0_S7_T_
v3f:_X509BasicConstraintsExtension_get_HasPathLengthConstraint_m3788532759
Flb:__ZNK17InstancedPropInfo22FillInstancePropertiesER19ShaderPropertySheetjPK17BatchInstanceDatajRK15RenderNodeQueue
xla:__ZN22CreateGpuProgramOutputD2Ev
Sck:__ZL58_AssemblyBuilder_t418776366_CustomAttributesCacheGeneratorP21CustomAttributesCache
JNc:__ZNK5physx3Cct15ObstacleContext14getNbObstaclesEv
VMb:__Z18Transfer_BlittableI19StreamedBinaryWriteILb0EELb1EsEvRK29SerializationCommandArgumentsR31RuntimeSerializationCommandInfo
JIe:_RSACryptoServiceProvider_EncryptValue_m802714447
fWh:__ZN6il2cpp6icalls8mscorlib6System2IO6MonoIO9SetLengthE12Il2CppIntPtrxPi
rYd:__ZN5physx6shdfnd8PoolBaseINS_11NpAggregateENS0_19ReflectionAllocatorIS2_EEE12allocateSlabEv
jjk:__ZL76Convert_t2607082565_CustomAttributesCacheGenerator_Convert_ToByte_m932798552P21CustomAttributesCache
jld:__ZN5physx16NpParticleSystem23setParticleReadDataFlagENS_22PxParticleReadDataFlag4EnumEb
Ujd:__ZN5physx7NpScene26removeFromParticleBaseListERNS_14PxParticleBaseE
Zif:_DateTimeFormatInfo_GetInstance_m3133223810
sNf:_ModulusRing_BarrettReduction_m2802101099
jfd:__ZN5physx2Sc9ClothCore23setSelfCollisionIndicesEPKjj
$Qa:__ZN12HandlerChain4OpenER13FileEntryData14FilePermission16FileAutoBehavior
bAl:_EqualityComparer_1_get_Default_m2134906921_gshared
aGg:_MonoMethodInfo_GetParametersInfo_m3456861922
WLh:__ZN15dense_hashtableINSt3__24pairIK10KeyWrapperINS1_IPK10MethodInfoP11Il2CppClassEEEjEES9_17ReflectionMapHashIS8_EN14dense_hash_mapIS9_jSD_NS9_14EqualsComparerINS0_8equal_toIS8_EEEENS0_9allocatorISB_EEE9SelectKeyESI_SK_E6insertERKSB_
pAc:__ZN27PerformanceReportingManager29OnSceneLoadedAfterAwakeStaticEPS_iR18AwakeFromLoadQueueN19RuntimeSceneManager11LoadingModeE
Yra:__ZN18AssetBundleManager55CollectPreloadObjectsFromAssetBundleLoadAssetOperationsER13dynamic_arrayIiLj4EE
p5:__ZN14FileCacherReadD2Ev
Nwa:__ZN13RendererScene23UpdatePreviousFrameDataEii
bJe:_RSAPKCS1SignatureDeformatter_VerifySignature_m1825067195
Esh:__ZL25UnresolvedVirtualCall_123P12Il2CppObjectffPK10MethodInfo
Jfc:__Z50Register_UnityEngine_CullingGroup_FinalizerFailurev
iPi:_KeyValuePair_2_ToString_m2613351884_gshared
Pmb:__ZN14SafeBinaryRead21TransferSTLStyleArrayI10vector_mapI7Hash128iNSt3__24lessIS2_EE13stl_allocatorINS3_4pairIS2_iEEL18MemLabelIdentifier80ELi16EEEEEvRT_17TransferMetaFlags
Gra:__ZN27UnloadUnusedAssetsOperationD0Ev
Pjb:__ZN6Camera15ThreadedCleanupEv
jy:__ZN26AnimatorControllerPlayable6MemoryD2Ev
QKk:__ZL69ColorBlock_t2652774230_CustomAttributesCacheGenerator_m_DisabledColorP21CustomAttributesCache
WNg:_AnimatorControllerPlayable_SetIntegerString_m3665225671
m2g:_Scrollbar__ctor_m2244981801
bWh:__ZN6il2cpp6icalls8mscorlib6System2IO6MonoIO9GetLengthE12Il2CppIntPtrPi
Bfg:_ObjectRecord_get_HasPendingFixups_m670959802
rDd:__ZN5physx10PxsCCDPair12updateShapesEv
FJe:_SHA256Managed_HashCore_m4111458495
Bif:_CultureInfo_get_CompareInfo_m3085280862
Z7j:__ZL55Dictionary_2_t2276497324_CustomAttributesCacheGeneratorP21CustomAttributesCache
Msb:__ZN15StaticBatchInfo8TransferI14SafeBinaryReadEEvRT_
xah:_DllImportAttribute__ctor_m1165454237
zfg:_ObjectManager_RecordDelayedFixup_m1895730844
nXh:__ZNK15dense_hashtableINSt3__24pairIK10KeyWrapperIP14Il2CppIUnknownEjEES5_N6il2cpp5utils11PointerHashIS3_EEN14dense_hash_mapIS5_jSB_NS5_14EqualsComparerINS0_8equal_toIS4_EEEENS0_9allocatorIS7_EEE9SelectKeyESG_SI_E12test_deletedERK24dense_hashtable_iteratorIS7_S5_SB_SK_SG_SI_E
KZi:_List_1_System_Collections_IList_get_IsFixedSize_m3522184224_gshared
EJ:__ZN9AudioClip23VirtualRedirectTransferER18StreamedBinaryReadILb0EE
MTf:_ClientSessionInfo_CheckDisposed_m1394638186
zhg:_SByte_Parse_m2544167007
vUa:__ZNSt3__26vectorIPN9ShaderLab9SubShaderENS_9allocatorIS3_EEE21__push_back_slow_pathIKS3_EEvRT_
oef:_StackFrame_GetILOffset_m115192054
Jfd:__ZN5physx2Sc9ClothCore22removeCollisionCapsuleEj
Ogg:_RuntimeTypeHandle_GetHashCode_m3697629454_AdjustorThunk
YDf:_BigInteger__ctor_m2945783161
wVf:_TlsClientHello_Update_m1723542631
nek:__ZL96ProxyAttribute_t4031752430_CustomAttributesCacheGenerator_ProxyAttribute_IsContextOK_m2391079277P21CustomAttributesCache
tnf:_IndexOutOfRangeException__ctor_m3497760912
ALj:__Z60RuntimeInvoker_Void_t1841601450_AnimatorClipInfo_t3905751349PFvvEPK10MethodInfoPvPS4_
iWc:__ZN5physx16PxsIslandManager25setArticulationLinkHandleEjPvRKNS_20PxsIslandManagerHookIjLj4294967295EEE
b6g:_Shadow_set_useGraphicAlpha_m141905402
ik:_glCopyTexSubImage2D
xcg:_RealProxy_InternalGetTransparentProxy_m3415358600
A3b:__ZNK24RendererAnimationBinding13GetFloatValueERKN11UnityEngine9Animation10BoundCurveE
$W:__ZNK15DownloadHandler14HasPendingDataEv
kUl:_glActiveTexture__wrapper
f5i:_Collection_1_Insert_m3594407958_gshared
mvl:_Predicate_1_Invoke_m3001657933_gshared
rda:__ZN18ScreenManagerWebGL13SetShowCursorEb
W4h:__ZN6il2cpp6icalls8mscorlib6System7Convert24InternalFromBase64StringEP12Il2CppStringb
IKe:_SymmetricAlgorithm_CreateDecryptor_m4240570785
b8g:_Text_get_preferredWidth_m3352156860
jLk:__ZL87U3CDelayedDestroyDropdownListU3Ec__Iterator0_t3461999471_CustomAttributesCacheGeneratorP21CustomAttributesCache
wxg:_AssemblyCompanyAttribute__ctor_m1217508649
Fue:__ZN2UI13CanvasManager14GetRenderOrderEPKNS_6CanvasE
Z3c:__ZN5physx6shdfnd5ArrayIPNS_3Scb5ShapeENS0_15InlineAllocatorILj16ENS0_19ReflectionAllocatorIS4_EEEEE15growAndPushBackERKS4_
rGb:__Z18Transfer_BlittableI14SafeBinaryReadLb0E5RectTIfEEvRK29SerializationCommandArgumentsR31RuntimeSerializationCommandInfo
jDa:__ZN9GfxDevice18InsertCustomMarkerEi
dhj:_ReadOnlyCollection_1_System_Collections_Generic_IListU3CTU3E_RemoveAt_m878653284_gshared
djf:_DateTimeFormatInfo_GetFormat_m3676195179
aGa:__ZN14GfxContextGLES14GetFramebufferEv
lDj:__Z92RuntimeInvoker_Void_t1841601450_PlayableHandleU26_t4210769902_RuntimeObject_SByte_t454417549PFvvEPK10MethodInfoPvPS4_
Koa:__ZN6prcoreL21CreateRemapAnyBlitterE13TextureFormatS0_
jdi:__ZN6il2cpp2os5Event4WaitEjb
fac:__ZN17AnimationCurveTplIfE16StripInvalidKeysEv
GEi:_Array_InternalArray__ICollection_Add_TisKeyValuePair_2_t3716250094_m2381539361_gshared
hLf:_X509Extension_WriteLine_m2850991173
yte:__ZNK2UI6Canvas17GetSortingLayerIDEv
UZb:__ZL12HashLen0to16PKcj
PHh:_il2cpp_method_has_attribute
Z5b:__Z13RegisterClassI17GlobalGameManagerEvv
p6a:__ZN8Renderer24SetupNewRendererForSceneEv
QOk:__ZL70GridLayoutGroup_t1515633077_CustomAttributesCacheGenerator_m_StartAxisP21CustomAttributesCache
gIh:_il2cpp_type_get_class_or_element_class
SJ:__ZL16FMOD_ErrorString11FMOD_RESULT_599
izi:_Array_InternalArray__ICollection_Remove_TisInt64_t909078037_m2653583130_gshared
aWi:_List_1_AddCollection_m2628217188_gshared
png:_Thread_get_ExecutionContext_m922067206
Zwc:__Z35Transfer_Blittable_FixedBufferFieldI8JSONReadtEvRK29SerializationCommandArgumentsR31RuntimeSerializationCommandInfo
wTf:_RecordProtocol_get_Context_m2688493529
Kma:__ZN4PPtrI7TextureE8TransferI14SafeBinaryReadEEvRT_
OOd:__ZN5physx2Sc8ClothSim16addCollisionMeshEPKNS0_8ShapeSimE
W6b:__ZN14PlayableOutput6HandleEv
Ztb:__ZNK6Sprite22GetTypeVirtualInternalEv
S3g:_ScrollRect_get_viewport_m3177057249
ho:FUNCTION_TABLE_iiiiiiiiiiiiii
yxj:__Z100RuntimeInvoker_Void_t1841601450_SByte_t454417549_SByte_t454417549_Int32_t2071877448_SByte_t454417549PFvvEPK10MethodInfoPvPS4_
RTd:__ZN5physx6shdfnd5ArrayIPKNS_10PxsCCDBodyENS0_19ReflectionAllocatorIS4_EEE8recreateEj
T3c:__ZN5physx6shdfnd4sortINS_2Cm19PreallocatingRegionENS0_4LessIS3_EENS0_19ReflectionAllocatorIS3_EEEEvPT_jRKT0_RKT1_j
YAe:__ZN19UnityConnectService18OnPlayerQuitStaticEPS_
bnb:__ZN11Tetrahedron8TransferI24GenerateTypeTreeTransferEEvRT_
fje:_UNITY_tt_get_cmap_info
bSe:_DecoderExceptionFallback_GetHashCode_m2972426052
R9a:__ZN16ReflectionProbes8ScheduleEN18ReflectionProbeJob7JobTypeEP15ReflectionProbei
MKi:_Array_swap_TisCustomAttributeTypedArgument_t1498197914_m885124357_gshared
saj:_Collection_1_IsFixedSize_m3675221982_gshared
Vjk:__ZL77Convert_t2607082565_CustomAttributesCacheGenerator_Convert_ToSByte_m883113940P21CustomAttributesCache
URi:_Enumerator_MoveNext_m3293920409_AdjustorThunk
Nea:__Z18IsDirectoryCreatedRKN4core12basic_stringIcNS_20StringStorageDefaultIcEEEE
smd:__ZN5physx19NpRigidBodyTemplateINS_14PxRigidDynamicEE20setRigidDynamicFlagsENS_7PxFlagsINS_15PxRigidBodyFlag4EnumEhEE
FCg:_GenericTypeParameterBuilder_get_DeclaringType_m1652924692
Ese:__ZN2UI13CanvasManagerD2Ev
rgl:_Comparer_1__cctor_m3112251759_gshared
CNk:__ZL73ScrollRect_t1199013257_CustomAttributesCacheGenerator_m_VerticalScrollbarP21CustomAttributesCache
F2f:_X509KeyUsageExtension_ToString_m1992050580
pfe:_UNITY_FT_GlyphLoader_Done
NKj:__Z49RuntimeInvoker_Int32_t2071877448_Byte_t3683104436PFvvEPK10MethodInfoPvPS4_
Abh:_ConstructionCall__ctor_m1143766850
XWj:_GUIStyleState_Init_m2434147050
DKi:_Array_Sort_TisVector4_t2243707581_m414494280_gshared
sgl:_Comparer_1_System_Collections_IComparer_Compare_m3203078743_gshared
bld:__ZN5physx22NpParticleBaseTemplateINS_16PxParticleSystemENS_16NpParticleSystemEE20setMaxMotionDistanceEf
CUf:_Context_get_RandomSC_m1687420621
Ezi:_Array_InternalArray__ICollection_Remove_TisColor32_t874517518_m2452332023_gshared
t1j:_PlayableHandle_IsValid_m1005197654_AdjustorThunk
nDk:__ZL67GUISkin_t1436893342_CustomAttributesCacheGenerator_m_verticalSliderP21CustomAttributesCache
_Gd:__ZN5physx18ComputeSortedListsEPNS_2Cm10BitMapBaseINS_6shdfnd9AllocatorEEEjjPKjPPNS_8SapBox1DES7_PjSB_jRKNS_2Gu4AxesESB_RjSB_SG_RbSH_
FG:__ZN17AnimationPlayable8OwnAssetEP11NamedObject
Vje:_tt_cmap14_char_var_index
oVg:_Camera_INTERNAL_CALL_ScreenPointToRay_m2752248646
TRb:__Z35Transfer_Blittable_FixedBufferFieldI18StreamedBinaryReadILb0EEdEvRK29SerializationCommandArgumentsR31RuntimeSerializationCommandInfo
sle:_psh_globals_new
cuf:_FileStream_Seek_m950719389
yii:_StandaloneInputModule_set_allowActivationOnMobileDevice_m2631121618
v6e:_Decimal_stripStyles_m294582157
LQg:_AnimatorControllerPlayable_Play_m614561002
Tza:__ZN9GfxDevice20SetMaxBufferedFramesEi
nYi:_List_1_RemoveAll_m4125997475_gshared
QIj:__Z72RuntimeInvoker_Boolean_t3825574718_TypeU26_t1535498077_Int32_t2071877448PFvvEPK10MethodInfoPvPS4_
Dpj:__Z98RuntimeInvoker_Void_t1841601450_Int32_t2071877448_Int32_t2071877448_RuntimeObject_SByte_t454417549PFvvEPK10MethodInfoPvPS4_
kO:__ZN24AudioScriptBufferManagerD2Ev
JKl:dynCall_vdd
bue:__ZN2UIL17UnloadAllCanvasesEv
adb:__Z23ConvertIntegerToTypePtrIsEbPvR14SafeBinaryRead
$ck:__ZL54_MethodBase_t1935530873_CustomAttributesCacheGeneratorP21CustomAttributesCache
Zzl:_EqualityComparer_1__ctor_m99476293_gshared
g$c:__ZNK5physx14NpArticulation17releaseDriveCacheERNS_24PxArticulationDriveCacheE
ENf:_BigInteger_Incr2_m505983313
_Tg:_PCMReaderCallback_BeginInvoke_m3119095492
JZe:_ArrayList_get_Count_m523955479
isj:__Z96RuntimeInvoker_Void_t1841601450_SByte_t454417549_RuntimeObject_SByte_t454417549_SByte_t454417549PFvvEPK10MethodInfoPvPS4_
d$e:_FixedSizeArrayListWrapper_Remove_m1359458911
Yel:_InternalEnumerator_1_get_Current_m747506907_gshared
Soa:__ZN6prcoreL29inner_stretch_rgb565_bilinearEPKNS_9InnerInfoE
kfd:__ZNK5physx2Sc9ClothCore25getSelfCollisionStiffnessEv
hKh:__ZNK15dense_hashtableINSt3__24pairIK10KeyWrapperINS1_IPK14Il2CppAssemblyP11Il2CppClassEEEjEES9_17ReflectionMapHashIS8_EN14dense_hash_mapIS9_jSD_NS9_14EqualsComparerINS0_8equal_toIS8_EEEENS0_9allocatorISB_EEE9SelectKeyESI_SK_E12test_deletedEj
m2k:_EqualityComparer_1_System_Collections_IEqualityComparer_Equals_m3724603646_gshared
Obi:__ZN6il2cpp2os9FastMutex4LockEv
o7g:_Text_get_mainTexture_m813502234
Zci:__ZN6il2cpp8metadata19Il2CppSignatureHash4HashERKNS_5utils13dynamic_arrayIPK10Il2CppTypeLj4EEE
KAh:__ZNK15dense_hashtableINSt3__24pairIK10KeyWrapperIN6il2cpp5utils13dynamic_arrayIPK10Il2CppTypeLj4EEEEPFvvEEESA_NS3_8metadata19Il2CppSignatureHashEN14dense_hash_mapISA_SD_SG_NSA_14EqualsComparerINSF_22Il2CppSignatureCompareEEENS0_9allocatorISE_EEE9SelectKeyESK_SM_E12test_deletedEj
R2a:__ZNK14RenderSettings19GetFlatAmbientColorEv
_ua:__ZN6prcoreL10inner_flipILj4EEEvPhS1_j
oAb:__ZN18StreamedBinaryReadILb0EE21TransferSTLStyleArrayI10vector_mapIPKN5Unity4TypeE7Hash128NSt3__24lessIS6_EENS8_9allocatorINS8_4pairIS6_S7_EEEEEEEvRT_17TransferMetaFlags
lz:__ZNK27StateMachineBehaviourPlayer15IsSenderEnabledEv
VNg:_AnimatorControllerPlayable_SetInteger_m881630854
U4i:_Collection_1_System_Collections_ICollection_get_IsSynchronized_m1924133708_gshared
UQe:_String_Concat_m56707527
mmc:__Z40Register_UnityEngine_Transform_SetParentv
mYf:_SslClientStream_get_HaveRemoteValidation2Callback_m3555576758
rwj:__Z56RuntimeInvoker_TimeSpan_t3430258949_TimeSpan_t3430258949PFvvEPK10MethodInfoPvPS4_
Svb:__ZN14Texture2DArray17UploadToGfxDeviceEv
zgj:_ReadOnlyCollection_1_System_Collections_Generic_IListU3CTU3E_Insert_m4216310986_gshared
Jcj:_ReadOnlyCollection_1_System_Collections_Generic_IListU3CTU3E_set_Item_m1532495847_gshared
hN:__Z14FMODMemoryFreePvjPKc
W4k:_InternalEnumerator_1_System_Collections_IEnumerator_Reset_m3731327620_AdjustorThunk
kje:_tt_cmap0_validate
IJk:__ZL104PointerEventData_t1599784723_CustomAttributesCacheGenerator_PointerEventData_get_worldNormal_m1704987468P21CustomAttributesCache
rrl:_YieldInstruction_t3462875981_marshal_pinvoke_cleanup
wMe:_Evidence_get_IsSynchronized_m1427392003
Lme:_cf2_glyphpath_moveTo
Mll:_SharedBetweenAnimatorsAttribute__ctor_m1221241062
Vwd:__ZN5physx3Scb4Body9syncStateEv
Nul:_WithShortBarrel_GetAmmoCount_m3647615410
Lji:_AnimationTriggers_set_disabledTrigger_m609579531
G9j:__ZL47File_t1930543328_CustomAttributesCacheGeneratorP21CustomAttributesCache
ibf:_DateTimeOffset__ctor_m1796624924
Eeh:_Identity_get_ChannelSink_m3989446673
HJd:__ZN5physx20SingleAABBUpdateTaskD0Ev
q3c:__ZN5physx12PxsRigidBody23updatePoseDependenciesVERNS_10PxsContextE
_ei:_BaseRaycaster_OnDisable_m1716508791
Uv:__ZN7mecanim23TransformValueArrayLoopEiiiRKN4math4trsXES3_RNS_10ValueArrayEf
fbl:_InternalEnumerator_1_MoveNext_m1741571735_gshared
vXd:__ZN5physx2Gu12TriangleMesh4loadERNS_13PxInputStreamE
j5j:__ZL82Enum_t2459695545_CustomAttributesCacheGenerator_Enum_GetUnderlyingType_m3513899012P21CustomAttributesCache
$8h:_GC_is_heap_ptr
i8i:_Collection_1_IsValidItem_m429993695_gshared
QTh:__GLOBAL__sub_I_Assembly_cpp
XVf:_TlsServerSettings_set_CertificateRequest_m3419519893
qra:__Z21PlayerStartFirstSceneb
wC:__ZN7mecanim5human10RetargetToEPKNS0_5HumanEPKNS0_9HumanPoseES6_RKN4math4trsXEPS4_PNS_8skeleton13SkeletonPoseTIS8_EESF_
Nv:__ZN7mecanim9animation8SeekClipERKNS0_12StreamedClipERNS0_18StreamedClipMemoryEf
csg:_Type_get_IsGenericParameter_m161434704
iDg:_MethodBuilder_get_Attributes_m3678061338
Pm:_emscripten_glIsTexture
bZj:_Mathf_Clamp_m3542052159
L_e:_ArrayListWrapper_CopyTo_m793444109
hkk:__ZL79Convert_t2607082565_CustomAttributesCacheGenerator_Convert_ToUInt16_m3265369225P21CustomAttributesCache
ul:_emscripten_glHint
UNj:__Z33RuntimeInvoker_Color32_t874517518PFvvEPK10MethodInfoPvPS4_
Zpe:_ft_var_readpackeddeltas
Baf:_DateTime_AddMilliseconds_m1813199744_AdjustorThunk
fhg:_SByte_System_IConvertible_ToSByte_m108774324_AdjustorThunk
mDg:_MethodBuilder_GetParameterCount_m467267889
Qjc:__Z65PlayableOutputHandle_CUSTOM_INTERNAL_CALL_GetPlayableOutputTypeOfR15HPlayableOutput
SOb:__Z35Transfer_Blittable_FixedBufferFieldI18StreamedBinaryReadILb1EEtEvRK29SerializationCommandArgumentsR31RuntimeSerializationCommandInfo
Bpi:_FontData_get_lineSpacing_m4145828566
Q1e:_Hashtable_get_IsSynchronized_m836780937
V5f:_X509ChainStatus_t4278378721_marshal_pinvoke
lQf:_RSAManaged__ctor_m1680944437
Sm:_SDL_UpperBlit
yTd:__ZN5physx2Cm12DelegateTaskINS_2Sc5SceneEXadL_ZNS3_13ccdBroadPhaseEPNS_10PxBaseTaskEEEED0Ev
$Vj:_GUIStyle_op_Implicit_m781448948
x3a:__Z35GetTextureDecodeValuesWithIntensity16TextureUsageMode17TextureColorSpace10ColorSpacef
OXe:_Byte_GetHashCode_m2885528842_AdjustorThunk
_ad:__ZNK5physx7NpShape16getContactOffsetEv
VId:__ZN5physx14PxsAABBManager21processAggregatePairsEPKNS_19AggregateSortedDataE
JXk:_Dictionary_2_OnDeserialization_m2092139626_gshared
$7d:_PxCreateCooking
HDb:__ZN14SafeBinaryRead20OverrideRootTypeNameEPKc
xvh:__ZNK10KeyWrapperIPK22Il2CppGenericParameterE14EqualsComparerINSt3__28equal_toIS2_EEEclERKS3_SA_
t5:__ZN14FileCacherRead16UnlockCacheBlockEj
cvg:_UIntPtr_get_Size_m537421489
lKf:_X509Certificate_GetUnsignedBigInteger_m3491353542
ide:__ZNSt3__26vectorIN4core12basic_stringIcNS1_20StringStorageDefaultIcEEEE13stl_allocatorIS5_L18MemLabelIdentifier34ELi16EEE6assignINS_11__wrap_iterIPS5_EEEENS_9enable_ifIXaasr21__is_forward_iteratorIT_EE5valuesr16is_constructibleIS5_NS_15iterator_traitsISF_E9referenceEEE5valueEvE4typeESF_SF_
FCk:__ZL90Event_t3028476042_CustomAttributesCacheGenerator_Event_Internal_GetMousePosition_m38523489P21CustomAttributesCache
m6c:__ZNK5physx12NpBatchQuery23getFilterShaderDataSizeEv
iJb:__Z18Transfer_BlittableI17RemapPPtrTransferLb1E8Vector3fEvRK29SerializationCommandArgumentsR31RuntimeSerializationCommandInfo
Cak:__ZL57StackBehaviour_t1390406961_CustomAttributesCacheGeneratorP21CustomAttributesCache
EKl:dynCall_iifii
sd:_emscripten_glUniform1f
d6d:__ZN5physx7profile11EventBufferINS_24PxDefaultContextProviderENS_6shdfnd6MutexTINS0_26WrapperReflectionAllocatorIhEEEENS0_14ScopedLockImplIS7_EENS_24PxProfileNullEventFilterEE10doAddEventINS0_17RelativeStopEventEEEvhtRKT_
Qfe:__Z20ParseImageParametersR11UTF16StringRiRN20TextRenderingPrivate16TextFormatChangeE
xd:_emscripten_glUniform1i
C9k:_InternalEnumerator_1_System_Collections_IEnumerator_Reset_m651165750_AdjustorThunk
zDb:__ZN13MonoBehaviour9CallAwakeEv
b7:__Z33UnregisterDeviceEventCallbackImplPFv23UnityGfxDeviceEventTypeE
zSd:__ZN5physx2Sc19ShapeInstancePairLL23postIslandGenSecondPassEv
G2d:__ZN14PhysicsManager23VirtualRedirectTransferER19StreamedBinaryWriteILb0EE
IVb:__ZN9ShaderLab16SerializedTagMapaSERKS0_
EAi:_SetPropertyUtility_SetStruct_TisFillMethod_t1640962579_m1867757822_gshared
vV:__ZN11UnityEngine15CloudWebService16SessionContainer20RestoreSessionHeaderERKN4core12basic_stringIcNS2_20StringStorageDefaultIcEEEES8_RNS0_13SessionHeaderE
j7d:__ZN5physx26PxPhysicsInsertionCallbackD2Ev
CEe:__ZN22UnityWebRequestManager13BackendRetainEv
edc:__ZN8Material28ApplyMaterialPropertyDrawersEv
iCd:__ZN5physx2Sq16BucketPrunerCore12updateObjectERKNS_9PxBounds3ERKNS0_13PrunerPayloadE
MRd:__ZN5physx18PxsDynamicsContext23atomIntegrationParallelEfPKPNS_11PxsBodyCoreEPKPNS_12PxsRigidBodyEjPKNS_2Cm13SpatialVectorEPNS_13PxcSolverBodyEPNS_17PxcSolverBodyDataEPSA_RjSI_RNS_10PxBaseTaskE
bwh:__ZN24dense_hashtable_iteratorINSt3__24pairIK10KeyWrapperIPK22Il2CppGenericParameterEP11Il2CppClassEES6_N6il2cpp5utils11PointerHashIS4_EEN14dense_hash_mapIS6_S9_SE_NS6_14EqualsComparerINS0_8equal_toIS5_EEEENS0_9allocatorISA_EEE9SelectKeyESJ_SL_E30advance_past_empty_and_deletedEv
ED:__ZN11UnityEngine9Animation27CreateAvatarBindingConstantER9TransformPKN7mecanim9animation14AvatarConstantERNS3_6memory9AllocatorE
mCb:__ZN14SafeBinaryRead21TransferSTLStyleArrayINSt3__26vectorIN30RuntimeInitializeOnLoadManager9ClassInfoE13stl_allocatorIS4_L18MemLabelIdentifier12ELi16EEEEEEvRT_17TransferMetaFlags
Nvg:_UnitySerializationHolder_GetObjectData_m2280028722
nug:_UInt64_System_IConvertible_ToDateTime_m2412118561
Tcc:__ZN9BlobWriteC2ER13dynamic_arrayIhLj16EE24TransferInstructionFlags19BuildTargetPlatform
K3:__ZN14MessageHandler3GetEv
tUj:_GUISkin_set_verticalScrollbarThumb_m2647835739
Ld:_emscripten_glAttachShader
qfj:_ReadOnlyCollection_1__ctor_m1539890895_gshared
Sza:__ZN9GfxDevice13SetActiveTierE12GraphicsTier
EQi:_Enumerator_System_Collections_IEnumerator_get_Current_m3079057684_AdjustorThunk
wzi:_Array_InternalArray__ICollection_Remove_TisSingle_t2076509932_m2568053761_gshared
Yyb:__ZNSt3__26vectorIN4core12basic_stringIcNS1_20StringStorageDefaultIcEEEENS_9allocatorIS5_EEE6assignIPS5_EENS_9enable_ifIXaasr21__is_forward_iteratorIT_EE5valuesr16is_constructibleIS5_NS_15iterator_traitsISC_E9referenceEEE5valueEvE4typeESC_SC_
bHf:_KeyPairPersistence_get_UserPath_m3433052783
oLc:__ZN5physx2Gu19GetRaycastFuncTableEv
qce:__Z49Register_UnityEngine_MeshCollider_get_inflateMeshv
$wk:__ZL96Rigidbody_t4233889191_CustomAttributesCacheGenerator_Rigidbody_INTERNAL_set_velocity_m3384354677P21CustomAttributesCache
$Oj:__Z36RuntimeInvoker_Enumerator_t975728254PFvvEPK10MethodInfoPvPS4_
x4j:__ZL58Decimal_t724701077_CustomAttributesCacheGenerator_MinusOneP21CustomAttributesCache
IBi:_Array_InternalArray__IEnumerable_GetEnumerator_TisKeyframe_t1449471340_m3949799719_gshared
aGb:__Z18Transfer_BlittableI14SafeBinaryReadLb0E11QuaternionfEvRK29SerializationCommandArgumentsR31RuntimeSerializationCommandInfo
agl:_Comparer_1__ctor_m3855093372_gshared
rSd:__ZN5physx17EdgeChangeManager23cleanupBrokenEdgeEventsEPKNS_4EdgeE
BRb:__Z18Transfer_BlittableI18StreamedBinaryReadILb0EELb1E12PropertyNameEvRK29SerializationCommandArgumentsR31RuntimeSerializationCommandInfo
vtk:__ZL99MonoBehaviour_t1158329972_CustomAttributesCacheGenerator_MonoBehaviour_set_useGUILayout_m2666356651P21CustomAttributesCache
dui:_InputField_get_inputType_m2187991661
q_:_tlsf_walk_heap
LJf:_PKCS12_Decode_m731190390
xSh:__ZNK15dense_hashtableINSt3__24pairIK10KeyWrapperIP11Il2CppClassES4_EES5_N6il2cpp8metadata16SZArrayClassHashEN14dense_hash_mapIS5_S4_SA_NS5_14EqualsComparerINS9_19SZArrayClassCompareEEENS0_9allocatorIS7_EEE9SelectKeyESE_SG_E10test_emptyERK24dense_hashtable_iteratorIS7_S5_SA_SI_SE_SG_E
jGh:__ZN6il2cpp2vm7Runtime6InvokeEPK10MethodInfoPvPS5_PP15Il2CppException
hZj:_Mathf_DeltaAngle_m1024687732
ljh:_Reference_get_IgnoreCase_m2810892634
Bb:invoke_vif
dGk:__ZL99SendMouseEvents_t3505065032_CustomAttributesCacheGenerator_SendMouseEvents_SetMouseMoved_m532965689P21CustomAttributesCache
Cb:invoke_vid
CIl:__ZNSt3__212basic_stringIcNS_11char_traitsIcEENS_9allocatorIcEEE6insertEjPKc
khk:__ZL67UnverifiableCodeAttribute_t765455733_CustomAttributesCacheGeneratorP21CustomAttributesCache
Eb:invoke_vii
pqk:__ZL86Component_t3819376471_CustomAttributesCacheGenerator_Component_SendMessage_m3615678587P21CustomAttributesCache
mvd:__ZN5physx13NpVolumeCacheD2Ev
FNk:__ZL82ScrollRect_t1199013257_CustomAttributesCacheGenerator_m_HorizontalScrollbarSpacingP21CustomAttributesCache
wri:_LayoutGroup_get_padding_m1653511445
Buh:__ZL25UnresolvedVirtualCall_228P12Il2CppObjecti22UICharInfo_t3056636800PK10MethodInfo
nfb:__ZN12TLSAllocatorI14StackAllocatorE16ThreadInitializeEP13BaseAllocator
h_e:_ArrayList_Sort_m2778059513
ani:_FloatTween_TweenValue_m3881535116_AdjustorThunk
rGk:__ZL107StackTraceUtility_t1881293839_CustomAttributesCacheGenerator_StackTraceUtility_SetProjectFolder_m2154926761P21CustomAttributesCache
mPd:__ZThn8_N5physx2Sc35ParticleElementRbElementInteraction12onDeactivateEj
Bri:_LayoutGroup_SetChildAlongAxis_m2732017156
xve:__Z41CanvasRenderer_CUSTOM_DisableRectClippingP12Il2CppObject
cPf:_MD2_Create_m539024737
n3e:_SortedList_get_SyncRoot_m3299704254
dFd:__ZN5physx16PxsThreadContextC2EPNS_10PxsContextE
P3e:_Slot_t2267560602_marshal_pinvoke
Ayj:__Z112RuntimeInvoker_Void_t1841601450_RuntimeObject_Int32_t2071877448_Int32_t2071877448_RuntimeObject_SByte_t454417549PFvvEPK10MethodInfoPvPS4_
hbg:_SoapAttribute_get_XmlNamespace_m1436066016
OQa:__ZN25SingleBlockMemoryFileDataD0Ev
lhb:__ZNSt3__26vectorI14ConstantStringNS_9allocatorIS1_EEE6assignINS_11__wrap_iterIPS1_EEEENS_9enable_ifIXaasr21__is_forward_iteratorIT_EE5valuesr16is_constructibleIS1_NS_15iterator_traitsISA_E9referenceEEE5valueEvE4typeESA_SA_
HBc:__ZN5physx3Cct10Controller4moveERNS0_11SweptVolumeERKNS_6PxVec3EffRKNS_19PxControllerFiltersEPKNS_17PxObstacleContextEb
qV:__ZN11UnityEngine15CloudWebService16SessionContainer21ConvertFromFolderTimeERKN4core12basic_stringIcNS2_20StringStorageDefaultIcEEEEPjPt
Fmd:__ZN5physx14NpRigidDynamic17setAngularDampingEf
wHb:__ZNSt3__26vectorI8GUIStyle13stl_allocatorIS1_L18MemLabelIdentifier1ELi16EEE7reserveEj
Psl:_EncumberedPistol__ctor_m4208878732
MTh:__ZN6il2cpp6icalls8mscorlib6System9Threading6Thread27GetSerializedCurrentCultureEP12Il2CppThread
kcl:_InternalEnumerator_1_Dispose_m3765482968_AdjustorThunk
SDi:_Array_InternalArray__IndexOf_TisUInt32_t2149682021_m3231515987_gshared
K6k:_InternalEnumerator_1_MoveNext_m1667794624_AdjustorThunk
r1b:__Z31CalculateHierarchyTransformType23TransformAccessReadOnly
N$b:__Z13RegisterClassI11TimeManagerEvv
ZM:__ZN4FMOD8ChannelI11setPositionEjj
Rtj:__Z43RuntimeInvoker_Boolean_t3825574718_IntPtr_tPFvvEPK10MethodInfoPvPS4_
$qj:__Z136RuntimeInvoker_IntPtr_t_RuntimeObject_Int32_t2071877448_Int32_t2071877448_Int32_t2071877448_Int32_t2071877448_MonoIOErrorU26_t1029615899PFvvEPK10MethodInfoPvPS4_
EYg:_Component_SendMessage_m913946877
W6h:_GC_set_fl_marks
QXc:__ZN5physx6shdfnd8PoolBaseINS_2Sc12SimStateDataENS0_19ReflectionAllocatorIS3_EEE17releaseEmptySlabsEv
iba:__ZN17BaseObjectManager13StaticDestroyEPv
Xml:_TextGenerationSettings_CompareVector2_m592645251
sGk:__ZL108StackTraceUtility_t1881293839_CustomAttributesCacheGenerator_StackTraceUtility_ExtractStackTrace_m1593581205P21CustomAttributesCache
Lbf:_DBNull_System_IConvertible_ToChar_m3344298044
UEj:__Z65RuntimeInvoker_Boolean_t3825574718_RuntimeObject_Int64_t909078037PFvvEPK10MethodInfoPvPS4_
wFc:__ZN5physx2Gu22closestPtPointTriangleEPNS_6shdfnd3aos5Vec3VES4_S4_Rj
YKf:_X509Certificate_GetObjectData_m3888130484
IBb:__ZNSt3__26vectorIN15ResourceManager10DependencyE13stl_allocatorIS2_L18MemLabelIdentifier51ELi16EEEC2INS_11__wrap_iterIPS2_EEEET_SB_RKS5_PNS_9enable_ifIXaasr21__is_forward_iteratorISB_EE5valuesr16is_constructibleIS2_NS_15iterator_traitsISB_E9referenceEEE5valueEvE4typeE
L5c:__ZN5physx2Cm8PtrTableC2Ev
FZg:_CustomYieldInstruction_Reset_m3409422382
Jfh:_LinkStack_Push_m2660199875
TL:__ZN4FMOD6Reverb13setPropertiesEPK22FMOD_REVERB_PROPERTIES
yhd:__ZNK5physx22NpParticleBaseTemplateINS_15PxParticleFluidENS_15NpParticleFluidEE14getRestitutionEv
WZa:__ZN9DepthPass13PrepareSubsetEjRK10RenderNodeifRK17ShaderReplaceData
nId:__ZN5physx16PxsBroadPhaseMBP6updateEjjRKNS_23PxcBroadPhaseUpdateDataEPNS_10PxBaseTaskE
z9c:__ZN5physx9NpPhysics18createRigidDynamicERKNS_11PxTransformE
FSc:__ZN5physx6shdfnd5ArrayIPvNS0_19ReflectionAllocatorINS_2Sc18TriggerInteractionEEEE15growAndPushBackERKS2_
Qmh:_X509CertificateCollection_Add_m4008705157
zag:_MonoMethodMessage_set_Uri_m3218581120
I8b:__Z35SetMeshComponentFromArrayFromScriptR4Mesh30InternalScriptingShaderChannel34InternalScriptingVertexChannelTypei17ScriptingArrayPtri
N1g:_RectMask2D_get_canvasRect_m176109918
vna:__ZN4PPtrI6ShaderE8TransferI19StreamedBinaryWriteILb0EEEEvRT_
B7i:_Collection_1_IsFixedSize_m1816795498_gshared
QIc:__ZN5physx2Gu17intersectRayAABB2ERKNS_6shdfnd3aos5Vec3VES5_S5_S5_RKNS2_6FloatVERS6_S9_
Ir:__ZN4core20StringStorageDefaultIcE6assignEPKcj
Had:__ZNK5physx7NpShape17getSphereGeometryERNS_16PxSphereGeometryE
SKc:__ZL18intersectAnyVsMeshILi1EEbPKN5physx2Gu6SphereEPKNS1_7CapsuleEPKNS1_3BoxERKNS1_13RTreeMidphaseERKNS0_11PxTransformERKNS0_11PxMeshScaleEP14LimitedResults
p_h:__ZN15dense_hashtableINSt3__24pairIK10KeyWrapperIP12Il2CppObjectEN6il2cpp2gc9CachedCCWEEES5_NS7_5utils11PointerHashIS3_EEN14dense_hash_mapIS5_S9_SD_NS5_14EqualsComparerINS0_8equal_toIS4_EEEENS0_9allocatorISA_EEE9SelectKeyESI_SK_E3endEv
pCb:__Z14resize_trimmedINSt3__26vectorIi13stl_allocatorIiL18MemLabelIdentifier12ELi16EEEEEvRT_j
iii:_MouseButtonEventData_ReleasedThisFrame_m482758300
cRh:__ZN15dense_hashtableINSt3__24pairIK10KeyWrapperINS1_IP11Il2CppClassjEEES4_EES6_N6il2cpp8metadata14ArrayClassHashEN14dense_hash_mapIS6_S4_SB_NS6_14EqualsComparerINSA_17ArrayClassCompareEEENS0_9allocatorIS8_EEE9SelectKeyESF_SH_E9copy_fromERKSK_j
YVc:__ZN5physx6shdfnd5ArrayIPvNS0_15InlineAllocatorILj256ENS0_19ReflectionAllocatorINS_2Cm5BlockIhLj128EEEEEEEE15growAndPushBackERKS2_
i$e:_ReadOnlyArrayListWrapper_set_Item_m2199017141
F7a:__ZN6Camera6SetFarEf
Lmh:_DeriveBytes_DeriveIV_m3343375195
yLe:_X509Certificate_ToString_m1582581274
pIe:_RNGCryptoServiceProvider_GetBytes_m167497991
Apa:__ZN6prcoreL12RemapGenericI17TexFormatABGR888817TexFormatARGB8888EEvPKNS_9InnerInfoE
Khb:__ZN11GameManager17MainThreadCleanupEv
I8i:_Collection_1_GetEnumerator_m1417525918_gshared
cxe:__Z50Register_UnityEngine_UISystemProfilerApi_EndSamplev
KAj:__Z60RuntimeInvoker_Boolean_t3825574718_PlayableOutput_t988259697PFvvEPK10MethodInfoPvPS4_
JAg:_TypeBuilder_get_Assembly_m492491492
v9i:_Collection_1_InsertItem_m1225429801_gshared
CRf:_CipherSuite_set_Context_m4127897124
jdd:__ZNK5physx7NpCloth24getParticleAccelerationsEPNS_6PxVec4E
Moe:_UNITY_tt_slot_init
VTa:__ZZ23InitPlayerLoopCallbacksvEN41PostLateUpdateUpdateResolutionRegistrator7ForwardEv
nGe:_HMACSHA512__cctor_m1167457383
SSb:__Z25scripting_array_class_get17ScriptingClassPtrj
kvc:__ZL22Transfer_ManagedObjectI9JSONWriteLb1EEvRK29SerializationCommandArgumentsR31RuntimeSerializationCommandInfo
mJ:__ZNK10SampleClip22GetTypeVirtualInternalEv
nBa:__ZN9GfxDevice20DestroyRenderSurfaceER12ObjectHandleI17RenderSurface_TagP17RenderSurfaceBaseE
Zba:__ZN18SpriteAtlasManagerC2Ev
DOa:__ZN9GfxDevice22UpdateComputeResourcesEjPK9TextureIDPK16TextureDimensionPKijPKjjPK15ComputeBufferIDS7_PK20ComputeBufferCounterjSC_S2_S5_S9_SF_
H5b:__ZN12_GLOBAL__N_15qAsinEff
iLi:_Dictionary_2_Do_ICollectionCopyTo_TisKeyValuePair_2_t3749587448_m2536766696_gshared
ofb:__ZN12TLSAllocatorI14StackAllocatorE13ThreadCleanupEv
kQ:__Z18GetAudioManagerPtrv
UCi:_Array_IndexOf_TisRuntimeObject_m1815604637_gshared
vTi:_List_1_GetEnumerator_m2837081829_gshared
F4h:__ZThn4_N6il2cpp2vm13ComObjectBase16MarshalInterfaceEP13Il2CppIStreamRK10Il2CppGuidPvjS7_j
Fwb:__ZN4Mesh27SwizzleVertexColorsIfNeededEb
Wfb:__Z27FindActiveTransformWithPathPKc
dWg:_CanvasGroup_get_alpha_m1304564441
_qd:__ZN5physx16PxsIslandManager14setEdgeRigidCMERKNS_20PxsIslandManagerHookIjLj4294967295EEEPNS_17PxsContactManagerE
Oib:__ZN12BaseRendererD0Ev
Tcb:__Z29StdTemplateConversionFunctionIbyEbPvR14SafeBinaryRead
dia:__ZN7Texture5ResetEv
T_c:__ZN5physx14NpArticulation25setStabilizationThresholdEf
qLf:_SecurityParser_OnEndElement_m2909940377
OWd:__ZN5physx2Gu11HeightField7releaseEv
S$a:__ZNK6Camera7GetNearEv
sJa:__ZN7ApiGLES11UnmapBufferEjN2gl12BufferTargetE
Q4h:__ZN6il2cpp5utilsL24Utf32CharToSurrogatePairEjRA2_Ds
wqb:__Z25GetNextAllowedTextureSizeib13TextureFormat
tea:__ZN20LocalFileSystemWebGL4CopyER13FileEntryDataS1_
LCg:_GenericTypeParameterBuilder_get_ContainsGenericParameters_m1449092549
RX:__ZN19CloudServiceHandler6RetainEv
Oci:__ZN6il2cpp2os9Semaphore4WaitEb
bNe:_StrongName_Equals_m67226644
bjb:__ZN12BaseRenderer20FlattenToRenderQueueER15RenderNodeQueueRK20DeprecatedSourceData
LBg:_FieldBuilder_get_Attributes_m2174064290
POd:__ZN5physx2Sc8ClothSim23addCollisionHeightfieldEPKNS0_8ShapeSimE
Pxf:_UnmanagedMemoryStream_get_Length_m587008850
fsa:__Z34scripting_liveness_calculation_endPv
t0h:__ZN6il2cpp2os6ThreadC2Ev
SNe:_SecurityFrame_InitFromRuntimeFrame_m45195821
$9j:__ZL53TextReader_t1561828458_CustomAttributesCacheGeneratorP21CustomAttributesCache
J4f:_X509Chain_IsSignedWith_m292245392
iv:__ZN21AnimationClipPlayable22ProcessAnimationNoClipEPK35AnimationPlayableEvaluationConstantPK32AnimationPlayableEvaluationInputP33AnimationPlayableEvaluationOutput
dzi:_Array_InternalArray__ICollection_Remove_TisDateTime_t693205669_m1275668216_gshared
LYk:_Dictionary_2__ctor_m871840915_gshared
Vqe:__ZNK19TextRenderingModule8TMGenGetERK11UTF16StringPN13TextRendering4FontE10TextAnchor13TextAlignmentfffbb11ColorRGBA32fii
Hwc:__Z18Transfer_BlittableI8JSONReadLb0E8Vector3fEvRK29SerializationCommandArgumentsR31RuntimeSerializationCommandInfo
Vbh:_ChannelServices__cctor_m3534779830
FSh:__ZN6il2cpp2vm6Thread6DetachEP12Il2CppThread
Cke:_Render_Single_Pass
n7e:_Convert_ToInt16_m416789348
x2c:__ZNK5physx18NpArticulationLink13isSubordinateEv
urh:__ZL24UnresolvedVirtualCall_59P12Il2CppObjectS0_aPK10MethodInfo
$Al:_EqualityComparer_1__cctor_m2666196678_gshared
mll:_MovedFromAttribute__ctor_m1535041828
Fml:_StateMachineBehaviour_OnStateIK_m3200380538
WGh:_il2cpp_class_get_name
xRk:_Enumerator_get_CurrentValue_m3147984131_AdjustorThunk
cSj:_GUIStyle_Init_m3872198731
KD:__ZN7mecanim8skeleton30SkeletonBuildReverseIndexArrayEPiPKiPKNS0_8SkeletonES6_
_nc:__Z19GetGUIBlendMaterialv
aIi:_Array_InternalArray__set_Item_TisInt64_t909078037_m3898394929_gshared
f1h:__ZN6il2cpp2os10ThreadImpl5SleepEjb
Cel:_InternalEnumerator_1_System_Collections_IEnumerator_Reset_m3669601605_AdjustorThunk
BHd:__ZN5physx14SapPairManager12shrinkMemoryEv
iph:_X509ExtensionCollection_System_Collections_IEnumerable_GetEnumerator_m2600902401
vvc:__ZN9JSONWrite8TransferI13GUIStyleStateEEvRT_PKc17TransferMetaFlags
a$d:__ZN5physx6shdfnd8internal7median3IjKNS_19SortBoundsPredicateEEEvPT_iiRT0_
Q2k:_EqualityComparer_1_System_Collections_IEqualityComparer_Equals_m2389655864_gshared
fMi:_PlayableExtensions_SetInputCount_TisPlayable_t1896841784_m86933189_gshared
QZk:_Dictionary_2_System_Collections_Generic_IEnumerableU3CSystem_Collections_Generic_KeyValuePairU3CTKeyU2CTValueU3EU3E_GetEnumerator_m3968773920_gshared
B_f:_ListDictionary_FindEntry_m432748847
UQl:_glBindSampler__wrapper
Fwl:_UnityAction_1_Invoke_m3523417209_gshared
rg:_emscripten_set_mouseup_callback
RTb:__Z14resize_trimmedINSt3__26vectorIN9ShaderLab14SerializedPassENS0_9allocatorIS3_EEEEEvRT_j
sOa:__ZN9GfxDevice27SetRandomWriteTargetTextureEi9TextureID
FXg:_Collision_get_gameObject_m1370363400
sHj:__Z58RuntimeInvoker_Boolean_t3825574718_SpriteState_t1353336012PFvvEPK10MethodInfoPvPS4_
Mtd:__ZN5physx7NpScene22removeBroadPhaseRegionEj
IBa:__ZN9GfxDevice47SwitchColorRenderSurfaceOutOfFastMemoryPlatformEP17RenderSurfaceBaseb
YSc:__ZL34GeomOverlapCallback_CapsuleCapsuleRKN5physx10PxGeometryERKNS_11PxTransformES2_S5_PNS_2Gu12TriggerCacheE
Cda:__ZNK18ScreenManagerWebGL8GetWidthEv
Usd:__ZNK5physx7NpScene23getFilterShaderDataSizeEv
YKl:dynCall_iiifii
dDh:__ZN6il2cpp2vm13MetadataCache33GetFieldDefaultValueDataFromIndexEi
iri:_GridLayoutGroup_set_startAxis_m1635162426
jJ:__ZN10SampleClipD2Ev
Beh:_SynchronizationAttribute_EnterContext_m2984912761
u5j:__ZL73Enum_t2459695545_CustomAttributesCacheGenerator_Enum_ToObject_m2601523252P21CustomAttributesCache
Nif:_CultureInfo_construct_internal_locale_from_name_m971766383
e1h:__ZN6il2cpp2os10ThreadImpl13SetWaitObjectEPNS0_5posix15PosixWaitObjectE
QXe:_Byte_Equals_m368616327_AdjustorThunk
vFi:_Array_InternalArray__ICollection_Add_TisUIVertex_t1204258818_m3869382594_gshared
BX:__ZN11UnityEngine15CloudWebService20WebRequestRestClientC2Ev
goe:_cff_cmap_unicode_init
dXa:__ZNSt3__224__buffered_inplace_mergeIRN10vector_mapIiN17InstancedPropInfo12PropertyTypeENS_4lessIiEE13stl_allocatorINS_4pairIiS3_EEL18MemLabelIdentifier1ELi16EEE13value_compareENS_11__wrap_iterIPS8_EEEEvT0_SH_SH_T_NS_15iterator_traitsISH_E15difference_typeESL_PNSK_10value_typeE
oFk:__ZL95CustomEventData_t1269126727_CustomAttributesCacheGenerator_CustomEventData_AddInt64_m1803231272P21CustomAttributesCache
dgf:_Enum_ToObject_m2460371738
VEf:_PrimalityTests_Test_m1088386156
w5:__ZN14FileCacherRead13GetFileLengthEv
Zpc:__Z36Event_CUSTOM_Internal_SetNativeEvent13Il2Cpp_IntPtr
cHl:_readlink
fih:_ExpressionAssertion__ctor_m2408911632
yJg:_CustomEventData_AddChar_m1103619816
$6k:_InternalEnumerator_1_System_Collections_IEnumerator_get_Current_m4259662004_AdjustorThunk
jNi:_Array_InternalArray__get_Item_TisKeyframe_t1449471340_m1003508933_gshared
Aul:_Seek_And_Flee_Start_m3158482586
ruj:__Z50RuntimeInvoker_Double_t4078015681_Int64_t909078037PFvvEPK10MethodInfoPvPS4_
FJf:_StrongName_get_PublicKeyToken_m1968460885
Oyb:__ZNK6Sprite9GetBoundsE8Vector2fbb
LVa:__ZNK19RenderEventsContext21CleanupCommandBuffersEv
Zth:__ZL25UnresolvedVirtualCall_198P12Il2CppObject6Guid_tS1_PK10MethodInfo
zEa:__ZN11ContextGLES6CreateEi
qKc:__ZN5physx6shdfnd5ArrayINS_10PxTriangleENS0_19ReflectionAllocatorIS2_EEE15growAndPushBackERKS2_
srf:_BinaryReader_Dispose_m4249456877
LCj:__Z53RuntimeInvoker_AnimatorControllerPlayable_t1744083903PFvvEPK10MethodInfoPvPS4_
s6e:_Double_ToString_m1085043609
rSb:__Z19TransferField_ArrayI18StreamedBinaryReadILb0EE27Converter_SimpleNativeClassI17AnimationCurveTplIfEEEvRK23StaticTransferFieldInfoR31RuntimeSerializationCommandInfoRT0_
GRf:_CipherSuite_createEncryptionCipher_m1926075645
$eb:__ZN14StackAllocator16FrameMaintenanceEb
IFc:__ZL11SweepBoxBoxPKN5physx3Cct9SweepTestEPKNS0_11SweptVolumeEPKNS0_11TouchedGeomERKNS_14PxExtendedVec3ERKNS_6PxVec3ERNS0_12SweptContactE
Chb:__Z18ReadStringFromFilePN4core17string_with_labelILi1EEERKNS_12basic_stringIcNS_20StringStorageDefaultIcEEEE
f0:__ZNK10GameObject20QueryComponentByTypeEPKN5Unity4TypeE
JRi:_Enumerator_MoveNext_m1367380970_AdjustorThunk
ZDg:_OpCode_GetHashCode_m2974727122
HRf:_CipherSuite_createDecryptionCipher_m1118350455
Ogh:_PatternCompiler_EmitReference_m1381860071
oI:__Z78AnimatorControllerPlayable_CUSTOM_INTERNAL_CALL_IsParameterControlledByCurveIDR9HPlayablei
Vef:_Double_System_IConvertible_ToInt16_m4200640326
Vva:__ZN11TextureData5ResetEv
Wgc:__Z53Register_UnityEngine_GameObject_get_activeInHierarchyv
NCg:_GenericTypeParameterBuilder_get_IsGenericType_m1883522222
_Ib:__Z35Transfer_Blittable_FixedBufferFieldI17RemapPPtrTransferiEvRK29SerializationCommandArgumentsR31RuntimeSerializationCommandInfo
D1:__ZL30InitializeCoreScriptingClassesv
qaj:_Collection_1_CheckWritable_m3938993573_gshared
mh:_glBlitFramebuffer
ySa:__ZN17ArchiveFileSystem5TouchER13FileEntryData
Qyd:__ZNK5physx2Sc5Scene17prefetchForRemoveERKNS0_10StaticCoreE
fWf:_SecurityParameters_set_Cipher_m3888132335
bFf:_BigInteger_GeneratePseudoPrime_m2606361440
Ckf:_DateTimeFormatInfo_get_ShortTimePattern_m20923983
VIb:__Z35Transfer_Blittable_SingleValueFieldI14SafeBinaryReadhEvRT_R17GeneralMonoObjectRK23StaticTransferFieldInfo
MMk:__ZL140U3CMouseDragOutsideRectU3Ec__Iterator1_t2599668326_CustomAttributesCacheGenerator_U3CMouseDragOutsideRectU3Ec__Iterator1_Dispose_m2134284531P21CustomAttributesCache
KCk:__ZL90Event_t3028476042_CustomAttributesCacheGenerator_Event_Internal_SetNativeEvent_m1899228752P21CustomAttributesCache
nhd:__ZN5physx22NpParticleBaseTemplateINS_15PxParticleFluidENS_15NpParticleFluidEE13setVelocitiesEjRKNS_16PxStrideIteratorIKjEERKNS4_IKNS_6PxVec3EEE
BCe:__ZN22BaseUnityConnectClientC2ERN11UnityEngine7Connect20BasePersistentValuesE
sIf:_EncryptedPrivateKeyInfo_get_Algorithm_m2779196942
dbg:_RemotingServices_GetRealProxy_m620317996
k_a:__ZN13dynamic_arrayI11CulledLightLj4EE6insertEPS0_PKS0_S4_
y4k:_ArrayReadOnlyList_1_RemoveAt_m2270349795_gshared
Hjc:__Z81Register_UnityEngine_Playables_PlayableHandle_INTERNAL_CALL_SetInputCountInternalv
ipb:__ZNK12CubemapArray22GetTypeVirtualInternalEv
jEl:_Predicate_1_Invoke_m2060780095_gshared
jnb:__ZN11Tetrahedron8TransferI18StreamedBinaryReadILb0EEEEvRT_
Lo:FUNCTION_TABLE_vif
Mo:FUNCTION_TABLE_vid
Oo:FUNCTION_TABLE_vii
tsa:__Z40scripting_liveness_calculation_from_root18ScriptingObjectPtrPv
Dka:__ZN7Texture23VirtualRedirectTransferER24GenerateTypeTreeTransfer
uee:_UNITY_FT_Set_Transform
q3b:__ZNK32RendererMaterialAnimationBinding12SetPPtrValueERKN11UnityEngine9Animation10BoundCurveEi
DZh:__ZN6il2cpp8metadata15GenericMetadata20RegisterGenericClassEP18Il2CppGenericClass
KBj:__Z63RuntimeInvoker_Double_t4078015681_PlayableHandleU26_t4210769902PFvvEPK10MethodInfoPvPS4_
_xj:__Z101RuntimeInvoker_OpFlags_t378191910_SByte_t454417549_SByte_t454417549_SByte_t454417549_SByte_t454417549PFvvEPK10MethodInfoPvPS4_
zQl:_glDeleteFramebuffers__wrapper
asi:_Image_get_overrideSprite_m706080347
HKj:__Z54RuntimeInvoker_Int32_t2071877448_LabelData_t3712112744PFvvEPK10MethodInfoPvPS4_
jgc:__Z36Register_UnityEngine_RectOffset_Initv
fNf:_BigInteger_ModInverse_m1881894572
hGh:__ZN6il2cpp2vm7Runtime17GetDelegateInvokeEP11Il2CppClass
xPk:__ZL79LayoutRebuilder_t2155218138_CustomAttributesCacheGenerator_U3CU3Ef__amU24cache4P21CustomAttributesCache
Qld:__ZNK5physx15NpActorTemplateINS_14PxRigidDynamicEE14getOwnerClientEv
vKg:_AnimationEvent__ctor_m3458990599
cWi:_List_1_AddEnumerable_m3541747636_gshared
Irb:__ZN28EnlightenRendererInformation8TransferI14SafeBinaryReadEEvRT_
Ewj:__Z88RuntimeInvoker_RuntimeObject_RuntimeObject_Int32_t2071877448_RuntimeObject_RuntimeObjectPFvvEPK10MethodInfoPvPS4_
eck:__ZL69DefaultDependencyAttribute_t3858269114_CustomAttributesCacheGeneratorP21CustomAttributesCache
p6c:__ZN5physx12NpBatchQuery13getUserMemoryEv
uPa:__ZNK15Lz4Decompressor16DecompressMemoryEPKvPjPvS2_
Yie:_UNITY_tt_face_build_cmaps
i3j:_Ray_ToString_m2019179238
Yhj:_ReadOnlyCollection_1_System_Collections_IList_get_Item_m887129009_gshared
teb:__ZNSt3__26__treeINS_12__value_typeIN4core12basic_stringIcNS2_20StringStorageDefaultIcEEEEPN16MemoryFileSystem4NodeEEENS_19__map_value_compareIS6_SA_NS_4lessIS6_EELb1EEE13stl_allocatorISA_L18MemLabelIdentifier54ELi16EEE4findIS6_EENS_15__tree_iteratorISA_PNS_11__tree_nodeISA_PvEEiEERKT_
kcf:_Decimal_System_IConvertible_ToType_m3828527724_AdjustorThunk
qui:_InputField_get_caretPositionInternal_m3011712053
jie:_UNITY_tt_face_load_os2
IMd:__ZN5physx2GuL34fullContactsGenerationSphereConvexERKNS0_8CapsuleVERKNS0_11ConvexHullVERKNS_6shdfnd3aos12PsTransformVESB_PNS0_17PersistentContactERjRNS0_13ContactBufferEbRNS0_25PersistentContactManifoldERNS8_5Vec3VERKNS8_6FloatVEb
tmd:__ZN5physx19NpRigidBodyTemplateINS_14PxRigidDynamicEE16setRigidBodyFlagENS_15PxRigidBodyFlag4EnumEb
WOf:_HMAC_get_Key_m2528863640
kOf:_ASN1_get_Count_m3992276234
Dhk:__ZL93StringBuilder_t1221177846_CustomAttributesCacheGenerator_StringBuilder_AppendLine_m1686706871P21CustomAttributesCache
hH:__Z90Register_UnityEngine_Animations_AnimationOffsetPlayable_INTERNAL_CALL_CreateHandleInternalv
MVc:__ZN5physx6shdfnd8PoolBaseINS_2Sc19ConstraintGroupNodeENS0_19ReflectionAllocatorIS3_EEE17releaseEmptySlabsEv
wIb:__Z29Transfer_Blittable_ArrayFieldI14SafeBinaryRead8Vector4fEvRT_R9ArrayInfoRK23StaticTransferFieldInfo
yxi:_Array_get_swapper_TisInt32_t2071877448_m2837069166_gshared
SLh:__ZN6il2cpp2gc19AppendOnlyGCHashMapINSt3__24pairIPK10MethodInfoP11Il2CppClassEEP22Il2CppReflectionMethod17ReflectionMapHashIS9_ENS2_8equal_toIS9_EEE3AddERKS9_SB_
Hdk:__ZL62IDynamicMessageSink_t3056162262_CustomAttributesCacheGeneratorP21CustomAttributesCache
EIj:__Z77RuntimeInvoker_Boolean_t3825574718_AspectModeU26_t218518220_Int32_t2071877448PFvvEPK10MethodInfoPvPS4_
$il:_RectTransform_INTERNAL_get_rect_m1177342209
w6i:_Collection_1_Clear_m268154422_gshared
Chi:_PointerEventData_IsScrolling_m1971908975
G9d:__ZNSt3__27__sort4IRNS_6__lessI24InterpolationDepthHandleS2_EEPS2_EEjT0_S6_S6_S6_T_
vNj:__Z56RuntimeInvoker_ContentType_t1028629049_Int32_t2071877448PFvvEPK10MethodInfoPvPS4_
IBc:__ZN5physx3Cct8SweptBoxD2Ev
MTa:__ZZ23InitPlayerLoopCallbacksvEN51PostLateUpdateUpdateCustomRenderTexturesRegistrator7ForwardEv
qBj:__Z133RuntimeInvoker_Boolean_t3825574718_Vector3U26_t425862308_Vector3U26_t425862308_Single_t2076509932_Int32_t2071877448_Int32_t2071877448PFvvEPK10MethodInfoPvPS4_
dDd:__ZN5physx2Cm12DelegateTaskINS_13PxsCCDContextEXadL_ZNS2_12postCCDSweepEPNS_10PxBaseTaskEEEED0Ev
wcf:_Decimal_System_IConvertible_ToInt16_m3159038792
Gv:__ZN7mecanim9animation12EvaluateClipEPKNS0_4ClipEPKNS0_9ClipInputEPNS0_10ClipMemoryEPNS0_10ClipOutputE
UNc:__ZN5physx3Cct9SweepTest15onObstacleAddedEjPKNS_17PxObstacleContextERKNS_6PxVec3ES7_f
wTc:__ZN5physx2Gu10SupportMapD2Ev
Trb:__ZN4PPtrI11LightProbesE8TransferI18StreamedBinaryReadILb0EEEEvRT_
vah:_ComVisibleAttribute__ctor_m1789587486
Rth:__ZL25UnresolvedVirtualCall_190P12Il2CppObject6Guid_tS1_PK10MethodInfo
F1c:__ZNK5physx15NpActorTemplateINS_18PxArticulationLinkEE22getClientBehaviorFlagsEv
lHg:_MonoMethodInfo_GetReturnType_m2864247130
hvj:__Z39RuntimeInvoker_DateTimeKind_t2186819611PFvvEPK10MethodInfoPvPS4_
a6a:__ZN13RenderManager29SetCurrentCameraAndStackStateEP6CameraP25CameraStackRenderingState
iei:_BaseInput_set_compositionCursorPos_m2632248731
rSh:__ZN15dense_hashtableINSt3__24pairIK10KeyWrapperINS1_IP11Il2CppClassjEEES4_EES6_N6il2cpp8metadata14ArrayClassHashEN14dense_hash_mapIS6_S4_SB_NS6_14EqualsComparerINSA_17ArrayClassCompareEEENS0_9allocatorIS8_EEE9SelectKeyESF_SH_E12resize_deltaEjj
Ai:_JS_WebRequest_Release
Fsf:_DirectoryNotFoundException__ctor_m2242202556
l0j:_Physics_Raycast_m2308457076
G1c:__ZNK5physx15NpActorTemplateINS_18PxArticulationLinkEE12getAggregateEv
QV:__ZN11UnityEngine15CloudWebService14DataErrorEventD0Ev
GAj:__Z64RuntimeInvoker_RuntimeObject_PlayableOutputHandleU26_t2649796401PFvvEPK10MethodInfoPvPS4_
mRe:_String_CreateString_m2448464375
o6f:_X509SubjectKeyIdentifierExtension__ctor_m2959112706
yRk:_Enumerator_Reset_m1147555085_AdjustorThunk
aFg:_FieldInfo_get_IsNotSerialized_m2322769148
tpl:_Vector3_get_zero_m1527993324
vtd:__ZNK5physx7NpScene18getStaticStructureEv
tlk:__ZL68Math_t2022911894_CustomAttributesCacheGenerator_Math_Max_m2671311541P21CustomAttributesCache
gDd:__ZN5physx13PxsCCDContext12postCCDSweepEPNS_10PxBaseTaskE
zZh:__ZN6il2cpp8metadata15GenericMetadata7InflateEPK19Il2CppGenericMethodPK20Il2CppGenericContext
UUa:__ZN19ShaderPropertySheet16SetArrayPropertyEN9ShaderLab16FastPropertyNameENS_12PropertyTypeEPKvj
eHg:_MonoGenericCMethod_get_ReflectedType_m2689239043
Q_a:__ZN22PerThreadPageAllocatorC2Ev
dbj:_Collection_1_IsFixedSize_m499196375_gshared
tmi:_ColorTween_set_startColor_m3546206870_AdjustorThunk
XZh:__ZN15dense_hashtableINSt3__24pairIK10KeyWrapperIP12Il2CppObjectEN6il2cpp2gc9CachedCCWEEES5_NS7_5utils11PointerHashIS3_EEN14dense_hash_mapIS5_S9_SD_NS5_14EqualsComparerINS0_8equal_toIS4_EEEENS0_9allocatorISA_EEE9SelectKeyESI_SK_E16reset_thresholdsEv
vvk:__ZL96Transform_t3275118058_CustomAttributesCacheGenerator_Transform_INTERNAL_set_rotation_m3703763817P21CustomAttributesCache
I$d:__ZN5physx6shdfnd10Foundation19AlignCheckAllocator28deregisterAllocationListenerERNS_20PxAllocationListenerE
f1c:__ZN5physx2Sc21ArticulationJointCore12setChildPoseERKNS_11PxTransformE
O9k:_InternalEnumerator_1_get_Current_m4083613828_gshared
SHf:_KeyPairPersistence_Save_m471726936
ipc:__ZN8GUIState8EndOnGUIEv
LCf:_SimpleCollator_FilterOptions_m4044781893
SVh:__ZN6il2cpp6icalls8mscorlib6System2IO6MonoIO16get_ConsoleErrorEv
Toe:_UNITY_TT_Get_VMetrics
esf:_Path_InsecureGetFullPath_m2635272425
axk:__ZL92Rigidbody_t4233889191_CustomAttributesCacheGenerator_Rigidbody_AddForce_m3219459786____mode1P21CustomAttributesCache
f4e:_Enumerator_Clone_m1124749523
gaf:_DateTime_System_IConvertible_ToUInt32_m1363211018
uFd:__ZN5physx33solveContactCoulombBlockWriteBackEPKNS_23PxcSolverConstraintDescEjRNS_16PxcSolverContextEPNS_25PxcThresholdStreamElementEjPi
vgg:_RuntimeMethodHandle__ctor_m1162528746
pvl:_Predicate_1__ctor_m3243601712_gshared
x2i:_Enumerator_Dispose_m3300818037_AdjustorThunk
P$i:_List_1_AsReadOnly_m4108578222_gshared
hNd:__ZN5physx9PxTaskMgr17submitUnnamedTaskERNS_6PxTaskENS_10PxTaskType4EnumE
Pig:_DSA__ctor_m613430209
zAi:_SetPropertyUtility_SetStruct_TisSingle_t2076509932_m3849235084_gshared
_Ga:__ZN7Texture21GetMasterTextureLimitEv
J8a:__Z12CanAddScriptR10GameObject17ScriptingClassPtrPS1_S2_
NQh:__ZN6il2cpp2vm10Reflection12HasAttributeEP12Il2CppObjectP11Il2CppClass
dtk:__ZL81Mesh_t1356156583_CustomAttributesCacheGenerator_Mesh_get_subMeshCount_m1945011773P21CustomAttributesCache
Tyc:__ZN8JSONRead21TransferSTLStyleArrayI13dynamic_arrayI4AABBLj4EEEEvRT_18MemLabelIdentifier17TransferMetaFlags
ewl:_InvokableCall_1__ctor_m121193486_gshared
o0:__ZN9ShaderLabL25StaticInitializeShaderLabEPv
Y1d:__ZN12MeshCollider23VirtualRedirectTransferER24GenerateTypeTreeTransfer
$Ad:__ZNK5physx2Sq12BucketPruner5sweepERKNS0_9ShapeDataERKNS_6PxVec3ERfRNS0_14PrunerCallbackE
U:Math_max
mbj:_Collection_1_System_Collections_IList_Insert_m1511106741_gshared
$rh:__ZL24UnresolvedVirtualCall_92P12Il2CppObjectPK10MethodInfo
VGh:_il2cpp_class_get_methods
hsf:_Path_CanonicalizePath_m383914732
FQk:_Enumerator_System_Collections_IEnumerator_get_Current_m1631145297_gshared
m_e:_ArrayList_Synchronized_m2395071980
B0h:__ZN6il2cpp2os6Thread16GetCurrentThreadEv
S5j:__ZL81RuntimeArray_CustomAttributesCacheGenerator_Array_SetValue_m169741241____indices1P21CustomAttributesCache
a6b:__ZN10GameObject13ComponentPair15SetComponentPtrEPN5Unity9ComponentE
d8d:__ZN5physx6shdfnd8internal8HashBaseINS0_4PairIKPKNS0_14NamedAllocatorEPKcEES6_NS0_4HashIS6_EENS1_11HashMapBaseIS6_S9_SC_NS0_20NonTrackingAllocatorEE6GetKeyESE_Lb1EE15reserveInternalEj
Jxf:_UnexceptionalStreamWriter_Write_m3206913035
z$b:__Z13RegisterClassI10MeshFilterEvv
_F:__ZNK26AnimatorControllerPlayable24GetAnimatorClipInfoCountEib
Iib:__ZN10TagManager8TransferI19StreamedBinaryWriteILb0EEEEvRT_
fFb:__ZN11PreloadData23VirtualRedirectTransferER18StreamedBinaryReadILb0EE
dvb:__ZN13sorted_vectorI4PPtrI11SpriteAtlasENSt3__24lessIS2_EE13stl_allocatorIS2_L18MemLabelIdentifier1ELi16EEE21sort_clear_duplicatesEv
OA:__Z17dynamic_pptr_castIP10MonoScript6ObjectET_RK4PPtrIT0_E
Nig:_DESTransform_ProcessBlock_m2826669227
_nf:_Int16_CompareTo_m3493496879
buk:__ZL56RenderTexture_t2666733923_CustomAttributesCacheGeneratorP21CustomAttributesCache
cGk:__ZL56ColorWriteMask_t926634530_CustomAttributesCacheGeneratorP21CustomAttributesCache
FQg:_AnimatorControllerPlayable_Play_m3296663958_AdjustorThunk
Xtb:__ZN6Sprite17MainThreadCleanupEv
bok:__ZL56OidCollection_t3790243618_CustomAttributesCacheGeneratorP21CustomAttributesCache
xgk:__ZL61SignatureDescription_t89145500_CustomAttributesCacheGeneratorP21CustomAttributesCache
o9k:_InternalEnumerator_1_MoveNext_m3389738333_AdjustorThunk
nO:__ZN10AudioMixer14UpdateMuteSoloEv
Jul:_WithMagazine_GetAccuracy_m2663083974
Atl:_MoveForwardPlayerState__ctor_m472699373
AVa:__Z17GetMonoManagerPtrv
vUh:__ZN6il2cpp2vm9Exception27RaiseNullReferenceExceptionEv
T8c:__ZN5physx6shdfnd5ArrayINS_3Scb13MaterialEventENS0_19ReflectionAllocatorIS3_EEE15growAndPushBackERKS3_
h3i:_Stack_1_System_Collections_ICollection_get_SyncRoot_m3151629354_gshared
N0g:_MaskableGraphic_UnityEngine_UI_IClippable_get_gameObject_m954171032
pla:__ZN9ShaderLab10SubProgram7CompileEv
_Fa:__ZN7ApiGLES16SetPatchVerticesEi
BXc:__ZN5physx2Sc5Scene11onBodySleepEPNS0_7BodySimE
USa:__ZN10MemoryFileC2E18MemLabelIdentifierP14MemoryFileData14FilePermission
dcg:_TrackingServices_NotifyUnmarshaledObject_m1794048369
Tvh:__ZN6il2cpp2vm5Class20FromGenericParameterEPK22Il2CppGenericParameter
Fek:__ZL59RemotingServices_t2399536837_CustomAttributesCacheGeneratorP21CustomAttributesCache
qCc:__ZL28GeomMTDCallback_PlaneCapsuleRN5physx6PxVec3ERfRKNS_10PxGeometryERKNS_11PxTransformES5_S8_
Kaa:__ZN15GlobalCallbacksC2Ev
gIi:_Array_InternalArray__set_Item_TisLabelFixup_t4090909514_m565370771_gshared
SI:__Z82Register_UnityEngine_Animations_AnimatorControllerPlayable_INTERNAL_CALL_SetBoolIDv
SEl:_FieldWithTarget_set_staticString_m2234360111
Ufe:_UNITY_FT_New_Memory_Face
t8c:__ZNK5physx10NpMaterial18getDynamicFrictionEv
Tmk:__ZL74X509Crl_t1699034837_CustomAttributesCacheGenerator_U3CU3Ef__switchU24map13P21CustomAttributesCache
Nfg:_SerializationEntry__ctor_m1619256036_AdjustorThunk
KH:__Z81AnimatorControllerPlayable_CUSTOM_INTERNAL_CALL_GetAnimatorTransitionInfoInternalR9HPlayablei
Nde:__ZN20TextRenderingPrivate21TextMeshGeneratorImpl5FlushEv
VMe:__Z15CastclassSealedP12Il2CppObjectP11Il2CppClass
T_b:__ZN15ApplicationInfo14GetSandboxTypeEv
o9c:__ZN5physx9NpPhysics16createConvexMeshERNS_13PxInputStreamE
aJb:__Z18Transfer_BlittableI17RemapPPtrTransferLb1EhEvRK29SerializationCommandArgumentsR31RuntimeSerializationCommandInfo
O2h:__ZNSt3__26vectorIjNS_9allocatorIjEEE26__swap_out_circular_bufferERNS_14__split_bufferIjRS2_EE
c7a:__ZN16ReflectionProbes40UpdateRealtimeReflectionProbesTimeslicedEv
pzl:_ListPool_1_Get_m529219189_gshared
GYh:__ZNSt3__26__treeINS_12__value_typeIP24Il2CppReflectionAssemblyPvEENS_19__map_value_compareIS3_S5_NS_4lessIS3_EELb1EEENS_9allocatorIS5_EEE16__insert_node_atEPNS_16__tree_node_baseIS4_EERSF_SF_
kDg:_MethodBuilder_GetBaseDefinition_m774166361
OWc:__ZN5physx2Sq17SceneQueryManager8addShapeERKNS_7NpShapeERKNS_12PxRigidActorEbPNS_9PxBounds3E
dCb:__ZNK30RuntimeInitializeOnLoadManager22GetTypeVirtualInternalEv
HAh:__ZN15dense_hashtableINSt3__24pairIK10KeyWrapperIN6il2cpp5utils13dynamic_arrayIPK10Il2CppTypeLj4EEEEPFvvEEESA_NS3_8metadata19Il2CppSignatureHashEN14dense_hash_mapISA_SD_SG_NSA_14EqualsComparerINSF_22Il2CppSignatureCompareEEENS0_9allocatorISE_EEE9SelectKeyESK_SM_E12resize_deltaEjj
X2b:__ZN16ReflectionProbes15InitializeClassEv
cai:__ZN6il2cpp5utils5MatchENSt3__212basic_stringIcNS1_11char_traitsIcEENS1_9allocatorIcEEEEjRKS7_j
qge:_UNITY_FT_Destroy_Class_psnames_module_class
WBh:__ZNK15dense_hashtableINSt3__24pairIK10KeyWrapperIPK11Il2CppClassEPKcEES6_N6il2cpp5utils11PointerHashIS3_EEN14dense_hash_mapIS6_S9_SE_NS6_14EqualsComparerINS0_8equal_toIS5_EEEENS0_9allocatorISA_EEE9SelectKeyESJ_SL_E12test_deletedEj
qgh:_MRUList_Evict_m2430323183
Yfj:_ReadOnlyCollection_1_System_Collections_Generic_ICollectionU3CTU3E_Remove_m1060547576_gshared
nFj:__Z68RuntimeInvoker_Boolean_t3825574718_Rect_t3681755626_SByte_t454417549PFvvEPK10MethodInfoPvPS4_
FXh:__ZN6il2cpp2vm5Image9GetCorlibEv
ahe:_ft_bitmap_glyph_bbox
UA:__ZN8Animator13BatchedFKPassERK13dynamic_arrayIP14PlayableOutputLj4EE
Acd:__ZNK5physx15NpActorTemplateINS_7PxClothEE14getOwnerClientEv
jYg:_Component_GetComponent_m4225719715
Ejc:__Z75Register_UnityEngine_Playables_PlayableHandle_INTERNAL_CALL_SetTimeInternalv
bFd:__ZNK5physx2Gu29EPASupportMapPairRelativeImplINS0_8CapsuleVES2_E9doSupportERKNS_6shdfnd3aos5Vec3VERS6_S9_S9_
EKi:_Array_Sort_TisVector4_t2243707581_m474199742_gshared
pWi:_List_1_CheckIndex_m2247532995_gshared
T_d:__ZN5physx10SubSortSAH5sort4EPjjRNS_6shdfnd5ArrayINS_11RTreeNodeNQENS2_19ReflectionAllocatorIS4_EEEERjjPS4_
rxf:_TextWriter_Write_m576684782
zql:_Vector3_Max_m2105825185
xk:_glIsVertexArray
W3d:__ZN14SphereCollider16TransformChangedEi
ICb:__ZNSt3__26vectorIN4core12basic_stringIcNS1_20StringStorageDefaultIcEEEE13stl_allocatorIS5_L18MemLabelIdentifier12ELi16EEEC2INS_11__wrap_iterIPS5_EEEET_SE_RKS8_PNS_9enable_ifIXaasr21__is_forward_iteratorISE_EE5valuesr16is_constructibleIS5_NS_15iterator_traitsISE_E9referenceEEE5valueEvE4typeE
bQa:__ZN25SingleBlockMemoryFileDataC2E18MemLabelIdentifierPvjb
pgb:__ZN5Unity9Component8TransferI18StreamedBinaryReadILb0EEEEvRT_
ga:invoke_fff
pTi:_List_1_Clear_m4254626809_gshared
zNl:b14
eWf:_TlsServerHello_Update_m1740270635
m7d:__ZN5physx2Sc7PhysicsC2ERKNS_17PxTolerancesScaleERKNS_14PxvOffsetTableE
E9d:__ZNSt3__26__sortIRNS_6__lessI24InterpolationDepthHandleS2_EEPS2_EEvT0_S6_T_
Ere:__ZN2UI6Canvas17MainThreadCleanupEv
ipa:__ZN6prcoreL12RemapGenericI17TexFormatARGB155517TexFormatRGBA8888EEvPKNS_9InnerInfoE
m4g:_ScrollRect_Rebuild_m3423824761
T$i:_List_1_Find_m3862454845_gshared
fgh:_MatchCollection_get_Item_m2609281578
UMa:__ZN7ApiGLES13CreateProgramEv
Ekb:__ZN11HaloManager7AddHaloEv
Jmg:_UTF8Encoding__ctor_m100325490
kHa:__ZN4crnd12crn_unpackerD2Ev
j7g:_StencilMaterial_ClearAll_m1372779118
Kk:_emscripten_glTexImage2D
Fag:_ObjRefSurrogate_SetObjectData_m1873902916
Eoe:_tt_driver_class_pic_init
t1:__ZN18ScriptingArguments9AddStringEPKc
d8h:_setup_header
zdj:_ReadOnlyCollection_1_System_Collections_IList_get_IsReadOnly_m1367736517_gshared
eqk:__ZL116Component_t3819376471_CustomAttributesCacheGenerator_Component_GetComponentsInParent_m1920178904____includeInactive1P21CustomAttributesCache
DJl:runPostSets
aFd:__ZNK5physx2Gu29EPASupportMapPairRelativeImplINS0_8CapsuleVES2_E18doWarmStartSupportEiiRNS_6shdfnd3aos5Vec3VES7_S7_
SIk:__ZL93AxisEventData_t1524870173_CustomAttributesCacheGenerator_AxisEventData_set_moveDir_m254243794P21CustomAttributesCache
eva:__ZL23stbir__resize_arbitraryPvPKviiiS_iiiffffPfiij14stbir_datatype12stbir_filterS4_10stbir_edgeS5_16stbir_colorspace
IPg:_AnimatorControllerPlayable_GetParameterCount_m1050153685_AdjustorThunk
fLb:__Z18Transfer_BlittableI24GenerateTypeTreeTransferLb1E8Vector4fEvRK29SerializationCommandArgumentsR31RuntimeSerializationCommandInfo
yof:_Int16_ToString_m3971652088_AdjustorThunk
wsh:__ZL25UnresolvedVirtualCall_115P12Il2CppObjecttaaPK10MethodInfo
Vk:_pthread_detach
GDh:__ZN6il2cpp2vm19SocketPollingThread7RunLoopEv
i6f:_X509ExtensionEnumerator_Reset_m3200687545
V9f:_MethodDictionary_AllocInternalProperties_m3261295876
jAd:__ZN5physx11EdgeManager6resizeEj
C6b:__ZN15DirectorManager20ScheduleGraphDestroyERK14HPlayableGraph
aya:__ZNSt3__213__stable_sortIRN10vector_mapI17ScriptingClassPtrPKN5Unity4TypeENS_4lessIS2_EENS_9allocatorINS_4pairIS2_S6_EEEEE13value_compareENS_11__wrap_iterIPSB_EEEEvT0_SJ_T_NS_15iterator_traitsISJ_E15difference_typeEPNSM_10value_typeEi
rok:__ZL77U3CPrivateImplementationDetailsU3E_t1486305139_CustomAttributesCacheGeneratorP21CustomAttributesCache
uWb:__ZN9ShaderLab25SerializedTextureProperty8TransferI24GenerateTypeTreeTransferEEvRT_
tkj:_Comparison_1_Invoke_m2645957248_gshared
CVl:_emscripten_glIsShader__wrapper
FOh:__ZN6il2cpp2gc19AppendOnlyGCHashMapINSt3__24pairIPK14Il2CppAssemblyP11Il2CppClassEEP24Il2CppReflectionAssembly17ReflectionMapHashIS9_ENS2_8equal_toIS9_EEEC2Ev
Uje:_tt_cmap14_char_next
cbk:__ZL69AssemblyTrademarkAttribute_t3740556705_CustomAttributesCacheGeneratorP21CustomAttributesCache
dDa:__ZN13GfxDeviceGLES28GetNativeVertexBufferPointerEP9GfxBuffer
cnd:__ZN5physx2Sc5Scene12removeStaticERNS0_10StaticCoreERNS_6shdfnd11InlineArrayIPKNS0_9ShapeCoreELj64ENS4_19ReflectionAllocatorIS8_EEEEb
Cja:__ZN11NamedObject8TransferI18StreamedBinaryReadILb0EEEEvRT_
QLa:__ZNK17GPUSkinPoseBuffer12GetBoneCountEv
erc:__Z32GUIStyle_Get_Custom_PropFontSizeP12Il2CppObject
Efg:_DelegatePInvokeWrapper_CallbackHandler_t362827733
Plk:__ZL59ResolveEventArgs_t1859808873_CustomAttributesCacheGeneratorP21CustomAttributesCache
Owl:_UnityAction_1_BeginInvoke_m3462722079_gshared
_Wh:__ZNK15dense_hashtableINSt3__24pairIK10KeyWrapperIP14Il2CppIUnknownEjEES5_N6il2cpp5utils11PointerHashIS3_EEN14dense_hash_mapIS5_jSB_NS5_14EqualsComparerINS0_8equal_toIS4_EEEENS0_9allocatorIS7_EEE9SelectKeyESG_SI_E12test_deletedEj
UEg:_EventInfo_get_MemberType_m3337516651
xxc:__Z18Transfer_BlittableI8JSONReadLb1EyEvRK29SerializationCommandArgumentsR31RuntimeSerializationCommandInfo
ql:_emscripten_glMatrixMode
At:__ZN8Animator23VirtualRedirectTransferER18StreamedBinaryReadILb0EE
Hak:__ZL93TypeBuilder_t3308873219_CustomAttributesCacheGenerator_TypeBuilder_GetConstructors_m774120094P21CustomAttributesCache
ttf:_NotSupportedException__ctor_m836173213
lqd:__ZN5physx2Sc10NPhaseCore25createShapeInstancePairLLERNS0_8ShapeSimES3_NS_7PxFlagsINS_10PxPairFlag4EnumEtEE
pag:_MethodReturnDictionary__ctor_m756139344
kV:__ZN11UnityEngine15CloudWebService14DataDispatcher16PrepareDataBlockERNS0_16SessionContainerE
jNa:__ZN18GfxFramebufferGLES5ClearE13GfxClearFlagsRK10ColorRGBAffib
yIj:__Z70RuntimeInvoker_Void_t1841601450_Playable_t1896841784_Int32_t2071877448PFvvEPK10MethodInfoPvPS4_
qrd:__ZThn8_N5physx2Sc19ShapeInstancePairLL12onDeactivateEj
S0i:_List_1_GetIndex_m2513359832_gshared
p8b:__Z21CalculateClosestPointRK8Vector3fRK4AABBRS_Rf
GRb:__ZL26Transfer_SimpleNativeClassI18StreamedBinaryReadILb0EE10RectOffsetLb0EEvRK29SerializationCommandArgumentsR31RuntimeSerializationCommandInfo
nge:_UNITY_ft_destroy_default_module_classes
qUi:_List_1_CheckMatch_m1772343151_gshared
FZa:__ZL12DepthPassJobPN21GfxDeviceAsyncCommand10ArgScratchEPKNS_3ArgE
XUb:__ZNSt3__26vectorIN9ShaderLab20SerializedSubProgram16TextureParameterENS_9allocatorIS3_EEE6assignINS_11__wrap_iterIPS3_EEEENS_9enable_ifIXaasr21__is_forward_iteratorIT_EE5valuesr16is_constructibleIS3_NS_15iterator_traitsISC_E9referenceEEE5valueEvE4typeESC_SC_
Sqf:_IntPtr_Equals_m1214967011_AdjustorThunk
t0d:__ZN9Rigidbody16ApplyConstraintsEv
L_i:_List_1_Add_m3591975577_gshared
tve:__Z55Register_UnityEngine_CanvasGroup_get_ignoreParentGroupsv
_$b:__Z13RegisterClassI19LowerResBlitTextureEvv
YIk:__ZL100PointerEventData_t1599784723_CustomAttributesCacheGenerator_U3CpointerPressRaycastU3Ek__BackingFieldP21CustomAttributesCache
zn:FUNCTION_TABLE_iiiiiiiiiiii
Uid:__ZN5physx2Sc17ParticleSystemSim8setFlagsEj
gkb:__ZN16GraphicsSettingsD0Ev
ycb:__Z29StdTemplateConversionFunctionIshEbPvR14SafeBinaryRead
zSl:_pthread_mutex_init__wrapper
E5a:__ZN15LODGroupManager21CalculateLODDataArrayERK13LODParametersPK6Cameraf
n:cttz_i8
xme:_UNITY_FT_GlyphLoader_Add
LZd:__ZN5physx2Gu15EdgeListBuilder18CreateEdgesToFacesEjPKjPKt
bKc:__ZN5physx11PxMeshQuery5sweepERKNS_6PxVec3EfRKNS_10PxGeometryERKNS_11PxTransformEjPKNS_10PxTriangleERNS_10PxSweepHitENS_7PxFlagsINS_9PxHitFlag4EnumEtEEPKjfb
qtl:_MoveDiagonalRightBackwardsPlayerState_Enter_m1168134226
ngh:_MRUList__ctor_m2726533367
Gkf:_DateTimeFormatInfo_get_FullDateTimePattern_m2607507656
EWf:_HttpsClientStream_RaiseServerCertificateValidation_m3356770426
Zdf:_DelegateSerializationHolder__ctor_m3915060553
LCb:__ZN15SerializeTraitsINSt3__26vectorIN30RuntimeInitializeOnLoadManager9ClassInfoE13stl_allocatorIS3_L18MemLabelIdentifier12ELi16EEEEE8TransferI24GenerateTypeTreeTransferEEvRS7_RT_
YKi:_Array_swap_TisUIVertex_t1204258818_TisUIVertex_t1204258818_m1163375424_gshared
mm:_emscripten_glViewport
s4h:__ZN6il2cpp6icalls8mscorlib6System15MonoCustomAttrs17IsDefinedInternalEP12Il2CppObjectP20Il2CppReflectionType
pwb:__ZN4Mesh21UnswizzleVertexColorsEb
Pba:__ZN30dense_hashtable_const_iteratorINSt3__24pairIKN4core12basic_stringIcNS2_20StringStorageDefaultIcEEEEP11AssetBundleEES6_20StringHash32FunctionIS6_EN14dense_hash_mapIS6_S9_SC_NS0_8equal_toIS6_EENS0_9allocatorISA_EEE9SelectKeyESF_SH_EppEv
VVf:_TlsServerSettings_set_CertificateTypes_m264196087
y7k:_InternalEnumerator_1__ctor_m4150855019_gshared
$af:_DateTime_ToString_m2276663647_AdjustorThunk
Boe:_cff_parse_font_bbox
W2d:__ZThn28_N14PhysicsManagerD0Ev
Vdc:__Z35Application_Get_Custom_PropIsEditorv
pLc:__Z14raycast_sphereRKN5physx10PxGeometryERKNS_11PxTransformERKNS_6PxVec3ES8_fNS_7PxFlagsINS_9PxHitFlag4EnumEtEEjPNS_12PxRaycastHitEbPFbRSD_PvESG_
ft:__GLOBAL__sub_I_runtime_animation2_lump_cpp
zAb:__ZN14PlayerSettings23VirtualRedirectTransferER18StreamedBinaryReadILb0EE
Bxi:_Array_get_swapper_TisCustomAttributeTypedArgument_t1498197914_m2780757375_gshared
pOi:_KeyValuePair_2__ctor_m3201181706_AdjustorThunk
hdi:__ZN6il2cpp2os5Event5ResetEv
$2a:__Z26CombineDepthNormalsTextureRK17RenderLoopContextR13dynamic_arrayI16RenderObjectDataLj4EE
Xph:_AesManaged__ctor_m2322442838
lZh:__ZN6il2cpp8metadata15GenericMetadata17InflateParametersEPK13ParameterInfohPK20Il2CppGenericContextb
bqf:_Int64_System_IConvertible_ToUInt32_m850395426_AdjustorThunk
w2:__ZN18AwakeFromLoadQueue28InvokePersistentManagerAwakeEPNS_4ItemEj17AwakeFromLoadMode
xBg:_TypeBuilder_GetMethodsByName_m229541072
kGe:_HMACSHA512__ctor_m2390736870
Ez:__ZNK17AnimationPlayable27GetNextCompatibleDescendantEi
vSd:__ZNK5physx2Cm12DelegateTaskINS_2Sc5SceneEXadL_ZNS3_23postIslandGenSecondPassEPNS_10PxBaseTaskEEEE7getNameEv
fbi:__ZNSt3__26__treeINS_12__value_typeIPvxEENS_19__map_value_compareIS2_S3_NS_4lessIS2_EELb1EEENS_9allocatorIS3_EEE16__insert_node_atEPNS_16__tree_node_baseIS2_EERSD_SD_
chb:__ZN4PPtrI6SpriteE8TransferI18StreamedBinaryReadILb0EEEEvRT_
tBg:_TypeBuilder_GetInterfaces_m1818658502
hYf:_TlsException_get_Alert_m4022765752
VMf:_BigInteger_op_Equality_m2683055762
Vfa:__Z25SetNeedToPerformRenderingb
zHg:_MonoMethod_GetPseudoCustomAttributes_m466965107
Lih:__ZN21InterfaceFuncInvoker0IP19LinkRef_t2090853131E6InvokeEjP11Il2CppClassP12Il2CppObject
RVk:_ValueCollection_System_Collections_Generic_IEnumerableU3CTValueU3E_GetEnumerator_m1604400448_gshared
m1a:__ZNSt3__227__insertion_sort_incompleteIR23CompareReflectionProbesP31RuntimeReflectionProbeBlendInfoEEbT0_S5_T_
UZa:__ZN14qsort_internal30FindAndMovePivotToLastPositionIP15RODataDepthPassi17ROSorterDepthPassEEvT_S4_T0_T1_
VDe:__ZN20UnityWebRequestProtoI19TransportJavaScript16AtomicRefCounter14RedirectHelper14ResponseHelper15DownloadHandler13UploadHandler12HeaderHelper14AsyncOperationE35Task_FinalizeAfterDHCompleteContentEPv
Ekl:_ResourceRequest_t2560315377_marshal_pinvoke
mSk:_Enumerator_System_Collections_IDictionaryEnumerator_get_Value_m3005608231_gshared
Pqh:__ZL24UnresolvedVirtualCall_26P12Il2CppObjectS0_iiPK10MethodInfo
c0g:_MaskUtilities_NotifyStencilStateChanged_m1527407683
dEd:__ZN5physxL27PxcSweepAnyShapeHeightfieldERKNS_11PxsCCDShapeES2_PKNS_12PxsRigidBodyES5_RKNS_11PxTransformES8_fRNS_6PxVec3ESA_RNS_10PxcNpCacheERNS_18PxcNpThreadContextE
Fqj:__Z94RuntimeInvoker_Void_t1841601450_RuntimeObject_Int32_t2071877448_RuntimeObject_SByte_t454417549PFvvEPK10MethodInfoPvPS4_
Q5a:__ZN12CullingGroup10SendEventsEPK17CullingGroupEventj
DGf:_DSAManaged_GenerateKeyPair_m2711647034
Abb:__ZN13sorted_vectorINSt3__24pairIN4core12basic_stringIcNS2_20StringStorageDefaultIcEEEES6_EEN10vector_mapIS6_S6_27compare_tstring_insensitiveIS6_E13stl_allocatorIS7_L18MemLabelIdentifier37ELi16EEE13value_compareESD_E9erase_oneIS6_EEjRKT_
Euh:__ZL25UnresolvedVirtualCall_231P12Il2CppObject22UILineInfo_t3621277874PK10MethodInfo
zsb:__ZThn32_NK8Renderer8GetLayerEv
ZEi:_Array_InternalArray__ICollection_Add_TisResourceCacheItem_t333236149_m1151081240_gshared
y9b:__ZNK4Mesh17GetPrimitiveCountEv
ZNj:__Z39RuntimeInvoker_RaycastHit2D_t4063908774PFvvEPK10MethodInfoPvPS4_
jzd:__ZN5physx3Scb5SceneD2Ev
NP:__ZN17AudioClipPlayable12PrepareFrameERK19DirectorVisitorInfo
D7e:_Convert_ToInt32_m2209788057
jYh:__ZN30dense_hashtable_const_iteratorINSt3__24pairIK10KeyWrapperINS1_IPKcS4_EEEiEES6_24NamespaceAndNamePairHashN14dense_hash_mapIS6_iS9_NS6_14EqualsComparerI26NamespaceAndNamePairEqualsEENS0_9allocatorIS8_EEE9SelectKeyESD_SF_E30advance_past_empty_and_deletedEv
qdg:_SoapServices_GetXmlTypeForInteropType_m3821579913
bBl:_EqualityComparer_1_System_Collections_IEqualityComparer_Equals_m3601790950_gshared
AEk:__ZL117GUIStyle_t1799908754_CustomAttributesCacheGenerator_GUIStyle_INTERNAL_CALL_Internal_GetCursorPixelPosition_m562482816P21CustomAttributesCache
qTl:_emscripten_glTexParameterfv__wrapper
MHh:_il2cpp_method_get_param_count
t_b:__ZN10systeminfo19ISOToSystemLanguageERN4core12basic_stringIcNS0_20StringStorageDefaultIcEEEE
yNh:__ZNK15dense_hashtableINSt3__24pairIK10KeyWrapperINS1_IPK12PropertyInfoP11Il2CppClassEEEjEES9_17ReflectionMapHashIS8_EN14dense_hash_mapIS9_jSD_NS9_14EqualsComparerINS0_8equal_toIS8_EEEENS0_9allocatorISB_EEE9SelectKeyESI_SK_E3endEv
Pri:_HorizontalOrVerticalLayoutGroup_get_childForceExpandWidth_m227100883
C0d:__Z16GetDynamicsScenev
wqd:__ZThn8_N5physx2Sc18TriggerInteraction7destroyEv
jol:_TouchScreenKeyboard_get_active_m1442597648
lok:__ZL68Uri_t19570940_CustomAttributesCacheGenerator_U3CU3Ef__switchU24map15P21CustomAttributesCache
Tke:_ps_dimension_done
Yji:_LayoutRebuilder_MarkLayoutForRebuild_m640589351
ure:__Z46Register_UnityEngine_TextGenerator_Dispose_cppv
Ehi:_PointerEventData_get_pressEventCamera_m724559964
hMe:_String_IndexOfUnchecked_m3356721554
nrb:__ZN16LightmapSettings8TransferI14SafeBinaryReadEEvRT_
tIa:__ZN17BufferManagerGLES13ReleaseBufferEP14DataBufferGLES
UTc:__ZN5physx6shdfnd5ArrayIPvNS0_19ReflectionAllocatorINS_16NpConnectorArrayEEEE15growAndPushBackERKS2_
MZj:_Mesh_CheckCanAccessSubmesh_m1826512193
C1i:_List_1_Add_m1346004230_gshared
tpd:__ZN5physx2Sc5Scene15prepareSimulateEv
uxc:__Z18Transfer_BlittableI8JSONReadLb1EjEvRK29SerializationCommandArgumentsR31RuntimeSerializationCommandInfo
yVc:__ZN5physx6shdfnd5ArrayIPNS_2Sc11InteractionENS0_19ReflectionAllocatorIS4_EEE8recreateEj
xNk:__ZL63ScrollRect_t1199013257_CustomAttributesCacheGenerator_m_InertiaP21CustomAttributesCache
Fmh:_PKCS12_Decrypt_m1557069392
Z7g:_VertexHelper_AddUIVertexQuad_m280792808
L1f:_WebHeaderCollection_ToString_m1246460752
N7k:_InternalEnumerator_1_System_Collections_IEnumerator_get_Current_m2842514953_AdjustorThunk
qq:stackSave
_oh:_X509CrlEntry_get_Extensions_m79989256
nle:_ps_dimension_end
Aic:__Z41Register_UnityEngine_Mesh_Internal_Createv
peb:__ZN16MemoryFileSystem5TouchER13FileEntryData
jZh:__ZNK15dense_hashtableI10KeyWrapperIP18Il2CppGenericClassES3_N6il2cpp8metadata22Il2CppGenericClassHashEN14dense_hash_setIS3_S6_NS3_14EqualsComparerINS5_25Il2CppGenericClassCompareEEENSt3__29allocatorIS3_EEE8IdentityESA_SD_E12test_deletedERK30dense_hashtable_const_iteratorIS3_S3_S6_SF_SA_SD_E
YHe:_RIPEMD160Managed_JJ_m2933451431
Nbe:__Z63Register_UnityEngine_Physics_INTERNAL_CALL_Internal_RaycastTestv
BGe:_MACTripleDES_Initialize_m1318099802
IPf:_MD5SHA1_VerifySignature_m507888141
bXe:_Byte_System_IConvertible_ToChar_m4188836679
okf:_NumberFormatter_InitDecHexDigits_m2036076025
RSk:_Enumerator_get_CurrentKey_m3839846791_AdjustorThunk
hyc:__ZN8JSONRead21TransferSTLStyleArrayI13dynamic_arrayIaLj1EEEEvRT_18MemLabelIdentifier17TransferMetaFlags
M7a:__ZN6Camera9SetAspectEf
iEe:__ZN19TransportJavaScript9DoRequestERKN4core12basic_stringIcNS0_20StringStorageDefaultIcEEEEm21UnityWebRequestMethodS6_bbP12HeaderHelperP13UploadHandlerP15DownloadHandlerP14ResponseHelperP15UnityWebRequest
Cmi:_ColorTween_get_ignoreTimeScale_m641454126_AdjustorThunk
Ba:invoke_viiffiii
gNf:_Kernel_modInverse_m3230829577
fOi:_Mesh_GetAllocArrayFromChannel_TisVector3_t2243707580_m2367580537_gshared
ftg:_UInt32_TryParse_m3987111861
kKk:__ZL79TouchInputModule_t2561058385_CustomAttributesCacheGenerator_m_ForceModuleActiveP21CustomAttributesCache
SUl:_emscripten_glBindVertexArray__wrapper
wHj:__Z52RuntimeInvoker_Vector2_t2243707579_Int32_t2071877448PFvvEPK10MethodInfoPvPS4_
kPf:_MD4__ctor_m2366413460
a_g:_Display__ctor_m563295973
GEk:__ZL97GUIStyle_t1799908754_CustomAttributesCacheGenerator_GUIStyle_Internal_CalcMinMaxWidth_m3660306863P21CustomAttributesCache
WZk:_Dictionary_2_InitArrays_m435313205_gshared
gJ:__ZN10ObjectPoolIN4FMOD3DSPENS0_4DSPIEE7GetFreeEi
C8a:__ZN9Transform37InitializeTransformHierarchyRecursiveER18TransformHierarchyRii
q1b:__Z34DefaultPrepareDispatchBoundsUpdateR13RendererScene18MemLabelIdentifier
Qpi:_Graphic_get_useLegacyMeshGeneration_m1366444625
gMk:__ZL65InputField_t1631627530_CustomAttributesCacheGenerator_m_InputTypeP21CustomAttributesCache
SEf:_ModulusRing_Pow_m1137250399
oel:_InternalEnumerator_1_MoveNext_m2410670600_AdjustorThunk
Q3d:__ZN14SphereCollider23VirtualRedirectTransferER24GenerateTypeTreeTransfer
_Va:__ZN17MeshRenderingData4InitEP4MeshS1_iP15SharedGfxBufferS3_
qRf:_CipherSuite_get_HashAlgorithmType_m3902365773
xwl:_InvokableCall_2_Find_m1763382885_gshared
Jfj:_ReadOnlyCollection_1_System_Collections_ICollection_get_SyncRoot_m2779904122_gshared
b0i:_List_1_RemoveAll_m3261187874_gshared
G2k:_EqualityComparer_1_System_Collections_IEqualityComparer_Equals_m1682986002_gshared
K1e:_Hashtable__cctor_m2952659675
Y5f:_X509ChainStatus__ctor_m3628359961_AdjustorThunk
cBb:__ZN10VRSettings8TransferI19StreamedBinaryWriteILb0EEEEvRT_
yod:__ZN5physx2Sc9StaticSim21postActor2WorldChangeEv
IPk:__ZL77LayoutUtility_t4076838048_CustomAttributesCacheGenerator_U3CU3Ef__amU24cache4P21CustomAttributesCache
yMe:_Evidence_get_HostEvidenceList_m2095478124
dmc:__Z57Register_UnityEngine_Transform_INTERNAL_set_localPositionv
NSf:_Context_Clear_m4000337070
sDa:__ZN13GfxDeviceGLES26SetRandomWriteTargetBufferEi15ComputeBufferID
I8f:_IntervalCollection_Normalize_m538796191
zTa:__ZZ23InitPlayerLoopCallbacksvEN49EarlyUpdateResetFrameStatsAfterPresentRegistrator7ForwardEv
z4c:__ZN5physx6shdfnd4sortIPvNS0_4LessIS2_EENS0_19ReflectionAllocatorINS_2Cm5BlockIhLj256EEEEEEEvPT_jRKT0_RKT1_j
tol:_TrackedReference_op_Equality_m3491334086
Hpi:_FontUpdateTracker_UntrackText_m3827316510
AMh:__ZN6il2cpp2gc19AppendOnlyGCHashMapINSt3__24pairIPK11Il2CppImageP11Il2CppClassEEP22Il2CppReflectionModule17ReflectionMapHashIS9_ENS2_8equal_toIS9_EEE10CopyValuesEPv
yXd:__ZN5physx20InternalTriangleMesh7releaseEv
KCd:__ZN5physx6shdfnd5ArrayINS_16PxsCCDBlockArrayINS_13PxsCCDOverlapELi128EE9BlockInfoENS0_19ReflectionAllocatorIS5_EEE15growAndPushBackERKS5_
NWc:__ZNK5physx7NpShape8getFlagsEv
gQi:_Enumerator_System_Collections_IEnumerator_Reset_m886102771_AdjustorThunk
Iac:__ZNK11ICallString6ToUTF8Ev
vjh:_CaptureAssertion_get_Alternate_m2729005740
i6h:_GC_number_stack_black_listed
lXh:__ZN24dense_hashtable_iteratorINSt3__24pairIK10KeyWrapperIP14Il2CppIUnknownEjEES5_N6il2cpp5utils11PointerHashIS3_EEN14dense_hash_mapIS5_jSB_NS5_14EqualsComparerINS0_8equal_toIS4_EEEENS0_9allocatorIS7_EEE9SelectKeyESG_SI_E30advance_past_empty_and_deletedEv
VZa:__ZNSt3__211__sift_downIR17ROSorterDepthPassP15RODataDepthPassEEvT0_S5_T_NS_15iterator_traitsIS5_E15difference_typeES5_
eyg:_Default_SelectMethod_m3081239996
gmd:__ZN5physx19NpRigidBodyTemplateINS_14PxRigidDynamicEE25setMassSpaceInertiaTensorERKNS_6PxVec3E
led:__ZNK5physx7NpCloth16getContactOffsetEv
Xcc:__ZNSt3__214__split_bufferIPN9BlobWrite11TypeContextENS_9allocatorIS3_EEE10push_frontERKS3_
lB:__ZN8Animator17ApplyOnAnimatorIKEiRNS_11AnimatorJobE
E5:__ZN12FileAccessor4ReadEyyPvPy
mla:__ZN13dynamic_arrayI16ShaderKeywordSetLj4EE6insertEPS0_PKS0_S4_
KSb:__Z29Transfer_Blittable_ArrayFieldI18StreamedBinaryReadILb0EE11QuaternionfEvRT_R9ArrayInfoRK23StaticTransferFieldInfo
W9f:_MethodDictionary_IsOverridenKey_m3922224650
Z2e:_SyncHashtable_Contains_m3042906549
Nac:__Z21GetSceneHierarchyPathPK6Object
B1i:_List_1_System_Collections_IList_set_Item_m4016273526_gshared
n6f:_X509KeyUsageExtension_CopyFrom_m931530012
lgj:_ReadOnlyCollection_1_System_Collections_ICollection_get_SyncRoot_m1577944046_gshared
GLg:_AnimationLayerMixerPlayable_IsLayerAdditiveInternal_m3902226808
m7a:__ZN13RenderTexture9SetHeightEi
Tu:__ZN7mecanim9animation17ClearMotionOutputEPNS0_18AnimationNodeStateE
ynb:__ZN16LevelGameManager8TransferI24GenerateTypeTreeTransferEEvRT_
S$g:_LayoutUtility_U3CGetMinHeightU3Em__4_m1769295917
eYg:_Color32__ctor_m1932627809_AdjustorThunk
sZf:_SslStreamBase_Read_m1036897444
qQg:_AnimatorControllerPlayable_INTERNAL_CALL_PlayInFixedTimeInternal_m44271350
S1g:_RectMask2D_PerformClipping_m1232012832
ZVh:__ZN6il2cpp6icalls8mscorlib6System2IO6MonoIO17GetFileAttributesEP12Il2CppStringPi
FTk:_Transform_1_Invoke_m4020530914_gshared
zje:_tt_cmap8_char_index
S8i:_Collection_1_set_Item_m1223389833_gshared
R1:__Z24scripting_class_get_name17ScriptingClassPtr
O7:__ZN13RuntimeStaticI15GUIEventManagerLb0EE13StaticDestroyEPv
XSj:_GUILayoutGroup_ResetCursor_m3160916532
CJg:_CustomEventData_AddUInt16_m3349298376
HHb:__Z29Transfer_Blittable_ArrayFieldI14SafeBinaryReadjEvRT_R9ArrayInfoRK23StaticTransferFieldInfo
vVg:_Camera_FireOnPostRender_m94860165
$4g:_ScrollRect_get_minWidth_m3151814267
Qe:_emscripten_set_keydown_callback
u2e:_Enumerator_get_Value_m3684748062
Jib:__ZN19StreamedBinaryWriteILb0EE21TransferSTLStyleArrayINSt3__26vectorI17SortingLayerEntryNS2_9allocatorIS4_EEEEEEvRT_17TransferMetaFlags
btg:_UInt32_Parse_m3371984903
M5:__ZN12FileAccessorC2Ev
ioh:_X509CertificateCollection_Compare_m1014334435
B9a:__ZN9Transform35SetLocalPositionWithoutNotificationERKN4math7_float3E
q$c:__ZN5physx2Sc15ArticulationSim12applyImpulseERNS0_8BodyCoreERKNS_9PxcFsDataERKNS_6PxVec3ES9_
QNj:__Z33RuntimeInvoker_TypeTag_t141209596PFvvEPK10MethodInfoPvPS4_
uld:__ZNK5physx22NpParticleBaseTemplateINS_16PxParticleSystemENS_16NpParticleSystemEE7getTypeEv
ihh:_PatternLinkStack_GetCurrent_m2994645935
Sjj:_Comparison_1__ctor_m2929820459_gshared
$nj:__Z59RuntimeInvoker_RuntimeObject_RuntimeObject_SByte_t454417549PFvvEPK10MethodInfoPvPS4_
Peh:_AsyncResult__ctor_m1183194429
eGh:__ZN6il2cpp2vm7Runtime12GetConfigDirEv
AE:__ZN4PPtrI13MonoBehaviourE8TransferI18StreamedBinaryReadILb0EEEEvRT_
Y9f:_MethodDictionary_set_Item_m3475146889
FKj:__Z71RuntimeInvoker_Int32_t2071877448_CustomAttributeNamedArgument_t94157543PFvvEPK10MethodInfoPvPS4_
L_c:__ZNK5physx14NpArticulation26getInternalDriveIterationsEv
Lek:__ZL62WellKnownObjectMode_t2630225581_CustomAttributesCacheGeneratorP21CustomAttributesCache
n8g:_Toggle_PlayEffect_m3950629415
CAi:_SetPropertyUtility_SetStruct_TisColorBlock_t2652774230_m2085520896_gshared
bMj:__Z79RuntimeInvoker_Void_t1841601450_Int32_t2071877448_ParameterModifier_t1820634920PFvvEPK10MethodInfoPvPS4_
pEb:__Z39WriteQueueForTransferSignatureIntoCacheRK31TransferFunctionScriptingTraitsRK24TransferRequestSignature17ScriptingClassPtrR23CachedSerializationDataRb
sta:__ZN13RenderManager18UpdateAllRenderersEv
mEj:__Z133RuntimeInvoker_Void_t1841601450_Rect_t3681755626_RuntimeObject_Int32_t2071877448_Int32_t2071877448_Int32_t2071877448_SByte_t454417549PFvvEPK10MethodInfoPvPS4_
_ye:__ZN22BaseUnityConnectClient30OnEnteringStatePausedOrStoppedEv
U9i:_Collection_1_System_Collections_ICollection_get_SyncRoot_m2157752542_gshared
hNh:__ZN15dense_hashtableINSt3__24pairIK10KeyWrapperINS1_IPK12PropertyInfoP11Il2CppClassEEEjEES9_17ReflectionMapHashIS8_EN14dense_hash_mapIS9_jSD_NS9_14EqualsComparerINS0_8equal_toIS8_EEEENS0_9allocatorISB_EEE9SelectKeyESI_SK_E12resize_deltaEjj
ev:__ZN7mecanim5human12HumanPoseAddERNS0_9HumanPoseERKS1_S4_
Mwl:_UnityAction_1__ctor_m2836997866_gshared
XQg:_Animator_ResetTrigger_m865269317
_ik:__ZL64AssemblyLoadEventArgs_t4233815743_CustomAttributesCacheGeneratorP21CustomAttributesCache
Y8i:_Collection_1_IsFixedSize_m218241296_gshared
x9a:__Z24MergeTransformComponentsR9TransformS0_b
qWc:__ZThn24_N5physx2Sc20ArticulationJointSimD0Ev
B3d:__ZN14PhysicsManager32AddToTriggerStayStatesIfRequiredEPK9Rigidbody
dvf:_MonoIO_get_PathSeparator_m2635828107
Bdg:_TypeInfo_get_TypeName_m1722081275
ael:_InternalEnumerator_1_get_Current_m889125315_gshared
nAf:_MonoType_get_Name_m865859211
nif:_CultureInfo__cctor_m2290268677
X3k:_ArrayReadOnlyList_1_System_Collections_IEnumerable_GetEnumerator_m3039869667_gshared
w6e:_Decimal_ThrowAtPos_m3318712794
wQc:__ZN5physx14PxsAABBManager12createBPElemEv
Dcg:_RemotingConfiguration__cctor_m2129988840
n7i:_Collection_1_Insert_m44548038_gshared
lbd:__ZThn12_N5physx7NpShape14onRefCountZeroEv
DCc:__ZL26GeomMTDCallback_ConvexMeshRN5physx6PxVec3ERfRKNS_10PxGeometryERKNS_11PxTransformES5_S8_
KEk:__ZL87GUIUtility_t3275770671_CustomAttributesCacheGenerator_U3CguiIsExitingU3Ek__BackingFieldP21CustomAttributesCache
u4h:__ZN6il2cpp2vm13ComObjectBase19GetRuntimeClassNameEPP15Il2CppHString__
QRb:__Z35Transfer_Blittable_FixedBufferFieldI18StreamedBinaryReadILb0EEyEvRK29SerializationCommandArgumentsR31RuntimeSerializationCommandInfo
R4c:__ZN5physx15NpActorTemplateINS_18PxArticulationLinkEE22setClientBehaviorFlagsENS_7PxFlagsINS_25PxActorClientBehaviorFlag4EnumEhEE
vk:_emscripten_glVertexAttribPointer
lJl:__ZNSt11logic_errorD0Ev
ulb:__ZNK20IntermediateRenderer12GetSceneMaskEv
xra:__ZN14PreloadManager26UpdatePreloadingSingleStepENS_21UpdatePreloadingFlagsEi
BYj:_Material__ctor_m1440882780
cKe:_SHA512Managed_Initialize_m891287980
NSd:__ZN18ScBeforeSolverTask11runInternalEv
anb:__ZN26ProbeSetTetrahedralization8TransferI24GenerateTypeTreeTransferEEvRT_
MMe:_SecurityException__ctor_m1484114982
tch:_SinkProviderData_get_Children_m100594762
Poh:_X509Crl_GetHashName_m183504634
QTe:_Array_GetValue_m1507415734
gkc:__Z57Register_UnityEngine_RectTransform_INTERNAL_set_anchorMinv
cjf:_Object_MemberwiseClone_m2655589444
_Sc:__ZL33GeomOverlapCallback_CapsuleConvexRKN5physx10PxGeometryERKNS_11PxTransformES2_S5_PNS_2Gu12TriggerCacheE
cej:_ReadOnlyCollection_1_System_Collections_IList_get_Item_m375043207_gshared
Roa:__ZN6prcoreL25inner_stretch_i8_bilinearEPKNS_9InnerInfoE
Zra:__ZL30RegisterFilteredObjectCallbackPP12Il2CppObjectiPv
Esf:_DirectoryInfo_ToString_m4208086799
DXg:_Collision_get_transform_m4132935520
IHg:_MonoMethod_get_IsGenericMethod_m4276550811
cUk:_Transform_1_BeginInvoke_m3826027984_gshared
JKg:_AnimationEvent_set_time_m2162176572
GV:__ZN11UnityEngine15CloudWebService16SessionContainer24GetSessionHeaderJsonDataERKN4core12basic_stringIcNS2_20StringStorageDefaultIcEEEERNS2_13StringBuilderE
F6e:_Decimal_op_Implicit_m2149927308
z7:__ZN13RuntimeStaticI21AssetReferenceStorageLb0EE13StaticDestroyEPv
FXd:__ZN5physx20InternalTriangleMesh9loadRTreeERNS_13PxInputStreamEj
rnd:__ZN5physx19NpRigidBodyTemplateINS_14PxRigidDynamicEE25setCMassLocalPoseInternalERKNS_11PxTransformE
HUi:_List_1_set_Capacity_m895816763_gshared
fod:__ZNK5physx15NpActorTemplateINS_13PxRigidStaticEE14getOwnerClientEv
f0h:__ZN6il2cpp6icalls8mscorlib6System9AppDomain22InternalGetProcessGuidEP12Il2CppString
J_b:__ZN15dense_hashtableINSt3__24pairIKN4core12basic_stringIcNS2_20StringStorageDefaultIcEEEE10vector_setI4PPtrI11SpriteAtlasENS0_4lessISB_EE13stl_allocatorISB_L18MemLabelIdentifier79ELi16EEEEES6_20StringHash32FunctionIS6_EN14dense_hash_mapIS6_SH_SK_NS0_8equal_toIS6_EESE_ISI_LSF_79ELi16EEE9SelectKeyESN_SO_E15insert_noresizeERKSI_
Ajd:__ZN5physx2Sc18ParticleSystemCore16releaseParticlesEv
$Gf:_KeyPairPersistence_get_UseMachineKeyStore_m560802076
cEd:__ZNK5physx2Gu29EPASupportMapPairRelativeImplINS0_8CapsuleVENS0_4BoxVEE6getDirEv
K3i:_Collection_1_CopyTo_m1840908033_gshared
dLc:__ZN5physx2Gu20intersectTriangleBoxERKNS_6shdfnd3aos5Vec3VES5_S5_S5_S5_
vul:_S_Client_Start_m1523228684
KQ:__ZN19AudioPlayableOutput19DeallocateResourcesEv
NQk:_Enumerator_System_Collections_IDictionaryEnumerator_get_Entry_m345330700_AdjustorThunk
Gxg:_AssemblyName_get_Name_m1815759940
YEh:__ZNSt3__214__split_bufferIP9FieldInfoRNS_9allocatorIS2_EEEC2EjjS5_
Mdi:_AbstractEventData__ctor_m3586111519
ALb:__Z18Transfer_BlittableI24GenerateTypeTreeTransferLb1EjEvRK29SerializationCommandArgumentsR31RuntimeSerializationCommandInfo
fPf:_MD2Managed_Padding_m410163267
WMh:__ZNK15dense_hashtableINSt3__24pairIK10KeyWrapperINS1_IPK11Il2CppImageP11Il2CppClassEEEjEES9_17ReflectionMapHashIS8_EN14dense_hash_mapIS9_jSD_NS9_14EqualsComparerINS0_8equal_toIS8_EEEENS0_9allocatorISB_EEE9SelectKeyESI_SK_E10test_emptyERK30dense_hashtable_const_iteratorISB_S9_SD_SM_SI_SK_E
I8g:_Toggle_UnityEngine_UI_ICanvasElement_get_transform_m4177274032
cce:__Z49Register_UnityEngine_Collider_INTERNAL_get_boundsv
nlb:__ZN11ColorRGBA328TransferI14SafeBinaryReadEEvRT_
J6d:__ZN5physx6shdfnd5ArrayIPvNS0_19ReflectionAllocatorINS_24NpPtrTableStorageManager8PtrBlockILi4EEEEEE15growAndPushBackERKS2_
ava:__Z11IsHDRFormat13TextureFormat
qUg:_Bounds__ctor_m1202659404_AdjustorThunk
tg:_emscripten_glClearDepth
c5b:__ZNK8GUILayer22GetTypeVirtualInternalEv
oob:__ZN8Playable12SetPlayStateE9PlayState
ztb:__ZN14SafeBinaryRead21TransferSTLStyleArrayINSt3__26vectorIN15QualitySettings14QualitySettingENS1_9allocatorIS4_EEEEEEvRT_17TransferMetaFlags
$Ki:_Array_swap_TisVector2_t2243707579_m3359959735_gshared
c9d:__Z13RegisterClassI12MeshColliderEvv
Tsf:_File_OpenText_m4058508963
LXg:_Collision_get_frictionForceSum_m3438602686
kAb:__ZNSt3__26vectorINS_4pairIPKN5Unity4TypeE7Hash128EENS_9allocatorIS7_EEE8__appendEj
Cdg:_WellKnownClientTypeEntry__ctor_m670594074
tLk:__ZL61FontData_t2614388407_CustomAttributesCacheGenerator_m_MinSizeP21CustomAttributesCache
ARh:__ZN15dense_hashtableINSt3__24pairIK10KeyWrapperIP11Il2CppClassES4_EES5_N6il2cpp8metadata16SZArrayClassHashEN14dense_hash_mapIS5_S4_SA_NS5_14EqualsComparerINS9_19SZArrayClassCompareEEENS0_9allocatorIS7_EEE9SelectKeyESE_SG_EC2ERKSJ_j
X9e:_DateTime_System_IConvertible_ToSingle_m3927769066_AdjustorThunk
Nne:_cff_font_load
gpl:_Enumerator_Reset_m950879083
MWf:_RecordProtocol_SendRecord_m2977889250
Idc:__Z13IsPathCreatedRKN4core12basic_stringIcNS_20StringStorageDefaultIcEEEE
yGd:__ZN5physx35solveContactPreBlock_ConcludeStaticEPKNS_23PxcSolverConstraintDescEjRNS_16PxcSolverContextE
kva:__ZL22stbir__encode_scanlineP11stbir__infoiPvPfiii
Rmj:__Z61RuntimeInvoker_Double_t4078015681_RuntimeObject_RuntimeObjectPFvvEPK10MethodInfoPvPS4_
Csj:__Z136RuntimeInvoker_Void_t1841601450_Byte_t3683104436_RuntimeObject_Int64U26_t763825331_ObjectU26_t597476745_SerializationInfoU26_t4051840202PFvvEPK10MethodInfoPvPS4_
Fce:__ZN20QuadTreeNodeRenderer13StaticDestroyEPv
CW:__ZN11UnityEngine15CloudWebService20WebRequestRestClient5AbortEv
Azi:_Array_InternalArray__ICollection_Remove_TisUInt32_t2149682021_m4198326168_gshared
d1b:__ZN9Transform12CleanupClassEv
Zmj:__Z50RuntimeInvoker_Void_t1841601450_Double_t4078015681PFvvEPK10MethodInfoPvPS4_
v9h:__ZN6il2cpp6icalls8mscorlib6System9Threading16NativeEventCalls19CloseEvent_internalE12Il2CppIntPtr
TA:__ZN11UnityEngine9Animation33SetGenericTransformPropertyValuesERKNS0_30AnimatorGenericBindingConstantERKN7mecanim10ValueArrayEP9Transformb
LSf:_ClientContext_set_ClientHelloProtocol_m2246603449
mVc:__ZN5physx6shdfnd5ArrayIPvNS0_15InlineAllocatorILj256ENS0_19ReflectionAllocatorINS_2Cm5BlockIS2_Lj32EEEEEEEE15growAndPushBackERKS2_
NRd:__ZN5physx18PxsSolverStartTask13setupDescTaskEv
Xfe:_UNITY_FT_Set_Pixel_Sizes
$vi:_U3CMouseDragOutsideRectU3Ec__Iterator1_MoveNext_m2845491958
KVb:__ZNSt3__26vectorIN9ShaderLab19SerializedSubShaderENS_9allocatorIS2_EEE26__swap_out_circular_bufferERNS_14__split_bufferIS2_RS4_EE
NKi:_Array_swap_TisAnimatorClipInfo_t3905751349_TisAnimatorClipInfo_t3905751349_m1375833338_gshared
Loj:__Z116RuntimeInvoker_RuntimeObject_RuntimeObject_Int32_t2071877448_RuntimeObject_RuntimeObject_RuntimeObject_RuntimeObjectPFvvEPK10MethodInfoPvPS4_
uEl:_AnalyticsTracker_TriggerEvent_m1494303835
tdk:__ZL59IChannelReceiver_t2788889625_CustomAttributesCacheGeneratorP21CustomAttributesCache
Pii:_StandaloneInputModule_IsModuleSupported_m623598506
dBc:__ZN5physx3Cct13BoxController6resizeEf
n9g:_ResourceReader_Close_m3256966401
Ehg:_SByte_ToString_m4105923225_AdjustorThunk
Gfg:_StreamingContext_t1417235061_marshal_pinvoke_cleanup
rif:_CultureInfo_ConstructCurrentUICulture_m3363349599
zub:__ZN13dynamic_arrayI7SubMeshLj4EE18resize_initializedEjRKS0_12ResizePolicy
IOk:__ZL75CanvasScaler_t2574720772_CustomAttributesCacheGenerator_m_FallbackScreenDPIP21CustomAttributesCache
Mzf:_MonoType_GetEvent_m4160342003
C1g:_RawImage_set_texture_m2400157626
rTd:__ZN5physx6shdfnd5ArrayINS_2Cm12DelegateTaskINS_2Sc5SceneEXadL_ZNS5_19updateCCDSinglePassEPNS_10PxBaseTaskEEEEENS0_19ReflectionAllocatorIS8_EEE8recreateEj
nCl:_PrimeHelper_ToPrime_m1606935350_gshared
Clb:__Z30ProcessDynamicBatchGeometryJobP25DynamicVBOGeometryJobDataj
D2k:_EqualityComparer_1__ctor_m81618677_gshared
r_a:__ZNSt3__27__sort4IRNS_6__lessI11CulledLightS2_EEPS2_EEjT0_S6_S6_S6_T_
JIh:__ZN6il2cpp2vm14TypeNameParser26ParseArrayModifierOptionalEv
NSg:_AudioClipPlayable_INTERNAL_CALL_GetLoopedInternal_m3082735156
mCf:_MSCompatUnicodeTable_Level3_m260824928
Bwi:_LayoutElement_OnEnable_m3478706401
c3:__Z26scripting_object_get_class18ScriptingObjectPtr
VTh:__ZN6il2cpp6icalls8mscorlib6System10Reflection8Assembly13get_code_baseEP24Il2CppReflectionAssemblyb
xDl:_Func_3__ctor_m3917225629_gshared
n5c:__ZN5physx34NpShapeGetScRigidObjectFromScbSLOWERKNS_3Scb5ShapeE
C0b:__ZNK28MonoBehaviourPropertyBinding15GenerateBindingERKN4core12basic_stringIcNS0_20StringStorageDefaultIcEEEEbRN11UnityEngine9Animation14GenericBindingE
tWj:_GUIStyle_CalcMinMaxWidth_m2027503105
sof:_Int32_FindExponent_m3187554672
lHf:_KeyPairPersistence_Load_m1355205585
_3g:_ScrollRect_get_horizontalScrollbarVisibility_m4152068235
upf:_Int32_ToString_m2960866144_AdjustorThunk
Oqj:__Z127RuntimeInvoker_Void_t1841601450_IntPtr_t_Int32_t2071877448_SByte_t454417549_Int32_t2071877448_SByte_t454417549_SByte_t454417549PFvvEPK10MethodInfoPvPS4_
GCl:_HashSet_1_Contains_m3626542335_gshared
_Jj:__Z104RuntimeInvoker_Int32_t2071877448_AnimatorClipInfo_t3905751349_AnimatorClipInfo_t3905751349_RuntimeObjectPFvvEPK10MethodInfoPvPS4_
eZc:__ZNK5physx21PxsBodyTransformVault12getTransformERKNS_11PxsBodyCoreE
w2h:__ZN6il2cpp6icalls8mscorlib6System11Environment15internalGetHomeEv
TMl:dynCall_iiiiiiffiiiiiiiiiffffiiii
RKd:__ZN5physx2Gu33MultiplePersistentContactManifold10fromBufferEPh
BFh:__ZNSt3__214__split_bufferIN6il2cpp6icalls8mscorlib6System12PropertyPairERNS_9allocatorIS5_EEEC2EjjS8_
okk:__ZL79Convert_t2607082565_CustomAttributesCacheGenerator_Convert_ToUInt16_m2130758075P21CustomAttributesCache
_Cc:__ZN44ConvexVsHeightfieldContactGenerationCallback7onEventEjPj
nfg:__ZN21InterfaceFuncInvoker4IP12Il2CppObjectS1_P28SerializationInfo_t22898743028StreamingContext_t1417235061S1_E6InvokeEjP11Il2CppClassS1_S1_S3_S4_S1_
klk:__ZL58IFormatProvider_t2849799027_CustomAttributesCacheGeneratorP21CustomAttributesCache
OLj:__Z75RuntimeInvoker_Void_t1841601450_Int32_t2071877448_KeyValuePair_2_t888819835PFvvEPK10MethodInfoPvPS4_
Szl:_ObjectPool_1_Get_m3724675538_gshared
Wab:__ZN13ScreenManagerD0Ev
gZi:_List_1_CheckIndex_m4231572822_gshared
eC:__ZN7mecanim8skeleton26SkeletonPoseComputeGlobalQEPKNS0_8SkeletonEPKNS0_13SkeletonPoseTIN4math4trsXEEEPS7_ii
Bni:_Graphic_UnregisterDirtyMaterialCallback_m819829270
gzc:__ZN8JSONRead21TransferSTLStyleArrayI13dynamic_arrayIfLj4EEEEvRT_18MemLabelIdentifier17TransferMetaFlags
EEd:__ZN5physx2Gu19_gjkRelativeRayCastINS0_9TriangleVENS0_8CapsuleVEEEbRT_RT0_RKNS_6shdfnd3aos15PsMatTransformVERKNS9_6FloatVERKNS9_5Vec3VESI_RSD_RSG_SK_f
gYi:_List_1_GetEnumerator_m2672519407_gshared
GB:__ZN9BlobWrite8TransferI22OffsetPtrArrayTransferIiEEEvRT_PKc17TransferMetaFlags
Rsj:__Z82RuntimeInvoker_Boolean_t3825574718_SByte_t454417549_RuntimeObject_SByte_t454417549PFvvEPK10MethodInfoPvPS4_
YBf:_ContractionComparer_Compare_m314873025
t5i:_Collection_1_IsFixedSize_m1690655146_gshared
_zi:_PlayableHandle_IsPlayableOfType_TisRuntimeObject_m4111068959_AdjustorThunk
WJb:__Z18Transfer_BlittableI17RemapPPtrTransferLb1EjEvRK29SerializationCommandArgumentsR31RuntimeSerializationCommandInfo
iXj:_GUIUtility_EndGUIFromException_m2091524531
PZc:__ZN5physx6shdfnd5ArrayIPvNS0_15InlineAllocatorILj256ENS0_19ReflectionAllocatorINS_11NpAggregateEEEEEE15growAndPushBackERKS2_
Mpf:_Int64_System_IConvertible_ToDouble_m638786774
Imd:__ZNK5physx14NpRigidDynamic21getMaxAngularVelocityEv
xN:__ZN4FMOD6System7releaseEv
EAd:__ZN5physx6shdfnd8PoolBaseINS_2Sc18TriggerInteractionENS0_19ReflectionAllocatorIS3_EEE15disposeElementsEv
y2e:_HashKeys_get_IsSynchronized_m4207641174
kNb:__Z18Transfer_BlittableI19StreamedBinaryWriteILb0EELb1E8BitFieldEvRK29SerializationCommandArgumentsR31RuntimeSerializationCommandInfo
h5:__Z18PathToAbsolutePathRKN4core12basic_stringIcNS_20StringStorageDefaultIcEEEE
Rwj:__Z44RuntimeInvoker_HashAlgorithmType_t1654661965PFvvEPK10MethodInfoPvPS4_
Tyk:__ZL135AnimationMixerPlayable_t1343787797_CustomAttributesCacheGenerator_AnimationMixerPlayable_INTERNAL_CALL_CreateHandleInternal_m4073934737P21CustomAttributesCache
uPi:_Enumerator_MoveNext_m3078170540_AdjustorThunk
O7d:__ZN5physx28PxcContactCapsuleHeightFieldERKNS_2Gu13GeometryUnionES3_RKNS_11PxTransformES6_RKfRNS_10PxcNpCacheERNS0_13ContactBufferE
GKe:_SymmetricAlgorithm_get_Padding_m718051685
Lxe:__ZN21UnityAnalyticsManager15ThreadedCleanupEv
Pph:_Action_Invoke_m3801112262
VCc:__ZL31PointInConvexPolygon2D_OutCodesPKfjffffRh
jnj:__Z79RuntimeInvoker_Decimal_t724701077_RuntimeObject_Int32_t2071877448_RuntimeObjectPFvvEPK10MethodInfoPvPS4_
Tkd:__ZN5physx22NpParticleBaseTemplateINS_16PxParticleSystemENS_16NpParticleSystemEE18setDynamicFrictionEf
Rua:__ZL13BlitImageImplR14ImageReferenceiiRKS_NS_10ColorSpaceENS_8BlitModeEb
hqa:__ZN6prcoreL17RemapGenericFloatI18TexFormatRGBAFloat17TexFormatRGBFloatEEvPKNS_9InnerInfoE
a1c:__ZN5physx2Sc21ArticulationJointCore21setInternalComplianceEf
ljk:__ZL76Convert_t2607082565_CustomAttributesCacheGenerator_Convert_ToChar_m541258017P21CustomAttributesCache
z1k:_EqualityComparer_1_System_Collections_IEqualityComparer_GetHashCode_m1465362976_gshared
Dae:__ZN9Rigidbody12MoveRotationERK11Quaternionf
mth:__ZL25UnresolvedVirtualCall_159P12Il2CppObject18Color32_t874517518PK10MethodInfo
zmj:__Z64RuntimeInvoker_RuntimeObject_Int16_t4041245914_Int16_t4041245914PFvvEPK10MethodInfoPvPS4_
v$d:__ZNK5physx6shdfnd10Foundation13getErrorLevelEv
Iva:__ZN29SerializeTraitsForStringTypesIN4core12basic_stringIcNS0_20StringStorageDefaultIcEEEEE8TransferI24GenerateTypeTreeTransferEEvRS4_RT_
ZVj:_GUIUtility_Internal_GetHotControl_m2510727642
EL:__ZN12AudioManager29ShutdownReinitializeAndReloadEv
pmh:_NetscapeCertTypeExtension_Decode_m2210025005
Ulk:__ZL59StringComparison_t2376310518_CustomAttributesCacheGeneratorP21CustomAttributesCache
BUd:__ZN5physx2Cm12DelegateTaskINS_2Sc5SceneEXadL_ZNS3_15postNarrowPhaseEPNS_10PxBaseTaskEEEE11runInternalEv
f9d:__Z20ConvertContactToMonoP9Collision
yjl:_RectTransform_GetLocalCorners_m1836626405
Ldg:_BaseFixupRecord_DoFixup_m1821597450
Wvh:__ZN15dense_hashtableINSt3__24pairIK10KeyWrapperIPK22Il2CppGenericParameterEP11Il2CppClassEES6_N6il2cpp5utils11PointerHashIS4_EEN14dense_hash_mapIS6_S9_SE_NS6_14EqualsComparerINS0_8equal_toIS5_EEEENS0_9allocatorISA_EEE9SelectKeyESJ_SL_E6insertERKSA_
Xsf:_FileLoadException__ctor_m1356374414
QRf:_TlsStream_Reset_m1504601050
pSi:__ZN23InterfaceActionInvoker2IP23Int32U5BU5D_t3030399641iE6InvokeEjP11Il2CppClassP12Il2CppObjectS1_i
GFa:__ZN14DataBufferGLES16RecreateWithDataEjPKv
adc:__Z29GetGlobalAllowNameConversionsv
UCc:__ZL17transformVerticesRfS_S_S_PfjPKN5physx6PxVec3EPKhRKNS1_7PxMat33E
T7d:__ZNK5physx2Gu15HeightFieldUtil31getFaceIndexAtShapePointNoTest2Ejff
pab:__ZN8Material8SetColorEN9ShaderLab16FastPropertyNameERK10ColorRGBAf
YNd:__ZN5physx6shdfnd5ArrayIPNS_14PxLightCpuTaskENS0_13TempAllocatorEE6resizeEjRKS3_
SFg:_Module_GetCustomAttributes_m3581287913
S6j:__ZL67Type_t_CustomAttributesCacheGenerator_Type_IsSubclassOf_m2450899481P21CustomAttributesCache
FBd:__ZNK5physx2Sq10AABBPruner5sweepERKNS0_9ShapeDataERKNS_6PxVec3ERfRNS0_14PrunerCallbackE
RNb:__ZN10RectOffset8TransferI19StreamedBinaryWriteILb0EEEEvRT_
Dsl:_DivingPlayerState_Enter_m408441155
oQi:_Enumerator__ctor_m2054046066_AdjustorThunk
V1:__ZL41AssemblyNameMatchesWithOrWithoutExtensionPKcS0_
LJj:__Z53RuntimeInvoker_Boolean_t3825574718_Color32_t874517518PFvvEPK10MethodInfoPvPS4_
Dwd:__ZN5physx2Sc5Scene21fireCallBacksPostSyncEv
URg:_AssemblyIsEditorAssembly__ctor_m2639706522
YJa:__ZN14GfxContextGLES43AddRenderSurfaceToDeferredFBOInvalidateListEPK17RenderSurfaceGLES
jDd:__ZN5physx17PxsCCDAdvanceTask11runInternalEv
wka:__ZN11NamedObject23VirtualRedirectTransferER14SafeBinaryRead
T5j:__ZL74RuntimeArray_CustomAttributesCacheGenerator_Array_BinarySearch_m3522310993P21CustomAttributesCache
h4j:__ZL81String_t_CustomAttributesCacheGenerator_String_TrimStart_m710830036____trimChars0P21CustomAttributesCache
Nfe:__ZNSt3__26vectorIN20TextRenderingPrivate8FontImpl13CharacterInfoE13stl_allocatorIS3_L18MemLabelIdentifier1ELi16EEE6insertENS_11__wrap_iterIPKS3_EERS9_
Hra:__ZN23PreloadManagerOperation6IsDoneEv
Ttk:__ZL102DataUtility_t4181890362_CustomAttributesCacheGenerator_DataUtility_INTERNAL_CALL_GetOuterUV_m121019172P21CustomAttributesCache
nGh:__ZN6il2cpp2vm7Runtime15InvokeWithThrowEPK10MethodInfoPvPS5_
SKf:_X509Certificate_get_RawData_m3000055075
L7b:__Z33GetHasChangedDeprecatedSystemMaskv
Y3h:__ZN6il2cpp5utils11StringUtils11Utf16ToUtf8ERKNSt3__212basic_stringIDsNS2_11char_traitsIDsEENS2_9allocatorIDsEEEE
DNj:__Z30RuntimeInvoker_Link_t865133271PFvvEPK10MethodInfoPvPS4_
lNc:__ZN5physx3Cct26CharacterControllerManagerD2Ev
YRk:_Enumerator_VerifyState_m1165543189_AdjustorThunk
Daf:_DateTime_AddSeconds_m722082155_AdjustorThunk
L$e:_SynchronizedArrayListWrapper_CopyTo_m956887031
IDk:__ZL80GUIStyle_t1799908754_CustomAttributesCacheGenerator_GUIStyle_Cleanup_m1915255373P21CustomAttributesCache
Yfl:_Comparer_1__ctor_m1202126643_gshared
Avk:__ZL92Transform_t3275118058_CustomAttributesCacheGenerator_Transform_get_parentInternal_m927919099P21CustomAttributesCache
hwa:__ZN21LightProbeProxyVolume18HasHardwareSupportEv
Moa:__ZN6prcoreL31inner_stretch_argb8888_bilinearEPKNS_9InnerInfoE
aPb:__Z18Transfer_BlittableI18StreamedBinaryReadILb1EELb1E8BitFieldEvRK29SerializationCommandArgumentsR31RuntimeSerializationCommandInfo
Phe:_UNITY_FT_Outline_Decompose
XUf:_TlsClientCertificate_get_ClientCertificate_m3062440489
oMe:_StrongNamePublicKeyBlob_ToString_m3721281223
u8h:_GC_init_size_map
d7k:_InternalEnumerator_1_get_Current_m198513457_AdjustorThunk
oyk:__ZL116AudioClipPlayable_t192218916_CustomAttributesCacheGenerator_AudioClipPlayable_INTERNAL_CALL_ValidateType_m1977251214P21CustomAttributesCache
MCd:__ZN5physx6shdfnd8internal8HashBaseINS0_4PairIKNS3_IPKNS_12PxsRigidCoreEPKNS_12PxsShapeCoreEEEPNS_11PxsCCDShapeEEESA_NS0_4HashISA_EENS1_11HashMapBaseISA_SD_SG_NS0_9AllocatorEE6GetKeyESI_Lb1EE15reserveInternalEj
$al:_InternalEnumerator_1__ctor_m1240086835_AdjustorThunk
rYa:__Z20scripting_object_new17ScriptingClassPtr
pmf:_TextInfo__ctor_m2782608694
Sfc:__Z31Display_CUSTOM_GetSystemExtImpl13Il2Cpp_IntPtrPiS0_
D2i:_Queue_1_System_Collections_ICollection_CopyTo_m772787461_gshared
Qmc:__Z58Register_UnityEngine_Object_Internal_CloneSingleWithParentv
hLh:__ZN24dense_hashtable_iteratorINSt3__24pairIK10KeyWrapperINS1_IPK9FieldInfoP11Il2CppClassEEEjEES9_17ReflectionMapHashIS8_EN14dense_hash_mapIS9_jSD_NS9_14EqualsComparerINS0_8equal_toIS8_EEEENS0_9allocatorISB_EEE9SelectKeyESI_SK_E30advance_past_empty_and_deletedEv
ymf:_TextInfo_ToUpper_m299550697
txd:__ZN5physx2Sc5Scene21setDominanceGroupPairEhhRKNS_20PxDominanceGroupPairE
xjj:_ReadOnlyCollection_1_System_Collections_IList_Contains_m4073811941_gshared
J2a:__ZN18ShadowMapJobHeaderD0Ev
Wpi:_Graphic_OnRectTransformDimensionsChange_m1610753363
C8e:_Convert_ToUInt16_m3265369225
P:Math_exp
rzf:_MonoEnumInfo_get_Cache_m3551569711
Rp:FUNCTION_TABLE_iiifi
V$h:__ZN6il2cpp2os5posix13PosixAutoLockD2Ev
Oyi:_Array_InternalArray__ICollection_Contains_TisVector3_t2243707580_m3625701788_gshared
Iya:__ZNSt3__26vectorINS_4pairIyP17VertexDeclarationEENS_9allocatorIS4_EEE6insertENS_11__wrap_iterIPKS4_EERS9_
ieh:__ZN21InterfaceFuncInvoker0IP6Type_tE6InvokeEjP11Il2CppClassP12Il2CppObject
x6i:_Collection_1_ClearItems_m3021709828_gshared
r6j:__ZL66RuntimeArray_CustomAttributesCacheGenerator_Array_Sort_m1999601238P21CustomAttributesCache
r2i:_Enumerator__ctor_m1424070651_AdjustorThunk
Xle:_cff_get_advances
m8a:__ZN13MonoBehaviour9SetScriptERK4PPtrI10MonoScriptE18ScriptingObjectPtr
Eyi:_Array_InternalArray__ICollection_Contains_TisPlayableBinding_t2498078091_m4267109606_gshared
vhe:_UNITY_FT_Create_Class_sfnt_module_class
_7g:_Text_CalculateLayoutInputHorizontal_m1578553982
Duk:__ZL87Object_t1021602117_CustomAttributesCacheGenerator_Object_DestroyObject_m282495858____t1P21CustomAttributesCache
SWh:__ZNSt3__218uninitialized_copyIPNS_4pairIK10KeyWrapperIP14Il2CppIUnknownEjEES8_EET0_T_SA_S9_
Uod:__ZN5physx7NpScene12loadFromDescERKNS_11PxSceneDescE
Xcf:_Decimal_IsZero_m3557909184_AdjustorThunk
pZe:_Char_ToString_m1401375624
JGe:_MD5CryptoServiceProvider__cctor_m3309191799
Sea:__ZNK10FileSystem16LastErrorMessageEv
Nnc:__ZN13ProduceHelperI18CrashReportManagerLb0EE7ProduceE18MemLabelIdentifier18ObjectCreationMode
U5h:__ZNK6il2cpp8metadata14Il2CppTypeLessclEPK10Il2CppTypeS4_
e8f:_InterpreterFactory_get_NamesMapping_m3186583301
Kch:_ConfigHandler_ReadCustomProviderData_m784203316
rsk:__ZL87Input_t1785128008_CustomAttributesCacheGenerator_Input_get_compositionString_m636835668P21CustomAttributesCache
U9b:__ZN11TimeManager16HasFixedTimeStepEv
fRi:_Enumerator_System_Collections_IEnumerator_Reset_m3052395060_gshared
p6i:_Collection_1_System_Collections_ICollection_get_SyncRoot_m1997144145_gshared
oNf:_Kernel_DwordDivMod_m3728402123
_Cb:__ZN13MonoBehaviour13AwakeFromLoadE17AwakeFromLoadMode
PJb:__ZL26Transfer_SimpleNativeClassI17RemapPPtrTransfer8GradientLb1EEvRK29SerializationCommandArgumentsR31RuntimeSerializationCommandInfo
Z7b:__ZN12CachedWriter9InitWriteER15CacheWriterBase
x6b:__Z21UnsignedInt64ToStringy
Cmg:_UTF7Decoder__ctor_m549434986
rxd:__ZN5physx14PxsAABBManager15createAggregateEPvb
Ddl:_InternalEnumerator_1_get_Current_m1025321669_AdjustorThunk
g$j:_Object_t1021602117_marshal_pinvoke
Sic:__Z36MonoBehaviour_CUSTOM_InvokeRepeatingP12Il2CppObjectP12Il2CppStringff
nrl:_WaitForSecondsRealtime_get_keepWaiting_m741039114
rmc:__Z66Register_UnityEngine_Transform_INTERNAL_CALL_InverseTransformPointv
X8k:_InternalEnumerator_1_get_Current_m1089848479_AdjustorThunk
gaa:__ZZN15DirectorManager15InitializeClassEvEN41FixedUpdateDirectorFixedUpdateRegistrator7ForwardEv
B8k:_InternalEnumerator_1_MoveNext_m2720582493_gshared
Zoh:_X509CrlEntry_get_RevocationDate_m1257876856
qVi:_List_1_IndexOf_m1434084853_gshared
mb:invoke_iiiiifiiiif
Yoh:_X509Crl_VerifySignature_m1390212587
_6f:_Group__ctor_m4103922028
FUa:__ZN6Camera26ClearIntermediateRenderersEj
jEh:__ZNSt3__214__split_bufferI6pollfdRNS_9allocatorIS1_EEEC2EjjS4_
_ll:_SphereCollider_INTERNAL_set_center_m3085859499
BUl:_glLinkProgram__wrapper
upa:__ZN6prcoreL12RemapGenericI17TexFormatARGB888815TexFormatBGR888EEvPKNS_9InnerInfoE
PGe:_MD5CryptoServiceProvider_ProcessFinalBlock_m1052610785
OH:__Z79AnimatorControllerPlayable_CUSTOM_INTERNAL_CALL_GetNextAnimatorClipInfoInternalR9HPlayablei
$$e:_BitArray_Set_m2878881714
laj:_Collection_1_get_Item_m4215988522_gshared
gbd:__ZN5physx7NpShape8requiresERNS_23PxProcessPxBaseCallbackE
zXh:__ZN6il2cpp6icalls8mscorlib6System13Globalization11CultureInfo35construct_internal_locale_from_nameEP17Il2CppCultureInfoP12Il2CppString
PLb:__ZL22Transfer_ManagedObjectI24GenerateTypeTreeTransferLb1EEvRK29SerializationCommandArgumentsR31RuntimeSerializationCommandInfo
jvk:__ZL72SceneManager_t90660965_CustomAttributesCacheGenerator_activeSceneChangedP21CustomAttributesCache
qGc:__ZN24ConvexVsHeightfieldSweepC2ERN5physx2Gu15HeightFieldUtilERKNS1_14ConvexHullDataERKNS0_11PxMeshScaleERKNS0_11PxTransformESC_RKNS0_6PxVec3EfNS0_7PxFlagsINS0_9PxHitFlag4EnumEtEEfbb
mck:__ZL55COMException_t1790481504_CustomAttributesCacheGeneratorP21CustomAttributesCache
IFf:_ASN1_get_Count_m404940548
deh:_ContextAttribute_Equals_m53324298
_Vg:_Canvas_ForceUpdateCanvases_m2446828475
Dk:_emscripten_set_main_loop_timing
Tfc:__Z34Display_CUSTOM_GetRenderingExtImpl13Il2Cpp_IntPtrPiS0_
uwg:_WeakReference_AllocateHandle_m1783929473
Z0c:__ZN5physx2Sc21ArticulationJointCore22setTangentialStiffnessEf
UJi:_Array_Sort_TisRuntimeObject_m3674422195_gshared
Jbe:__Z40CapsuleCollider_Set_Custom_PropDirectionP12Il2CppObjecti
Q8d:__ZN14CompletionTask22ProcessAllPhysicsTasksEv
O9a:__ZN14ImageReference10FlipImageYEv
Ajb:__Z32TransferEnumWithNameForceIntSizeI14SafeBinaryRead13TargetEyeMaskEvRT_RT0_PKc17TransferMetaFlags
Apc:__Z14GetDefaultSkini
uif:_CultureInfo_get_Name_m3316229893
taf:_DateTime_get_Ticks_m310281298_AdjustorThunk
dJ:__ZN4FMOD3DSP9setBypassEb
sbj:_Collection_1_System_Collections_IList_get_Item_m287847793_gshared
Feb:__Z19NormalizeWheelInputf
M6f:_CaptureCollection_CopyTo_m1982767892
zcb:__Z29StdTemplateConversionFunctionIsaEbPvR14SafeBinaryRead
Wyi:_Array_InternalArray__ICollection_Remove_TisLink_t865133271_m1984184141_gshared
jzc:__Z29Transfer_Blittable_ArrayFieldI8JSONReadhEvRT_R9ArrayInfoRK23StaticTransferFieldInfo
ixi:_LayoutRebuilder_IsDestroyed_m3442208294
Kac:__ZN11MonoManager25GetImageFromAssemblyIndexEi
zRk:_Enumerator_VerifyState_m1547102902_AdjustorThunk
Hfd:__ZN5physx2Sc9ClothCore17addCollisionPlaneERKNS_21PxClothCollisionPlaneE
RVa:__ZN22RenderingCommandBuffer20CleanupCommandBufferEv
ftj:__Z165RuntimeInvoker_Void_t1841601450_UInt32U26_t2197289955_Int32_t2071877448_UInt32U26_t2197289955_Int32_t2071877448_Int32_t2071877448_Int32_t2071877448_Int32_t2071877448PFvvEPK10MethodInfoPvPS4_
xMj:__Z99RuntimeInvoker_Void_t1841601450_CustomAttributeTypedArgumentU5BU5DU26_t4216645529_Int32_t2071877448PFvvEPK10MethodInfoPvPS4_
zuc:__Z18Transfer_BlittableI9JSONWriteLb1EtEvRK29SerializationCommandArgumentsR31RuntimeSerializationCommandInfo
MIk:__ZL110ExecuteEvents_t1693084770_CustomAttributesCacheGenerator_ExecuteEvents_U3Cs_HandlerListPoolU3Em__0_m2903690915P21CustomAttributesCache
wbe:__Z34MeshCollider_Get_Custom_PropConvexP12Il2CppObject
Ysf:_FileLoadException__ctor_m918124939
Xk:___syscall85
SWd:__ZNK5physx13PxHeightField8isKindOfEPKc
X1j:_PlayableHandle_GetHashCode_m1983839661_AdjustorThunk
GXa:__ZNSt3__26__sortIRPFbP10GUIElementS2_EPS2_EEvT0_S7_T_
XNf:_SequentialSearchPrimeGeneratorBase_GenerateSearchBase_m2930465198
Rfe:__Z14ValidateFormatR13dynamic_arrayIN20TextRenderingPrivate16TextFormatChangeELj4EE
M0h:__ZN6il2cpp2os6Thread19DetachCurrentThreadEv
pwh:__ZN6il2cpp2vmL21SetupInterfacesLockedEP11Il2CppClassRKNS_2os12FastAutoLockE
sFb:__ZN11MonoManager23VirtualRedirectTransferER24GenerateTypeTreeTransfer
tUd:__ZNK5physx2Sc18ParticleSystemCore16getInternalFlagsEv
tnb:__ZN19StreamedBinaryWriteILb0EE8TransferI13dynamic_arrayI8Vector3fLj4EEEEvRT_PKc17TransferMetaFlags
Qz:__ZN23AnimationPlayableOutput17SetSourcePlayableEP8Playable
A6f:_Capture__ctor_m885749277
fOj:__Z114RuntimeInvoker_Int32_t2071877448_CustomAttributeTypedArgument_t1498197914_CustomAttributeTypedArgument_t1498197914PFvvEPK10MethodInfoPvPS4_
wVj:_GUIStyle_set_clipOffset_m3871613343
ati:_SubmitEvent__ctor_m222860306
SLc:__ZN16ControllerFilter9preFilterERKN5physx12PxFilterDataEPKNS0_7PxShapeEPKNS0_12PxRigidActorERNS0_7PxFlagsINS0_9PxHitFlag4EnumEtEE
CV:__ZN11UnityEngine15CloudWebService14DataDispatcher15SetupWebRequestEv
ixf:_TextWriter__cctor_m4047845042
hXf:_ReceiveRecordAsyncResult_get_Record_m1336421357
Tze:__ZN11UnityEngine15PlatformWrapper13GetShaderCapsEv
EId:__ZN16MBPOS_TmpBuffers16allocateSleepingEjj
_Zk:_Dictionary_2_CopyTo_m1385625162_gshared
ijk:__ZL76Convert_t2607082565_CustomAttributesCacheGenerator_Convert_ToByte_m509311047P21CustomAttributesCache
hYk:_Dictionary_2_System_Collections_Generic_IEnumerableU3CSystem_Collections_Generic_KeyValuePairU3CTKeyU2CTValueU3EU3E_GetEnumerator_m1742521661_gshared
pFj:__Z87RuntimeInvoker_Void_t1841601450_RuntimeObject_StringU26_t638738783_StringU26_t638738783PFvvEPK10MethodInfoPvPS4_
uti:_InputField_CaretBlink_m3960486606
LHf:_SmallXmlParser_ReadCharacters_m1966365555
SYf:_InternalAsyncResult_get_CompletedWithError_m3993955322
S5b:__ZN21FixedBehaviourManager6UpdateEv
pdc:__ZN9Transform9SetParentEPS_NS_15SetParentOptionE
gri:_GridLayoutGroup_set_startCorner_m1660251450
ZAl:_EqualityComparer_1_get_Default_m3437633110_gshared
Q$:__ZN19ShaderPropertySheet8SetFloatEN9ShaderLab16FastPropertyNameEfNS_8SetFlagsE
hMk:__ZL68InputField_t1631627530_CustomAttributesCacheGenerator_m_AsteriskCharP21CustomAttributesCache
Vsa:__ZN19RuntimeSceneManager24BeginIntegrateMainThreadEP10UnityScene
M_c:__ZN5physx14NpArticulation26setExternalDriveIterationsEj
wDc:__ZN16RayRTreeCallbackILi0ELb0EED0Ev
Cjl:_Transform_TransformPoint_m3272254198
aOd:__ZN5physx20PxsParticleSystemSim23scheduleCollisionUpdateERNS_10PxBaseTaskE
F1h:__ZNSt3__2plIcNS_11char_traitsIcEENS_9allocatorIcEEEENS_12basic_stringIT_T0_T1_EERKS9_S6_
$xf:_LocalDataStoreSlot__cctor_m1192669356
pVb:__ZN9ShaderLab20SerializedSubProgramaSERKS0_
WJl:_roundf
oRe:_String_CreateString_m2556700934
Hib:__ZN18StreamedBinaryReadILb0EE21TransferSTLStyleArrayINSt3__26vectorI17SortingLayerEntryNS2_9allocatorIS4_EEEEEEvRT_17TransferMetaFlags
Twk:__ZL80Physics_t634932869_CustomAttributesCacheGenerator_Physics_RaycastAll_m3650851272P21CustomAttributesCache
IOc:__ZN5physx15PxBoxControllerD0Ev
It:__ZN8Animator15SetPrepareStageEv
K6g:_Slider_get_axis_m162140813
HGg:_MonoEventInfo_t2190036573_marshal_pinvoke
qwh:__ZN6il2cpp2vmL24SetupTypeHierarchyLockedEP11Il2CppClassRKNS_2os12FastAutoLockE
Meb:__ZL11TextHandleriPK23EmscriptenKeyboardEventPv
Y0a:__Z20CalculateLightMatrixRK15SharedLightDataP10Matrix4x4f
g5g:_ScrollRect_SetLayoutHorizontal_m3486408020
lfe:_destroy_face
XBl:_GenericEqualityComparer_1_GetHashCode_m116190842_gshared
gRk:_Enumerator_VerifyState_m1547102902_gshared
Z9j:__ZL55StreamWriter_t3858580635_CustomAttributesCacheGeneratorP21CustomAttributesCache
ePc:__ZN5physx19PxAllocatorCallbackD2Ev
$Sa:__ZN24dense_hashtable_iteratorINSt3__24pairIKN4core12basic_stringIcNS2_20StringStorageDefaultIcEEEEP20ArchiveStorageReaderEES6_20StringHash32FunctionIS6_EN14dense_hash_mapIS6_S9_SC_NS0_8equal_toIS6_EE13stl_allocatorISA_L18MemLabelIdentifier54ELi16EEE9SelectKeyESF_SI_EC2EPK15dense_hashtableISA_S6_SC_SK_SF_SI_EPSA_SQ_b
U9h:__ZN6il2cpp6icalls8mscorlib6System8Security12Cryptography24RNGCryptoServiceProvider13RngInitializeEP11Il2CppArray
C$i:_List_1_System_Collections_ICollection_get_IsSynchronized_m227393674_gshared
C0f:_IPAddress__cctor_m3624830012
tkd:__ZNK5physx15NpActorTemplateINS_16PxParticleSystemEE17getDominanceGroupEv
C6g:_Slider_Rebuild_m3442875945
_nb:__ZN4PPtrI5LightE8TransferI19StreamedBinaryWriteILb0EEEEvRT_
eNc:__ZN5physx3Cct26CharacterControllerManager21createObstacleContextEv
TAk:__ZL115AnimatorStateInfo_t2577870592_CustomAttributesCacheGenerator_AnimatorStateInfo_t2577870592____nameHash_PropertyInfoP21CustomAttributesCache
ruh:__ZL25UnresolvedVirtualCall_218P12Il2CppObject40CustomAttributeTypedArgument_t1498197914PK10MethodInfo
u2f:_AsnEncodedData_EnhancedKeyUsageExtension_m1452131166
jNk:__ZL69Scrollbar_t3248359358_CustomAttributesCacheGenerator_m_OnValueChangedP21CustomAttributesCache
$Pb:__Z19TransferField_ArrayI18StreamedBinaryReadILb1EE27Converter_SimpleNativeClassI17AnimationCurveTplIfEEEvRK23StaticTransferFieldInfoR31RuntimeSerializationCommandInfoRT0_
oOi:_KeyValuePair_2__ctor_m3201181706_gshared
Ojd:__ZN5physx15NpActorTemplateINS_15PxParticleFluidEE7releaseEv
f7f:_GroupCollection_get_IsSynchronized_m1100663675
fGa:__ZN18GfxFramebufferGLES22MakeCurrentFramebufferENS_7BuiltinE
G9h:__ZN6il2cpp2vm12MarshalAlloc4FreeEPv
G7f:_Interpreter_Close_m1500459069
Dsh:__ZL25UnresolvedVirtualCall_122P12Il2CppObject32ScriptableRenderContext_t4271526S0_PK10MethodInfo
erd:__ZN5physx6shdfnd5ArrayIPNS_2Sc19ShapeInstancePairLLENS0_19ReflectionAllocatorIS4_EEE15growAndPushBackERKS4_
Dva:__ZN12CachedReader4ReadEPvj
PHd:__ZN5physx21MBPPostUpdateWorkTaskD0Ev
rme:_cf2_blues_init
_2c:__ZN5physx2Sc8BodyCore24clearSpatialAccelerationEbb
IJg:_CustomEventData_Add_m881214524
h7k:_InternalEnumerator_1_System_Collections_IEnumerator_get_Current_m3600601141_gshared
sJe:_SHA1Internal_HashFinal_m3188468925
Jql:_Vector3_op_Inequality_m799191452
o0a:__Z24CalculateLightShadowFadeRK6CamerafffR8Vector4f
_1:__ZN19RuntimeSceneManagerD2Ev
kmk:__ZL55HeaderHandler_t324204131_CustomAttributesCacheGeneratorP21CustomAttributesCache
Qbh:_ChannelData_get_CustomProperties_m1470957369
d6k:_InternalEnumerator_1_System_Collections_IEnumerator_get_Current_m1313308902_AdjustorThunk
jLi:_Dictionary_2_Do_ICollectionCopyTo_TisRuntimeObject_m545661084_gshared
SW:__ZN11UnityEngine15CloudWebService25WebRequestDownloadHandler17OnCompleteContentEv
Loa:__ZN6prcore17GetIntegerBlitterE13TextureFormatS0_N14ImageReference8BlitModeE
Zqd:__ZN5physx10PxsContext20createContactManagerERKNS_24PxvManagerDescRigidRigidEPNS_18PxsMaterialManagerE
wMh:__ZN6il2cpp2gc19AppendOnlyGCHashMapINSt3__24pairIPK11Il2CppImageP11Il2CppClassEEP22Il2CppReflectionModule17ReflectionMapHashIS9_ENS2_8equal_toIS9_EEE11TryGetValueERKS9_PSB_
vSk:_Enumerator_VerifyState_m3173176371_AdjustorThunk
kpd:__ZN5physx2Cm12DelegateTaskINS_7NpSceneEXadL_ZNS2_12executeSolveEPNS_10PxBaseTaskEEEED0Ev
dEc:__ZN5physx2GuL18gPCMHullPrefetchCBEjPKNS_6PxVec3E
VUc:__ZN5physx2Sc5Scene31removeActiveBreakableConstraintEPNS0_13ConstraintSimE
wJk:__ZL109PointerEventData_t1599784723_CustomAttributesCacheGenerator_PointerEventData_get_eligibleForClick_m2497780621P21CustomAttributesCache
G$f:_TypeConverterAttribute__cctor_m506796812
Kjg:_Encoding_get_IsReadOnly_m3729101432
$cc:__ZN9BlobWrite14ReduceCopyImplERK14ReduceCopyDataj
Qvg:_ValueType_t3507792607_marshal_pinvoke_back
cgl:_Comparer_1_System_Collections_IComparer_Compare_m1790257529_gshared
JKj:__Z55RuntimeInvoker_Int32_t2071877448_ILTokenInfo_t149559338PFvvEPK10MethodInfoPvPS4_
LFg:_MethodInfo_get_ContainsGenericParameters_m572340060
uvd:__ZN5physx6shdfnd5ArrayINS_12PxActorShapeENS0_19ReflectionAllocatorIS2_EEE15growAndPushBackERKS2_
zQa:__ZN25MultiBlocksMemoryFileData17AdjustBlocksCountEj
gUh:__ZNSt3__214__split_bufferIN6il2cpp2vm22EmbeddedResourceRecordERNS_9allocatorIS3_EEED2Ev
SSf:_TlsClientHello__ctor_m1699671541
Q3b:__ZZN12MeshRenderer15InitializeClassEvEN29FunctorImpl_134kDidModifyMesh4CallEPviR11MessageData
tde:__ZN13TextRendering4Font8TransferI24GenerateTypeTreeTransferEEvRT_
yMg:_AnimationOffsetPlayable_GetRotation_m3608800497_AdjustorThunk
Gfc:__Z27CullingGroup_CUSTOM_DisposeP12Il2CppObject
Y2j:_Random_Range_m2884721203
$Ej:__Z69RuntimeInvoker_Color_t2020392075_Color_t2020392075_Single_t2076509932PFvvEPK10MethodInfoPvPS4_
iWa:__ZN13ComputeShader15SetTextureParamEjRKN9ShaderLab16FastPropertyNameE9TextureID16TextureDimension
$5g:_Shadow_set_effectDistance_m1951993364
LSj:_GUILayoutEntry_ApplyStyleSettings_m371609721
I7c:__ZN5physx2Sc14ConstraintCore8setFlagsENS_7PxFlagsINS_16PxConstraintFlag4EnumEtEE
N8i:_Collection_1_Remove_m1798559666_gshared
fn:_glStencilMask
ttj:__Z70RuntimeInvoker_Boolean_t3825574718_Int16_t4041245914_Int32_t2071877448PFvvEPK10MethodInfoPvPS4_
h1h:__ZN6il2cpp2os10ThreadImpl16GetCurrentThreadEv
MVd:__ZNK5physx2Sc15ClothFabricCore20getNbParticleIndicesEv
Heb:__ZN15GUIEventManager10QueueEventERK10InputEvent
aSk:_Enumerator_System_Collections_IEnumerator_get_Current_m2010873149_gshared
Rni:_Resources_t2975512894_marshal_pinvoke_cleanup
KKg:_AnimationEvent_get_messageOptions_m3547411650
X6j:__ZL88Type_t_CustomAttributesCacheGenerator_Type_MakeGenericType_m2765875033____typeArguments0P21CustomAttributesCache
hOk:__ZL74SpriteState_t1353336012_CustomAttributesCacheGenerator_m_HighlightedSpriteP21CustomAttributesCache
kcg:_RealProxy__ctor_m2505535530
v7h:_GC_push_conditional_with_exclusions
Ntg:_UInt32_System_IConvertible_ToUInt16_m2798641702_AdjustorThunk
geg:_BinaryFormatter_get_DefaultSurrogateSelector_m219714691
bw:__ZN21AnimationPosePlayableD0Ev
FC:__ZN12_GLOBAL__N_121ProcessAnimationBeginER35AnimationPlayableEvaluationConstantR32AnimationPlayableEvaluationInputR33AnimationPlayableEvaluationOutput
XPg:_AnimatorControllerPlayable_CrossFadeInFixedTime_m3016214003
dOg:_AnimatorControllerPlayable_INTERNAL_CALL_SetTriggerString_m1525516737
v8:__ZN15dense_hashtableINSt3__24pairIKiiEEi21InstanceIDHashFunctorN14dense_hash_mapIiiS4_NS0_8equal_toIiEE13stl_allocatorIS3_L18MemLabelIdentifier65ELi16EEE9SelectKeyES7_SA_E9copy_fromERKSD_j
qbj:_Collection_1_System_Collections_IList_get_IsFixedSize_m3252091801_gshared
Ymi:_FloatTween_get_ignoreTimeScale_m4161298485_AdjustorThunk
lIg:_MonoProperty_GetOptionalCustomModifiers_m3827844355
$Gl:_strrchr
lUc:__ZN5physx2Sc7BodySim6wakeUpEv
yOg:_AnimatorControllerPlayable_IsParameterControlledByCurve_m3990583163_AdjustorThunk
UCf:_SimpleCollator_GetSortKey_m2188419329
Pqd:__ZN5physx6shdfnd8PoolBaseINS_2Gu30LargePersistentContactManifoldENS0_19ReflectionAllocatorIS3_EEE17releaseEmptySlabsEv
IUc:__ZN5physx2Sc21ConstraintInteraction7destroyEv
T3d:__ZN14SphereCollider6CreateEPK9Rigidbody
$Ok:__ZL56LayoutElement_t2808691390_CustomAttributesCacheGeneratorP21CustomAttributesCache
z2g:_Scrollbar_Set_m244028386
Ujc:__Z33Register_UnityEngine_Random_Rangev
Kmc:__Z27Object_CUSTOM_DestroyObjectP12Il2CppObjectf
kFd:__ZN5physx13PxsSolverCoreD2Ev
dob:__ZN14RenderSettings27UpdateIndirectSpecularColorEv
BPj:__Z102RuntimeInvoker_RuntimeObject_UILineInfo_t3621277874_UILineInfo_t3621277874_RuntimeObject_RuntimeObjectPFvvEPK10MethodInfoPvPS4_
WAb:__ZN14PlayerSettings8TransferI18StreamedBinaryReadILb0EEEEvRT_
aah:_FixedBufferAttribute__ctor_m2048050068
hFh:__ZN6il2cpp6icalls8mscorlib6System8MonoType16GetMethodsByNameEP20Il2CppReflectionTypeP12Il2CppStringibS5_
tsd:__ZNK5physx7NpScene16getNbConstraintsEv
lMi:_LayoutGroup_SetProperty_TisAxis_t1431825778_m2174054513_gshared
qed:__ZN5physx7NpCloth14setWakeCounterEf
Nsb:__ZN4PPtrI10GameObjectE8TransferI14SafeBinaryReadEEvRT_
g0g:_Mask_IsRaycastLocationValid_m62488857
vwk:__ZL105Physics_t634932869_CustomAttributesCacheGenerator_Physics_Raycast_m2036777053____queryTriggerInteraction5P21CustomAttributesCache
Nya:__ZNSt3__27__sort3IRNS_4lessIN22BuiltinResourceManager8ResourceEEEPS3_EEjT0_S7_S7_T_
qfl:_DefaultComparer_Compare_m3472472212_gshared
INj:__Z31RuntimeInvoker_Slot_t2022531261PFvvEPK10MethodInfoPvPS4_
wtf:_MonoIO_GetLength_m2812344043
$ke:_ps_hints_t2mask
VHk:__ZL68UsedByNativeCodeAttribute_t3212052468_CustomAttributesCacheGeneratorP21CustomAttributesCache
ipl:_RequestAtlasCallback_Invoke_m2414509569
Dxb:__ZN10BlendShape8TransferI19StreamedBinaryWriteILb0EEEEvRT_
bXd:__ZNK5physx2Gu11HeightField17getReferenceCountEv
bpl:_Transform_IsChildOf_m10844547
JJ:__Z32TransferEnumWithNameForceIntSizeI14SafeBinaryReadN10SampleClip8LoadTypeEEvRT_RT0_PKc17TransferMetaFlags
Pqf:__Z21il2cpp_codegen_sizeofP11Il2CppClass
vga:__Z19GetTimeSinceStartupv
Cka:__ZN7Texture23VirtualRedirectTransferER17RemapPPtrTransfer
YNe:_SecurityFrame_get_Assembly_m2816566490
hFg:_FieldInfo_GetPseudoCustomAttributes_m2500972355
VPc:__ZN5physx3Scb5Scene10getPxSceneEv
qqe:_TT_Load_Composite_Glyph
Ixh:_NetFxCoreExtensions_CreateDelegate_m2492743074
o6j:__ZL66RuntimeArray_CustomAttributesCacheGenerator_Array_Sort_m2323017822P21CustomAttributesCache
pUe:_Array_Sort_m2994254654
iyg:_Default_CompareCloserType_m1367126249
FBi:_Array_InternalArray__IEnumerable_GetEnumerator_TisColor32_t874517518_m2198639025_gshared
I_a:__ZN29RenderNodeQueuePrepareContextC2Ev
yZj:_Mesh_Clear_m231813403
rR:__ZN10SampleClipC2E18MemLabelIdentifier18ObjectCreationMode
pWb:__ZN9ShaderLab20SerializedSubProgram16TextureParameter8TransferI24GenerateTypeTreeTransferEEvRT_
TLl:dynCall_viiiiiiiiiiiii
zog:_Thread_set_Name_m1343706609
ubi:__ZN6il2cpp2os11MutexHandle4WaitEj
acc:__ZL34GetComponentsImplementationRecurseILb1ELi1ELi1EEbR10GameObjectbRK17CompareParametersRK39GetComponentsImplementation_ReturnValue
hCj:__Z75RuntimeInvoker_Playable_t1896841784_AnimationLayerMixerPlayable_t3057952312PFvvEPK10MethodInfoPvPS4_
tbi:__ZN6il2cpp2os11MutexHandle4WaitEv
LZe:_ArrayList_set_Capacity_m592558035
Eqa:__ZN6prcoreL17RemapGenericFloatI15TexFormatRGHalf18TexFormatARGBFloatEEvPKNS_9InnerInfoE
onc:__ZN18CrashReportManager23VirtualRedirectTransferER14SafeBinaryRead
tia:__ZNK13RenderTexture13GetDataHeightEv
nga:__Z18SimulateMouseInputi
Lpf:_Int64_System_IConvertible_ToDecimal_m3390697048_AdjustorThunk
fVa:__ZN13RenderManager23AddRemoveCamerasDelayedEv
Dvc:__ZN9JSONWrite8TransferI13dynamic_arrayIdLj8EEEEvRT_PKc17TransferMetaFlags
Jra:__ZN23PreloadManagerOperation11GetPriorityEv
Tgf:_Exception_get_InnerException_m3722561235
pzi:_Array_InternalArray__ICollection_Remove_TisILTokenInfo_t149559338_m1523907845_gshared
Qxe:__ZN11UnityEngine9Analytics15AnalyticsConfigC2Ev
a6k:_InternalEnumerator_1_System_Collections_IEnumerator_Reset_m138745466_AdjustorThunk
KDj:__Z105RuntimeInvoker_Void_t1841601450_Vector2U26_t3911752445_RuntimeObject_RuntimeObject_Vector2U26_t3911752445PFvvEPK10MethodInfoPvPS4_
T_g:_Event_get_rawType_m1373640154
V8d:__ZNK5Unity5Joint16GetCurrentForcesER8Vector3fS2_
PDh:__ZN6il2cpp2gc9AllocatorIP17Il2CppAsyncResultE10deallocateEPvj
ZTj:_GUISkin_set_toggle_m1758777401
$Bl:_Enumerator_CheckState_m1761755727_gshared
Z1e:_Hashtable_Rehash_m2877670513
CPj:__Z98RuntimeInvoker_RuntimeObject_UIVertex_t1204258818_UIVertex_t1204258818_RuntimeObject_RuntimeObjectPFvvEPK10MethodInfoPvPS4_
l7a:__ZN13RenderTexture8SetWidthEi
svi:_InputField_Insert_m1593238693
S0b:__ZNK28RectTransformPropertyBinding12SetPPtrValueERKN11UnityEngine9Animation10BoundCurveEi
UQb:__Z18Transfer_BlittableI18StreamedBinaryReadILb0EELb0EfEvRK29SerializationCommandArgumentsR31RuntimeSerializationCommandInfo
Rxb:__ZN10MeshFilterD0Ev
sqe:_UNITY_FT_GlyphLoader_CheckSubGlyphs
gnb:__ZN18StreamedBinaryReadILb0EE21TransferSTLStyleArrayI10vector_mapI7Hash128iNSt3__24lessIS3_EE13stl_allocatorINS4_4pairIS3_iEEL18MemLabelIdentifier80ELi16EEEEEvRT_17TransferMetaFlags
BKi:_Array_Sort_TisVector3_t2243707580_m3220373153_gshared
UEi:_Array_InternalArray__ICollection_Add_TisCustomAttributeTypedArgument_t1498197914_m3260005285_gshared
S0a:__Z25SetupObjectBakedOcclusionbRK15SharedLightDataRK26SharedLightmapSettingsDataRK15LightmapIndicesR17ShaderPassContext
O2e:_SyncHashtable_GetObjectData_m3774367030
Zfh:__ZN21InterfaceFuncInvoker4IP17Match_t3164245899P17Regex_t1803876613P8String_tiiE6InvokeEjP11Il2CppClassP12Il2CppObjectS3_S5_ii
dnf:_Guid_GetHashCode_m1401300871
jLg:_AnimationClipPlayable_GetApplyFootIK_m3962677322_AdjustorThunk
Ezl:_ListPool_1_U3Cs_ListPoolU3Em__0_m1243609651_gshared
ksc:__Z42Register_UnityEngine_GUIStyle_set_fontSizev
gbk:__ZL61CallingConventions_t1097349142_CustomAttributesCacheGeneratorP21CustomAttributesCache
pad:__ZNK5physx9NpFactory11getNbShapesEv
UI:__Z82Register_UnityEngine_Animations_AnimatorControllerPlayable_INTERNAL_CALL_GetBoolIDv
uqh:__ZL23UnresolvedVirtualCall_5P12Il2CppObjectsPK10MethodInfo
jE:__ZN4PPtrI6AvatarE8TransferI19StreamedBinaryWriteILb0EEEEvRT_
XA:__ZN8Animator9BuildJobsERK13dynamic_arrayIP14PlayableOutputLj4EERS0_INS_11AnimatorJobELj4EEPS7_bb
k_j:_MeshCollider_set_convex_m2548365563
OYk:_Dictionary_2_System_Collections_IDictionary_set_Item_m115188189_gshared
e$:__ZN9ShaderLab16FastPropertyName4InitEPKc
W$b:__Z13RegisterClassIN2UI13RectTransformEEvv
qCf:_MSCompatUnicodeTable_ToWidthCompat_m2299599532
co:FUNCTION_TABLE_iiiii
s0d:__ZN5physx14PxRigidBodyExt23setMassAndUpdateInertiaERNS_11PxRigidBodyEfPKNS_6PxVec3Eb
bBf:_NumberFormatter_get_IsFloatingSource_m2830957202
Jub:__ZN10VertexData8TransferI17RemapPPtrTransferEEvRT_
Yha:__ZN13RenderTexture9SetMipMapEb
tyh:__ZN15dense_hashtableINSt3__24pairIK10KeyWrapperIPK11Il2CppClassEPKcEES6_N6il2cpp5utils11PointerHashIS3_EEN14dense_hash_mapIS6_S9_SE_NS6_14EqualsComparerINS0_8equal_toIS5_EEEENS0_9allocatorISA_EEE9SelectKeyESJ_SL_E13set_empty_keyERKSA_
g4g:_ScrollRect_set_verticalScrollbarSpacing_m2356851539
oOd:__ZN5physx2Sc10ClothShape21updateBoundsInAABBMgrEv
N1j:_PlayableHandle_INTERNAL_CALL_SetTimeInternal_m3873000891
KBf:_OperatingSystem_GetObjectData_m2276196875
cSg:_AssetBundleRequest_get_allAssets_m3314852268
Fkl:_ResourceRequest_t2560315377_marshal_pinvoke_back
Zxh:__ZN14dense_hash_mapI10KeyWrapperIPK11Il2CppClassEPKcN6il2cpp5utils11PointerHashIS1_EENS4_14EqualsComparerINSt3__28equal_toIS3_EEEENSC_9allocatorINSC_4pairIKS4_S6_EEEEEC2EjRKSA_RKSF_
Klc:__Z38Transform_CUSTOM_INTERNAL_get_rotationP12Il2CppObjectP11Quaternionf
U0k:_DefaultComparer_GetHashCode_m2596628120_gshared
hck:__ZL66CriticalFinalizerObject_t1920899984_CustomAttributesCacheGeneratorP21CustomAttributesCache
lMh:__ZNK15dense_hashtableINSt3__24pairIK10KeyWrapperINS1_IPK10MethodInfoP11Il2CppClassEEEjEES9_17ReflectionMapHashIS8_EN14dense_hash_mapIS9_jSD_NS9_14EqualsComparerINS0_8equal_toIS8_EEEENS0_9allocatorISB_EEE9SelectKeyESI_SK_E5beginEv
sIa:__ZN7ApiGLES19UploadBufferSubDataEjN2gl12BufferTargetEllPKv
vCd:__ZN5physx2Sc5Scene17createClothSolverEv
rca:__ZNSt3__216__rotate_forwardINS_11__wrap_iterIPN4core12basic_stringIcNS2_20StringStorageDefaultIcEEEEEEEET_S9_S9_S9_
vPe:_String_System_IConvertible_ToInt32_m1927223638
U7:__ZdaPv
wid:__ZNK5physx15PxsParticleData16getMaxParticlesVEv
jig:_CryptographicException__ctor_m406825529
TTk:_Transform_1_EndInvoke_m4121732147_gshared
PVg:_Canvas_set_sortingOrder_m2922819993
FQj:_FailedToLoadScriptObject_t3605283378_marshal_pinvoke_back
w5d:__ZThn116_N5physx7profile8ZoneImplINS_28PxProfileNameProviderForwardEE12removeClientERNS_19PxProfileZoneClientE
THd:__ZN15MBP_PairManager17removeMarkedPairsEPK10MBP_ObjectPN5physx16PxsBroadPhaseMBPERK8BitArrayS8_
sTg:_AudioMixerPlayable_Create_m3525453973
DRe:_ASCIIEncoding__ctor_m4127831672
nHb:__Z19TransferField_ArrayI14SafeBinaryRead27Converter_SimpleNativeClassI8GUIStyleEEvRK23StaticTransferFieldInfoR31RuntimeSerializationCommandInfoRT0_
XEb:__ZN9TextAsset23VirtualRedirectTransferER19StreamedBinaryWriteILb0EE
Bkg:_UTF8Encoding__ctor_m3336862259
xWh:__ZN15dense_hashtableINSt3__24pairIK10KeyWrapperIP14Il2CppIUnknownEjEES5_N6il2cpp5utils11PointerHashIS3_EEN14dense_hash_mapIS5_jSB_NS5_14EqualsComparerINS0_8equal_toIS4_EEEENS0_9allocatorIS7_EEE9SelectKeyESG_SI_ED2Ev
$9h:__ZN6il2cpp5utils10MemoryPoolC2Ej
P4f:_X509Chain_GetAuthorityKeyIdentifier_m2607407678
X9h:__ZN6il2cpp5utils10MemoryPoolC2Ev
Inb:__ZN14RenderSettings5ResetEv
G_b:__ZN6Sprite9BindAtlasERK4PPtrI11SpriteAtlasE
O9c:__ZN5physx9NpPhysics33unregisterDeletionListenerObjectsERNS_18PxDeletionListenerEPKPKNS_6PxBaseEj
ogd:__ZNK5physx2Sc9ClothCore22getAngularInertiaScaleEv
$E:__ZZN8Animator15InitializeClassEvEN37FunctorImpl_421kDidModifyOverrideClip4CallEPviR11MessageData
qii:_RaycastResult_set_gameObject_m1138581891_AdjustorThunk
DUg:_Bounds_get_extents_m4077324178_AdjustorThunk
x1c:__ZN5physx20NpRigidActorTemplateINS_18PxArticulationLinkEE12setActorFlagENS_11PxActorFlag4EnumEb
ncl:_InternalEnumerator_1_get_Current_m3724267862_AdjustorThunk
CLi:_Dictionary_2_Do_ICollectionCopyTo_TisKeyValuePair_2_t3716250094_m1740410536_gshared
v$k:_DefaultComparer__ctor_m580747638_gshared
NRj:_GUI_CallWindowDelegate_m2039577415
T0h:__ZN6il2cpp2os10ThreadImplD2Ev
RIf:_RSAManaged_Dispose_m3018788098
ktc:__ZN8Gradient8TransferI9JSONWriteEEvRT_
Nng:_Monitor_Monitor_pulse_m2135582245
mUf:_Context_get_ReceivedConnectionEnd_m3369356276
c$f:_NameObjectCollectionBase_get_Count_m2353593692
GKk:__ZL73U3COnFinishSubmitU3Ec__Iterator0_t99135383_CustomAttributesCacheGeneratorP21CustomAttributesCache
kfb:__ZNK12TLSAllocatorI14StackAllocatorE22GetAllocatedMemorySizeEv
_ak:__ZL54AssemblyName_t894705941_CustomAttributesCacheGeneratorP21CustomAttributesCache
P8e:_Convert_ToUInt32_m3394039268
Oac:__Z32GetSceneHierarchyPathDescriptivePK6Object
xP:__ZNK7WeakPtrI20SoundChannelInstanceE10SharedData9GetRawPtrEv
oRa:__ZN12HandlerChain4NameEv
sn:FUNCTION_TABLE_fiiiiiifiiiiiif
wzb:__ZNSt3__26vectorI9InputAxisNS_9allocatorIS1_EEE10deallocateEv
gRd:__ZN5physx37setupFinalizeSolverConstraintsCoulombERNS_13PxcNpWorkUnitERKNS_2Gu13ContactBufferERKNS_27PxcCorrelationBufferCoulombERKNS_11PxTransformESB_bPhRKNS_13PxcSolverBodyESF_RKNS_17PxcSolverBodyDataESI_ffjffff
bof:_Int16_Equals_m3925135434_AdjustorThunk
ewe:__Z44Register_UnityEngine_CanvasRenderer_get_cullv
svh:__ZN15dense_hashtableINSt3__24pairIK10KeyWrapperIPK22Il2CppGenericParameterEP11Il2CppClassEES6_N6il2cpp5utils11PointerHashIS4_EEN14dense_hash_mapIS6_S9_SE_NS6_14EqualsComparerINS0_8equal_toIS5_EEEENS0_9allocatorISA_EEE9SelectKeyESJ_SL_ED2Ev
J8j:__ZL60IHashCodeProvider_t1980576455_CustomAttributesCacheGeneratorP21CustomAttributesCache
r0b:__ZN13ProduceHelperI13MonoBehaviourLb0EE7ProduceE18MemLabelIdentifier18ObjectCreationMode
Vrh:__ZL24UnresolvedVirtualCall_86P12Il2CppObjectxS0_xPK10MethodInfo
$cb:__Z29StdTemplateConversionFunctionIbbEbPvR14SafeBinaryRead
v3h:__ZNK15dense_hashtableINSt3__24pairIK10KeyWrapperIPK19Il2CppGenericMethodEP10MethodInfoEES6_N6il2cpp8metadata23Il2CppGenericMethodHashEN14dense_hash_mapIS6_S9_SD_NS6_14EqualsComparerINSC_26Il2CppGenericMethodCompareEEENS0_9allocatorISA_EEE9SelectKeyESH_SJ_E12test_deletedEj
aSf:_CipherSuiteCollection_get_Item_m280627160
LFb:__Z44InitializeTransferFunctionScriptingTraitsForI17RemapPPtrTransferEvR31TransferFunctionScriptingTraits
t9f:_SerializationInfoEnumerator_MoveNext_m1876990879
Iab:__ZN14UnityWebStream24UpdateAllUnityWebStreamsEv
lul:_Seek_And_Flee_GetSteering_m3198197608
H5i:_Collection_1_System_Collections_IList_get_IsReadOnly_m2329986891_gshared
j7j:__ZL60ObsoleteAttribute_t3878847927_CustomAttributesCacheGeneratorP21CustomAttributesCache
Vkh:_Uri_ParseAsWindowsAbsoluteFilePath_m1108586962
zTf:_Context_get_HandshakeState_m3443153737
U8f:_CostDelegate_BeginInvoke_m1628968398
uGi:_Array_InternalArray__ICollection_CopyTo_TisRaycastHit2D_t4063908774_m3837098618_gshared
UGd:__ZN5physx31ComputeCreatedDeletedPairsListsEPKjS1_jRPNS_17PxcBroadPhasePairERjS5_S4_S5_S5_RNS_14SapPairManagerE
Tsa:__ZN18LoadSceneOperation21MustCompleteNextFrameEv
OGg:_MonoField_get_FieldType_m598011426
G5i:_Collection_1_System_Collections_IList_get_IsFixedSize_m1624702704_gshared
Ofi:_EventTrigger_OnScroll_m626934407
xpk:__ZL48Camera_t189460977_CustomAttributesCacheGeneratorP21CustomAttributesCache
ssl:_CollisionAvoidance__ctor_m214831029
L6a:__ZNSt3__26vectorI11CameraStackNS_9allocatorIS1_EEE8__appendEj
aUh:__ZNSt3__212basic_stringIcNS_11char_traitsIcEENS_9allocatorIcEEE6__initINS_11__wrap_iterIPcEEEENS_9enable_ifIXsr21__is_forward_iteratorIT_EE5valueEvE4typeESB_SB_
WLd:__ZN5physx2Gu16pcmContactBoxBoxERKNS0_13GeometryUnionES3_RKNS_11PxTransformES6_RKfRNS0_5CacheERNS0_13ContactBufferE
Bui:_InputField_OnDisable_m1865339380
Ktg:_UInt32_System_IConvertible_ToType_m747769316
Zu:__ZN7mecanim9animation12GetHumanPoseERKNS0_18ClipMuscleConstantEPKNS0_10ValueDeltaERNS_5human9HumanPoseE
Axe:__ZN11UnityEngine9Analytics15UserCustomEvent12CustomParams6InsertEPKcRNS1_11CustomValueE
Ew:__ZN22AnimationMixerPlayable17ProcessRootMotionEP35AnimationPlayableEvaluationConstantP32AnimationPlayableEvaluationInputP33AnimationPlayableEvaluationOutput
WNb:__Z29Transfer_Blittable_ArrayFieldI19StreamedBinaryWriteILb0EEjEvRT_R9ArrayInfoRK23StaticTransferFieldInfo
n5:__Z13GetFileSystemv
N4b:__ZZL23RegisterLightPropertiesR22GenericPropertyBindingEN29Wrapper_LightColorTemperature13SetFloatValueEPvf
E6:__ZNK5Unity4Type21FindAllDerivedClassesER13dynamic_arrayIPKS0_Lj4EENS0_17TypeFilterOptionsE
N7:__ZN13RuntimeStaticI15GUIEventManagerLb0EE16StaticInitializeEPv
NXk:_Dictionary_2_ToTKey_m2900575080_gshared
WRb:__ZL12InvokeMethodI18StreamedBinaryReadILb0EEEvRK29SerializationCommandArgumentsR31RuntimeSerializationCommandInfo
Zkf:_DaylightTime_get_Delta_m2316831491
z4d:__ZN15RaycastCallback14processTouchesEPKN5physx12PxRaycastHitEj
Kyi:_Array_InternalArray__ICollection_Contains_TisUILineInfo_t3621277874_m1175659630_gshared
T$j:_Physics_INTERNAL_get_gravity_m3802008392
upg:_WaitHandle_WaitOne_m370363697
tJk:__ZL114PointerEventData_t1599784723_CustomAttributesCacheGenerator_PointerEventData_set_pointerCurrentRaycast_m2431897513P21CustomAttributesCache
V6f:_FactoryCache_Lookup_m1681894361
Xaf:_DateTime_Subtract_m698282245_AdjustorThunk
Mfl:_DefaultComparer__ctor_m2470932885_gshared
oYd:__ZN5physx2Gu5RTree15exportExtraDataERNS_22PxSerializationContextE
x9j:__ZL55BinaryReader_t2491843768_CustomAttributesCacheGeneratorP21CustomAttributesCache
mQb:__Z29Transfer_Blittable_ArrayFieldI18StreamedBinaryReadILb1EE5RectTIfEEvRT_R9ArrayInfoRK23StaticTransferFieldInfo
Skk:__ZL79Convert_t2607082565_CustomAttributesCacheGenerator_Convert_ToUInt64_m1896191125P21CustomAttributesCache
wWa:__ZN19ShaderPropertySheet9SetMatrixEN9ShaderLab16FastPropertyNameERK10Matrix4x4fNS_8SetFlagsE
NHe:_RIPEMD160Managed_Initialize_m3365407578
C8b:__Z29GetTextureSizeAllowedMultiple13TextureFormat
B0f:_IPAddress_HostToNetworkOrder_m1092199707
EBd:__ZNK5physx2Sq10AABBPruner7overlapERKNS0_9ShapeDataERNS0_14PrunerCallbackE
OAi:_SetPropertyUtility_SetStruct_TisSpriteState_t1353336012_m2898060836_gshared
IAk:__ZL141AnimatorControllerPlayable_t1744083903_CustomAttributesCacheGenerator_AnimatorControllerPlayable_INTERNAL_CALL_ResetTriggerString_m2112584758P21CustomAttributesCache
sTa:__ZZ23InitPlayerLoopCallbacksvEN52InitializationAsyncUploadTimeSlicedUpdateRegistrator7ForwardEv
aMe:_SecurityAttribute__ctor_m3425755778
p6b:__ZN21IntermediateRenderers3AddEP20IntermediateRenderer
JGh:_il2cpp_array_element_size
i$g:_InvokableCall__ctor_m738302370
Qqd:__ZN5physx6shdfnd5ArrayIPvNS0_19ReflectionAllocatorINS_2Gu30LargePersistentContactManifoldEEEE4copyINS0_15InlineAllocatorILj256ES6_EEEEvRKNS1_IS2_T_EE
Gg:_glCheckFramebufferStatus
xrl:_Arrival__ctor_m2398571552
eBk:__ZL55TextGenerator_t647235000_CustomAttributesCacheGeneratorP21CustomAttributesCache
dCi:_Array_compare_TisInt32_t2071877448_m840310202_gshared
Pel:_InternalEnumerator_1_System_Collections_IEnumerator_get_Current_m442726479_AdjustorThunk
aY:__ZN19CloudServiceHandler20StartEventDispatcherERKN11UnityEngine15CloudWebService18CloudServiceConfigERNS1_23WebRequestRestHeaderMapE
Xcl:_InternalEnumerator_1_System_Collections_IEnumerator_get_Current_m790514740_AdjustorThunk
GTd:__ZN5physx2Cm12DelegateTaskINS_2Sc5SceneEXadL_ZNS3_19updateCCDSinglePassEPNS_10PxBaseTaskEEEE11runInternalEv
WOc:__ZN5physx6string9sprintf_sEPcjPKcz
V5j:__ZL74RuntimeArray_CustomAttributesCacheGenerator_Array_BinarySearch_m2287427837P21CustomAttributesCache
i$d:__ZThn8_N5physx19TriangleMeshBuilderD1Ev
aJj:__Z78RuntimeInvoker_Boolean_t3825574718_TransitionU26_t3012618447_Int32_t2071877448PFvvEPK10MethodInfoPvPS4_
eCf:__Z37il2cpp_codegen_get_executing_assemblyPK10MethodInfo
ZYk:_Dictionary_2_System_Collections_IEnumerable_GetEnumerator_m1615804423_gshared
$Hc:__ZN5physx2Gu16intersectRayAABBERKNS_6PxVec3ES3_S3_S3_RfS4_
NZb:__ZN9Transform23VirtualRedirectTransferER17RemapPPtrTransfer
Uzj:__Z72RuntimeInvoker_Boolean_t3825574718_Bounds_t3033363703_Bounds_t3033363703PFvvEPK10MethodInfoPvPS4_
ju:__ZN21AnimationClipPlayable7SetTimeEd
QWj:_GUIStyle_Internal_DrawPrefixLabel_m1693575069
jDi:_Array_InternalArray__IndexOf_TisByte_t3683104436_m3605266236_gshared
zMg:_AnimationOffsetPlayable_SetRotation_m1448934280
Zbj:_Collection_1_System_Collections_IList_Insert_m435904526_gshared
y4b:__ZZL23RegisterLightPropertiesR22GenericPropertyBindingEN22Wrapper_LightIntensity13GetFloatValueEPv
kUj:_GUISkin_get_horizontalScrollbarThumb_m4062590908
j2g:_RaycastAllCallback_Invoke_m981876639
nkg:_UnicodeEncoding__ctor_m72484327
oRd:__ZN5physx30setupFinalizeSolverConstraintsERNS_13PxcNpWorkUnitERKNS_2Gu13ContactBufferERKNS_20PxcCorrelationBufferERKNS_11PxTransformESB_bPhRKNS_13PxcSolverBodyESF_RKNS_17PxcSolverBodyDataESI_ffffff
AWh:__ZN14dense_hash_mapI10KeyWrapperIP14Il2CppIUnknownEjN6il2cpp5utils11PointerHashIS1_EENS3_14EqualsComparerINSt3__28equal_toIS2_EEEENS9_9allocatorINS9_4pairIKS3_jEEEEE15set_deleted_keyERSF_
v7:__ZN22BuiltinResourceManager16StaticInitializeEPv
D6c:__ZN5physx7NpScene17releaseBatchQueryEPNS_12PxBatchQueryE
JSh:__ZN6il2cpp2gc9AllocatorIP12Il2CppThreadE10deallocateEPvj
mod:__ZN5physx20NpRigidActorTemplateINS_13PxRigidStaticEE11attachShapeERNS_7PxShapeE
OOh:__ZN13Il2CppHashMapIPK14Il2CppAssemblyPK22Il2CppMonoAssemblyNameN6il2cpp5utils11PointerHashIS1_EENSt3__28equal_toIS2_EENSA_9allocatorINSA_4pairIK10KeyWrapperIS2_ES5_EEEEEC2EjRKS9_RKSC_
cyl:_UnityEvent_1_GetDelegate_m2720691419_gshared
HQd:__ZN5physx26solveVBlockDefaultFrictionEPNS_13PxsSolverCoreEfjjPNS_13PxcSolverBodyEPNS_17PxcSolverBodyDataEjjPNS_25PxcArticulationSolverDescEjPNS_23PxcSolverConstraintDescEjS9_jRNS_6shdfnd5ArrayINS_24PxsConstraintBatchHeaderENSA_19ReflectionAllocatorISC_EEEESG_PNS_2Cm13SpatialVectorEPNS_25PxcThresholdStreamElementEjRj
Lal:_InternalEnumerator_1_System_Collections_IEnumerator_get_Current_m3576641073_AdjustorThunk
XTf:_ClientSessionInfo_SetContext_m2649357891
Uof:_Int32_System_IConvertible_ToInt64_m3790029067_AdjustorThunk
T4c:__ZN5physx15NpActorTemplateINS_18PxArticulationLinkEE17resolveReferencesERNS_24PxDeserializationContextE
qfi:_RaycasterManager_GetRaycasters_m1154876874
iZf:_SslStreamBase_InternalReadCallback_m2524917586
i6:__ZN8Remapper6RemoveEi
uVi:_List_1_CheckCollection_m2608305187_gshared
jyd:__ZN5physx19NpRigidBodyTemplateINS_18PxArticulationLinkEE9visualizeERNS_2Cm12RenderOutputEPNS_7NpSceneE
PFd:__ZN5physx11writeBack1DERKNS_23PxcSolverConstraintDescERNS_16PxcSolverContextERNS_17PxcSolverBodyDataES6_
Wrg:_Type_get_ContainsGenericParameters_m505913180
Tfe:__ZL36CleanupTextRenderingScriptingClassesv
xnj:__Z52RuntimeInvoker_UInt32_t2149682021_Decimal_t724701077PFvvEPK10MethodInfoPvPS4_
BDc:__ZThn4_N16RayRTreeCallbackILi0ELb0EED0Ev
h7a:__ZN15ReflectionProbe17UseRendererResultEP13ProbeRenderer
XTe:_Array_BinarySearch_m3270245097
sic:__Z34Mesh_CUSTOM_SetArrayForChannelImplP12Il2CppObject30InternalScriptingShaderChannel34InternalScriptingVertexChannelTypeiP11Il2CppArrayi
Ksf:_MonoIO_DeleteFile_m3273821223
aEf:_BigInteger_GenerateRandom_m2507308768
N9e:_DateTime_System_IConvertible_ToDouble_m1431748426_AdjustorThunk
vyi:_Array_InternalArray__ICollection_Contains_TisUInt16_t986882611_m510319131_gshared
bxd:__ZNK5physx2Sc5Scene20getNbParticleSystemsEv
ldf:_Decimal_ToString_m541380585
I7f:_RepeatContext_get_Previous_m808449037
LGj:__Z46RuntimeInvoker_CharacterValidation_t3437478890PFvvEPK10MethodInfoPvPS4_
xCi:_Array_compare_TisUILineInfo_t3621277874_m2798413554_gshared
CMg:_AnimationOffsetPlayable_SetRotation_m1448934280_AdjustorThunk
WOi:_KeyValuePair_2_set_Key_m1307112735_AdjustorThunk
LE:__ZN11UnityEngine9Animation28GenericAnimationBindingCache25RegisterIAnimationBindingEPKN5Unity4TypeEiP17IAnimationBinding
KAd:__ZN5physx2Gu17GetGeomSweepFuncsEv
AWc:__ZN5physx6shdfnd8PoolBaseINS_15PxsArticulationENS0_16AlignedAllocatorILj64ENS0_9AllocatorEEEE17releaseEmptySlabsEv
pgf:_Enum_ToObject_m2601523252
JYf:_InternalAsyncResult_get_FromWrite_m2893408424
hwh:__ZN6il2cpp2vm5Class15GetElementClassEP11Il2CppClass
$wi:_U3CDelayedSetDirtyU3Ec__Iterator0_System_Collections_IEnumerator_get_Current_m851854792
BZa:__Z20RenderSceneDepthPassRK19SharedRendererSceneRK17ShaderReplaceDatabR17ShaderPassContext
Vzk:__ZL124AnimatorControllerPlayable_t1744083903_CustomAttributesCacheGenerator_AnimatorControllerPlayable_PlayInFixedTime_m3726932292P21CustomAttributesCache
Thd:__ZN5physx22NpParticleBaseTemplateINS_15PxParticleFluidENS_15NpParticleFluidEE23setParticleReadDataFlagENS_22PxParticleReadDataFlag4EnumEb
kIj:__Z37RuntimeInvoker_Enumerator_t1593300101PFvvEPK10MethodInfoPvPS4_
ixe:__ZN14UnityAnalytics25UnregisterGlobalCallbacksEv
j5a:__Z40ProcessCameraIndexListIsNodeVisibleInOutRK22SceneCullingParametersPK9SceneNodePK4AABBR9IndexList
Fmg:_UTF7Encoding_GetBytes_m3015176946
$kb:__ZN16GraphicsSettings8TransferI17RemapPPtrTransferEEvRT_
QNf:_BigInteger_op_LessThanOrEqual_m3528380540
Tvf:_StreamReader__ctor_m2654332332
Ite:__ZN2UI6Canvas13UpdateBatchesEb
Nz:__ZNK23AnimationPlayableOutput11DerivesFromE17ScriptingClassPtr
lJk:__ZL105PointerEventData_t1599784723_CustomAttributesCacheGenerator_PointerEventData_set_pointerEnter_m1440587006P21CustomAttributesCache
Lpb:__ZN7Texture19SupportsAsyncUploadI19StreamedBinaryWriteILb0EEEEbRT_
iPl:_glGetShaderInfoLog__wrapper
ATi:_List_1_CheckCollection_m3968030679_gshared
cEl:_Predicate_1_BeginInvoke_m3556950370_gshared
vbd:__ZN5physx2Gu5Debug9visualizeERKNS_13PxBoxGeometryERNS_2Cm12RenderOutputERKNS5_8Matrix34ERKNS_9PxBounds3Eyfj
ilg:_StringBuilder_ToString_m617673931
lAa:__ZNK13GfxDeviceGLES12GetWireframeEv
YBc:__ZN5physx6shdfnd5ArrayIPKvNS0_19ReflectionAllocatorIS3_EEE6resizeEjRKS3_
Ogj:_ReadOnlyCollection_1_System_Collections_ICollection_get_IsSynchronized_m3127987432_gshared
qAe:__ZN11UnityEngine7Connect13ConfigHandler12GetListenersERKN4core12basic_stringIcNS2_20StringStorageDefaultIcEEEE
EBa:__ZN9GfxDevice18AllocRenderSurfaceEb
uRd:__ZN5physx31setupFinalizeSolverConstraints4EPNS_21PxcSolverContact4DescERNS_18PxcNpThreadContextEPhffRKNS_6shdfnd3aos5Vec4VES9_S9_S9_
ctd:__ZN5physx7NpScene5flushEb
A_b:__ZN10TagManager32GetSortingLayerUniqueIDFromValueEi
Wih:_AnchorInfo_get_IsComplete_m1247624133
xoi:_Dropdown_Show_m324374589
E1:__ZL27CleanupCoreScriptingClassesv
oqk:__ZL85Component_t3819376471_CustomAttributesCacheGenerator_Component_SendMessage_m913946877P21CustomAttributesCache
Rpj:__Z68RuntimeInvoker_RuntimeObject_RuntimeObject_DSAParameters_t1872138834PFvvEPK10MethodInfoPvPS4_
uTg:_AudioMixerPlayable_INTERNAL_CALL_CreateAudioMixerPlayableInternal_m3355685531
qAh:__ZNSt3__27__sort3IRN6il2cpp5utils11collections13ArrayValueMapIPK10Il2CppType17Il2CppInteropData26InteropDataToTypeConverterNS1_8metadata14Il2CppTypeLessENSA_26Il2CppTypeEqualityComparerEE12SortComparerEPS8_EEjT0_SH_SH_T_
FCc:__ZN5physx2Gu13GeometryUnion3setERKNS_10PxGeometryE
KHj:__Z101RuntimeInvoker_Void_t1841601450_RuntimeObject_Int32_t2071877448_Single_t2076509932_Single_t2076509932PFvvEPK10MethodInfoPvPS4_
QMc:__ZThn8_N5physx3Cct17CapsuleController15getPxControllerEv
hBl:_GenericComparer_1__ctor_m3575096182_gshared
NNi:_Resources_Load_TisRuntimeObject_m2884518678_gshared
Jhi:_RaycastResult_get_isValid_m2482925612
fic:__Z26AnimationCurve_CUSTOM_InitP12Il2CppObjectP11Il2CppArray
YSl:_glUniform1uiv__wrapper
zOh:__ZN6il2cpp2vm10Reflection7IsEventEP12Il2CppObject
Gci:__ZNSt3__26__treeINS_12__value_typeIPFvvEPK10MethodInfoEENS_19__map_value_compareIS3_S7_NS_4lessIS3_EELb1EEENS_9allocatorIS7_EEE16__insert_node_atEPNS_16__tree_node_baseIPvEERSI_SI_
K2:__ZN17PersistentManager26GetStreamNameSpaceInternalEi
RJ:__ZN4FMOD6System11createSoundEPKcjP22FMOD_CREATESOUNDEXINFOPPNS_5SoundE
lOj:__Z72RuntimeInvoker_Int32_t2071877448_Vector2_t2243707579_Vector2_t2243707579PFvvEPK10MethodInfoPvPS4_
HWg:_CanvasRenderer_get_cull_m3577089379
M8i:__ZN23InterfaceActionInvoker2Ii22UICharInfo_t3056636800E6InvokeEjP11Il2CppClassP12Il2CppObjectiS0_
$o:FUNCTION_TABLE_iiifiiii
s$j:_Object_Destroy_m4145850038
SJh:__ZN6il2cpp2vm4Type14IsSystemDBNullEPK10Il2CppType
Q5d:__ZThn128_N5physx7profile8ZoneImplINS_28PxProfileNameProviderForwardEED1Ev
l0:__ZN9ShaderLab19CommonPropertyNames13StaticCleanupEPv
xMg:_AnimationOffsetPlayable_INTERNAL_CALL_GetRotationInternal_m3411582030
R3:__Z31scripting_method_get_returntype18ScriptingMethodPtr
Okj:__Z45RuntimeInvoker_Int64_t909078037_RuntimeObjectPFvvEPK10MethodInfoPvPS4_
o4g:_ScrollRect_UpdateBounds_m3266596336
_Bd:__ZN5physx2Sq17AABBTreeUpdateMap10invalidateEjjRNS0_8AABBTreeE
Lrb:__ZN15SerializeTraitsI12LightmapDataE8TransferI24GenerateTypeTreeTransferEEvRS0_RT_
L$g:_LayoutUtility_GetFlexibleWidth_m1731978987
JQd:__ZN5physx28solveParallelDefaultFrictionERNS_18PxsDynamicsContextEjjPNS_13PxcSolverBodyEPNS_17PxcSolverBodyDataEjjPNS_25PxcArticulationSolverDescEjPNS_23PxcSolverConstraintDescEjS9_jPiSA_SA_SA_SA_SA_PNS_25PxcThresholdStreamElementEjSA_PNS_2Cm13SpatialVectorEPKPNS_11PxsBodyCoreERNSD_10BitMapBaseINS_6shdfnd9AllocatorEEEPKPNS_15PxsArticulationEjPViRNSL_5ArrayINS_24PxsConstraintBatchHeaderENSL_19ReflectionAllocatorISW_EEEES10_RNSV_IjNSX_IjEEEES13_PPNS_12PxsRigidBodyEj
oPl:_glStencilOpSeparate__wrapper
M8b:__ZN4Mesh5SetUvEiPKfjj
vta:__ZN7Texture13SetAnisoLimitENS_20AnisotropicFilteringE
Pta:__ZN28LightProbeProxyVolumeManager25UpdateSHCoeffsTextureDataER21LightProbeProxyVolume
qPa:__Z18CreateDecompressor15CompressionType18MemLabelIdentifier
nS:__ZN11AudioModule16SetListenerPauseEb
xi:_emscripten_glCompressedTexSubImage2D
MJa:__ZN13GfxDeviceGLES22MemoryBarrierImmediateEyN2gl17MemoryBarrierTypeE
cca:__ZZN18SpriteAtlasManagerC1EvEN46EarlyUpdateSpriteAtlasManagerUpdateRegistrator7ForwardEv
tm:_abort
mVh:__ZN6il2cpp6icalls8mscorlib6System4Type18internal_from_nameEP12Il2CppStringbb
Sqa:__ZN6prcoreL26RemapGenericFloatToIntegerI18TexFormatARGBFloat17TexFormatARGB8888EEvPKNS_9InnerInfoE
K6i:_Collection_1_set_Item_m3013463288_gshared
C3h:__ZN6il2cpp6icalls8mscorlib6System10Reflection9MonoField16GetValueInternalEP21Il2CppReflectionFieldP12Il2CppObject
x8b:__Z46GetShaderModelNumericValueFromRequirementsMask18ShaderRequirements
b$b:__ZN6Object27GetOffsetOfInstanceIdMemberEv
zoe:_cff_ps_has_glyph_names
pwl:_InvokableCall_1__ctor_m2837611051_gshared
n$d:__ZN5physx15writeWordBufferEPKtjbRNS_14PxOutputStreamE
tEj:__Z89RuntimeInvoker_Void_t1841601450_RuntimeObject_SingleU26_t4173844468_SingleU26_t4173844468PFvvEPK10MethodInfoPvPS4_
n1k:_EqualityComparer_1__ctor_m1389939323_gshared
tUk:_Transform_1_EndInvoke_m1025924012_gshared
Z5h:_GC_write
Hgh:_PatternCompiler_EmitPosition_m3013268572
r6f:_X509SubjectKeyIdentifierExtension__ctor_m1109455121
naj:_Collection_1_SetItem_m2707773254_gshared
grh:__ZL24UnresolvedVirtualCall_45P12Il2CppObject19DateTime_t693205669PK10MethodInfo
Jqi:_Graphic_CreateColorFromAlpha_m2614574534
Wlg:_UnicodeEncoding_GetHashCode_m2443440683
wsc:__Z44Register_UnityEngine_GUIStyle_SetDefaultFontv
kCg:_GenericTypeParameterBuilder_GetPropertyImpl_m3566422383
Q0h:__GLOBAL__sub_I_ThreadImpl_cpp
qOb:__Z18Transfer_BlittableI18StreamedBinaryReadILb1EELb1EiEvRK29SerializationCommandArgumentsR31RuntimeSerializationCommandInfo
EB:__ZN9BlobWrite8TransferI22OffsetPtrArrayTransferIKN4math7_float3EEEEvRT_PKc17TransferMetaFlags
XKe:_TripleDES_IsWeakKey_m483013953
G3f:_X509Certificate2_get_PrivateKey_m2662162956
CVk:_Enumerator__ctor_m3819430617_AdjustorThunk
oNh:__ZN15dense_hashtableINSt3__24pairIK10KeyWrapperINS1_IPK12PropertyInfoP11Il2CppClassEEEjEES9_17ReflectionMapHashIS8_EN14dense_hash_mapIS9_jSD_NS9_14EqualsComparerINS0_8equal_toIS8_EEEENS0_9allocatorISB_EEE9SelectKeyESI_SK_E12maybe_shrinkEv
hwj:__Z75RuntimeInvoker_RuntimeObject_RuntimeObject_Single_t2076509932_RuntimeObjectPFvvEPK10MethodInfoPvPS4_
nUc:__ZN5physx2Sc7BodySim37checkSleepReadinessBesidesWakeCounterEv
LOb:__Z18Transfer_BlittableI18StreamedBinaryReadILb1EELb1EsEvRK29SerializationCommandArgumentsR31RuntimeSerializationCommandInfo
ny:__ZN26AnimatorControllerPlayable17IsMultithreadableEv
jHj:__Z54RuntimeInvoker_Void_t1841601450_ColorBlock_t2652774230PFvvEPK10MethodInfoPvPS4_
AOe:_Single_System_IConvertible_ToSByte_m3757385387
Ktf:_StreamAsyncResult_SetComplete_m2141125667
Bta:__ZL21SetAnisoLimitEnumImplN7Texture20AnisotropicFilteringEb
Xye:__ZN22BaseUnityConnectClient17OnEnterStateReadyEv
$kd:__ZNK5physx22NpParticleBaseTemplateINS_16PxParticleSystemENS_16NpParticleSystemEE15getMaxParticlesEv
T5c:__ZN5physx2Sc16ArticulationCore14setWakeCounterEf
mqd:__ZN5physx2Sc10NPhaseCore24createTriggerInteractionERNS0_8ShapeSimES3_NS_7PxFlagsINS_10PxPairFlag4EnumEtEE
CWi:_List_1_get_Count_m634584594_gshared
twa:__ZN14GrowableBufferD2Ev
kYj:_Keyframe_get_tangentMode_m1869200796_AdjustorThunk
whc:__Z29Input_CUSTOM_GetMouseButtonUpi
EEc:__ZN5physx2Gu12selectNormalEhff
HFh:__ZN6il2cpp6icalls8mscorlib6System8MonoType16InternalGetEventEP20Il2CppReflectionTypeP12Il2CppStringi
H2j:_Quaternion_INTERNAL_CALL_Internal_ToEulerRad_m1077217777
Otg:_UInt32_System_IConvertible_ToUInt32_m1257480358_AdjustorThunk
ANj:__Z55RuntimeInvoker_CustomAttributeTypedArgument_t1498197914PFvvEPK10MethodInfoPvPS4_
Kng:_Interlocked_CompareExchange_m3339239614
iie:_UNITY_tt_face_load_maxp
Hhc:__Z46Input_CUSTOM_INTERNAL_set_compositionCursorPosRK13Vector2fIcall
du:__ZN7mecanim5human12FullBodyMaskEv
Bjd:__ZN5physx3Scb14ParticleSystem16releaseParticlesEjRKNS_16PxStrideIteratorIKjEE
Kik:__ZL98Activator_t1850728717_CustomAttributesCacheGenerator_Activator_CreateInstance_m1465989661____args1P21CustomAttributesCache
L$:__ZN19ShaderPropertySheet11ComputeHashEv
aAh:__ZN30dense_hashtable_const_iteratorI10KeyWrapperIPK19Il2CppGenericMethodES4_N6il2cpp8metadata23Il2CppGenericMethodHashEN14dense_hash_setIS4_S7_NS4_14EqualsComparerINS6_26Il2CppGenericMethodCompareEEENSt3__29allocatorIS4_EEE8IdentityESB_SE_EppEv
lwd:__ZN5physx2Sc5Scene21processLostTouchPairsEv
FPb:__ZN4PPtrI6ObjectE8TransferI18StreamedBinaryReadILb1EEEEvRT_
BW:__ZN11UnityEngine15CloudWebService20WebRequestRestClient6IsDoneEv
wmi:_ColorTween_get_tweenMode_m2919867230_AdjustorThunk
sj:_llvm_fabs_f32
fli:_CanvasScaler_HandleScaleWithScreenSize_m80056230
eW:__ZN11UnityEngine15CloudWebService16SessionContainer16GetJsonDataBlockEjRKN4core12basic_stringIcNS2_20StringStorageDefaultIcEEEERS6_PjSA_
phg:_SByte_System_IConvertible_ToUInt64_m2174352876_AdjustorThunk
S2d:__ZThn28_N14PhysicsManager7onSleepEPPN5physx7PxActorEj
nAk:__ZL132AnimatorControllerPlayable_t1744083903_CustomAttributesCacheGenerator_AnimatorControllerPlayable_Play_m2828212586____normalizedTime2P21CustomAttributesCache
xCg:_GenericTypeParameterBuilder_get_AssemblyQualifiedName_m902593295
kPh:__ZN15dense_hashtableINSt3__24pairIK10KeyWrapperIPK14Il2CppAssemblyEPK22Il2CppMonoAssemblyNameEES6_N6il2cpp5utils11PointerHashIS4_EEN14dense_hash_mapIS6_SA_SF_NS6_14EqualsComparerINS0_8equal_toIS5_EEEENS0_9allocatorISB_EEE9SelectKeyESK_SM_E13set_empty_keyERKSB_
CKd:__ZN5physx22PxcContactConvexConvexERKNS_2Gu13GeometryUnionES3_RKNS_11PxTransformES6_RKfRNS_10PxcNpCacheERNS0_13ContactBufferE
X2k:_EqualityComparer_1__ctor_m831468288_gshared
WDc:__ZNK5physx2Gu11ConvexHullV12HillClimbingERKNS_6shdfnd3aos5Vec3VE
XXk:_Dictionary_2_System_Collections_IDictionary_set_Item_m2290664072_gshared
fqd:__ZNK5physx2Sc17ParticleSystemSim7getCoreEv
Yrj:__Z76RuntimeInvoker_Void_t1841601450_Int64_t909078037_ResourceInfoU26_t3126209420PFvvEPK10MethodInfoPvPS4_
CCf:_SimpleCollator__cctor_m2693747668
edf:_Decimal_CompareTo_m2454501434_AdjustorThunk
Y2:__ZN14SafeBinaryReadD2Ev
vsg:_UInt16_System_IConvertible_ToChar_m4055364664
pjd:__ZN5physx2Sc18ParticleSystemCore10setDampingEf
P$b:__Z13RegisterClassI7TextureEvv
_jh:_ExpressionCollection_OnValidate_m1703610065
yNi:_Component_GetComponentInChildren_TisRuntimeObject_m2461586036_gshared
ZPb:__ZN8Gradient8TransferI18StreamedBinaryReadILb1EEEEvRT_
RUk:_Enumerator_Dispose_m2369319718_AdjustorThunk
mkk:__ZL79Convert_t2607082565_CustomAttributesCacheGenerator_Convert_ToUInt16_m3991499696P21CustomAttributesCache
IYf:_InternalAsyncResult_get_ProceedAfterHandshake_m552962842
ZQc:__ZN5physx2Sc10NPhaseCore16deleteFilterPairEPNS0_10FilterPairE
gsc:__Z45Register_UnityEngine_GUIStyle_SetFontInternalv
lwh:__ZN6il2cpp2vmL17SetupEventsLockedEP11Il2CppClassRKNS_2os12FastAutoLockE
pVh:__ZN6il2cpp6icalls8mscorlib6System4Type15MakeGenericTypeEP20Il2CppReflectionTypeP11Il2CppArray
iTb:__ZN6ShaderD2Ev
Tj:_SDL_PauseAudio
eHh:_il2cpp_class_from_type
DUe:_Array_Sort_m2323017822
Tui:_InputField_GetUnclampedCharacterLineFromPosition_m1912794077
S2g:_Scrollbar_UpdateDrag_m3839695926
mTj:_GUILayoutUtility__cctor_m2957755459
jUg:_AudioConfigurationChangeHandler_EndInvoke_m2237100787
ZUc:__ZN5physx2Sc5Scene28addActiveBreakableConstraintEPNS0_13ConstraintSimE
k0:__ZN9ShaderLab19CommonPropertyNames16StaticInitializeEPv
X7c:__ZN5physx6shdfnd8PoolBaseINS_16NpParticleSystemENS0_19ReflectionAllocatorIS2_EEE15disposeElementsEv
yyf:_MissingMemberException__ctor_m3710131950
bsa:__ZN13MemoryManager31DisallowAllocationsOnThisThreadEv
M2j:_Quaternion_Euler_m3586339259
DD:__ZN7mecanim9animation18CreateAvatarOutputEPKNS0_14AvatarConstantEbbRNS_6memory9AllocatorE
k6d:__ZN5physx7profile11EventBufferINS_24PxDefaultContextProviderENS_6shdfnd6MutexTINS0_26WrapperReflectionAllocatorIhEEEENS0_14ScopedLockImplIS7_EENS_24PxProfileNullEventFilterEE10eventValueEtyx
Gsc:__Z45GUIUtility_CUSTOM_Internal_GetKeyboardControlv
Zwj:__Z91RuntimeInvoker_Void_t1841601450_RuntimeObject_Int32_t2071877448_RuntimeObject_RuntimeObjectPFvvEPK10MethodInfoPvPS4_
oig:_CspParameters__ctor_m2546931874
XHc:__ZN5physx2Gu11getBoxEdgesEv
Wxe:__ZN14UnityAnalytics15SendCustomEventERN11UnityEngine9Analytics15UserCustomEventE
Jvb:__ZN14Texture2DArray23VirtualRedirectTransferER14SafeBinaryRead
j0a:__ZNK6Camera21CalculateCanDoShadowsEv
Mud:__ZNK5physx2Sc5Scene17getBroadPhaseCapsERNS_16PxBroadPhaseCapsE
N_k:_Dictionary_2_make_pair_m2631942124_gshared
L4c:__ZN5physx9NpFactory14onActorReleaseEPNS_7PxActorE
Nqi:_Graphic__cctor_m1643894470
F0h:__ZN6il2cpp2os6Thread12SetStackSizeEj
hmj:__Z99RuntimeInvoker_Void_t1841601450_Int32_t2071877448_RuntimeObject_Int32_t2071877448_Int32_t2071877448PFvvEPK10MethodInfoPvPS4_
a4f:_X509ChainElementEnumerator_get_Current_m2232618221
$Wc:__ZN5physx2Sc5Actor15onElementAttachERNS0_7ElementE
Qrj:__Z54RuntimeInvoker_CallingConventions_t1097349142_IntPtr_tPFvvEPK10MethodInfoPvPS4_
$4i:_Collection_1_Clear_m3860339101_gshared
Dki:_U3COnFinishSubmitU3Ec__Iterator0_Reset_m2080388334
f9b:__ZNK8Renderer16IsVisibleInSceneEv
eJi:_Array_qsort_TisUIVertex_t1204258818_m3188278715_gshared
oUg:_Behaviour_get_isActiveAndEnabled_m3838334305
i4g:_ScrollRect_set_onValueChanged_m3957749575
Z_:__Z13VFormatBufferPciPKcz
ajd:__ZN5physx2Sc18ParticleSystemCore23setSimulationFilterDataERKNS_12PxFilterDataE
SQb:__Z18Transfer_BlittableI18StreamedBinaryReadILb0EELb1EhEvRK29SerializationCommandArgumentsR31RuntimeSerializationCommandInfo
HDl:_U3CCreateWhereIteratorU3Ec__Iterator1D_1_Dispose_m1879652802_gshared
Lck:__ZL90SafeHandle_t2733794115_CustomAttributesCacheGenerator_SafeHandle_get_IsInvalid_m3910183075P21CustomAttributesCache
Fsi:_Image_GenerateSimpleSprite_m4275440988
g_g:_Display_get_systemHeight_m3377672024
ktg:_UInt16_ToString_m3280699191
Xxl:_UnityEvent_1_GetDelegate_m2566156550_gshared
Wqa:__ZN6prcoreL27StretchGenericFloatBilinearI15TexFormatRFloatEEvPKNS_9InnerInfoE
UAd:__ZN5physx6shdfnd8internal8HashBaseINS0_4PairIKNS_2Sq13PrunerPayloadEjEES5_NS0_4HashIS5_EENS1_11HashMapBaseIS5_jS9_NS0_9AllocatorEE6GetKeyESB_Lb1EE15reserveInternalEj
ZMj:__Z57RuntimeInvoker_KeyValuePair_2_t38854645_Int32_t2071877448PFvvEPK10MethodInfoPvPS4_
TAi:_Array_InternalArray__IEnumerable_GetEnumerator_TisBoolean_t3825574718_m798244337_gshared
V_i:_List_1_CopyTo_m158925060_gshared
Jw:__Z24ProcessAnimationMixBeginP35AnimationPlayableEvaluationConstantP32AnimationPlayableEvaluationInputP33AnimationPlayableEvaluationOutput
wil:_Rect_Overlaps_m4145874649
VCi:_Array_IndexOf_TisCustomAttributeNamedArgument_t94157543_m745056346_gshared
WHa:__Z14PadImageBorderR14ImageReferenceii
Vmk:__ZL92ExtendedKeyUsageExtension_t3816993686_CustomAttributesCacheGenerator_U3CU3Ef__switchU24map14P21CustomAttributesCache
TLh:__ZN15dense_hashtableINSt3__24pairIK10KeyWrapperINS1_IPK10MethodInfoP11Il2CppClassEEEjEES9_17ReflectionMapHashIS8_EN14dense_hash_mapIS9_jSD_NS9_14EqualsComparerINS0_8equal_toIS8_EEEENS0_9allocatorISB_EEE9SelectKeyESI_SK_E4findERSA_
eDh:__ZN6il2cpp2vm13MetadataCache28GetFieldDefaultValueForFieldEPK9FieldInfo
V3k:_ArrayReadOnlyList_1_ReadOnlyError_m2289309720_gshared
kx:__ZN27AnimationLayerMixerPlayableD2Ev
VFh:__ZN6il2cpp2vm8basepathEPKc
FEd:__ZN5physx2Gu22gjkRelativePenetrationINS0_9TriangleVENS0_8CapsuleVEEEjRKT_RKT0_RKNS_6shdfnd3aos15PsMatTransformVERKNSB_6FloatVERNSB_5Vec3VESJ_SJ_RSF_PhSL_Rh
E0d:__ZN9Rigidbody14SetIsKinematicEb
Mqh:__ZL24UnresolvedVirtualCall_23P12Il2CppObjectS0_PK10MethodInfo
JL:__ZN12AudioManager39HandlePendingAudioConfigurationCallbackEv
P4i:_Collection_1_System_Collections_IList_Contains_m323652826_gshared
Qk:_emscripten_glIsFramebuffer
G5b:__ZN12_GLOBAL__N_16qAtan2Eff
Fae:__Z13RegisterClassI9RigidbodyEvv
Z7e:_Convert_ToInt64_m954367741
Uk:_JS_Sound_SetLoopPoints
DZe:_ArrayList__ctor_m1467563650
EP:__ZN12AudioManager17ShouldSourcePauseEb
qai:__ZN6il2cpp2vm26MetadataAllocGenericMethodEv
lMa:__ZN19ConstantBuffersGLES12RecordRenderEv
wAd:__ZN5physx13ActorAABBTaskD2Ev
Eol:_Transform_INTERNAL_set_rotation_m3703763817
wvc:__ZN9JSONWrite8TransferI10RectOffsetEEvRT_PKc17TransferMetaFlags
CHa:__ZN4crnd12symbol_codec11decode_bitsEj
Noh:_X509Crl_get_Extensions_m1795830276
Tme:_cf2_doFlex
iKi:_Array_Sort_TisRaycastResult_t21186376_TisRaycastResult_t21186376_m38820193_gshared
YQg:_Animator_ResetTriggerString_m1445965342
R5b:__ZN21FixedBehaviourManagerD0Ev
Zxk:__ZL55RaycastHit2D_t4063908774_CustomAttributesCacheGeneratorP21CustomAttributesCache
cnb:__ZN10Matrix3x4f8TransferI24GenerateTypeTreeTransferEEvRT_
Usf:_StreamReader__ctor_m3454466728
NL:__ZN4FMOD6System12createReverbEPPNS_6ReverbE
UBi:_Array_InternalArray__IEnumerable_GetEnumerator_TisVector4_t2243707581_m829381058_gshared
DDk:__ZL103GUIStyleState_t3801000545_CustomAttributesCacheGenerator_GUIStyleState_GetBackgroundInternal_m439046630P21CustomAttributesCache
Ljl:_Vector2_get_Item_m2792130561
cx:__ZN7mecanim19ValueArrayBlendNodeILb1EEEvRKNS_10ValueArrayERKNS_14ValueArrayMaskERS1_RS4_RNS_16ValueArrayWeightEf
dsa:__Z16MarkDependenciesR27GarbageCollectorThreadStatej
U5f:_X509ChainElementEnumerator_Reset_m3832280427
jzj:__Z35RuntimeInvoker_RangeInt_t2323401134PFvvEPK10MethodInfoPvPS4_
oIk:__ZL75EventSystem_t3466835263_CustomAttributesCacheGenerator_U3CU3Ef__mgU24cache0P21CustomAttributesCache
GAf:_MulticastDelegate_RemoveImpl_m2024746777
oli:_CanvasUpdateRegistry_ParentCount_m2367607495
AAf:_MulticastDelegate_Equals_m3064081489
NLf:_Activator_CreateInstance_m1465989661
g0:__ZNK9Transform11GetPositionEv
C7c:__ZN5physx12NpConstraint8requiresERNS_23PxProcessPxBaseCallbackE
K1j:_PlayableHandle_SetPlayStateInternal_m3829195293
IHk:__ZL111PlayerConnection_t3517219175_CustomAttributesCacheGenerator_PlayerConnection_MessageCallbackInternal_m267902474P21CustomAttributesCache
nXa:__ZN23SharedMeshRenderingData18UnloadVertexStreamEi
Qql:_Vector4_set_Item_m3077071044
QNc:__ZN5physx3Cct13HandleManager3AddEPv
o6b:__ZN31CanvasBatchIntermediateRenderer11AddSubBatchERK16DrawBuffersRangePK19ShaderPropertySheet
moj:__Z99RuntimeInvoker_Void_t1841601450_RuntimeObject_Int32_t2071877448_Int32_t2071877448_Int32_t2071877448PFvvEPK10MethodInfoPvPS4_
Q4b:__ZN19RenderEventsContextC2Ei
nU:__Z6simd4fRKf
Awl:_InvokableCall_3_Find_m3470456112_gshared
oGi:_Array_InternalArray__ICollection_CopyTo_TisColor32_t874517518_m379086718_gshared
I6g:_Slider_ClampValue_m2851810895
vl:_emscripten_glEnable
MTj:_GUISkin_set_font_m4009958323
Wxl:_UnityEvent_1_FindMethod_Impl_m3813546_gshared
n_h:__ZN6il2cpp2gc16GarbageCollector29RegisterFinalizerForNewObjectEP12Il2CppObject
tfl:_DefaultComparer_Compare_m3319119721_gshared
kib:__ZN10TagManager23VirtualRedirectTransferER14SafeBinaryRead
NVd:__ZNK5physx2Sc15ClothFabricCore9getNbSetsEv
Xah:_MarshalAsAttribute__ctor_m1892084128
Ehe:_UNITY_FT_Init_Class_ft_grays_raster
b3a:__Z15InitLightMeshesv
Fik:__ZL97WaitHandle_t677569169_CustomAttributesCacheGenerator_WaitHandle_t677569169____Handle_PropertyInfoP21CustomAttributesCache
Ttd:__ZNK5physx7NpScene26getNbContactDataBlocksUsedEv
xOi:_KeyValuePair_2_ToString_m1391611625_AdjustorThunk
uo:FUNCTION_TABLE_iifiii
AJc:__ZN5physx2Gu29computeCapsule_HeightFieldMTDERKNS_21PxHeightFieldGeometryERKNS_11PxTransformERNS0_8CapsuleVEffbjRNS_10PxSweepHitE
Jdh:__ZN23InterfaceActionInvoker1IP18Context_t502196753E6InvokeEjP11Il2CppClassP12Il2CppObjectS1_
qpd:__ZNK5physx2Cm12DelegateTaskINS_7NpSceneEXadL_ZNS2_14executeCollideEPNS_10PxBaseTaskEEEE7getNameEv
Gtk:__ZL108Material_t193706927_CustomAttributesCacheGenerator_Material_Internal_CreateWithMaterial_m2907597451____mono0P21CustomAttributesCache
eXd:__ZN5physx2Gu11HeightField15exportExtraDataERNS_22PxSerializationContextE
pnb:__Z13TransferArrayILi4Ei19StreamedBinaryWriteILb0EEEjRAT__T0_PKcRT1_
UVa:__ZN22RenderingCommandBuffer36AcquireAndRegisterSharedMaterialDataEP8Material
OUi:_List_1_System_Collections_Generic_IEnumerableU3CTU3E_GetEnumerator_m1503548298_gshared
NMb:__Z18Transfer_BlittableI19StreamedBinaryWriteILb0EELb1E8Vector2fEvRK29SerializationCommandArgumentsR31RuntimeSerializationCommandInfo
zme:_cf2_arrstack_init
pck:__ZL65ClassInterfaceAttribute_t910653559_CustomAttributesCacheGeneratorP21CustomAttributesCache
L_:__Z15CleanLogHandler7LogTypePKcz
SWb:__ZN9ShaderLab19SerializedSubShader8TransferI19StreamedBinaryWriteILb0EEEEvRT_
Y9c:__ZN5physx10NpMaterialC2ERKNS_2Sc12MaterialCoreE
yZe:_CharEnumerator_Reset_m2412204068
xNd:__ZN5physx9PxTaskMgr10resolveRowEjb
_lg:_UTF32Encoding_GetBytes_m2290150495
vDb:__ZN6Camera17RemoveImageFilterERK11ImageFilter
iJa:__ZNSt3__218__insertion_sort_3IR25ValueParameterArraySorterPN20GpuProgramParameters14ValueParameterEEEvT0_S6_T_
s0e:_CaseInsensitiveHashCodeProvider_AreEqual_m2456617355
gFj:__Z74RuntimeInvoker_Boolean_t3825574718_HitInfo_t1761367055_HitInfo_t1761367055PFvvEPK10MethodInfoPvPS4_
Aue:__ZZN2UI11CanvasGroup15InitializeClassEvEN38FunctorImpl_117kTransformParentChanged4CallEPviR11MessageData
F$g:_LayoutUtility_GetLayoutProperty_m4052007472
twl:_InvokableCall_1_Invoke_m3239892614_gshared
WWa:__ZNSt3__214__split_bufferI20ComputeShaderVariantRNS_9allocatorIS1_EEED2Ev
e0d:__ZN8Collider12GetIsTriggerEv
vAl:_EqualityComparer_1_get_Default_m1806515335_gshared
hde:__ZNSt3__26vectorIN4core12basic_stringIcNS1_20StringStorageDefaultIcEEEE13stl_allocatorIS5_L18MemLabelIdentifier34ELi16EEE7reserveEj
TNh:__ZNK10KeyWrapperINSt3__24pairIPK9EventInfoP11Il2CppClassEEE14EqualsComparerINS0_8equal_toIS7_EEEclERKS8_SE_
tUf:_Context_set_WriteSequenceNumber_m3356252710
oue:__ZN2UI26InitializeDeviceForOverlayEi
hVd:__ZNK5physx13NpClothFabric13getRestvaluesEPfj
B0:__Z27LogRepeatingStringWithFlagsRKN4core12basic_stringIcNS_20StringStorageDefaultIcEEEE15LogMessageFlagsi
RGc:__ZN5physx2Gu16_gjkLocalRayCastINS0_9TriangleVENS0_11ConvexHullVEEEbRT_RT0_RKNS_6shdfnd3aos6FloatVERKNS9_5Vec3VESF_RSA_RSD_SH_f
xRi:_Enumerator_MoveNext_m3483405135_gshared
Eu:__ZN17AnimationPlayable28ComputeNeedsBindingRebuildedEv
iVc:__ZN5physx6shdfnd8PoolBaseINS_2Cm5BlockIPvLj32EEENS0_19ReflectionAllocatorIS5_EEE17releaseEmptySlabsEv
vfl:_DefaultComparer__ctor_m2859550749_gshared
KGd:__ZN5physx23PxsBroadPhaseContextSap21batchUpdateFewUpdatesEjRPNS_17PxcBroadPhasePairERjS4_
cvk:__ZL62PlayableOutputHandle_t551742311_CustomAttributesCacheGeneratorP21CustomAttributesCache
fKc:__ZN5physx3Cct17getSceneTimestampEPKNS0_30InternalCBData_FindTouchedGeomE
hBb:__ZN15ResourceManagerD0Ev
C3f:_X509ExtensionCollection__ctor_m1324282194
U$j:_Physics_Raycast_m2874007225
pBe:__ZN18UnityConnectClient33OnPlayerSessionStateChangedStaticEPS_jyy
n8j:__ZL74CaseInsensitiveHashCodeProvider_t2307530285_CustomAttributesCacheGeneratorP21CustomAttributesCache
evg:_UIntPtr__ctor_m3900568171_AdjustorThunk
jX:__ZNK11UnityEngine15CloudWebService23WebRequestUploadHandler11GetProgressEv
Y4k:_InternalEnumerator_1_get_Current_m1943362081_gshared
VEa:__ZN7ApiGLES4LoadE16GfxDeviceLevelGL
Yrb:__ZN18StreamedBinaryReadILb0EE21TransferSTLStyleArrayI13dynamic_arrayI31EnlightenSystemAtlasInformationLj8EEEEvRT_17TransferMetaFlags
f9c:__ZN5physx9NpPhysics15createAggregateEjb
vHa:__ZN4crnd12crn_unpacker22decode_color_endpointsEv
uZh:__ZN15dense_hashtableI10KeyWrapperIP18Il2CppGenericClassES3_N6il2cpp8metadata22Il2CppGenericClassHashEN14dense_hash_setIS3_S6_NS3_14EqualsComparerINS5_25Il2CppGenericClassCompareEEENSt3__29allocatorIS3_EEE8IdentityESA_SD_E15insert_noresizeERKS3_
wej:_ReadOnlyCollection_1_System_Collections_IList_Clear_m3006875897_gshared
m3b:__ZZL31RegisterOtherRendererPropertiesR22GenericPropertyBindingEN30Wrapper_RendererReceiveShadows13GetFloatValueEPv
buh:__ZL25UnresolvedVirtualCall_202P12Il2CppObject22Navigation_t1571958496PK10MethodInfo
r3d:__ZN9Rigidbody5ResetEv
dqj:__Z130RuntimeInvoker_Void_t1841601450_RuntimeObject_Int32U26_t455636984_ByteU26_t1147306860_Int32U26_t455636984_ByteU5BU5DU26_t790777611PFvvEPK10MethodInfoPvPS4_
PRi:_Enumerator_System_Collections_IEnumerator_get_Current_m3866069145_gshared
b0j:_Physics_Raycast_m2994111303
PDf:_PreviousInfo_t581002487_marshal_pinvoke_cleanup
Rga:__ZN8Material11SetPassFastEPN9ShaderLab4PassER17ShaderPassContextP6Shaderib
Pji:_AspectRatioFitter_UpdateRect_m3782072749
$ab:__ZNK13ScreenManager13GetLockCursorEv
nBe:__ZN11UnityEngine7Connect20BasePersistentValues10SaveValuesER9JSONWrite
Yhl:_Rect_get_max_m96665935_AdjustorThunk
bEk:__ZL87GUIStyle_t1799908754_CustomAttributesCacheGenerator_GUIStyle_set_fixedWidth_m2562018757P21CustomAttributesCache
sI:__Z93Register_UnityEngine_Animations_AnimatorControllerPlayable_INTERNAL_CALL_GetLayerNameInternalv
G6i:_Collection_1_RemoveAt_m560005219_gshared
oNd:__ZN5physx9PxTaskMgr12addReferenceEj
p5f:_X509CertificateEnumerator_System_Collections_IEnumerator_MoveNext_m3708362145
fZa:__Z12SetupLODFadeR9GfxDeviceR17ShaderPassContextf
Hob:__ZNK14PlayableOutput7GetTypeEv
wpj:__Z203RuntimeInvoker_Boolean_t3825574718_RuntimeObject_Int32U26_t455636984_Int32_t2071877448_Int32_t2071877448_RuntimeObject_SByte_t454417549_Int32_t2071877448_ContractionU26_t2019974048_ContextU26_t3131521781PFvvEPK10MethodInfoPvPS4_
Bnh:_X501_ToString_m3328169518
Q2a:__ZL24CollectForwardObjectsJobP27CollectForwardObjectsHeader
MQk:_Enumerator_System_Collections_IDictionaryEnumerator_get_Entry_m345330700_gshared
Rfk:__ZL53HMACSHA256_t2622794722_CustomAttributesCacheGeneratorP21CustomAttributesCache
E6a:__ZNK25CameraStackRenderingState24ResolveTempToEyeTexturesEv
H4a:__Z13IsNodeVisibleRK9SceneNodeRK4AABBRK22SceneCullingParameters
REg:_EventInfo__ctor_m1190141300
N5k:_InternalEnumerator_1_MoveNext_m3585886944_gshared
kwe:__Z57RectTransformUtility_CUSTOM_INTERNAL_CALL_PixelAdjustRectP12Il2CppObjectS0_R5RectTIfE
azk:__ZL133AnimationPlayableOutput_t260357453_CustomAttributesCacheGenerator_AnimationPlayableOutput_INTERNAL_CALL_InternalSetTarget_m2733556181P21CustomAttributesCache
Pdg:_DelayedFixupRecord_FixupImpl_m4249966635
dVl:_emscripten_glStencilMask__wrapper
Szh:__ZN15dense_hashtableI10KeyWrapperIPK19Il2CppGenericMethodES4_N6il2cpp8metadata23Il2CppGenericMethodHashEN14dense_hash_setIS4_S7_NS4_14EqualsComparerINS6_26Il2CppGenericMethodCompareEEENSt3__29allocatorIS4_EEE8IdentityESB_SE_EC2ERKSH_j
qBh:__ZN15dense_hashtableINSt3__24pairIK10KeyWrapperIN6il2cpp5utils13dynamic_arrayIPK10Il2CppTypeLj4EEEEPFvvEEESA_NS3_8metadata19Il2CppSignatureHashEN14dense_hash_mapISA_SD_SG_NSA_14EqualsComparerINSF_22Il2CppSignatureCompareEEENS0_9allocatorISE_EEE9SelectKeyESK_SM_EC2EjRKSG_RKSK_RKSO_
mEf:_BigInteger_ToString_m3837784224
cdf:_Decimal_decimalCompare_m26009298
XRa:__ZNK17ArchiveFileSystem8PositionERK13FileEntryData
gPc:__ZN16NovodexAllocator8allocateEjPKcS1_i
Gef:_DllNotFoundException__ctor_m267198482
o2a:__Z17PrepareShadowMapsRK11CullResultsRK11ActiveLightRK10MinMaxAABB
zJj:__Z75RuntimeInvoker_Boolean_t3825574718_CustomAttributeTypedArgument_t1498197914PFvvEPK10MethodInfoPvPS4_
wng:_NativeEventCalls_CreateEvent_internal_m1605829321
uTi:_List_1_GetIndex_m3409004147_gshared
UFk:__ZL73RuntimePlatform_t1869584967_CustomAttributesCacheGenerator_MetroPlayerX64P21CustomAttributesCache
Cqh:__ZL24UnresolvedVirtualCall_13P12Il2CppObjectaPK10MethodInfo
F9k:_InternalEnumerator_1_System_Collections_IEnumerator_get_Current_m3239681450_AdjustorThunk
KUb:__ZNSt3__26vectorIN9ShaderLab20SerializedSubProgram15VectorParameterENS_9allocatorIS3_EEEC2ERKS6_
N2a:__ZN9ShaderLab10GrabPassesD2Ev
N_j:_MonoBehaviour_set_useGUILayout_m2666356651
Uvb:__ZN14Texture2DArray13UploadTextureEv
ONe:_SecurityFrame_t1002202659_marshal_pinvoke
Sje:_tt_cmap14_done
Wsa:__ZN18AwakeFromLoadQueue25RegisterObjectInstanceIDsEv
K$d:__ZN5physx21PxProfileNameProviderD2Ev
VWe:_Buffer_BlockCopy_m1586717258
pfk:__ZL93X509Certificate_t283079845_CustomAttributesCacheGenerator_X509Certificate_GetName_m2354987368P21CustomAttributesCache
Dbd:__ZNK5physx2Gu10ConvexMesh14debugVisualizeERNS_2Cm12RenderOutputERKNS2_8Matrix34ERKNS_9PxBounds3Eyfj
px:__ZNK27AnimationLayerMixerPlayable11DerivesFromE17ScriptingClassPtr
bee:__ZN20TextRenderingPrivate19NativeTextGenerator15InsertCharacterEiPj
Eud:__ZN5physx2Sc5Scene22removeBroadPhaseRegionEj
J7k:_InternalEnumerator_1__ctor_m3589241961_AdjustorThunk
UR:__ZN13ProduceHelperI13AudioListenerLb0EE7ProduceE18MemLabelIdentifier18ObjectCreationMode
gOc:__ZN5physx2Cm12RenderBuffer5clearEv
cUh:__ZNSt3__26vectorIN6il2cpp2vm22EmbeddedResourceRecordENS_9allocatorIS3_EEE21__push_back_slow_pathIS3_EEvOT_
_hf:_CompareInfo_GetSortKey_m3691382873
qgd:__ZNK5physx2Sc9ClothCore21getStiffnessFrequencyEv
_bf:_DBNull_ToString_m3228904745
H1f:_WebHeaderCollection_AddWithoutValidate_m1479880592
yJe:_SHA1Managed_HashCore_m2658295635
VCd:__ZN5physx13PxsCCDContext14postCCDAdvanceEPNS_10PxBaseTaskE
Vx:__ZN17AnimationPlayableD0Ev
iQf:_RC4_get_IV_m506011366
Koh:_X509Crl__ctor_m2469408229
zNb:__Z18Transfer_BlittableI19StreamedBinaryWriteILb0EELb0EyEvRK29SerializationCommandArgumentsR31RuntimeSerializationCommandInfo
Dck:__ZL82SafeHandle_t2733794115_CustomAttributesCacheGenerator_SafeHandle_Close_m1146946803P21CustomAttributesCache
ZQk:_Enumerator_get_CurrentValue_m3562053380_AdjustorThunk
x6f:_X509SubjectKeyIdentifierExtension_CopyFrom_m136762226
tMg:_AnimationOffsetPlayable_INTERNAL_CALL_SetPositionInternal_m3711322547
MPi:_Enumerator_System_Collections_IEnumerator_Reset_m610822832_AdjustorThunk
jWh:__ZN6il2cpp6icalls8mscorlib6System2IO6MonoIO20GetFileSystemEntriesEP12Il2CppStringS6_iiPi
f4g:_ScrollRect_get_verticalScrollbarSpacing_m793718754
ajc:__Z41MonoBehaviour_Set_Custom_PropUseGUILayoutP12Il2CppObjecth
u0h:__ZN6il2cpp5utils13dynamic_arrayIPNS_2os6ThreadELj4EE9push_backEv
Xee:_UNITY_FT_Open_Face
EQl:_glGenRenderbuffers__wrapper
PUg:_Bounds_ToString_m1966597703
hFf:_BigInteger_op_Division_m1581119694
XSb:__ZN16ScriptingManagerD0Ev
J4j:__ZL81Decimal_t724701077_CustomAttributesCacheGenerator_Decimal_op_Implicit_m2135798419P21CustomAttributesCache
NJg:_UnityAnalyticsHandler_CustomEvent_m2884790978
afg:_CallbackHandler_Invoke_m1498072969
Vig:_DSACryptoServiceProvider__ctor_m701823690
jJd:__ZNK5physx10BPWorkTask7getNameEv
dMj:__Z74RuntimeInvoker_Void_t1841601450_Int32_t2071877448_ResourceInfo_t3933049236PFvvEPK10MethodInfoPvPS4_
fTj:_Mathf_Clamp_m2354025655
Byg:_CustomAttributeData_GetCustomAttributes_m2421330738
r5c:__ZN5physx2Sc8ShapeSim16onResetFilteringEv
vth:__ZL25UnresolvedVirtualCall_168P12Il2CppObject19Vector2_t2243707579S1_PK10MethodInfo
arg:_Type_get_IsEnum_m313908919
yfc:__Z44Register_UnityEngine_Component_get_transformv
g$i:_List_1_Reverse_m3395936565_gshared
T6i:_Collection_1_System_Collections_ICollection_CopyTo_m1335644572_gshared
IC:__ZN12_GLOBAL__N_120ProcessPlayableGraphERN8Animator11AnimatorJobER35AnimationPlayableEvaluationConstantR32AnimationPlayableEvaluationInputR33AnimationPlayableEvaluationOutputPFvS4_R17AnimationPlayableEPFvS4_S6_S8_EPFvS8_S4_S6_S8_fESE_MS9_FvPS3_PS5_PS7_E
bZi:_List_1_CheckMatch_m2830747427_gshared
UUc:__ZN5physx2Sc16ActorInteractionD2Ev
jPa:__ZN17ArchiveFileSystem12MountArchiveEPKcS1_
Ioj:__Z58RuntimeInvoker_RuntimeTypeHandle_t2330101084_RuntimeObjectPFvvEPK10MethodInfoPvPS4_
pef:_StackFrame_GetMethod_m72881026
Cuc:__Z18Transfer_BlittableI9JSONWriteLb1E8Vector4fEvRK29SerializationCommandArgumentsR31RuntimeSerializationCommandInfo
utl:_MoveLeftPlayerState_Enter_m335583956
oo:FUNCTION_TABLE_viififiii
Fse:__ZN2UI13CanvasManagerD0Ev
HRk:_Enumerator_System_Collections_IEnumerator_Reset_m70453843_gshared
Csb:__ZThn32_NK8Renderer14GetSubsetIndexEi
bsj:__Z58RuntimeInvoker_Byte_t3683104436_IntPtr_t_Int32_t2071877448PFvvEPK10MethodInfoPvPS4_
Z5c:__ZN5physx2Sc16ArticulationCore26setExternalDriveIterationsEj
uLi:_Dictionary_2_Do_CopyTo_TisKeyValuePair_2_t1174980068_TisRuntimeObject_m3279061992_gshared
cql:_Vector3_get_Item_m3616014016
cOk:__ZL59Slider_t297367283_CustomAttributesCacheGenerator_m_MinValueP21CustomAttributesCache
Y1b:__ZN13ProduceHelperI15ResourceManagerLb0EE7ProduceE18MemLabelIdentifier18ObjectCreationMode
xCa:__ZN9GfxDevice15ImmediateVertexEfff
x$b:__Z13RegisterClassI8MaterialEvv
Jgk:__ZL51Evidence_t1407710183_CustomAttributesCacheGeneratorP21CustomAttributesCache
hrb:__ZNK16LightmapSettings22GetTypeVirtualInternalEv
hkb:__ZN16GraphicsSettings13AwakeFromLoadE17AwakeFromLoadMode
ehf:_FieldAccessException__ctor_m3893881490
Uq:__ZN6Object13AwakeFromLoadE17AwakeFromLoadMode
eAa:__ZN13GfxDeviceGLES15SetStencilStateEPK18DeviceStencilStatei
Fzj:__Z107RuntimeInvoker_Void_t1841601450_Single_t2076509932_Single_t2076509932_Single_t2076509932_Single_t2076509932PFvvEPK10MethodInfoPvPS4_
cGl:_cycle
xnl:_TextGenerator_Populate_m4139823822
Imk:__ZL72PKCS12_t1362584795_CustomAttributesCacheGenerator_U3CU3Ef__switchU24map5P21CustomAttributesCache
oe:_emscripten_glUniform1iv
$xi:_Array_InternalArray__ICollection_Contains_TisDateTime_t693205669_m2893922191_gshared
tPe:_String_System_IConvertible_ToDouble_m3860911722
Fdb:__ZN16MemoryFileSystemD2Ev
Xdl:_InternalEnumerator_1_get_Current_m3732458101_AdjustorThunk
VYk:_Dictionary_2_System_Collections_Generic_ICollectionU3CSystem_Collections_Generic_KeyValuePairU3CTKeyU2CTValueU3EU3E_Contains_m842343255_gshared
COf:_ARC4Managed__ctor_m2922048522
mee:__Z17dynamic_pptr_castIP9Texture2D7TextureET_RK4PPtrIT0_E
Nfj:_ReadOnlyCollection_1_System_Collections_IList_set_Item_m1272038804_gshared
Z4k:_InternalEnumerator_1_System_Collections_IEnumerator_get_Current_m1931522460_AdjustorThunk
YLe:_SecurityPermission_IsEmpty_m1869313067
i5f:_X509CertificateCollection__ctor_m3709509050
cfc:__Z37Register_UnityEngine_Camera_get_depthv
uIf:_EncryptedPrivateKeyInfo_get_Salt_m2734354394
LUg:_Bounds_SetMinMax_m1523110422
Jhj:_ReadOnlyCollection_1_System_Collections_Generic_IListU3CTU3E_set_Item_m1918537449_gshared
iZh:__ZNK15dense_hashtableI10KeyWrapperIP18Il2CppGenericClassES3_N6il2cpp8metadata22Il2CppGenericClassHashEN14dense_hash_setIS3_S6_NS3_14EqualsComparerINS5_25Il2CppGenericClassCompareEEENSt3__29allocatorIS3_EEE8IdentityESA_SD_E10test_emptyERK30dense_hashtable_const_iteratorIS3_S3_S6_SF_SA_SD_E
U$h:__ZN6il2cpp2os5posix15PosixWaitObject4WaitEjb
qId:__ZNK5physx16PxsBroadPhaseMBP18getNumDeletedPairsEv
m5d:__ZN5physx7profile8ZoneImplINS_28PxProfileNameProviderForwardEE10startEventEty
uba:__ZN15dense_hashtableINSt3__24pairIKPKcPK4RTTIEES3_N11TypeManager23ConstCharPtrHashFunctorEN14dense_hash_mapIS3_S7_SA_NS9_19ConstCharPtrEqualToE13stl_allocatorIS8_L18MemLabelIdentifier6ELi16EEE9SelectKeyESC_SF_E12resize_deltaEjj
nDd:__ZN5physx10PxsCCDPair17sweepAdvanceToToiEfb
R_b:__ZN15ApplicationInfo16GetInstallerNameEv
bdb:__Z23ConvertIntegerToTypePtrItEbPvR14SafeBinaryRead
jD:__ZN7mecanim5human29HumanGetGoalOrientationOffsetENS0_4GoalE
oFb:__ZNK11MonoManager22GetTypeVirtualInternalEv
t4c:__ZN5physx6shdfnd8PoolBaseINS_2Cm5BlockIhLj384EEENS0_19ReflectionAllocatorIS4_EEE17releaseEmptySlabsEv
oTd:__ZN5physx16PxsIslandManager11freeBuffersEv
vqh:__ZL23UnresolvedVirtualCall_6P12Il2CppObjectiPK10MethodInfo
z$k:_DefaultComparer_GetHashCode_m3315096533_gshared
FHg:_MonoMethod_MakeGenericMethod_impl_m2063853616
cZc:__ZN5physx2Cm12DelegateTaskINS_2Sc17ParticleSystemSimEXadL_ZNS3_21prepareCollisionInputEPNS_10PxBaseTaskEEEE11runInternalEv
PNe:__Z46il2cpp_codegen_get_marshal_directive_exceptionPKc
WXb:__ZN9ShaderLab20SerializedSubProgram14AddMatrixParamEPKcii15ShaderParamTypei
Le:_glGetActiveUniformBlockName
tw:__ZN7mecanim13CopyValueMaskILb0EEEvPKNS_14ValueArrayMaskEPS1_
Api:_FontData_set_verticalOverflow_m4211463083
HG:__ZN26AnimatorControllerPlayable23ValidateParameterStringE17GetSetValueResultRKN4core12basic_stringIcNS1_20StringStorageDefaultIcEEEE
bWi:__ZN23InterfaceActionInvoker2IP34AnimatorClipInfoU5BU5D_t2969332312iE6InvokeEjP11Il2CppClassP12Il2CppObjectS1_i
$2j:_RangeInt__ctor_m2462675305_AdjustorThunk
jnf:_Guid_AppendByte_m2890893073
nDg:_MethodBuilder_Invoke_m1874904900
fYe:_Char_System_IConvertible_ToType_m3106771703_AdjustorThunk
A8f:_Interval_Intersects_m3480157390_AdjustorThunk
_hc:__Z39Quaternion_CUSTOM_INTERNAL_CALL_InverseRK11QuaternionfRS_
Hah:_GCHandle_Alloc_m1063472408
FM:__ZN4FMOD7Channel20set3DConeOrientationEP11FMOD_VECTOR
cKk:__ZL86StandaloneInputModule_t70867863_CustomAttributesCacheGenerator_m_InputActionsPerSecondP21CustomAttributesCache
fo:FUNCTION_TABLE_iiifii
AQk:_Comparer_1__ctor_m4052560291_gshared
$Ak:__ZL54SkeletonBone_t345082847_CustomAttributesCacheGeneratorP21CustomAttributesCache
big:_CryptoConfig_CreateFromName_m391442950
y$h:__ZN6il2cpp2vm12GenericClass11SetupEventsEP11Il2CppClass
_pe:_tt_delta_interpolate
Lje:_tt_cmap12_get_info
f3e:_SortedList__ctor_m3698381356
pQg:_AnimatorControllerPlayable_PlayInFixedTimeInternal_m3876843019
bXh:__ZN6il2cpp2vm15ReboxIReferenceEP14Il2CppIUnknownP11Il2CppClass
wwf:_StreamWriter_LowLevelWrite_m4205372900
$uh:__ZN6il2cpp6icalls8mscorlib6System7Decimal14decimalCompareEP19il2cpp_decimal_reprS5_
D5h:__ZThn4_N6il2cpp2vm13CachedCCWBaseINS0_13ManagedObjectEE7ReleaseEv
B$c:__ZN5physx26PxcFsComputeJointLoadsSimdERKNS_9PxcFsDataEPKNS_12PxcFsInertiaEPNS_6shdfnd3aos6Mat33VEPKfjjNS_21PxcFsScratchAllocatorE
PFg:_Module__ctor_m3853650010
L0e:_CollectionBase_System_Collections_IList_get_Item_m2370387510
hpd:__ZN5physx6shdfnd8SyncImpl7getSizeEv
Eek:__ZL59RemotingException_t109604560_CustomAttributesCacheGeneratorP21CustomAttributesCache
koa:__ZNSt3__26__treeINS_12__value_typeIN9ShaderLab16FastPropertyNameE10ColorRGBAfEENS_19__map_value_compareIS3_S5_NS_4lessIS3_EELb1EEENS_9allocatorIS5_EEE12__find_equalIS3_EERPNS_16__tree_node_baseIPvEENS_21__tree_const_iteratorIS5_PNS_11__tree_nodeIS5_SF_EEiEESI_RKT_
WRl:_glCopyTexImage2D__wrapper
Hkl:_ResourceRequest__ctor_m3340010930
hwi:_LayoutElement__ctor_m789941073
EIk:__ZL77ExecuteEvents_t1693084770_CustomAttributesCacheGenerator_U3CU3Ef__mgU24cache9P21CustomAttributesCache
sVg:_Camera_FireOnPreCull_m1679634170
Ubk:__ZL68TargetInvocationException_t4098620458_CustomAttributesCacheGeneratorP21CustomAttributesCache
Olk:__ZL56RankException_t1539875949_CustomAttributesCacheGeneratorP21CustomAttributesCache
RLc:__ZN5physx11PxHitBufferINS_12PxRaycastHitEED0Ev
Yjf:_NumberFormatter_CountTrailingZeros_m2398864634
uoa:__Z18ClearByDrawingQuad13GfxClearFlagsRK10ColorRGBAffjR17ShaderPassContext
sdh:_DynamicPropertyCollection_FindProperty_m1233265924
tqa:__ZN6prcoreL17RemapGenericFloatI14TexFormatRHalf15TexFormatRFloatEEvPKNS_9InnerInfoE
VYa:__Z16ShouldUseShadowsb
R9:__ZN15DirectorManager21RebuildStageCallbacksEv
QZf:_TlsStream_SetLength_m1460039587
ura:__ZN19RuntimeSceneManager9LoadSceneERKN4core12basic_stringIcNS0_20StringStorageDefaultIcEEEES6_S6_RK9UnityGUIDiNS_11LoadingModeE
Uqh:__ZL24UnresolvedVirtualCall_31P12Il2CppObjectiS0_S0_PK10MethodInfo
lIa:__ZN7ApiGLES10DrawArraysE16GfxPrimitiveTypejjj
U_g:_Event_PopEvent_m1952528237
oBc:__ZN5physx3Cct13BoxController15getPxControllerEv
sK:__ZN10SampleClip13LoadBaseSoundEv
zHc:__ZN5physx2Gu22gjkRelativePenetrationINS0_17ShrunkConvexHullVES2_EEjRKT_RKT0_RKNS_6shdfnd3aos15PsMatTransformVERKNSA_6FloatVERNSA_5Vec3VESI_SI_RSE_PhSK_Rh
psj:__Z49RuntimeInvoker_TimeSpan_t3430258949_RuntimeObjectPFvvEPK10MethodInfoPvPS4_
B_h:__ZN15dense_hashtableINSt3__24pairIK10KeyWrapperIP12Il2CppObjectEN6il2cpp2gc9CachedCCWEEES5_NS7_5utils11PointerHashIS3_EEN14dense_hash_mapIS5_S9_SD_NS5_14EqualsComparerINS0_8equal_toIS4_EEEENS0_9allocatorISA_EEE9SelectKeyESI_SK_E15insert_noresizeERKSA_
aaj:_Collection_1_Contains_m643401393_gshared
mUd:__ZN5physx2Sc19ParticlePacketShapeC2ERNS0_17ParticleSystemSimEjPNS_16PxvParticleShapeE
toa:__ZN22DeviceMVPMatricesStateC2ER9GfxDevice
Aih:_Regex_IsMatch_m1286520424
h9c:__ZN5physx9NpPhysics18createTriangleMeshERNS_13PxInputStreamE
wo:FUNCTION_TABLE_iiiiifiiiif
lPe:_String__ctor_m372528291
Mn:FUNCTION_TABLE_iifii
gH:__Z64AnimationOffsetPlayable_CUSTOM_INTERNAL_CALL_SetRotationInternalR9HPlayableRK11Quaternionf
kub:__ZNSt3__26vectorI13dynamic_arrayI8Vector2fLj4EENS_9allocatorIS3_EEE6assignINS_11__wrap_iterIPS3_EEEENS_9enable_ifIXaasr21__is_forward_iteratorIT_EE5valuesr16is_constructibleIS3_NS_15iterator_traitsISC_E9referenceEEE5valueEvE4typeESC_SC_
$pk:__ZL117Component_t3819376471_CustomAttributesCacheGenerator_Component_GetComponentInChildren_m2678514693____includeInactive0P21CustomAttributesCache
hQd:__ZN5physx2Cm12DelegateTaskINS_2Sc5SceneEXadL_ZNS3_14updateDynamicsEPNS_10PxBaseTaskEEEED0Ev
Jth:__ZL25UnresolvedVirtualCall_182P12Il2CppObject19Vector2_t2243707579S1_PK10MethodInfo
kNg:_AnimatorControllerPlayable_GetFloat_m1229536053_AdjustorThunk
Fsa:__ZNSt3__26__treeIiNS_4lessIiEE13stl_allocatorIiL18MemLabelIdentifier1ELi16EEE7destroyEPNS_11__tree_nodeIiPvEE
Qc:invoke_viiifi
qJk:__ZL104PointerEventData_t1599784723_CustomAttributesCacheGenerator_PointerEventData_get_pointerDrag_m2740415629P21CustomAttributesCache
Iwk:__ZL79Physics_t634932869_CustomAttributesCacheGenerator_Physics_RaycastAll_m233036521P21CustomAttributesCache
vzf:_LongComparer_Compare_m3981323622
IBk:__ZL82Canvas_t209405766_CustomAttributesCacheGenerator_Canvas_set_scaleFactor_m298557412P21CustomAttributesCache
RFh:__ZNSt3__214__split_bufferIP11Il2CppClassRNS_9allocatorIS2_EEEC2EjjS5_
AYd:__ZN5physx6shdfnd5ArrayIPNS_7PxActorENS0_19ReflectionAllocatorIS3_EEE8recreateEj
TPk:__ZL109LayoutUtility_t4076838048_CustomAttributesCacheGenerator_LayoutUtility_U3CGetFlexibleHeightU3Em__7_m947156537P21CustomAttributesCache
KHf:__ZN23InterfaceActionInvoker2IP8String_tP12Il2CppObjectE6InvokeEjP11Il2CppClassS3_S1_S3_
U6g:_Slider_FindSelectableOnUp_m15474611
Oxa:__ZNK11AssetBundle14GetPreloadDataEiR13dynamic_arrayIiLj4EE
CJf:_EncryptedData_get_EncryptedContent_m2732115576
Vf:_JS_Sound_SetPosition
Yhh:_Assertion_set_FalseExpression_m1781616372
t6f:_X509SubjectKeyIdentifierExtension_FromHexChars_m2515150420
tha:__ZN19RenderBufferManager13GetTempBufferEii17DepthBufferFormat19RenderTextureFormatj22RenderTextureReadWrite14VRTextureUsagei23RenderTextureMemoryless
GCh:__ZL13GetSharedInstPK17Il2CppGenericInst
$6j:__ZL51IReflect_t3412036974_CustomAttributesCacheGeneratorP21CustomAttributesCache
Wii:_StandaloneInputModule_SendSubmitEventToSelectedObject_m3421155293
zQj:_RenderPipelineManager_CleanupRenderPipeline_m2242901458
Cbh:_AppDomainLevelActivator__ctor_m230071814
Kyh:__ZNK15dense_hashtableINSt3__24pairIK10KeyWrapperIPKcEP11Il2CppClassEES5_N6il2cpp5utils11StringUtils12StringHasherIS4_EEN14dense_hash_mapIS5_S8_SE_NS5_14EqualsComparerINSB_13VmStringUtils21CaseSensitiveComparerEEENS0_9allocatorIS9_EEE9SelectKeyESJ_SL_E3endEv
pYg:_Component_GetComponentsInChildren_m908027537
dze:__ZN22BaseUnityConnectClient17SaveSessionValuesEv
ffh:_CallContextRemotingData_Clone_m2226242476
y2:__Z63ThreadAndSerializationSafeCheckSetMonoBehaviourBeingTransferredP13MonoBehaviour
Fcd:__ZNK5physx7NpCloth14getNbParticlesEv
dRc:__ZN5physx2Sc10NPhaseCore24releaseShapeInstancePairEPNS0_19ShapeInstancePairLLEjj
a9j:__ZL78CultureInfo_t3500843524_CustomAttributesCacheGenerator_U3CU3Ef__switchU24map19P21CustomAttributesCache
T2a:__Z24SetupActiveLightsContextR21ActiveLightingContextRK12ActiveLightsRK11CullResultsP14ShadowMapCacheRK10MinMaxAABB
LZk:_Dictionary_2_System_Collections_Generic_ICollectionU3CSystem_Collections_Generic_KeyValuePairU3CTKeyU2CTValueU3EU3E_Contains_m3400497673_gshared
Skc:__Z38Sprite_CUSTOM_INTERNAL_get_textureRectP12Il2CppObjectP5RectTIfE
Wbf:_DBNull_System_IConvertible_ToUInt32_m2681284284
APh:__ZNK15dense_hashtableINSt3__24pairIK10KeyWrapperIPK22Il2CppGenericParameterEPK24MonoGenericParameterInfoEES6_N6il2cpp5utils11PointerHashIS4_EEN14dense_hash_mapIS6_SA_SF_NS6_14EqualsComparerINS0_8equal_toIS5_EEEENS0_9allocatorISB_EEE9SelectKeyESK_SM_E3endEv
k7b:__ZN9TextAsset7SetTextERKN4core12basic_stringIcNS0_20StringStorageDefaultIcEEEE
Bjb:__ZN6Camera8TransferI24GenerateTypeTreeTransferEEvRT_
z2k:_EqualityComparer_1__cctor_m416314417_gshared
Sa:invoke_iiiiiiif
La:invoke_iiiiiiii
NGd:__ZN5physx21SapPostUpdateWorkTaskD0Ev
Xxk:__ZL99CapsuleCollider_t720607407_CustomAttributesCacheGenerator_CapsuleCollider_set_direction_m3094899039P21CustomAttributesCache
QZj:_Mesh_GetUVChannel_m364477864
M4f:_X509ChainElementCollection_Contains_m3599995067
o6a:__ZN8Renderer17PendingAddToSceneEv
a5c:__ZN5physx7NpActor18releaseConstraintsERNS_12PxRigidActorE
mOc:__ZN5physx6shdfnd5ArrayINS_11PxDebugLineENS0_19ReflectionAllocatorIS2_EEE8recreateEj
GOg:_AnimatorControllerPlayable_GetLayerName_m1429074517_AdjustorThunk
iUl:b124
iVl:b127
hVl:b126
kVl:b129
ekc:__Z52Register_UnityEngine_RectTransform_INTERNAL_get_rectv
ald:__ZNK5physx22NpParticleBaseTemplateINS_16PxParticleSystemENS_16NpParticleSystemEE20getMaxMotionDistanceEv
s1:__Z21PostprocessStacktracePKcRN4core12basic_stringIcNS1_20StringStorageDefaultIcEEEE
uYf:_SslClientStream_OnLocalPrivateKeySelection_m3649986106
Mck:__ZL70TypeLibImportClassAttribute_t2390314680_CustomAttributesCacheGeneratorP21CustomAttributesCache
_Ab:__ZN18StreamedBinaryReadILb0EE21TransferSTLStyleArrayI13dynamic_arrayI16SplashScreenLogoLj4EEEEvRT_17TransferMetaFlags
Umd:__ZNK5physx14NpRigidDynamic25getContactReportThresholdEv
MOe:_Single_CompareTo_m2081476257
vzi:_Array_InternalArray__ICollection_Remove_TisX509ChainStatus_t4278378721_m4127982424_gshared
mfc:__Z47Register_UnityEngine_Camera_get_allCamerasCountv
lhd:__ZN5physx22NpParticleBaseTemplateINS_15PxParticleFluidENS_15NpParticleFluidEE16releaseParticlesEv
Sy:__ZThn148_NK26AnimatorControllerPlayable24HasStateMachineBehaviourEv
gze:__ZN22BaseUnityConnectClient20StartEventDispatcherEv
V8b:__ZNSt3__26vectorIj13stl_allocatorIjL18MemLabelIdentifier1ELi16EEE6assignIPKtEENS_9enable_ifIXaasr21__is_forward_iteratorIT_EE5valuesr16is_constructibleIjNS_15iterator_traitsIS9_E9referenceEEE5valueEvE4typeES9_S9_
_B:__ZN7mecanim9animation16EvaluateAvatarIKEPKNS0_14AvatarConstantEPKNS0_11AvatarInputEPNS0_12AvatarOutputEPNS0_12AvatarMemoryEPNS0_15AvatarWorkspaceEb
OIa:__ZL25ProgramUniformMatrix4x3fvPK7ApiGLESjiihPKv
ucb:__Z29StdTemplateConversionFunctionIsiEbPvR14SafeBinaryRead
QPd:__Z22updateIslandsToProcessRKN5physx2Cm10BitMapBaseINS_6shdfnd9AllocatorEEEPKjRKNS_11NodeManagerERS4_
F1k:_EqualityComparer_1_System_Collections_IEqualityComparer_Equals_m3376587337_gshared
n1j:_PlayableGraph_INTERNAL_CALL_CreateScriptOutputInternal_m348659249
BUa:__ZN12InputManager13InputEndFrameEv
M2e:_SyncHashtable__ctor_m2029869827
cFh:__ZNSt3__26__treeIP11Il2CppClassNS_4lessIS2_EENS_9allocatorIS2_EEE25__emplace_unique_key_argsIS2_JRKS2_EEENS_4pairINS_15__tree_iteratorIS2_PNS_11__tree_nodeIS2_PvEEiEEbEERKT_DpOT0_
MSh:__ZN6il2cpp2vm6Thread5SetupEP12Il2CppThread
q0d:__ZN8Collider30GetRelativePositionAndRotationERK9TransformR10Matrix4x4f
tDd:__ZN5physx35PxcSweepEstimateAnyShapeHeightfieldERKNS_11PxsCCDShapeES2_PKNS_12PxsRigidBodyES5_RKNS_11PxTransformES8_f
Yij:_ReadOnlyCollection_1_System_Collections_IList_Remove_m2200089035_gshared
HOc:__ZN5physx3Cct13BoxControllerC2ERKNS_16PxControllerDescERNS_9PxPhysicsEPNS_7PxSceneE
r5i:_Collection_1_CheckWritable_m2756357359_gshared
hHl:___munmap
Dti:_InputField_get_characterLimit_m2386380888
PKk:__ZL68ColorBlock_t2652774230_CustomAttributesCacheGenerator_m_PressedColorP21CustomAttributesCache
L7e:_Convert_ToInt64_m1722087499
Mg:_localtime_r
hWa:__ZN22RenderingCommandBuffer13GetAndCheckRTE24BuiltinRenderTextureTypeRKN9ShaderLab16FastPropertyNameEPKcPP13RenderTexture
Nik:__ZL81AppDomain_t2719102437_CustomAttributesCacheGenerator_assembly_resolve_in_progressP21CustomAttributesCache
w1j:_PlayableHandle_GetInputCount_m3249715311
jQ:__ZN4FMOD5Sound11getDefaultsEPfS1_S1_Pi
yck:__ZL65InterfaceTypeAttribute_t4113096249_CustomAttributesCacheGeneratorP21CustomAttributesCache
fvi:_InputField_MoveLeft_m688575903
Og:_strftime
Dha:__ZN7Texture33SetStoredColorSpaceNoDirtyNoApplyE17TextureColorSpace
N5:__ZN12FileAccessorD2Ev
pna:__ZN10ColorRGBAf8TransferI18StreamedBinaryReadILb0EEEEvRT_
xwb:__ZN14VertexDataInfoC2Ev
$gf:_Exception_GetObjectData_m2653827630
Xsk:__ZL75Mesh_t1356156583_CustomAttributesCacheGenerator_Mesh_HasChannel_m3616583481P21CustomAttributesCache
jql:_Vector3_Equals_m2692262876_AdjustorThunk
o8k:_InternalEnumerator_1_get_Current_m2415979394_gshared
wPb:__ZL17Transfer_GUIStyleI18StreamedBinaryReadILb1EELb1EEvRK29SerializationCommandArgumentsR31RuntimeSerializationCommandInfo
U3g:_ScrollRect_SetDirtyCaching_m1491302821
A1j:_PlayableHandle_SetInputCount_m2001045454
xFh:__ZN6il2cpp6icalls8mscorlib6SystemL9IsPrivateEPK12PropertyInfo
zDd:__ZNK5physx18PxcConvexTriangles16getPolygonNormalEj
mvj:__Z72RuntimeInvoker_DateTime_t693205669_DateTime_t693205669_Int32_t2071877448PFvvEPK10MethodInfoPvPS4_
Dyg:_CustomAttributeData_GetCustomAttributes_m3258419955
w0:__ZN9shadertag10InitializeEv
hZa:__ZN13BatchRenderer20RenderSingleWithPassER17ShaderPassContextPK18SharedMaterialDataP6ShaderPN9ShaderLab4PassEiPKNS7_10GrabPassesEjib15BatchBreakCause
D6d:__ZN5physx24NpPtrTableStorageManager8canReuseEjj
ySe:_EncoderFallback__ctor_m1639180960
jfl:_InternalEnumerator_1_MoveNext_m1441038493_gshared
Ktb:__ZN15QualitySettings14QualitySetting8TransferI24GenerateTypeTreeTransferEEvRT_
lbi:__ZN6il2cpp5utils6Memory11AlignedFreeEPv
VRe:_DecoderReplacementFallback__ctor_m2344783488
Gwg:_OutOfMemoryException__ctor_m239206850
Krd:__ZN5physx2Sc27ConstraintProjectionManager33processConstraintForGroupBuildingEPNS0_13ConstraintSimERNS0_20ScratchAllocatorListIS3_Lj64EEE
vFf:_SequentialSearchPrimeGeneratorBase_GenerateNewPrime_m545729286
cre:__Z28Font_Get_Custom_PropMaterialP12Il2CppObject
n9h:__ZN6il2cpp6icalls8mscorlib6System9Threading16NativeEventCalls19ResetEvent_internalE12Il2CppIntPtr
Xwj:__Z88RuntimeInvoker_RuntimeObject_RuntimeObject_RuntimeObject_RuntimeObject_Int32_t2071877448PFvvEPK10MethodInfoPvPS4_
EAc:__ZL34CleanupModule_PerformanceReportingv
BQi:_Enumerator_VerifyState_m2948867230_gshared
q7i:_Collection_1_Remove_m4136193368_gshared
AXd:__ZN5physx20InternalTriangleMesh17allocateTrianglesEjb
Kfi:_EventTrigger_OnPointerUp_m2791622548
TMj:__Z60RuntimeInvoker_DictionaryEntry_t3048875398_Int32_t2071877448PFvvEPK10MethodInfoPvPS4_
xhj:_ReadOnlyCollection_1_CopyTo_m1652036789_gshared
f8b:__ZN22BlockMemoryCacheWriter14LockCacheBlockEjPPhS1_
G0h:__ZN6il2cpp2os6Thread10RunWrapperEPv
Voc:__ZNSt3__218__insertion_sort_3IRPFbPKN5IMGUI9GUIWindowES4_EPPS2_EEvT0_SA_T_
SBl:_GenericEqualityComparer_1_Equals_m1109000020_gshared
_jd:__ZN5physx22NpParticleBaseTemplateINS_15PxParticleFluidENS_15NpParticleFluidEED2Ev
jDk:__ZL61GUISkin_t1436893342_CustomAttributesCacheGenerator_m_textAreaP21CustomAttributesCache
Ppd:__ZN5physx2Cm29ConstraintImmediateVisualizer19visualizeDoubleConeERKNS_11PxTransformEfb
Zxc:__Z22TransferField_NonArrayI8JSONRead27Converter_SimpleNativeClassI8GUIStyleEEvRK23StaticTransferFieldInfoR31RuntimeSerializationCommandInfoRT0_
$Bc:__ZN5physx6shdfnd5ArrayINS_13PxExtendedBoxENS0_19ReflectionAllocatorIS2_EEE8recreateEj
bJd:__ZN5physx20ProcessBPResultsTask11runInternalEv
nVc:__ZN5physx6shdfnd5ArrayIPvNS0_19ReflectionAllocatorINS_2Cm5BlockIS2_Lj16EEEEEE4copyINS0_15InlineAllocatorILj256ES7_EEEEvRKNS1_IS2_T_EE
sh:_llvm_eh_typeid_for
X5b:__Z13RegisterClassI10GameObjectEvv
ZAh:__ZNK15dense_hashtableINSt3__24pairIK10KeyWrapperIN6il2cpp5utils13dynamic_arrayIPK10Il2CppTypeLj4EEEEPFvvEEESA_NS3_8metadata19Il2CppSignatureHashEN14dense_hash_mapISA_SD_SG_NSA_14EqualsComparerINSF_22Il2CppSignatureCompareEEENS0_9allocatorISE_EEE9SelectKeyESK_SM_E5beginEv
D8j:__ZL53HashValues_t2390200547_CustomAttributesCacheGeneratorP21CustomAttributesCache
w3f:_X509BasicConstraintsExtension_get_PathLengthConstraint_m3004531343
lOg:_AnimatorControllerPlayable_INTERNAL_CALL_ResetTriggerString_m2112584758
Mz:__ZNK23AnimationPlayableOutput7GetTypeEv
lak:__ZL125GenericTypeParameterBuilder_t1370236603_CustomAttributesCacheGenerator_GenericTypeParameterBuilder_GetConstructors_m103067670P21CustomAttributesCache
qsd:__ZN5physx7NpScene19getActiveTransformsERjh
Vhl:_Rect_get_max_m96665935
eRc:__ZN5physx2Sc10NPhaseCore39pool_deleteParticleElementRbElementPairEPNS0_35ParticleElementRbElementInteractionEjj
Eyf:_MissingMemberException__ctor_m4277447068
nCd:__ZN5physx6shdfnd8internal8HashBaseIjjNS0_4HashIjEENS1_11HashSetBaseIjS4_NS0_9AllocatorELb0EE6GetKeyES6_Lb0EE6createERKjRb
WIg:_StrongNameKeyPair_System_Runtime_Serialization_ISerializable_GetObjectData_m1693082120
t$f:_NameValueCollection__ctor_m1767369537
rRb:__Z18Transfer_BlittableI18StreamedBinaryReadILb0EELb1E8Vector4fEvRK29SerializationCommandArgumentsR31RuntimeSerializationCommandInfo
_Al:_EqualityComparer_1__ctor_m3155445483_gshared
t1h:__ZN6il2cpp2vm6Method8GetParamEPK10MethodInfoj
eqf:_Int64_CompareTo_m1953686218
nBl:_GenericComparer_1__ctor_m221205314_gshared
RLi:_BaseInvokableCall_ThrowOnInvalidArg_TisSingle_t2076509932_m3470174535_gshared
$Gj:__Z31RuntimeInvoker_Axis_t2427050347PFvvEPK10MethodInfoPvPS4_
eWh:__ZN6il2cpp6icalls8mscorlib6System2IO6MonoIO4ReadE12Il2CppIntPtrP11Il2CppArrayiiPi
FUl:_glBindVertexArray__wrapper
Y_d:__ZN5physx6shdfnd5ArrayINS_11RTreeNodeNQENS0_19ReflectionAllocatorIS2_EEE19resizeUninitializedEj
$Rc:__ZNK5physx2Sc16InteractionScene18getLLIslandManagerEv
soi:_DropdownItem_set_text_m2999345399
Rig:_DSA_Create_m3450041777
mma:__ZN8Material8TransferI14SafeBinaryReadEEvRT_
YCd:__ZN5physx17PxcNpMemBlockPool34acquireExceptionalConstraintMemoryEj
xpb:__ZN12CubemapArray17UploadToGfxDeviceEv
u4g:_ScrollRect_AdjustBounds_m1033723448
Gqa:__ZN6prcoreL17RemapGenericFloatI15TexFormatRGHalf17TexFormatRGBAHalfEEvPKNS_9InnerInfoE
LQi:_Enumerator_System_Collections_IEnumerator_Reset_m2200349770_gshared
Yaj:_Collection_1_get_Item_m3791221403_gshared
$fk:__ZL54PaddingMode_t3032142640_CustomAttributesCacheGeneratorP21CustomAttributesCache
wSh:__ZN24dense_hashtable_iteratorINSt3__24pairIK10KeyWrapperIP11Il2CppClassES4_EES5_N6il2cpp8metadata16SZArrayClassHashEN14dense_hash_mapIS5_S4_SA_NS5_14EqualsComparerINS9_19SZArrayClassCompareEEENS0_9allocatorIS7_EEE9SelectKeyESE_SG_E30advance_past_empty_and_deletedEv
Bwg:_OrdinalComparer__ctor_m2952942058
iEd:__ZN5physxL23PxcSweepConvexTrianglesERKNS_11PxsCCDShapeES2_RKNS_11PxTransformES5_S5_S5_fRNS_6PxVec3ES7_RNS_10PxcNpCacheERNS_18PxcNpThreadContextERKNS_2Cm23FastVertex2ShapeScalingERNS_2Gu9TriangleVEf
Jad:__ZNK5physx7NpShape16getPlaneGeometryERNS_15PxPlaneGeometryE
i4f:_X509Chain_CheckRevocationOnChain_m2441901351
w5h:__ZN6il2cpp2vm13ManagedObject14QueryInterfaceERK10Il2CppGuidPPv
g$d:__ZN5physx27InternalTriangleMeshBuilder14fillRemapTableEv
OK:__ZN11AudioSource4StopEb
AZc:__ZN5physx6shdfnd8PoolBaseINS_13NpRigidStaticENS0_19ReflectionAllocatorIS2_EEE17releaseEmptySlabsEv
qIb:__ZN14SafeBinaryRead21TransferSTLStyleArrayI13dynamic_arrayI10Matrix4x4fLj4EEEEvRT_17TransferMetaFlags
bbj:_Collection_1_CheckWritable_m732350052_gshared
gXe:_Byte_System_IConvertible_ToDecimal_m1036493607
Dik:__ZL47Timer_t791717973_CustomAttributesCacheGeneratorP21CustomAttributesCache
xga:__Z25GetSplashScreenBackgroundRK5RectTIfE
tba:__ZN14dense_hash_mapIPKcPK4RTTIN11TypeManager23ConstCharPtrHashFunctorENS5_19ConstCharPtrEqualToE13stl_allocatorINSt3__24pairIKS1_S4_EEL18MemLabelIdentifier6ELi16EEEixERSB_
WLk:__ZL65Image_t2042527209_CustomAttributesCacheGenerator_m_PreserveAspectP21CustomAttributesCache
lCe:__ZN13RuntimeStaticI19UnityConnectServiceLb0EE16StaticInitializeEPv
Jfl:_DefaultComparer_Compare_m1247109616_gshared
jJg:_ResourceManager__ctor_m498829021
VMa:__ZN18GlslGpuProgramGLESD2Ev
vab:__ZN13RenderTexture14SetVolumeDepthEi
x5d:__ZThn116_NK5physx7profile8ZoneImplINS_28PxProfileNameProviderForwardEE10hasClientsEv
rMd:__ZN5physx2Gu20pcmContactCapsuleBoxERKNS0_13GeometryUnionES3_RKNS_11PxTransformES6_RKfRNS0_5CacheERNS0_13ContactBufferE
dKj:__Z88RuntimeInvoker_Int32_t2071877448_UIVertex_t1204258818_UIVertex_t1204258818_RuntimeObjectPFvvEPK10MethodInfoPvPS4_
bfg:_SerializationCallbacks__ctor_m722356782
Dyc:__ZN10Matrix4x4f8TransferI8JSONReadEEvRT_
zck:__ZL49Marshal_t785896760_CustomAttributesCacheGeneratorP21CustomAttributesCache
m2:__ZN17PersistentManager18ReadObjectThreadedEi
iEa:__ZN25TransformFeedbackSkinning31CleanupTransformFeedbackShadersEv
R5h:__ZN6il2cpp6icalls8mscorlib6System7Runtime16CompilerServices14RuntimeHelpers15InitializeArrayEP11Il2CppArray12Il2CppIntPtr
kYa:__Z22scripting_object_unbox18ScriptingObjectPtr
dee:__ZNK20TextRenderingPrivate8FontImpl19GetCharacterAdvanceEjijfPj
FSg:_AudioClipPlayable_Equals_m2497502457
Ugj:_ReadOnlyCollection_1_Contains_m3936562733_gshared
K$f:_DefaultUriParser__ctor_m4218024811
dAg:_DerivedType_GetField_m3960169619
xcf:_Decimal_System_IConvertible_ToInt16_m3159038792_AdjustorThunk
qlj:__Z59RuntimeInvoker_Int64_t909078037_RuntimeObject_RuntimeObjectPFvvEPK10MethodInfoPvPS4_
GNj:__Z41RuntimeInvoker_KeyValuePair_2_t3716250094PFvvEPK10MethodInfoPvPS4_
Pub:__ZN10VertexData8TransferI18StreamedBinaryReadILb0EEEEvRT_
oZc:__ZN5physx2Sc5Scene9addStaticERNS0_10StaticCoreEPKPvjj
wFj:__Z73RuntimeInvoker_Single_t2076509932_Vector4_t2243707581_Vector4_t2243707581PFvvEPK10MethodInfoPvPS4_
fKf:_PKCS12_GetExistingParameters_m2413397265
NDl:_Nullable_1_get_Value_m1743067844_gshared
p9i:_Collection_1_ClearItems_m4268731177_gshared
Hab:__ZN14PreloadManager16UpdatePreloadingEv
Nib:__ZN12BaseRendererD2Ev
Hmb:__ZN14SafeBinaryRead21TransferSTLStyleArrayI19StaticArrayTransferIiLi4EEEEvRT_17TransferMetaFlags
ymh:_X509CertificateCollection__ctor_m858704242
LRi:_Enumerator__ctor_m425576865_AdjustorThunk
Yyd:__ZN5physx2Sc5Scene9addShapesEPKPvjjRNS0_8RigidSimEPNS_12PxsRigidBodyERPNS0_8ShapeSimEPNS_9PxBounds3E
TXh:__ZNK15dense_hashtableINSt3__24pairIK10KeyWrapperINS1_IPKcS4_EEEiEES6_24NamespaceAndNamePairHashN14dense_hash_mapIS6_iS9_NS6_14EqualsComparerI26NamespaceAndNamePairEqualsEENS0_9allocatorIS8_EEE9SelectKeyESD_SF_E10test_emptyEj
Vij:_ReadOnlyCollection_1_System_Collections_IList_Contains_m1545447998_gshared
T2h:__ZN14dense_hash_mapI10KeyWrapperIPK19Il2CppGenericMethodEP10MethodInfoN6il2cpp8metadata23Il2CppGenericMethodHashENS4_14EqualsComparerINS8_26Il2CppGenericMethodCompareEEENSt3__29allocatorINSD_4pairIKS4_S6_EEEEEC2EjRKS9_RKSC_
sPk:__ZL79LayoutRebuilder_t2155218138_CustomAttributesCacheGenerator_U3CU3Ef__mgU24cache0P21CustomAttributesCache
hLd:__ZN5physx23PxcPCMContactConvexMeshERKNS_2Gu13GeometryUnionES3_RKNS_11PxTransformES6_RKfRNS_10PxcNpCacheERNS0_13ContactBufferE
Mfb:__ZNK21UnityDefaultAllocatorI17LowLevelAllocatorE8ContainsEPKv
ODh:__ZNSt3__213__vector_baseI6pollfdNS_9allocatorIS1_EEED2Ev
QTf:_ClientSessionInfo_get_Id_m3046630969
Akk:__ZL78Convert_t2607082565_CustomAttributesCacheGenerator_Convert_ToUInt32_m759656532P21CustomAttributesCache
Bi:_emscripten_get_main_loop_timing
Asf:_DirectoryInfo__ctor_m3750996792
nki:_BaseMeshEffect_ModifyMesh_m2134816219
gJi:_Array_qsort_TisVector2_t2243707579_m3527759534_gshared
Jtb:__ZN24GenerateTypeTreeTransfer21TransferSTLStyleArrayINSt3__26vectorIN15QualitySettings14QualitySettingENS1_9allocatorIS4_EEEEEEvRT_17TransferMetaFlags
Gkl:_ResourceRequest_t2560315377_marshal_pinvoke_cleanup
fNi:_Array_InternalArray__get_Item_TisAnimatorClipInfo_t3905751349_m2163447872_gshared
w_i:_List_1_System_Collections_Generic_IEnumerableU3CTU3E_GetEnumerator_m166627113_gshared
szb:__ZNSt3__26vectorI9InputAxisNS_9allocatorIS1_EEE6resizeEj
z5h:__ZN6il2cpp2vm13ManagedObject7GetIidsEPjPP10Il2CppGuid
oZa:__ZN13BatchRendererC2ER15RenderLoopStatsRK15RenderNodeQueuebbb
dMe:_SecurityElement_IsValidAttributeValue_m483287146
aZb:__ZNK2UI13RectTransform22GetTypeVirtualInternalEv
Rik:__ZL56AppDomainSetup_t611332832_CustomAttributesCacheGeneratorP21CustomAttributesCache
vq:getTempRet0
rLd:__ZN5physx2Gu33MultiplePersistentContactManifold24addManifoldContactPointsEPNS0_21MeshPersistentContactEjPPNS0_15PCMContactPatchEjRKNS_6shdfnd3aos6FloatVESB_h
TIj:__Z79RuntimeInvoker_Boolean_t3825574718_ContentTypeU26_t1802785839_Int32_t2071877448PFvvEPK10MethodInfoPvPS4_
D6i:_Collection_1_InsertItem_m383205760_gshared
Vxg:_AssemblyTitleAttribute__ctor_m1696431446
Nsi:_Image_AddQuad_m1603575622
x3h:__ZN24dense_hashtable_iteratorINSt3__24pairIK10KeyWrapperIPK19Il2CppGenericMethodEP10MethodInfoEES6_N6il2cpp8metadata23Il2CppGenericMethodHashEN14dense_hash_mapIS6_S9_SD_NS6_14EqualsComparerINSC_26Il2CppGenericMethodCompareEEENS0_9allocatorISA_EEE9SelectKeyESH_SJ_E30advance_past_empty_and_deletedEv
dQf:_PrivateKeyInfo_RemoveLeadingZero_m3396807048
Kcj:_ReadOnlyCollection_1_System_Collections_Generic_ICollectionU3CTU3E_get_IsReadOnly_m1251192075_gshared
jTi:_List_1_GrowIfNeeded_m185971996_gshared
HTh:__ZN6il2cpp6icalls8mscorlib6System9ThreadingL21lookup_cached_cultureEP12Il2CppThreadi
Q3a:__ZN18DeferredRenderLoopD2Ev
iCg:_GenericTypeParameterBuilder_GetMethods_m1243855818
Yia:__ZNK16TypeTreeIterator4NameEv
jHk:__ZL90PlayableBinding_t2498078091_CustomAttributesCacheGenerator_U3CstreamTypeU3Ek__BackingFieldP21CustomAttributesCache
Z4j:__ZL40UIntPtr_t_CustomAttributesCacheGeneratorP21CustomAttributesCache
l5:__ZN15FileSystemEntry3SetEPKc
kSd:__ZN5physx6shdfnd5ArrayIPNS_13PxcNpMemBlockENS0_19ReflectionAllocatorIS3_EEE6resizeEjRKS3_
Kel:_InternalEnumerator_1__ctor_m2808001655_gshared
vGe:_MACTripleDES__ctor_m884945242
Ymd:__ZN5physx14NpRigidDynamic8requiresERNS_23PxProcessPxBaseCallbackE
oM:__ZN20SoundChannelInstance15ParameterBuffer5ApplyEPN4FMOD7ChannelE
YLg:_AnimationMixerPlayable_GetHandle_m277863172_AdjustorThunk
zji:_UIBehaviour_OnDidApplyAnimationProperties_m833087645
aee:__ZN20TextRenderingPrivate19NativeTextGenerator9InsertTabEv
n5j:__ZL73Enum_t2459695545_CustomAttributesCacheGenerator_Enum_ToObject_m1688724857P21CustomAttributesCache
Khl:_Rect_set_y_m4294916608
d5d:__ZN5physx7profile8ZoneImplINS_28PxProfileNameProviderForwardEE21setProfileZoneManagerEPNS_20PxProfileZoneManagerE
tze:__ZN11UnityEngine15PlatformWrapper24GetRuntimePlatformStringEv
kj:_glIsEnabled
fTb:__ZN15CacheWriterBaseD2Ev
hMc:__ZN5physx3Cct17CapsuleController15setFootPositionERKNS_14PxExtendedVec3E
FJc:__ZN5physx2Gu33PCMCapsuleVsMeshContactGeneration13generateEEMTDERKNS_6shdfnd3aos5Vec3VES6_RKNS3_6FloatVES6_jS6_S6_PNS0_21MeshPersistentContactERj
aEb:__Z25scripting_class_get_image17ScriptingClassPtr
W6c:__ZN18MultiQueryCallbackIN5physx10PxSweepHitEED0Ev
oj:_emscripten_glDrawElementsInstanced
Dy:__ZN26AnimatorControllerPlayable27SetupStateMachineBehavioursEv
hmh:_GeneralNames_get_IPAddresses_m1712556836
ZOf:_HMAC_Initialize_m3052649104
yEi:_Array_InternalArray__ICollection_Add_TisBoolean_t3825574718_m1009318882_gshared
Kwa:__ZN18JobBatchDispatcherD2Ev
XYb:__ZN9Transform17MainThreadCleanupEv
$7h:_GC_clear_hdr_marks
lPl:_glScissor__wrapper
BVl:_emscripten_glCreateShader__wrapper
pti:_InputField_get_caretSelectPositionInternal_m3523572533
bme:_cff_fd_select_get
dck:__ZL73CompilationRelaxationsAttribute_t238494011_CustomAttributesCacheGeneratorP21CustomAttributesCache
lCk:__ZL95CanvasRenderer_t261436805_CustomAttributesCacheGenerator_CanvasRenderer_SetMaterial_m1462355522P21CustomAttributesCache
Jfg:_CallbackHandler_EndInvoke_m2406225629
LCe:__ZN11UnityEngine15PlatformWrapper23GetApplicationBuildGUIDEv
d8g:_Text_get_minHeight_m1562513104
gKe:_SHA512Managed_processBlock_m3220567420
Z_f:_NameObjectCollectionBase_get_Keys_m446053925
yj:_emscripten_glGetShaderiv
mUk:_Transform_1__ctor_m353209818_gshared
rHj:__Z30RuntimeInvoker_Axis_t375128448PFvvEPK10MethodInfoPvPS4_
qN:__ZN4FMOD6System10getVersionEPj
$sf:_FileLoadException_GetObjectData_m2047020314
wFk:__ZL96RemoteSettings_t392466225_CustomAttributesCacheGenerator_RemoteSettings_CallOnUpdate_m1624968574P21CustomAttributesCache
MDi:_Array_InternalArray__IndexOf_TisSByte_t454417549_m1427585061_gshared
Lre:__ZN2UI6Canvas23VirtualRedirectTransferER24GenerateTypeTreeTransfer
S4e:_Decimal_u64_m3991988111
prl:_YieldInstruction_t3462875981_marshal_pinvoke
Vul:_Predicate_1_BeginInvoke_m2959352225_gshared
M_k:_Dictionary_2_CopyToCheck_m2147716750_gshared
Smh:_X509Certificate_Parse_m1764345628
Kce:__ZN13TextRendering4Font13AwakeFromLoadE17AwakeFromLoadMode
$Ul:_emscripten_glCullFace__wrapper
MFj:__Z70RuntimeInvoker_Void_t1841601450_Guid_t_RuntimeObject_Int32_t2071877448PFvvEPK10MethodInfoPvPS4_
eBa:__ZN9GfxDevice21ReleaseSharedMeshDataEP14SharedMeshData
uLf:_SmallXmlParser_Peek_m2814840810
hAb:__ZNSt3__27__sort5IRNS_6__lessINS_4pairIPKN5Unity4TypeE7Hash128EES8_EEPS8_EEjT0_SC_SC_SC_SC_T_
k3e:_Enumerator_Reset_m466659019
Pwl:_UnityAction_1_EndInvoke_m2822290096_gshared
g7h:_GC_unreachable_finalize_mark_proc
NTg:_AudioPlayableOutput_op_Implicit_m530962771
Kg:___syscall192
uhi:_PointerEventData_set_worldNormal_m2025727441
E8h:_maybe_finalize
Gk:_emscripten_glGetProgramiv
pfh:_ConstructionCall_GetObjectData_m3974358557
Yjc:__Z43RectTransform_CUSTOM_INTERNAL_get_anchorMaxP12Il2CppObjectP13Vector2fIcall
Ymj:__Z50RuntimeInvoker_Void_t1841601450_Single_t2076509932PFvvEPK10MethodInfoPvPS4_
K5c:__ZN5physx14NpShapeManagerC2Ev
$la:__ZN8Material28UpdateHashesOnPropertyChangeEN9ShaderLab16FastPropertyNameE
Kkc:__Z53Register_UnityEngine_SortingLayer_GetLayerValueFromIDv
Wrf:_DirectoryInfo_get_Parent_m1198766078
Cuh:__ZL25UnresolvedVirtualCall_229P12Il2CppObject22UICharInfo_t3056636800PK10MethodInfo
p0e:_CaseInsensitiveComparer_Compare_m1192858479
qGb:__Z18Transfer_BlittableI14SafeBinaryReadLb1E8Vector4fEvRK29SerializationCommandArgumentsR31RuntimeSerializationCommandInfo
Lvf:_StreamAsyncResult_set_Done_m4272090534
fxi:_LayoutRebuilder_Clear_m2390054824
v8i:_Collection_1_System_Collections_IList_Insert_m2968289909_gshared
nDa:__ZN13GfxDeviceGLES20SetComputeBufferDataE15ComputeBufferIDPKvjj
nyg:_Default_SelectMethod_m622251293
zt:__ZN8Animator23VirtualRedirectTransferER19StreamedBinaryWriteILb0EE
hA:__ZN11UnityEngine9Animation32CreateAnimatorGenericBindingsOptERKNS0_20AnimationSetBindingsER9TransformPKN7mecanim9animation14AvatarConstantEPKNS0_21AvatarBindingConstantEbRNS6_6memory9AllocatorER8Animator
HXh:__ZN6il2cpp2vm5Image13ClassFromNameEPK11Il2CppImagePKcS6_
PKl:dynCall_vdddddd
dWb:__ZN24GenerateTypeTreeTransfer21TransferSTLStyleArrayINSt3__26vectorIN9ShaderLab14SerializedPassENS1_9allocatorIS4_EEEEEEvRT_17TransferMetaFlags
GVc:__ZN5physx6shdfnd8internal8HashBaseIPNS_2Sc13ConstraintSimES5_NS0_4HashIS5_EENS1_11HashSetBaseIS5_S7_NS0_9AllocatorELb1EE6GetKeyES9_Lb1EE6createERKS5_Rb
g1:__ZL32MarkLevelGameManagerDependenciesR27GarbageCollectorThreadState
uDa:__ZNK13GfxDeviceGLES26HasActiveRandomWriteTargetEv
v1c:__ZNK5physx15NpActorTemplateINS_18PxArticulationLinkEE7getNameEv
tEe:__ZN20UnityWebRequestProtoI19TransportJavaScript16AtomicRefCounter14RedirectHelper14ResponseHelper15DownloadHandler13UploadHandler12HeaderHelper14AsyncOperationE5BeginEv
cQl:_glGetActiveUniformsiv__wrapper
Hkc:__Z43Register_UnityEngine_Material_EnableKeywordv
DBc:__ZNK5physx3Cct10Controller16getInternalStateERNS_17PxControllerStateE
q3:__ZN13MonoBehaviour19SetupScriptingCacheE17ScriptingClassPtrP10MonoScript
fEh:__ZNSt3__214__split_bufferIP12Il2CppThreadRNS_9allocatorIS2_EEED2Ev
Cs:__Z20AnimationEventToMonoRK14AnimationEventR18MonoAnimationEvent
Ysk:__ZL85Mesh_t1356156583_CustomAttributesCacheGenerator_Mesh_ExtractArrayFromList_m1349408169P21CustomAttributesCache
Z1:__ZNK15dense_hashtableINSt3__24pairIKiiEEi21InstanceIDHashFunctorN14dense_hash_mapIiiS4_NS0_8equal_toIiEE13stl_allocatorIS3_L18MemLabelIdentifier1ELi16EEE9SelectKeyES7_SA_E13find_positionERS2_
c1g:_Navigation_get_selectOnLeft_m3980387574_AdjustorThunk
DZg:_CustomYieldInstruction_get_Current_m1743233962
Yxd:__ZN5physx10PxsContext15setScratchBlockEPvj
$yj:__Z132RuntimeInvoker_Void_t1841601450_Vector3U26_t425862308_Vector3U26_t425862308_ColorU26_t3402129837_Single_t2076509932_SByte_t454417549PFvvEPK10MethodInfoPvPS4_
QGk:__ZL74UnityEventBase_t828812576_CustomAttributesCacheGenerator_m_PersistentCallsP21CustomAttributesCache
maa:__ZZN15DirectorManager15InitializeClassEvEN52PreLateUpdateDirectorUpdateAnimationBeginRegistrator7ForwardEv
s$k:_DefaultComparer__ctor_m2265472997_gshared
IVh:__ZN6il2cpp2vm13LivenessState18ShouldProcessValueEP12Il2CppObjectP11Il2CppClass
Xgb:__ZN4PPtrI6SpriteE8TransferI14SafeBinaryReadEEvRT_
nPj:__Z49RuntimeInvoker_UIVertex_t1204258818_RuntimeObjectPFvvEPK10MethodInfoPvPS4_
jsj:__Z52RuntimeInvoker_Void_t1841601450_TimeSpan_t3430258949PFvvEPK10MethodInfoPvPS4_
CRh:__ZN15dense_hashtableINSt3__24pairIK10KeyWrapperIP11Il2CppClassES4_EES5_N6il2cpp8metadata16SZArrayClassHashEN14dense_hash_mapIS5_S4_SA_NS5_14EqualsComparerINS9_19SZArrayClassCompareEEENS0_9allocatorIS7_EEE9SelectKeyESE_SG_E16reset_thresholdsEv
DQc:__ZN5physx2Cm27getDynamicGlobalPoseAlignedERKNS_11PxTransformES3_S3_RS1_
dYk:_Dictionary_2_System_Collections_Generic_ICollectionU3CSystem_Collections_Generic_KeyValuePairU3CTKeyU2CTValueU3EU3E_CopyTo_m3494157322_gshared
y1j:_PlayableHandle_GetInputCountInternal_m2692879798
BVb:__ZNSt3__26vectorIN9ShaderLab14SerializedPassENS_9allocatorIS2_EEE8__appendEj
PYd:__ZN5physx6shdfnd5ArrayIPvNS0_19ReflectionAllocatorIN17PxcPoolMallocData10PoolData32EEEE15growAndPushBackERKS2_
TUb:__ZNSt3__26vectorIN9ShaderLab20SerializedSubProgram13BufferBindingENS_9allocatorIS3_EEEC2INS_11__wrap_iterIPS3_EEEET_SB_RKS5_PNS_9enable_ifIXaasr21__is_forward_iteratorISB_EE5valuesr16is_constructibleIS3_NS_15iterator_traitsISB_E9referenceEEE5valueEvE4typeE
qUf:_Context_get_SupportedCiphers_m2172827298
q4b:__ZZL23RegisterLightPropertiesR22GenericPropertyBindingEN20Wrapper_LightColorb213GetFloatValueEPv
Ida:__ZNK13ScreenManager21IsMultiDisplayEnabledEv
QHj:__Z133RuntimeInvoker_RuntimeObject_Vector2_t2243707579_Vector2_t2243707579_Single_t2076509932_Int32_t2071877448_RuntimeObject_RuntimeObjectPFvvEPK10MethodInfoPvPS4_
Rqb:__ZN9Texture2D23VirtualRedirectTransferER18StreamedBinaryReadILb0EE
eff:_Double_System_IConvertible_ToUInt16_m286326038_AdjustorThunk
ldg:_TypeInfo__ctor_m1475908211
Oyh:__ZN30dense_hashtable_const_iteratorINSt3__24pairIK10KeyWrapperIPKcEP11Il2CppClassEES5_N6il2cpp5utils11StringUtils12StringHasherIS4_EEN14dense_hash_mapIS5_S8_SE_NS5_14EqualsComparerINSB_13VmStringUtils21CaseSensitiveComparerEEENS0_9allocatorIS9_EEE9SelectKeyESJ_SL_E30advance_past_empty_and_deletedEv
zib:__ZNSt3__26__treeINS_12__value_typeIN4core12basic_stringIcNS2_20StringStorageDefaultIcEEEEjEENS_19__map_value_compareIS6_S7_NS_4lessIS6_EELb1EEE13stl_allocatorIS7_L18MemLabelIdentifier6ELi16EEE7destroyEPNS_11__tree_nodeIS7_PvEE
Y3:__ZN16ScriptingManager27NativeTypeForScriptingClassE17ScriptingClassPtr
j4f:_X509Chain_WrapUp_m1072032285
moh:_X509CertificateEnumerator_System_Collections_IEnumerator_MoveNext_m1448966539
dje:_get_sfnt_table
ETf:_TlsServerHelloDone__ctor_m2125611008
gWj:_GUIStyle_GetNumCharactersThatFitWithinWidth_m3760066083
eOe:_SecuritySafeCriticalAttribute__ctor_m2508714287
u$b:__Z13RegisterClassI5LightEvv
u7d:__ZN5physx2Gu20registerHeightFieldsEv
qsb:__ZN8Renderer20RendererAddedToSceneEv
zig:_DES_get_Key_m2584608215
c5a:__ZL22ScheduleSceneNodesJobsP25ScheduleSceneNodesJobDataj
BGd:__ZN5physx22concludeContactCoulombERKNS_23PxcSolverConstraintDescERNS_16PxcSolverContextE
nl:_emscripten_set_canvas_size
h2f:_AsnEncodedData__ctor_m1611830939
Whd:__ZNK5physx15NpParticleFluid12getStiffnessEv
J1e:_Hashtable__ctor_m741952536
$gl:_Comparer_1__cctor_m2253684996_gshared
jVb:__ZNSt3__26vectorIN9ShaderLab20SerializedSubProgramENS_9allocatorIS2_EEE8__appendEj
WZ:__ZN20DynamicHeapAllocatorI17LowLevelAllocatorE8AllocateEji
wxe:__ZN11UnityEngine9Analytics15UserCustomEvent12ToJsonStringER9JSONWrite
kpi:_FontData_set_fontStyle_m130790064
QZa:__ZN20DynamicPropertySheet15SetVectorQueuedERKN9ShaderLab16FastPropertyNameERK8Vector4fN19ShaderPropertySheet8SetFlagsE
aAk:__ZL138AnimatorControllerPlayable_t1744083903_CustomAttributesCacheGenerator_AnimatorControllerPlayable_PlayInFixedTime_m1932606764____fixedTime2P21CustomAttributesCache
TQe:_String_Format_m1263743648
sSg:_DefaultExecutionOrder_get_order_m1561221759
Ggj:_ReadOnlyCollection_1_System_Collections_IEnumerable_GetEnumerator_m4248982967_gshared
iB:__ZN7mecanim9animation22EvaluateAvatarRetargetEPKNS0_14AvatarConstantEPKNS0_11AvatarInputEPNS0_12AvatarOutputEPNS0_12AvatarMemoryEPNS0_15AvatarWorkspaceEb
pxi:_LayoutRebuilder_GetHashCode_m2745108660
Knb:__ZN14RenderSettings23VirtualRedirectTransferER19StreamedBinaryWriteILb0EE
Ruc:__ZL26Transfer_SimpleNativeClassI9JSONWrite10RectOffsetLb0EEvRK29SerializationCommandArgumentsR31RuntimeSerializationCommandInfo
A7h:_GC_push_conditional
Jxe:__ZN21UnityAnalyticsManager23VirtualRedirectTransferER24GenerateTypeTreeTransfer
HGa:__ZN17GenericDynamicVBO10AllocateVBEjR21DynamicVBOChunkHandle
JUi:_List_1_get_Item_m1547593893_gshared
j4h:__ZN4utf88internal14get_sequence_4IPKcEENS0_9utf_errorERT_S5_Rj
lsf:_Path_GetPathRoot_m1269357080
HKd:__ZL27PxcTestFacesSepAxesBackfaceRKN5physx2Gu13PolygonalDataES3_RKNS_2Cm8Matrix34ES7_RKNS4_23FastVertex2ShapeScalingESA_S7_RKNS_6PxVec3ERfRSB_RjPjSG_fSD_
dSi:_List_1_System_Collections_IList_Insert_m3497683264_gshared
gZh:__ZN30dense_hashtable_const_iteratorI10KeyWrapperIP18Il2CppGenericClassES3_N6il2cpp8metadata22Il2CppGenericClassHashEN14dense_hash_setIS3_S6_NS3_14EqualsComparerINS5_25Il2CppGenericClassCompareEEENSt3__29allocatorIS3_EEE8IdentityESA_SD_EppEv
p1e:_KeyNotFoundException__ctor_m264393096
nfi:_EventSystem_SetSelectedGameObject_m2211816110
yUk:_Transform_1__ctor_m4161450529_gshared
Ll:_glMapBufferRange
Jqb:__ZN9Texture2D8TransferI18StreamedBinaryReadILb0EEEEvRT_
vhc:__Z31Input_CUSTOM_GetMouseButtonDowni
bxj:__Z41RuntimeInvoker_HandshakeState_t1820731088PFvvEPK10MethodInfoPvPS4_
Ajc:__Z75Register_UnityEngine_Playables_PlayableHandle_INTERNAL_CALL_IsValidInternalv
M6b:__ZN13PlayableGraph4PlayEv
hdd:__ZNK5physx7NpCloth23getExternalAccelerationEv
KXa:__ZNK9Transform16GetLocalPositionEv
psk:__ZL89Input_t1785128008_CustomAttributesCacheGenerator_Input_get_imeCompositionMode_m4250689464P21CustomAttributesCache
dTe:_Array_System_Collections_ICollection_get_Count_m2897196527
Txa:__ZN13LoadOperation19IntegrateTimeSlicedEi
I3k:_ArrayReadOnlyList_1_get_Item_m176001975_gshared
Z7f:_InterpreterFactory__ctor_m3331468903
$Hd:__ZN5physx16PxsBroadPhaseMBP9updatePPUEPNS_10PxBaseTaskE
MKf:_X501__cctor_m3795360380
FDa:__ZN13GfxDeviceGLES22DispatchComputeProgramE12ObjectHandleI18ComputeProgram_TagPvE15ComputeBufferIDj
EWj:_GUIStyle_set_contentOffset_m2138084868
g6i:_Collection_1_System_Collections_ICollection_CopyTo_m4193844941_gshared
Usj:__Z60RuntimeInvoker_Void_t1841601450_StreamingContext_t1417235061PFvvEPK10MethodInfoPvPS4_
E7e:_Convert_ToInt32_m2297793940
$va:__Z17TransformAABBSlowRK4AABBRK10Matrix4x4fRS_
Erb:__ZN15SerializeTraitsI13dynamic_arrayI7Hash128Lj8EEE19ResizeSTLStyleArrayERS2_i18MemLabelIdentifier
wQh:__ZN13Il2CppHashMapINSt3__24pairIPK9FieldInfoP11Il2CppClassEEj17ReflectionMapHashIS7_ENS0_8equal_toIS7_EENS0_9allocatorINS1_IK10KeyWrapperIS7_EjEEEEEC2EjRKS9_RKSB_
VTb:__ZN9ShaderLab21SerializedShaderState8TransferI14SafeBinaryReadEEvRT_
OHl:_ftruncate
fJe:_RSAPKCS1SignatureFormatter_SetKey_m2365816458
cof:_Int16_GetHashCode_m304503362_AdjustorThunk
_me:_cf2_stack_pushInt
sE:__ZN7mecanim9animation20DestroyLayerConstantEPNS0_13LayerConstantERNS_6memory9AllocatorE
dkd:__ZN5physx6shdfnd8PoolBaseINS_16NpParticleSystemENS0_19ReflectionAllocatorIS2_EEE12allocateSlabEv
iBi:_Array_InternalArray__IEnumerable_GetEnumerator_TisInt32_t2071877448_m372781915_gshared
kng:_CompressedStack__ctor_m276924800
Cgi:_ExecuteEvents_get_cancelHandler_m1964324668
hna:__ZN15SerializeTraitsINSt3__24pairIN4core12basic_stringIcNS2_20StringStorageDefaultIcEEEES6_EEE8TransferI24GenerateTypeTreeTransferEEvRS7_RT_
Z1j:_PlayableOutput__ctor_m3826671654_AdjustorThunk
jZj:_Matrix4x4__ctor_m2771358574_AdjustorThunk
aDk:__ZL70GUISettings_t622856320_CustomAttributesCacheGenerator_m_SelectionColorP21CustomAttributesCache
mQl:b81
lQl:b80
MKa:__ZN7ApiGLES19CreateSparseTextureEjj14GraphicsFormatiiiiRiS1_S1_
C4:__ZN18ResourceImageGroup7CleanupEv
ARl:b85
rTc:__ZN5physx2Gu36closestPtPointTetrahedronTesselationEPNS_6shdfnd3aos5Vec3VES4_S4_RjRS3_S6_
CRl:b87
BRl:b86
sr:__ZN11Quaternionf8TransferI24GenerateTypeTreeTransferEEvRT_
WKd:__ZN5physx25PxcPCMContactSphereConvexERKNS_2Gu13GeometryUnionES3_RKNS_11PxTransformES6_RKfRNS_10PxcNpCacheERNS0_13ContactBufferE
p8g:_ToggleGroup_RegisterToggle_m3118973598
Y3b:__ZN13ProduceHelperI4MeshLb0EE7ProduceE18MemLabelIdentifier18ObjectCreationMode
bQf:_PrivateKeyInfo_Decode_m1053025782
P5f:_X509ChainElementCollection_System_Collections_ICollection_CopyTo_m1467895312
xUd:__ZN5physx2Cm18DelegateFanoutTaskINS_2Sc5SceneEXadL_ZNS3_20particlePostShapeGenEPNS_10PxBaseTaskEEEED0Ev
PJf:_PKCS12_Decrypt_m2457743414
YAk:__ZL87Animator_t69676727_CustomAttributesCacheGenerator_Animator_SetTriggerString_m2002790359P21CustomAttributesCache
wob:__ZN8Playable19SetOutputConnectionEPS_i
dyh:__ZN15dense_hashtableINSt3__24pairIK10KeyWrapperIPK11Il2CppClassEPKcEES6_N6il2cpp5utils11PointerHashIS3_EEN14dense_hash_mapIS6_S9_SE_NS6_14EqualsComparerINS0_8equal_toIS5_EEEENS0_9allocatorISA_EEE9SelectKeyESJ_SL_EC2ERKSO_j
zm:_glDeleteShader
lM:__ZN11SoundHandle8Instance15UpdateLoadStateEv
Wgf:_Exception_GetType_m3898489832
Bqa:__ZN6prcoreL17RemapGenericFloatI15TexFormatRGHalf16TexFormatRGFloatEEvPKNS_9InnerInfoE
$7c:__ZN5physx6shdfnd8PoolBaseINS_10NpMaterialENS0_19ReflectionAllocatorIS2_EEE15disposeElementsEv
l3i:_Stack_1_Peek_m1548778538_gshared
iQi:_Enumerator_System_Collections_IEnumerator_get_Current_m2408426667_AdjustorThunk
dcj:_Collection_1_System_Collections_IList_get_Item_m1995028750_gshared
Wql:_Vector4_Dot_m2285943745
_5g:_Shadow_set_effectColor_m3110056844
Qcc:__Z27scripting_add_internal_callPKcPKv
iPg:_AnimatorControllerPlayable_GetAnimatorClipInfoInternal_m391765191
oDk:__ZL72GUISkin_t1436893342_CustomAttributesCacheGenerator_m_verticalSliderThumbP21CustomAttributesCache
gQh:__ZN13Il2CppHashMapINSt3__24pairIPK9EventInfoP11Il2CppClassEEj17ReflectionMapHashIS7_ENS0_8equal_toIS7_EENS0_9allocatorINS1_IK10KeyWrapperIS7_EjEEEEEC2EjRKS9_RKSB_
MZh:__GLOBAL__sub_I_GarbageCollector_cpp
V$:__Z17GetPlayerSettingsv
WCc:__ZL21ContactReductionAllInRN5physx2Gu13ContactBufferEjjRKNS_7PxMat33EPKNS_6PxVec3EPKh
JB:__ZN34BlobWriteTransferSTLStyleArrayImplI22OffsetPtrArrayTransferIiEEclERS1_17TransferMetaFlagsR9BlobWrite
zoh:_X509Store_CheckStore_m1027496478
zbk:__ZL82MethodBase_t904190842_CustomAttributesCacheGenerator_MethodBase_Invoke_m1075809207P21CustomAttributesCache
Qt:__ZN26AnimatorControllerPlayable18SetLayerAutoWeightEv
gc:invoke_vffff
oIl:__ZNSt3__212basic_stringIcNS_11char_traitsIcEENS_9allocatorIcEEEC2ERKS5_jjRKS4_
CQe:_String_Contains_m4017059963
JKi:_Array_swap_TisCustomAttributeNamedArgument_t94157543_TisCustomAttributeNamedArgument_t94157543_m3600072996_gshared
nfl:_DefaultComparer_Compare_m1606207039_gshared
Yte:__ZN2UI14CanvasRenderer12SyncMaterialENS0_8SyncFlagE
Lzk:__ZL137AnimatorControllerPlayable_t1744083903_CustomAttributesCacheGenerator_AnimatorControllerPlayable_CrossFade_m3794224188____normalizedTime3P21CustomAttributesCache
pbi:__ZN6il2cpp2vm9Parameter30GetDefaultParameterValueObjectEPK10MethodInfoPK13ParameterInfoPb
Rph:_Action_EndInvoke_m4281032350
K_b:__ZN15dense_hashtableINSt3__24pairIKN4core12basic_stringIcNS2_20StringStorageDefaultIcEEEE10vector_setI4PPtrI11SpriteAtlasENS0_4lessISB_EE13stl_allocatorISB_L18MemLabelIdentifier79ELi16EEEEES6_20StringHash32FunctionIS6_EN14dense_hash_mapIS6_SH_SK_NS0_8equal_toIS6_EESE_ISI_LSF_79ELi16EEE9SelectKeyESN_SO_E12maybe_shrinkEv
i9g:_ResourceReader_ReadValueVer2_m252146049
hGg:_MonoCMethod_get_Attributes_m3914742834
fcl:_InternalEnumerator_1__ctor_m142220063_AdjustorThunk
u_j:_MonoBehaviour_Invoke_m666563676
Izg:_ConstructorBuilder_get_DeclaringType_m4264602248
Cwc:__Z18Transfer_BlittableI8JSONReadLb0EfEvRK29SerializationCommandArgumentsR31RuntimeSerializationCommandInfo
Dwf:_StringReader__ctor_m643998729
F0f:_IPv6Address_TryParse_m2220524278
g2c:__ZN5physx19NpRigidBodyTemplateINS_18PxArticulationLinkEE16setRigidBodyFlagENS_15PxRigidBodyFlag4EnumEb
_wi:_U3CDelayedSetDirtyU3Ec__Iterator0_System_Collections_Generic_IEnumeratorU3CobjectU3E_get_Current_m2210283424
huk:__ZL86Time_t31991979_CustomAttributesCacheGenerator_Time_get_realtimeSinceStartup_m357614587P21CustomAttributesCache
Wie:_UNITY_tt_face_done_kern
jdh:_Context_get_DefaultContext_m2211922324
zyg:_CustomAttributeData_get_NamedArguments_m708818174
urc:__Z59GUIStyle_CUSTOM_Internal_GetNumCharactersThatFitWithinWidth13Il2Cpp_IntPtrP12Il2CppStringf
_wb:__ZN12BoneWeights48TransferI24GenerateTypeTreeTransferEEvRT_
sQf:_RSAManaged_GetPaddedValue_m2972141669
pH:__Z62AnimationPlayableOutput_CUSTOM_INTERNAL_CALL_InternalSetTargetR15HPlayableOutputP12Il2CppObject
KVf:_TlsServerCertificate_ProcessAsSsl3_m277089231
ABi:_Array_InternalArray__IEnumerable_GetEnumerator_TisUInt16_t986882611_m3665860884_gshared
Kfa:__Z19scripting_gc_enablev
$De:__ZN20UnityWebRequestProtoI19TransportJavaScript16AtomicRefCounter14RedirectHelper14ResponseHelper15DownloadHandler13UploadHandler12HeaderHelper14AsyncOperationE9DoRequestEv
tTa:__ZZ23InitPlayerLoopCallbacksvEN41InitializationPlayerUpdateTimeRegistrator7ForwardEv
Rih:_AnchorInfo__ctor_m617409099
m6d:__ZN5physx7profile11EventBufferINS_24PxDefaultContextProviderENS_6shdfnd6MutexTINS0_26WrapperReflectionAllocatorIhEEEENS0_14ScopedLockImplIS7_EENS_24PxProfileNullEventFilterEE9stopEventEty
Zbb:__Z29StdTemplateConversionFunctionIihEbPvR14SafeBinaryRead
Sve:__Z55Register_UnityEngine_CanvasRenderer_DisableRectClippingv
E8f:_Interval_CompareTo_m2909556284_AdjustorThunk
twb:__ZN14SafeBinaryRead21TransferSTLStyleArrayI13dynamic_arrayI11ColorRGBA32Lj4EEEEvRT_17TransferMetaFlags
qHk:__ZL61PlayableExtensions_t2358977238_CustomAttributesCacheGeneratorP21CustomAttributesCache
TNa:__ZN9GfxDevice22UploadTextureCubeArrayE9TextureIDPKhjii14GraphicsFormati18TextureUploadFlags
O5j:__ZL87RuntimeArray_CustomAttributesCacheGenerator_Array_CreateInstance_m679102425____lengths1P21CustomAttributesCache
zHk:__ZL83Logger_t3328995178_CustomAttributesCacheGenerator_Logger_get_logHandler_m4190583509P21CustomAttributesCache
ySg:_AudioClip_get_length_m3881628918
S0g:_Navigation_t1571958496_marshal_pinvoke
v7f:_Interpreter_GetLastDefined_m2450713313
gih:_Parser_ParseAssertionType_m3316669790
FXb:__ZN9ShaderLab7Program27CreateFromSerializedProgramERKNS_17SerializedProgramE10ShaderTypeiP16PropertyNamesSetPK6Shader
B5g:_Selectable_get_isPointerDown_m774209881
r5j:__ZL73Enum_t2459695545_CustomAttributesCacheGenerator_Enum_ToObject_m2460371738P21CustomAttributesCache
RYb:__ZNSt3__27__sort4IRNS_6__lessIN4core12basic_stringIcNS2_20StringStorageDefaultIcEEEES6_EEPS6_EEjT0_SA_SA_SA_T_
uLl:dynCall_viiiifii
KOh:__ZN6il2cpp2gc19AppendOnlyGCHashMapINSt3__24pairIPK11Il2CppImageP11Il2CppClassEEP22Il2CppReflectionModule17ReflectionMapHashIS9_ENS2_8equal_toIS9_EEEC2Ev
j2:__Z20GetPersistentManagerv
lqe:_UNITY_TT_Set_Var_Design
idh:_Context_Finalize_m1386439645
ada:__ZN21SystemInfoStringCache16StaticInitializeEPv
PRf:_TlsStream__ctor_m4117943603
xLh:__ZN15dense_hashtableINSt3__24pairIK10KeyWrapperIPK10Il2CppTypeEjEES6_N6il2cpp8metadata14Il2CppTypeHashEN14dense_hash_mapIS6_jSB_NS6_14EqualsComparerINSA_26Il2CppTypeEqualityComparerEEENS0_9allocatorIS8_EEE9SelectKeyESF_SH_E12maybe_shrinkEv
iIi:_Array_InternalArray__set_Item_TisParameterModifier_t1820634920_m3126548327_gshared
YRc:__ZN5physx2Sc7BodySim18internalWakeUpBaseEf
k2h:__ZN6il2cpp2gc16GarbageCollector23MakeDescriptorForObjectEPji
TZh:__ZNK10KeyWrapperIP12Il2CppObjectE14EqualsComparerINSt3__28equal_toIS1_EEEclERKS2_S9_
KIg:_ParameterModifier_t1820634920_marshal_pinvoke
cDb:__ZNK13MonoBehaviour7GetNameEv
jsa:__ZN19ScriptingInvocation28AdjustArgumentsToMatchMethodEv
sZh:__ZN15dense_hashtableI10KeyWrapperIP18Il2CppGenericClassES3_N6il2cpp8metadata22Il2CppGenericClassHashEN14dense_hash_setIS3_S6_NS3_14EqualsComparerINS5_25Il2CppGenericClassCompareEEENSt3__29allocatorIS3_EEE8IdentityESA_SD_E6insertERKS3_
bQ:__Z15_CheckFMODError11FMOD_RESULTPKciS1_
Odi:_AbstractEventData_Use_m1797212290
vlb:__Z20RenderMultipleMeshesRK15RenderNodeQueueRK18RenderMultipleData17ShaderChannelMask
oLk:__ZL150U3CDelayedDestroyDropdownListU3Ec__Iterator0_t3461999471_CustomAttributesCacheGenerator_U3CDelayedDestroyDropdownListU3Ec__Iterator0_Reset_m3485957852P21CustomAttributesCache
Zlj:__Z199RuntimeInvoker_Void_t1841601450_ByteU2AU26_t3544685828_ByteU2AU26_t3544685828_DoubleU2AU26_t3349029_UInt16U2AU26_t1636670495_UInt16U2AU26_t1636670495_UInt16U2AU26_t1636670495_UInt16U2AU26_t1636670495PFvvEPK10MethodInfoPvPS4_
HAk:__ZL135AnimatorControllerPlayable_t1744083903_CustomAttributesCacheGenerator_AnimatorControllerPlayable_INTERNAL_CALL_SetTriggerID_m1169129620P21CustomAttributesCache
FJh:__ZN6il2cpp2vm4Type19GetGenericParameterEPK10Il2CppType
N6k:_InternalEnumerator_1__ctor_m439810834_AdjustorThunk
sve:__Z51Register_UnityEngine_CanvasGroup_get_blocksRaycastsv
Idl:_InternalEnumerator_1_get_Current_m2826780083_gshared
sod:__ZN5physx20NpRigidActorTemplateINS_13PxRigidStaticEE15exportExtraDataERNS_22PxSerializationContextE
STl:b119
Ayc:__ZN8JSONRead21TransferSTLStyleArrayI13dynamic_arrayI11ColorRGBA32Lj4EEEEvRT_18MemLabelIdentifier17TransferMetaFlags
QPk:__ZL105LayoutUtility_t4076838048_CustomAttributesCacheGenerator_LayoutUtility_U3CGetMinHeightU3Em__4_m1769295917P21CustomAttributesCache
eWd:__ZN5physx13BigConvexData5VLoadERNS_13PxInputStreamE
Vel:_InternalEnumerator_1__ctor_m2782443954_AdjustorThunk
ce:_glBeginQuery
bxg:_Assembly_GetCustomAttributes_m95309865
$Rj:_GUILayoutUtility_INTERNAL_CALL_Internal_GetWindowRect_m3236664463
gAd:__ZN5physx11NodeManager6resizeEj
mVa:__ZN6Camera12RenderStereoENS_10RenderFlagE8CullFlagPNS_24PerformEyeRenderFunctionE
DOf:_RC4__ctor_m1585026462
$da:__ZN20LocalFileSystemPosix10ToAbsoluteEPKc
llb:__ZN20TierGraphicsSettings8TransferI19StreamedBinaryWriteILb0EEEEvRT_
val:_InternalEnumerator_1_get_Current_m2286118957_AdjustorThunk
NDi:_Array_InternalArray__IndexOf_TisX509ChainStatus_t4278378721_m1338369069_gshared
H4e:_Convert_ToBoolean_m48997236
Gtd:__ZNK5physx7NpScene28getSceneQueryStaticTimestampEv
hn:f0
wq:__ZN6Object17MainThreadCleanupEv
v_e:_ArrayListWrapper_set_Capacity_m2792463350
Mkb:__Z32TransferEnumWithNameForceIntSizeI14SafeBinaryRead7HDRModeEvRT_RT0_PKc17TransferMetaFlags
FGl:_getcwd
Y2d:__ZNSt3__26vectorI9CollisionNS_9allocatorIS1_EEE21__push_back_slow_pathIKS1_EEvRT_
Sih:_AnchorInfo_get_Offset_m142119297
xNg:_AnimatorControllerPlayable_GetBool_m3606320557
vfb:__ZN25ThreadsafeLinearAllocatorD2Ev
HBd:__ZN5physx2Sq10AABBPruner11preallocateEj
hga:__Z21SendMessageToEveryoneRK17MessageIdentifier11MessageData
LSl:b116
CUj:_GUISkin_get_settings_m626844463
j8:__ZN21BillboardBatchManager16StaticInitializeEPv
GUj:_Object_get_name_m2079638459
d$:__ZN12_GLOBAL__N_138ArchiveRedirectFileSystemStaticDestroyEPv
Pvl:_InvokableCall_1_add_Delegate_m3048312905_gshared
Ngf:_EventHandler_Invoke_m1137722757
upb:__ZN12CubemapArray34UpdateFileTextureUploadInstructionEP26FileAssetUploadInstructionj
frd:__ZN5physx2Sc19ShapeInstancePairLLC2ERNS0_8ShapeSimES3_RNS0_9ActorPairENS_7PxFlagsINS_10PxPairFlag4EnumEtEE
$zf:_MonoType_IsSubclassOf_m2211166238
lTh:__ZN6il2cpp6icalls8mscorlib6System5Array9GetLengthEP11Il2CppArrayi
se:_emscripten_glUniform3iv
E7i:_Collection_1_System_Collections_ICollection_CopyTo_m2859266050_gshared
LKa:__Z23CreateSparseTextureGLES9TextureIDii14GraphicsFormati
sth:__ZL25UnresolvedVirtualCall_165P12Il2CppObject22UILineInfo_t3621277874PK10MethodInfo
egl:_Comparer_1__ctor_m2876014041_gshared
hrf:_InvalidCastException__ctor_m2730571470
Q5f:_X509ChainElementCollection_System_Collections_IEnumerable_GetEnumerator_m2559704689
Cmk:__ZL86BigInteger_t925946153_CustomAttributesCacheGenerator_BigInteger_op_Implicit_m622924526P21CustomAttributesCache
ZKk:__ZL59Dropdown_t1985816271_CustomAttributesCacheGenerator_m_ValueP21CustomAttributesCache
b8f:_InterpreterFactory_set_Gap_m2761943153
e3f:_PublicKey_get_Key_m126090744
Vee:__ZNSt3__23mapIN20TextRenderingPrivate7FontRefEP11FT_FaceRec_NS_4lessIS2_EENS_9allocatorINS_4pairIKS2_S4_EEEEEixERS9_
oPa:__ZN17ArchiveFileSystem10AddStorageEP20ArchiveStorageReader
m2c:__ZN5physx19NpRigidBodyTemplateINS_18PxArticulationLinkEE27setMaxDepenetrationVelocityEf
lsh:__ZL25UnresolvedVirtualCall_104P12Il2CppObjectS0_S0_S0_iPK10MethodInfo
Sfd:__ZN5physx2Sc9ClothCore16setStretchConfigENS_22PxClothFabricPhaseType4EnumERKNS_20PxClothStretchConfigE
WXg:_Color_Equals_m661618137
DWg:_CanvasRenderer_SplitIndicesStreamsInternal_m817541557
g8d:_PxCreateFoundation
gDh:__ZN6il2cpp2vm13MetadataCache37GetParameterDefaultValueDataFromIndexEi
u1k:_EqualityComparer_1_System_Collections_IEqualityComparer_GetHashCode_m1203798961_gshared
PDk:__ZL89GUIStyle_t1799908754_CustomAttributesCacheGenerator_GUIStyle_AssignRectOffset_m2998103580P21CustomAttributesCache
iwh:__ZN6il2cpp2vm5Class15GetEnumBaseTypeEP11Il2CppClass
xsf:_DirectoryNotFoundException__ctor_m3713860966
j0j:_Physics_Raycast_m2009151399
bqb:__ZNK9Texture2D16GetNpotTexelSizeEv
o7k:_InternalEnumerator_1__ctor_m245588437_gshared
G6f:_Capture_get_Text_m3472127896
X$g:_Mask_get_rectTransform_m3304369086
Wnl:_TooltipAttribute__ctor_m2640804852
T8d:__ZN13dynamic_arrayItLj2EE6insertEPtPKtS3_
q$k:_DefaultComparer_GetHashCode_m4073394827_gshared
HVe:__ZN21InterfaceFuncInvoker1ItP12Il2CppObjectE6InvokeEjP11Il2CppClassS1_S1_
MGa:__ZN9GfxDevice22GetDefaultVertexBufferE26GfxDefaultVertexBufferTypej
e6i:_Collection_1__ctor_m3903788797_gshared
bgj:_ReadOnlyCollection_1_System_Collections_ICollection_CopyTo_m1129689124_gshared
XGl:___fseeko_unlocked
eSl:_glGetActiveUniform__wrapper
PGl:_sscanf
Naj:_Collection_1_Contains_m1999290510_gshared
qOc:__ZN5physx3Cct17CapsuleControllerC2ERKNS_16PxControllerDescERNS_9PxPhysicsEPNS_7PxSceneE
Nwb:__ZN14SafeBinaryRead21TransferSTLStyleArrayINSt3__26vectorI17BlendShapeChannelNS1_9allocatorIS3_EEEEEEvRT_17TransferMetaFlags
xoa:__Z17BeginSplashScreenv
ZYg:_ControllerColliderHit_get_moveDirection_m3053186297
QWb:__ZN9ShaderLab16SerializedShader8TransferI19StreamedBinaryWriteILb0EEEEvRT_
ctg:_UInt32_Parse_m2400360707
AD:__ZN7mecanim9animation18CreateAvatarMemoryEPKNS0_14AvatarConstantERNS_6memory9AllocatorE
d4e:_Stack_Pop_m3788808882
rul:_RifleFactory_Create_m1685986081
aRk:_Enumerator_VerifyCurrent_m4246196125_AdjustorThunk
ZZk:_Dictionary_2_pick_value_m3484897877_gshared
cbf:_DateTime_op_Equality_m1867073872
sC:__ZN7mecanim8skeleton16SkeletonPoseCopyIN4math4trsXENS2_7affineXEEEvPKNS0_13SkeletonPoseTIT_EEPNS5_IT0_EE
iWi:_List_1_CopyTo_m1916701891_gshared
tNb:__Z18Transfer_BlittableI19StreamedBinaryWriteILb0EELb0EaEvRK29SerializationCommandArgumentsR31RuntimeSerializationCommandInfo
rGa:__ZN18GfxFramebufferGLES18GetFramebufferNameERK20GfxRenderTargetSetup
UIh:__ZN6il2cpp2vm14TypeNameParser12ParseVersionERKNSt3__212basic_stringIcNS2_11char_traitsIcEENS2_9allocatorIcEEEERtSB_SB_SB_
aWh:__ZN6il2cpp6icalls8mscorlib6System2IO6MonoIO11GetFileTypeE12Il2CppIntPtrPi
Wpc:__Z30Event_Get_Custom_PropCharacterP12Il2CppObject
N9:__ZN13PlayableGraph27SchedulePlayableDestructionERK9HPlayable
BKc:__ZN5physx6shdfnd5ArrayINS_12PxDebugPointENS0_19ReflectionAllocatorIS2_EEE15growAndPushBackERKS2_
fPl:_glGetFramebufferAttachmentParameteriv__wrapper
rzk:__ZL145AnimatorControllerPlayable_t1744083903_CustomAttributesCacheGenerator_AnimatorControllerPlayable_INTERNAL_CALL_IsInTransitionInternal_m3428375524P21CustomAttributesCache
$Ce:__Z13RegisterClassI20UnityConnectSettingsEvv
mHb:__Z22scripting_array_length17ScriptingArrayPtr
$Le:_SecurityElement_GetAttribute_m4288291176
Rdl:_InternalEnumerator_1_System_Collections_IEnumerator_get_Current_m2389982234_gshared
a1d:__ZN8Collider13AwakeFromLoadE17AwakeFromLoadMode
Iyl:_IndexedSet_1_get_Count_m2839545138_gshared
Ava:__ZN14SafeBinaryRead20TransferTypelessDataEjPvi
xQj:_RenderPipelineManager_get_currentPipeline_m679160301
jpd:__ZN5physx6shdfnd13ReadWriteLockC2Ev
Jtc:__ZN9rapidjson13GenericReaderINS_4UTF8IcEES2_13JSONAllocatorE10ParseFalseILj1ENS_25GenericInsituStringStreamIS2_EENS_15GenericDocumentIS2_S3_S3_EEEEvRT0_RT1_
kLg:_AnimationClipPlayable_INTERNAL_CALL_SetApplyFootIKInternal_m4116451205
QZi:_List_1_AddCollection_m3284813601_gshared
Dke:_Horizontal_Sweep_Init
wOk:__ZL102ToggleGroup_t1030026315_CustomAttributesCacheGenerator_ToggleGroup_U3CActiveTogglesU3Em__1_m4052653494P21CustomAttributesCache
IP:__ZN13dynamic_arrayI12SoundChannelLj4EE9push_backERKS0_
T$:__Z19GetActiveColorSpacev
N1k:_EqualityComparer_1__cctor_m1672307556_gshared
Gbg:_SoapTypeAttribute_get_IsInteropXmlElement_m2941294827
pii:_RaycastResult_get_gameObject_m2999022658_AdjustorThunk
Wyb:__ZN14SpriteRenderer18UpdateCachedSpriteEv
tRi:_Enumerator_System_Collections_IEnumerator_get_Current_m3542273247_gshared
LYe:_Char_System_IConvertible_ToUInt32_m1557991717_AdjustorThunk
skg:_Encoding_get_UTF8Unmarked_m628720656
Ujf:_NumberFormatter_RoundBits_m1545255255
A0:__Z6StrCmpPKcS0_
Esj:__Z119RuntimeInvoker_Void_t1841601450_RuntimeObject_Int64U26_t763825331_ObjectU26_t597476745_SerializationInfoU26_t4051840202PFvvEPK10MethodInfoPvPS4_
nYb:__Z21CheckGpuProgramUsable20ShaderGpuProgramType
Yxg:_Binder__cctor_m3736115807
C1h:__ZN6il2cpp2os9Directory20GetFileSystemEntriesERKNSt3__212basic_stringIcNS2_11char_traitsIcEENS2_9allocatorIcEEEESA_iiPi
$Jj:__Z84RuntimeInvoker_Int32_t2071877448_Color32_t874517518_Color32_t874517518_RuntimeObjectPFvvEPK10MethodInfoPvPS4_
A4c:__ZN5physx6shdfnd5ArrayIPvNS0_19ReflectionAllocatorINS_2Cm5BlockIhLj128EEEEEE4copyINS0_15InlineAllocatorILj256ES7_EEEEvRKNS1_IS2_T_EE
eVe:_Attribute_GetHashCode_m2653962112
Ude:__ZN20TextRenderingPrivate19NativeTextGenerator5SetupEv
Zeh:_AsyncResult_GetReplyMessage_m262842621
JPi:_Enumerator__ctor_m3021143890_AdjustorThunk
f8c:__ZN5physx6shdfnd8PoolBaseINS_16NpConnectorArrayENS0_19ReflectionAllocatorIS2_EEE15disposeElementsEv
YAb:__ZN12AspectRatios8TransferI18StreamedBinaryReadILb0EEEEvRT_
t9d:__ZN14PhysicsManager19CreatePvdConnectionEv
W7j:__ZL66X509ExtensionCollection_t1640144839_CustomAttributesCacheGeneratorP21CustomAttributesCache
f6b:__ZN10GameObject14CopyPropertiesERS_
Zrc:__Z44Register_UnityEngine_GUIStyle_get_fixedWidthv
AIe:_RSACryptoServiceProvider_Common_m2581564813
_mh:_X509CertificateEnumerator_MoveNext_m4060814498
ePg:_AnimatorControllerPlayable_INTERNAL_CALL_GetCurrentAnimatorClipInfoInternal_m3360626147
Duf:_MemoryStream_CheckIfClosedThrowDisposed_m2253054610
e4k:_ArrayReadOnlyList_1_GetEnumerator_m634288642_gshared
cbb:__ZNK13ScreenManager12IsFullScreenEv
qHl:_rand
IPl:_emscripten_glFramebufferRenderbuffer__wrapper
b0d:__ZNK8Collider16SupportsMaterialEv
L6k:_InternalEnumerator_1_get_Current_m2345377791_AdjustorThunk
o7c:__ZNK5physx12NpConstraint9getActorsERPNS_12PxRigidActorES3_
hFj:__Z72RuntimeInvoker_Boolean_t3825574718_Ray_t2469606224_SingleU26_t4173844468PFvvEPK10MethodInfoPvPS4_
y2h:__ZN6il2cpp5utils9PathUtils7CombineIcEENSt3__212basic_stringIT_NS3_11char_traitsIS5_EENS3_9allocatorIS5_EEEERKNS0_10StringViewIS5_EERKSA_
gjj:_ReadOnlyCollection_1_GetEnumerator_m2481390116_gshared
Ypj:__Z77RuntimeInvoker_Void_t1841601450_RuntimeObject_Int32_t2071877448_RuntimeObjectPFvvEPK10MethodInfoPvPS4_
aIb:__ZN14SafeBinaryRead21TransferSTLStyleArrayINSt3__26vectorI17AnimationCurveTplIfE13stl_allocatorIS4_L18MemLabelIdentifier1ELi16EEEEEEvRT_17TransferMetaFlags
uec:__Z60Register_UnityEngine_AsyncOperation_set_allowSceneActivationv
JYd:__ZN5physx6shdfnd8PoolBaseIN17PxcPoolMallocData10PoolData16ENS0_19ReflectionAllocatorIS3_EEE15disposeElementsEv
H0d:__ZN9Rigidbody23UpdateInterpolationNodeEv
p_j:_MeshCollider_get_smoothSphereCollisions_m1467358939
RMh:__ZN15dense_hashtableINSt3__24pairIK10KeyWrapperINS1_IPK11Il2CppImageP11Il2CppClassEEEjEES9_17ReflectionMapHashIS8_EN14dense_hash_mapIS9_jSD_NS9_14EqualsComparerINS0_8equal_toIS8_EEEENS0_9allocatorISB_EEE9SelectKeyESI_SK_E12expand_arrayEjN21dense_hash_map_traits17integral_constantIbLb0EEE
xeg:_ObjectManager_RegisterObject_m872610295
K4a:__Z22PrepareOptimizedPlanesPK5PlaneiPKN4math7_float4E
Hil:_RectOffset_t3387826427_marshal_pinvoke
Upi:_Graphic_SetVerticesDirty_m1607014370
xY:__ZN11UnityEngine15CloudWebService17WebFileDownloaderINS0_20WebRequestRestClientENS0_23WebRequestRestHeaderMapEE10InitializeERKN4core12basic_stringIcNS5_20StringStorageDefaultIcEEEE
h8:__ZN17UniqueIDGenerator15CreatePureIndexEv
vEj:__Z58RuntimeInvoker_Void_t1841601450_Int32_t2071877448_IntPtr_tPFvvEPK10MethodInfoPvPS4_
tsc:__Z59Register_UnityEngine_GUIStyle_Internal_GetCursorFlashOffsetv
kt:__ZN11UnityEngine9Animation28GenericAnimationBindingCache15DidReloadDomainEv
_Lf:_AppDomain_InternalGetProcessGuid_m1278588156
EHg:_MonoMethod_MakeGenericMethod_m3628255919
Dol:_Transform_set_eulerAngles_m2881310872
C2e:_HashValues_get_Count_m234926373
N3g:_ScrollRect_set_inertia_m2575649134
Drf:_BinaryReader_ReadBoolean_m2892291883
yvh:__ZN15dense_hashtableINSt3__24pairIK10KeyWrapperIPK22Il2CppGenericParameterEP11Il2CppClassEES6_N6il2cpp5utils11PointerHashIS4_EEN14dense_hash_mapIS6_S9_SE_NS6_14EqualsComparerINS0_8equal_toIS5_EEEENS0_9allocatorISA_EEE9SelectKeyESJ_SL_E14squash_deletedEv
KBb:__ZNSt3__26__treeINS_12__value_typeIN4core12basic_stringIcNS2_20StringStorageDefaultIcEEEE4PPtrI6ObjectEEENS_19__map_value_compareIS6_SA_NS_4lessIS6_EELb1EEE13stl_allocatorISA_L18MemLabelIdentifier51ELi16EEE7destroyEPNS_11__tree_nodeISA_PvEE
fEj:__Z139RuntimeInvoker_Void_t1841601450_IntPtr_t_Rect_t3681755626_RuntimeObject_SByte_t454417549_SByte_t454417549_SByte_t454417549_SByte_t454417549PFvvEPK10MethodInfoPvPS4_
xTh:__ZN6il2cpp6icalls8mscorlib6System9Threading6Thread22CurrentThread_internalEv
NQd:__ZN21PxsParallelSolverTaskD0Ev
B4b:__ZZL23RegisterLightPropertiesR22GenericPropertyBindingEN18Wrapper_LightRange13SetFloatValueEPvf
M5k:_InternalEnumerator_1_Dispose_m1064404287_AdjustorThunk
UIa:__ZNSt3__26vectorI27ComputeShaderBuiltinSamplerNS_9allocatorIS1_EEE21__push_back_slow_pathIKS1_EEvRT_
NVf:_TlsServerCertificate_validateCertificates_m1988583701
mDj:__Z78RuntimeInvoker_Boolean_t3825574718_PlayableHandleU26_t4210769902_RuntimeObjectPFvvEPK10MethodInfoPvPS4_
Ikh:_Uri__ctor_m3927533881
k7j:__ZL61DllImportAttribute_t3000813225_CustomAttributesCacheGeneratorP21CustomAttributesCache
Gmj:__Z66RuntimeInvoker_Int32_t2071877448_RuntimeObject_Int32U26_t455636984PFvvEPK10MethodInfoPvPS4_
h0:__ZNK9Transform18TransformDirectionERK8Vector3f
CUd:__ZN5physx21PxsBodyTransformVault6updateEv
vSa:__ZNK17ArchiveFileSystem12GetAssetGUIDERK13FileEntryData
eYb:__ZNSt3__26vectorIN9ShaderLab20SerializedSubProgram15MatrixParameterENS_9allocatorIS3_EEE21__push_back_slow_pathIKS3_EEvRT_
JSj:_GUILayoutEntry_SetHorizontal_m1828181654
bVl:_emscripten_glClearStencil__wrapper
vCc:__ZL29GeomMTDCallback_CapsuleConvexRN5physx6PxVec3ERfRKNS_10PxGeometryERKNS_11PxTransformES5_S8_
vLj:__Z60RuntimeInvoker_Void_t1841601450_ResourceCacheItem_t333236149PFvvEPK10MethodInfoPvPS4_
i2k:_EqualityComparer_1_get_Default_m1852501307_gshared
TBh:__ZN15dense_hashtableINSt3__24pairIK10KeyWrapperIPK11Il2CppClassEPKcEES6_N6il2cpp5utils11PointerHashIS3_EEN14dense_hash_mapIS6_S9_SE_NS6_14EqualsComparerINS0_8equal_toIS5_EEEENS0_9allocatorISA_EEE9SelectKeyESJ_SL_E12resize_deltaEjj
$Il:__ZNK10__cxxabiv120__si_class_type_info27has_unambiguous_public_baseEPNS_19__dynamic_cast_infoEPvi
Elf:_NumberFormatInfo_get_PercentNegativePattern_m1162448153
E8j:__ZL56SyncHashtable_t1343674558_CustomAttributesCacheGeneratorP21CustomAttributesCache
mNl:_glTexSubImage3D__wrapper
S6f:_FactoryCache_Add_m2602974721
LGa:__Z30AddDefaultStreamsToMeshBuffersR9GfxDeviceR11MeshBuffersj17ShaderChannelMaskS3_
f7:__ZL16GetInterfaceImpl18UnityInterfaceGUID
Plf:_RegionInfo_construct_internal_region_from_name_m3316088619
Bwh:__ZN6il2cpp2vmL17SetupFieldOffsetsENS0_15FieldLayoutKindEP11Il2CppClassjRKNSt3__26vectorIjNS4_9allocatorIjEEEE
A6i:_Collection_1_GetEnumerator_m2816357893_gshared
Rvk:__ZL105RectTransform_t3349966182_CustomAttributesCacheGenerator_RectTransform_INTERNAL_get_anchorMin_m3180545469P21CustomAttributesCache
gTi:_List_1_System_Collections_IList_get_Item_m936612973_gshared
r4h:__ZN6il2cpp6icalls8mscorlib6System15MonoCustomAttrs27GetCustomAttributesInternalEP12Il2CppObjectP20Il2CppReflectionTypeb
czc:__ZN8JSONRead21TransferSTLStyleArrayI13dynamic_arrayI8Vector3fLj4EEEEvRT_18MemLabelIdentifier17TransferMetaFlags
GEa:__Z24PluginsSetGraphicsDevicePvi18GfxDeviceEventType
Heg:_ObjectReader_ReadAssembly_m869834280
LAc:__ZNK5physx3Cct13BoxController11getPositionEv
wra:__ZN14PreloadManager35WaitForAllAsyncOperationsToCompleteEv
zld:__ZN5physx14NpRigidDynamicC2ERKNS_11PxTransformE
Aij:_ReadOnlyCollection_1_System_Collections_IList_get_Item_m1831743662_gshared
yBg:_EnumBuilder_GetPropertyImpl_m2717304076
iGc:__Z27sweepCCTBox_HeightFieldGeomRKN5physx10PxGeometryERKNS_11PxTransformERKNS_2Gu3BoxERKNS_6PxVec3EfRNS_10PxSweepHitENS_7PxFlagsINS_9PxHitFlag4EnumEtEEf
mgi:_ExecuteEvents_Execute_m1617536317
n7g:_Text_get_cachedTextGeneratorForLayout_m1357670532
LL:__ZL31InitializeAudioScriptingClassesv
FXa:__Z14SortGUIByDepthP10GUIElementS0_
Bof:_NumberFormatter_NumberToString_m126384393
kRl:_emscripten_glVertexAttrib4fv__wrapper
l7:__ZN13RuntimeStaticI13dynamic_arrayIPK31TransferFunctionScriptingTraitsLj4EELb0EE16StaticInitializeEPv
Efh:_LogicalCallContext__ctor_m3173272863
$C:__ZN12_GLOBAL__N_120ProcessRootMotionMixER33AnimationPlayableEvaluationOutputR35AnimationPlayableEvaluationConstantR32AnimationPlayableEvaluationInputS1_f
dCc:__ZN5physx3Cct9SweepTest18updateTouchedGeomsEPKNS0_30InternalCBData_FindTouchedGeomERKNS0_13UserObstaclesERKNS_17PxExtendedBounds3ERKNS_19PxControllerFiltersERKNS_6PxVec3E
Nyf:_MonoCustomAttrs__cctor_m2608447972
oof:_Int32_FindSign_m3803672540
JRk:_Enumerator_System_Collections_IEnumerator_Reset_m70453843_AdjustorThunk
yUj:_GUISkin_get_scrollView_m2941173958
t6d:_PxCloseExtensions
aIj:__Z95RuntimeInvoker_Void_t1841601450_ObjectU5BU5DU26_t3223402458_Int32_t2071877448_Int32_t2071877448PFvvEPK10MethodInfoPvPS4_
Lea:__ZNK20LocalFileSystemPosix21GetAvailableDiskSpaceEPKcRy
dda:__ZNSt3__26__treeIiNS_4lessIiEENS_9allocatorIiEEE7destroyEPNS_11__tree_nodeIiPvEE
tvl:_Predicate_1__ctor_m2995226103_gshared
FRf:_CipherSuite_InitializeCipher_m229247572
z3f:_X509Certificate2__ctor_m1095336775
sAa:__ZNK9GfxDevice14GetWorldMatrixEv
$Hg:_MonoProperty_GetGetMethod_m1100580870
AZk:_Dictionary_2__ctor_m1950568359_gshared
m3h:__ZN15dense_hashtableINSt3__24pairIK10KeyWrapperIPK19Il2CppGenericMethodEP10MethodInfoEES6_N6il2cpp8metadata23Il2CppGenericMethodHashEN14dense_hash_mapIS6_S9_SD_NS6_14EqualsComparerINSC_26Il2CppGenericMethodCompareEEENS0_9allocatorISA_EEE9SelectKeyESH_SJ_E13set_empty_keyERKSA_
Y6a:__Z19scripting_array_new17ScriptingClassPtrjj
BP:__ZN11SoundHandle13CreateChannelEb
$rj:__Z90RuntimeInvoker_Void_t1841601450_IntPtr_t_Int32_t2071877448_RuntimeObject_Int32_t2071877448PFvvEPK10MethodInfoPvPS4_
qrb:__ZN14SafeBinaryRead21TransferSTLStyleArrayI13dynamic_arrayI12LightmapDataLj4EEEEvRT_17TransferMetaFlags
sMf:_ArgumentException__ctor_m3312963299
qVb:__ZNSt3__26vectorIN9ShaderLab20SerializedSubProgram16TextureParameterENS_9allocatorIS3_EEE6assignIPS3_EENS_9enable_ifIXaasr21__is_forward_iteratorIT_EE5valuesr16is_constructibleIS3_NS_15iterator_traitsISA_E9referenceEEE5valueEvE4typeESA_SA_
Bhj:_ReadOnlyCollection_1_get_Item_m1696267180_gshared
xAh:__ZN13Il2CppHashMapIN6il2cpp5utils13dynamic_arrayIPK10Il2CppTypeLj4EEEPFvvENS0_8metadata19Il2CppSignatureHashENS9_22Il2CppSignatureCompareENSt3__29allocatorINSC_4pairIK10KeyWrapperIS6_ES8_EEEEEC2EjRKSA_RKSB_
$hc:__Z51Quaternion_CUSTOM_INTERNAL_CALL_Internal_ToEulerRadRK11QuaternionfR8Vector3f
qPh:__ZN15dense_hashtableINSt3__24pairIK10KeyWrapperIPK22Il2CppGenericParameterEPK24MonoGenericParameterInfoEES6_N6il2cpp5utils11PointerHashIS4_EEN14dense_hash_mapIS6_SA_SF_NS6_14EqualsComparerINS0_8equal_toIS5_EEEENS0_9allocatorISB_EEE9SelectKeyESK_SM_E15set_deleted_keyERKSB_
kAk:__ZL113AnimatorControllerPlayable_t1744083903_CustomAttributesCacheGenerator_AnimatorControllerPlayable_Play_m1490151611P21CustomAttributesCache
c8k:_InternalEnumerator_1_System_Collections_IEnumerator_Reset_m2726857860_AdjustorThunk
XZb:__ZN6prcoreL11inner_clearILj2EEEvPhjjj
WCk:__ZL124GUILayoutUtility_t996096873_CustomAttributesCacheGenerator_GUILayoutUtility_INTERNAL_CALL_Internal_GetWindowRect_m3236664463P21CustomAttributesCache
v6f:_X509SubjectKeyIdentifierExtension__ctor_m3887138480
BPi:_Enumerator_System_Collections_IEnumerator_get_Current_m2853089017_AdjustorThunk
Efd:__ZNK5physx2Sc9ClothCore20getNbCollisionPlanesEv
qh:_emscripten_exit_fullscreen
Zyd:__ZN5physx6shdfnd5ArrayINS_9PxBounds3ENS0_15InlineAllocatorILj192ENS0_19ReflectionAllocatorIS2_EEEEE8recreateEj
sHd:__ZNK5physx23PxsBroadPhaseContextSap7getTypeEv
IWd:__ZNK5physx13GuMeshFactory17getNbHeightFieldsEv
eti:_InputField_get_mesh_m3276583786
Kah:_GCHandle_Free_m1639542352_AdjustorThunk
xUf:_Context_set_ClientRandom_m631392719
o0h:__ZN6il2cpp6icalls8mscorlib6System6String19InternalAllocateStrEi
Yyc:__Z29Transfer_Blittable_ArrayFieldI8JSONRead11QuaternionfEvRT_R9ArrayInfoRK23StaticTransferFieldInfo
jek:__ZL65SoapParameterAttribute_t2780084514_CustomAttributesCacheGeneratorP21CustomAttributesCache
VBd:__ZNK5physx2Gu12OBBAABBTestsILb1EEclENS_6shdfnd3aos5Vec3VES5_
ifc:__Z45Register_UnityEngine_Camera_get_targetDisplayv
E3b:__ZNK24RendererAnimationBinding15GenerateBindingERKN4core12basic_stringIcNS0_20StringStorageDefaultIcEEEEbRN11UnityEngine9Animation14GenericBindingE
Akb:__Z15GetFlareManagerv
P_b:__ZN15ApplicationInfo24GetApplicationIdentifierEv
yBc:__ZN5physx3Cct9SweepTestD2Ev
ogb:__ZN9Behaviour8TransferI18StreamedBinaryReadILb0EEEEvRT_
fA:__ZN8Animator13GetAvatarRootEv
WYg:_ControllerColliderHit_get_transform_m3183428555
MKc:__ZN26IntersectAnyVsMeshCallbackILi0ELb0EED2Ev
pFl:___toread
iY:__ZN19CloudServiceHandler10QueueEventEPN11UnityEngine15CloudWebService14CloudEventInfoE
CJl:___cxa_is_pointer_type
hti:_InputField_get_shouldHideMobileInput_m3694613599
bD:__ZN7mecanim9animation16EvaluateAvatarDXEPKNS0_14AvatarConstantEPKNS0_11AvatarInputEPNS0_12AvatarMemoryEPNS0_15AvatarWorkspaceEPNS0_12AvatarOutputE
_Ja:__ZN4gles20DestroyRenderSurfaceEP7ApiGLESP17RenderSurfaceGLES
APi:_Enumerator_System_Collections_IEnumerator_get_Current_m2853089017_gshared
Zlc:__Z34Transform_CUSTOM_SetAsFirstSiblingP12Il2CppObject
kKh:__ZNK15dense_hashtableINSt3__24pairIK10KeyWrapperINS1_IPK14Il2CppAssemblyP11Il2CppClassEEEjEES9_17ReflectionMapHashIS8_EN14dense_hash_mapIS9_jSD_NS9_14EqualsComparerINS0_8equal_toIS8_EEEENS0_9allocatorISB_EEE9SelectKeyESI_SK_E10test_emptyEj
qFc:__ZN12_GLOBAL__N_141SphereMeshContactGenerationCallback_ScaleD0Ev
pMc:__ZN5physx3Cct17CapsuleController16setContactOffsetEf
KRi:_Enumerator_get_Current_m827571811_AdjustorThunk
oBk:__ZL62Font_t4239498691_CustomAttributesCacheGenerator_textureRebuiltP21CustomAttributesCache
Wna:__ZN17PersistentManager40GlobalToLocalSerializedFileIndexInternalERK26SerializedObjectIdentifier
yV:__ZN11UnityEngine15CloudWebService17SessionEventQueue14ParseEventDataERKN4core12basic_stringIcNS2_20StringStorageDefaultIcEEEE
QXg:_Color__ctor_m3811852957_AdjustorThunk
eDf:_SimpleCollator_CompareOrdinal_m2176988387
lGk:__ZL47Rect_t3681755626_CustomAttributesCacheGeneratorP21CustomAttributesCache
Ahf:_CCGregorianCalendar_GetYear_m1289900195
Q6c:__ZN12GeomQueryAnyIN5physx10PxSweepHitEE7geomHitERKNS0_2Sq17SceneQueryManagerERKNS0_15MultiQueryInputERKNS3_9ShapeDataERKNS0_10PxGeometryERKNS0_11PxTransformENS0_7PxFlagsINS0_9PxHitFlag4EnumEtEEjPS1_fbPNS0_9PxBounds3E
zof:_Int16_ToString_m2592645088
XEa:__ZN13TranslateGLES4InitERK12GraphicsCaps16GfxDeviceLevelGL
JSb:__Z29Transfer_Blittable_ArrayFieldI18StreamedBinaryReadILb0EE10ColorRGBAfEvRT_R9ArrayInfoRK23StaticTransferFieldInfo
AEc:__ZN43CapsuleHeightfieldContactGenerationCallback7onEventEjPj
mT:__Z60AudioClipPlayable_CUSTOM_INTERNAL_CALL_GetPauseDelayInternalR9HPlayable
k4d:__ZThn4_N12MemoryStream4readEPvj
egg:_SerializationInfoEnumerator_Reset_m2206466680
rnc:__ZN18CrashReportManager12CloseServiceEv
GPl:_emscripten_glGetShaderPrecisionFormat__wrapper
rye:__Z32CustomEventData_CUSTOM_AddUInt32P12Il2CppObjectP12Il2CppStringj
JCk:__ZL78Event_t3028476042_CustomAttributesCacheGenerator_Event_get_keyCode_m3364681288P21CustomAttributesCache
YBl:_GenericEqualityComparer_1_Equals_m1934771410_gshared
P8j:__ZL57DebuggingModes_t2073970606_CustomAttributesCacheGeneratorP21CustomAttributesCache
z8i:_Collection_1_System_Collections_IList_get_IsFixedSize_m993584401_gshared
wCb:__ZNSt3__26vectorIN30RuntimeInitializeOnLoadManager15ClassMethodInfoE13stl_allocatorIS2_L18MemLabelIdentifier12ELi16EEE8__appendEj
J1b:__ZN13ProduceHelperI10TagManagerLb0EE7ProduceE18MemLabelIdentifier18ObjectCreationMode
gpd:__ZN5physx6shdfnd8internal8HashBaseIPNS_13NpVolumeCacheES4_NS0_4HashIS4_EENS1_11HashSetBaseIS4_S6_NS0_9AllocatorELb0EE6GetKeyES8_Lb0EE15reserveInternalEj
_bi:__ZN6il2cpp2os6Memory12AlignedAllocEjj
S9c:__ZN5physx6shdfnd8internal8HashBaseIPKNS_6PxBaseES5_NS0_4HashIS5_EENS1_11HashSetBaseIS5_S7_NS0_9AllocatorELb0EE6GetKeyES9_Lb0EE6createERKS5_Rb
ZFd:__ZN5physx28solveFrictionCoulombPreBlockEPKNS_23PxcSolverConstraintDescEjRNS_16PxcSolverContextE
T5h:__ZN6il2cpp8metadataL7CompareEPK10Il2CppTypeS3_
GJb:__Z18Transfer_BlittableI17RemapPPtrTransferLb0E11ColorRGBA32EvRK29SerializationCommandArgumentsR31RuntimeSerializationCommandInfo
Azg:_TypeBuilder_get_is_created_m736553860
hRj:_GameObject_set_layer_m2712461877
kQf:_RSAManaged__ctor_m1370411656
eRb:__Z18Transfer_BlittableI18StreamedBinaryReadILb0EELb1E10ColorRGBAfEvRK29SerializationCommandArgumentsR31RuntimeSerializationCommandInfo
mpb:__ZN12CubemapArray23VirtualRedirectTransferER17RemapPPtrTransfer
ecc:__ZL27GetComponentsImplementationILb0ELi0EEbR10GameObjectbRK17CompareParametersRK39GetComponentsImplementation_ReturnValue
M1f:_WebHeaderCollection_GetObjectData_m3940120977
LDb:__ZN9Scripting36IsSystemCollectionsGenericDictionaryE17ScriptingClassPtr
h2g:_Raycast3DCallback_EndInvoke_m3234280377
mjh:_BalancingGroup__ctor_m2474435406
A5c:__ZN5physx12NpConstraint12actorDeletedEPNS_12PxRigidActorE
Imi:_ColorTweenCallback__ctor_m3619686788
f5:__ZL16ReadTypeTreeImplILb0EEbR8TypeTreeRK16TypeTreeIteratorRPKhS6_i
Mjc:__Z28PlayableOutputValidityChecksRK15HPlayableOutput
Wy:__ZN27AnimationLayerMixerPlayable16SetLayerMaskCopyEjRKN7mecanim6bitsetILj70EEEPKNS0_8skeleton12SkeletonMaskE
fth:__ZL25UnresolvedVirtualCall_152P12Il2CppObject38CustomAttributeNamedArgument_t94157543S1_PK10MethodInfo
kQc:__ZN5physx2Sc8ShapeSim18reinsertBroadPhaseEv
$nb:__ZNK22BuiltinResourceManager21GetResourceInstanceIDEPKN5Unity4TypeERKN4core12basic_stringIcNS4_20StringStorageDefaultIcEEEE
NCa:__ZN9GfxDevice15BeginFrameStatsEv
sgc:__Z42Register_UnityEngine_RectOffset_set_bottomv
F_e:_ArrayListWrapper_IndexOf_m3574835167
vqc:__Z28GUIStyleState_CUSTOM_CleanupP12Il2CppObject
PG:__Z92Register_UnityEngine_Animations_AnimationClipPlayable_INTERNAL_CALL_GetAnimationClipInternalv
e_a:__ZN28LightProbeProxyVolumeContext8CopyFromERKS_
sWi:_List_1_Remove_m2660527978_gshared
Aki:_U3COnFinishSubmitU3Ec__Iterator0_System_Collections_Generic_IEnumeratorU3CobjectU3E_get_Current_m1823105495
bXj:_GUIUtility_TakeCapture_m3115231813
B6a:__ZN23TransformChangeDispatch32QueueTransformChangeIfHasChangedER18TransformHierarchy
yKe:_SymmetricAlgorithm_get_FeedbackSize_m544664262
_2a:__ZN18DeferredRenderLoop15RenderFinalPassEP13RenderTextureS1_
$Ja:__ZN7ApiGLES18DeleteRenderbufferERj
WTc:__ZN5physx6shdfnd5ArrayIPvNS0_15InlineAllocatorILj256ENS0_19ReflectionAllocatorINS_16NpConnectorArrayEEEEEE15growAndPushBackERKS2_
PIa:__ZL23ProgramUniformMatrix4fvPK7ApiGLESjiihPKv
Aza:__ZN7ApiGLES13CreateTextureEjj14GraphicsFormatiiiii
f4b:__ZN13ProduceHelperI11LightProbesLb0EE7ProduceE18MemLabelIdentifier18ObjectCreationMode
mHj:__Z41RuntimeInvoker_SelectionState_t3187567897PFvvEPK10MethodInfoPvPS4_
GJd:__ZN5physx14SingleAABBTaskC2Ev
bcl:_InternalEnumerator_1_MoveNext_m3629145604_gshared
_Ub:__ZN9ShaderLab20SerializedSubProgram15MatrixParameter8TransferI14SafeBinaryReadEEvRT_
Mmj:__Z51RuntimeInvoker_Int32_t2071877448_Single_t2076509932PFvvEPK10MethodInfoPvPS4_
lof:_Int32_Parse_m124693431
gcc:__ZL27GetComponentsImplementationILb0ELi1EEbR10GameObjectbRK17CompareParametersRK39GetComponentsImplementation_ReturnValue
vpe:_Round_Down_To_Grid
cng:_UTF8Decoder__ctor_m1460357288
Oja:__ZN13RenderTexture7ReleaseEv
Yxb:__ZN10MeshFilter23VirtualRedirectTransferER14SafeBinaryRead
ehh:_PatternCompiler_EmitBranchEnd_m3390109636
Y4e:_Convert_ToByte_m1201588964
gyb:__ZN12MeshRenderer17MainThreadCleanupEv
iec:__Z36AsyncOperation_Get_Custom_PropIsDoneP12Il2CppObject
HMa:__ZN22CreateGpuProgramOutput12CreateParamsEv
Fgg:_RuntimeMethodHandle_GetHashCode_m2682236001_AdjustorThunk
r2c:__ZNK5physx18NpArticulationLink11getChildrenEPPNS_18PxArticulationLinkEj
Hbh:_ActivationServices_AllocateUninitializedClassInstance_m3410698501
VIh:__ZNSt3__26vectorIiNS_9allocatorIiEEE21__push_back_slow_pathIiEEvOT_
qGj:__Z45RuntimeInvoker_HorizontalWrapMode_t2027154177PFvvEPK10MethodInfoPvPS4_
PEa:__ZNK14GfxContextGLES13GetDefaultFBOEv
uzi:_Array_InternalArray__ICollection_Remove_TisSByte_t454417549_m2474211570_gshared
Ksi:_Image_AddQuad_m1600600902
$Rd:__Z15atomIntegrationfPKPN5physx11PxsBodyCoreEPKPNS_12PxsRigidBodyEjPKNS_2Cm13SpatialVectorEPNS_13PxcSolverBodyEPNS_17PxcSolverBodyDataEPS9_RjSH_
tga:__ZN14GraphicsHelper5ClearE13GfxClearFlagsRK10ColorRGBAffjR17ShaderPassContext
Crl:_BasicPistol__ctor_m3786906504
lod:__ZN5physx13NpRigidStatic11createShapeERKNS_10PxGeometryEPKPNS_10PxMaterialEtNS_7PxFlagsINS_11PxShapeFlag4EnumEhEE
D8b:__Z13GetImagePixelI10ColorRGBAfET_PKhii13TextureFormat15TextureWrapModeS5_ii
hHh:_il2cpp_class_is_enum
SSh:__ZN6il2cpp2vm6Thread49CheckCurrentThreadForInterruptAndThrowIfNecessaryEv
Xla:__ZNSt3__23mapIN9ShaderLab16FastPropertyNameEN18UnityPropertySheet11UnityTexEnvENS_4lessIS2_EENS_9allocatorINS_4pairIKS2_S4_EEEEEixERS9_
Bza:__ZNK13TranslateGLES25GetTextureTargetDimensionEj
MBf:_Locale_GetText_m1954433032
YXc:__ZN5physx11NpAggregate22removeActorAndReinsertERNS_7PxActorEb
fui:_InputField_SetToCustom_m250029371
BZd:__ZZL19ExtractHullPolygonsRjRN5physx2Gu9ContainerERKNS0_17ConvexHullBuilderEPS2_S3_EN5Local9FloodFillES3_PKNS0_11AdjTriangleEjPb
c9i:_Collection_1_System_Collections_IList_Contains_m1897568526_gshared
PBg:_FieldBuilder_get_FieldType_m2267463269
OUe:_SimpleEnumerator_Clone_m3032847657
_gh:_PatternCompiler_EmitInfo_m597931026
BNf:_ModulusRing_Multiply_m3113924743
nlc:__Z47Texture2D_CUSTOM_INTERNAL_CALL_GetPixelBilinearP12Il2CppObjectffR10ColorRGBAf
$te:__ZZN2UI6Canvas15InitializeClassEvEN39FunctorImpl_1413kCanvasHierarchyChanged4CallEPviR11MessageData
kUf:_Context_get_ServerSettings_m225713600
pj:_emscripten_glVertexAttrib4f
PQi:_Enumerator_System_Collections_IEnumerator_get_Current_m3461301268_AdjustorThunk
JAj:__Z40RuntimeInvoker_PlayableOutput_t988259697PFvvEPK10MethodInfoPvPS4_
mwl:_InvokableCall_1_remove_Delegate_m3576859071_gshared
odj:_ReadOnlyCollection_1_System_Collections_IEnumerable_GetEnumerator_m531171980_gshared
Iae:__ZL28RegisterModuleICalls_Physicsv
OXb:__ZNSt3__26vectorIN20GpuProgramParameters14ConstantBufferENS_9allocatorIS2_EEE8__appendEj
sKi:_Array_Sort_TisUILineInfo_t3621277874_m3105833015_gshared
Uo:FUNCTION_TABLE_vf
vAf:_MonoType_GetGenericArguments_m2708198481
LYa:__ZN11HaloManager21ReleaseGeometryJobMemEP25DynamicVBOGeometryJobData
mTi:_List_1_AddEnumerable_m2489692396_gshared
G_c:__ZN5physx14NpArticulation26setMaxProjectionIterationsEj
HNc:__ZN5physx3Cct15ObstacleContext14removeObstacleEj
gBk:__ZL93TextGenerator_t647235000_CustomAttributesCacheGenerator_TextGenerator_Dispose_cpp_m1755131202P21CustomAttributesCache
mrl:_WaitForSecondsRealtime__ctor_m1734539010
vng:_WaitHandle__ctor_m1256161634
gy:__ZN7mecanim12statemachine24CreateStateMachineMemoryEPKNS0_20StateMachineConstantERNS_6memory9AllocatorE
eVk:_Enumerator_get_Current_m419581838_AdjustorThunk
SCa:__ZN9GfxDevice18SetGlobalDepthBiasEff
_Sj:_GUILayoutUtility_get_spaceStyle_m1918520192
wEh:__ZN6il2cpp6icalls8mscorlib6System8MonoType12get_AssemblyEP20Il2CppReflectionType
SRf:_TlsStream_Write_m3425460533
g3k:_EqualityComparer_1__cctor_m3664711181_gshared
p8d:__ZN15CapsuleCollider9SetCenterERK8Vector3f
c7f:_Group_get_Success_m2001463544
HNe:_SecurityException_get_PermissionType_m3543350822
Cj:_emscripten_glGetPointerv
Mld:__ZNK5physx15NpActorTemplateINS_14PxRigidDynamicEE13getActorFlagsEv
SC:__ZN8Animator22ApplyBuiltinRootMotionEv
aZh:__ZN15dense_hashtableI10KeyWrapperIP18Il2CppGenericClassES3_N6il2cpp8metadata22Il2CppGenericClassHashEN14dense_hash_setIS3_S6_NS3_14EqualsComparerINS5_25Il2CppGenericClassCompareEEENSt3__29allocatorIS3_EEE8IdentityESA_SD_E5clearEv
_4d:__ZN5physx7profile8ZoneImplINS_28PxProfileNameProviderForwardEE17handleBufferFlushEPKhj
VXc:__ZN5physx2Sc5ActorC2ERNS0_16InteractionSceneEhNS0_14IslandNodeInfo4TypeE
z$c:__ZN5physx21PxcArticulationHelper16prepareDataBlockERNS_9PxcFsDataEPKNS_19PxsArticulationLinkEtPNS_11PxTransformEPNS_12PxcFsInertiaEPNS_30PxcArticulationJointTransformsEj
OWh:__ZN30dense_hashtable_const_iteratorINSt3__24pairIK10KeyWrapperIP14Il2CppIUnknownEjEES5_N6il2cpp5utils11PointerHashIS3_EEN14dense_hash_mapIS5_jSB_NS5_14EqualsComparerINS0_8equal_toIS4_EEEENS0_9allocatorIS7_EEE9SelectKeyESG_SI_EppEv
Dgd:__ZN5physx15NpActorTemplateINS_7PxClothEED2Ev
Y9j:__ZL55StreamReader_t2360341767_CustomAttributesCacheGeneratorP21CustomAttributesCache
EAg:_DerivedType_get_UnderlyingSystemType_m3904230233
fhi:_PointerEventData_get_rawPointerPress_m448871540
gfd:__ZN5physx2Sc9ClothCore16setRestPositionsEPKNS_6PxVec4E
mXa:__Z27ConvertSubMeshesToTrianglesR13dynamic_arrayI7SubMeshLj4EERS_ItLj2EE
apc:__ZN5IMGUI14GUIWindowStateD2Ev
Deb:__ZL13MotionHandleriPK27EmscriptenDeviceMotionEventPv
Z4f:_X509Certificate2Collection__ctor_m819526826
sL:__ZN12AudioManager5ResetEv
TPj:__Z75RuntimeInvoker_RuntimeObject_Single_t2076509932_RuntimeObject_RuntimeObjectPFvvEPK10MethodInfoPvPS4_
OOf:_KeyBuilder_Key_m3814433741
tMf:_ArgumentException__ctor_m158205422
eMe:_SecurityElement_Unescape_m1089723634
FCi:_Array_compare_TisVector3_t2243707580_m3709184876_gshared
Jri:_HorizontalLayoutGroup_SetLayoutHorizontal_m3237355818
Nqa:__ZN6prcoreL17RemapGenericFloatI17TexFormatRGBAHalf15TexFormatRGHalfEEvPKNS_9InnerInfoE
eej:_ReadOnlyCollection_1_Contains_m2306259645_gshared
dPh:__ZNK15dense_hashtableINSt3__24pairIK10KeyWrapperIPK14Il2CppAssemblyEPK22Il2CppMonoAssemblyNameEES6_N6il2cpp5utils11PointerHashIS4_EEN14dense_hash_mapIS6_SA_SF_NS6_14EqualsComparerINS0_8equal_toIS5_EEEENS0_9allocatorISB_EEE9SelectKeyESK_SM_E10test_emptyEj
v2h:__ZN6il2cpp6icalls8mscorlib6System11Environment20GetWindowsFolderPathEi
xOk:__ZL60AspectRatioFitter_t3114550109_CustomAttributesCacheGeneratorP21CustomAttributesCache
Sw:__ZN7mecanim5human18HumanPoseBlendNodeERNS0_9HumanPoseEPS1_f
lle:_UNITY_FT_RoundFix
XXb:__ZN9ShaderLab20SerializedSubProgram15AddTextureParamEPKcii16TextureDimension
KU:__ZN23CloudWebServicesManager23VirtualRedirectTransferER17RemapPPtrTransfer
SMk:__ZL78MaskableGraphic_t540192618_CustomAttributesCacheGenerator_m_OnCullStateChangedP21CustomAttributesCache
A5i:__ZN21InterfaceFuncInvoker1Ib40CustomAttributeTypedArgument_t1498197914E6InvokeEjP11Il2CppClassP12Il2CppObjectS0_
rGc:__ZNK5physx2Gu15HeightFieldUtil12traceSegmentI24ConvexVsHeightfieldSweepLb0ELb0ELb1EEEvRKNS_6PxVec3ES6_PT_PS5_
BQ:__ZNK18AudioMixerPlayable11DerivesFromE17ScriptingClassPtr
kWd:__ZNK5physx12PxConvexMesh19getConcreteTypeNameEv
iyb:__ZNK12MeshRenderer22GetTypeVirtualInternalEv
SGc:__ZN5physx2Gu19gjkLocalPenetrationINS0_9TriangleVENS0_17ShrunkConvexHullVEEEjRKT_RKT0_RKNS_6shdfnd3aos6FloatVERNSB_5Vec3VESG_SG_RSC_PhSI_Rhb
dQj:_UnityAction_EndInvoke_m2252669283
nAj:__Z36RuntimeInvoker_HideFlags_t1434274199PFvvEPK10MethodInfoPvPS4_
XN:__ZN4FMOD6System17setSoftwareFormatEi17FMOD_SOUND_FORMATii18FMOD_DSP_RESAMPLER
yIc:__ZN5physx2Gu15GJKLocalRayCastERNS0_9TriangleVERNS0_4BoxVERKNS_6shdfnd3aos6FloatVERKNS6_5Vec3VESC_RS7_RSA_SE_fb
OZd:__ZN5physx18AdjacenciesBuilderC2Ev
w_k:_Dictionary_2_System_Collections_ICollection_get_IsSynchronized_m960517203_gshared
iQc:__ZN5physx2Sc13ShapeIterator4initERKNS0_8ActorSimE
oma:__ZN14SafeBinaryRead19TransferSTLStyleMapINSt3__23mapIN4core12basic_stringIcNS3_20StringStorageDefaultIcEEEES7_NS1_4lessIS7_EE13stl_allocatorINS1_4pairIKS7_S7_EEL18MemLabelIdentifier1ELi16EEEEEEvRT_17TransferMetaFlags
fsg:_Type_MakeByRefType_m1323101575
Fte:__ZN2UI6Canvas27UpdateEventIndexesRecursiveERi
EV:__ZN11UnityEngine15CloudWebService16SessionContainer21PrepareDataErrorEventERN4core12basic_stringIcNS2_20StringStorageDefaultIcEEEE
mhe:_UNITY_FT_Outline_New
k3h:__ZNSt3__218uninitialized_copyIPNS_4pairIK10KeyWrapperIPK19Il2CppGenericMethodEP10MethodInfoEESB_EET0_T_SD_SC_
PCk:__ZL85GUI_t4082743951_CustomAttributesCacheGenerator_GUI_set_nextScrollStepTime_m2724006954P21CustomAttributesCache
xDe:__ZN16UploadHandlerRaw13TransmitBytesEPvjj
PNb:__Z19TransferField_ArrayI19StreamedBinaryWriteILb0EE27Converter_SimpleNativeClassI8GUIStyleEEvRK23StaticTransferFieldInfoR31RuntimeSerializationCommandInfoRT0_
t3g:_Scrollbar_SetDirection_m3264558284
gad:__ZN5physx14NpArticulationC2Ev
yda:__ZNK13ScreenManager12GetIsFocusedEv
dQg:_AnimatorControllerPlayable_CrossFade_m1077061813_AdjustorThunk
adg:_RemotingServices_RegisterInternalChannels_m1827304423
cVj:_GUIStyle_get_onNormal_m1675201777
Gs:__ZL32CleanupAnimationScriptingClassesv
ywc:__Z35Transfer_Blittable_FixedBufferFieldI8JSONReadiEvRK29SerializationCommandArgumentsR31RuntimeSerializationCommandInfo
BDh:__ZNSt3__213__vector_baseIN6il2cpp2os19SocketHandleWrapperENS_9allocatorIS3_EEED2Ev
MQ:__ZNK19AudioPlayableOutput11DerivesFromE17ScriptingClassPtr
sUj:_GUISkin_get_verticalScrollbarThumb_m649633186
_zj:__Z66RuntimeInvoker_InternalShaderChannel_t3331827198_Int32_t2071877448PFvvEPK10MethodInfoPvPS4_
_Wj:_GUIStyleState_Cleanup_m705006206
Axj:__Z77RuntimeInvoker_RuntimeObject_Int32_t2071877448_RuntimeObject_SByte_t454417549PFvvEPK10MethodInfoPvPS4_
Lc:invoke_viiffi
Pw:__ZN7mecanim18ValueArrayBlendEndILb0EEEvPKNS_10ValueArrayERKNS_14ValueArrayMaskERKNS_16ValueArrayWeightERS1_
lbb:__ZN13sorted_vectorINSt3__24pairIN4core12basic_stringIcNS2_20StringStorageDefaultIcEEEEPK17MessageIdentifierEEN10vector_mapIS6_S9_NS0_4lessIS6_EENS0_9allocatorISA_EEE13value_compareESF_E10insert_oneERKSA_
bGk:__ZL97SetupCoroutine_t3582942563_CustomAttributesCacheGenerator_SetupCoroutine_InvokeMember_m1481430263P21CustomAttributesCache
RC:__ZNSt3__227__insertion_sort_incompleteIRPFbPKN8Animator11AnimatorJobES4_EPS4_EEbT0_S9_T_
qog:_Thread_GetCachedCurrentUICulture_m5590127
RAj:__Z36RuntimeInvoker_Matrix4x4_t2933234003PFvvEPK10MethodInfoPvPS4_
jpb:__ZNK12CubemapArray20GetRuntimeMemorySizeEv
rql:_Vector3_Dot_m3161182818
$Na:__ZN9GfxDevice5FlushEv
QVb:__Z14resize_trimmedINSt3__26vectorIN9ShaderLab18SerializedPropertyENS0_9allocatorIS3_EEEEEvRT_j
R0i:_List_1_CheckMatch_m4018158235_gshared
urd:__ZN5physx6shdfnd8PoolBaseINS_2Sc9ActorPairENS0_19ReflectionAllocatorIS3_EEE12allocateSlabEv
BBh:__ZN6il2cpp2vm13MetadataCache38GetMethodInfoFromMethodDefinitionIndexEi
eXe:_Byte_System_IConvertible_ToDateTime_m1583041031
bjc:__Z39MonoBehaviour_CUSTOM_GetScriptClassNameP12Il2CppObject
Drh:__ZL24UnresolvedVirtualCall_68P12Il2CppObjectS0_iS0_S0_S0_S0_S0_S0_PK10MethodInfo
Gub:__ZN10VertexData8TransferI24GenerateTypeTreeTransferEEvRT_
xCk:__ZL98CanvasRenderer_t261436805_CustomAttributesCacheGenerator_CanvasRenderer_get_absoluteDepth_m4243141P21CustomAttributesCache
R2h:__ZN13Il2CppHashMapIPK19Il2CppGenericMethodP10MethodInfoN6il2cpp8metadata23Il2CppGenericMethodHashENS6_26Il2CppGenericMethodCompareENSt3__29allocatorINS9_4pairIK10KeyWrapperIS2_ES4_EEEEEC2EjRKS7_RKS8_
BJf:_EncryptedData_get_EncryptionAlgorithm_m1301274243
w2k:_EqualityComparer_1_System_Collections_IEqualityComparer_Equals_m1089835085_gshared
m4a:__ZL10CullLightsRK22SceneCullingParametersR11CullResults
Toi:_Dropdown__cctor_m264401557
fUe:_Array_IndexOf_m2819632474
Tgl:_Comparer_1__cctor_m3996541505_gshared
by:__ZN7mecanim12statemachine20GetBlendTreeConstantERKNS0_13StateConstantEi
xsd:__ZN5physx7NpScene21setDominanceGroupPairEhhRKNS_20PxDominanceGroupPairE
p7b:__Z40GetTemporaryCachePathApplicationSpecificv
$Aa:__ZN9GfxDevice16EndAsyncJobFrameEv
Rsi:_Image_get_minWidth_m1809071077
BNh:__ZNK15dense_hashtableINSt3__24pairIK10KeyWrapperINS1_IPK12PropertyInfoP11Il2CppClassEEEjEES9_17ReflectionMapHashIS8_EN14dense_hash_mapIS9_jSD_NS9_14EqualsComparerINS0_8equal_toIS8_EEEENS0_9allocatorISB_EEE9SelectKeyESI_SK_E10test_emptyERK30dense_hashtable_const_iteratorISB_S9_SD_SM_SI_SK_E
gie:_UNITY_tt_face_load_hhea
jeh:_ContextAttribute_IsNewContextOK_m2186905629
s$g:_PersistentCall__ctor_m2079279187
w4e:_Convert_ToBase64String_m1936815455
wl:___syscall3
nkd:__ZNK5physx15NpActorTemplateINS_16PxParticleSystemEE7getNameEv
zl:___syscall6
tCa:__ZN9GfxDevice15GetNextCPUFenceEv
Bl:___syscall4
ndf:_Decimal_ToString_m759431975
V9i:_Collection_1_System_Collections_IList_get_IsFixedSize_m2204750039_gshared
zki:_ColorBlock_get_fadeDuration_m987725262
KMk:__ZL195U3CMouseDragOutsideRectU3Ec__Iterator1_t2599668326_CustomAttributesCacheGenerator_U3CMouseDragOutsideRectU3Ec__Iterator1_System_Collections_Generic_IEnumeratorU3CobjectU3E_get_Current_m2602955272P21CustomAttributesCache
x_h:__ZN6il2cpp2vm3RCW14QueryInterfaceILb1EEEP14Il2CppIUnknownP15Il2CppComObjectRK10Il2CppGuid
aAc:__ZN27PerformanceReportingManager23VirtualRedirectTransferER14SafeBinaryRead
ZWi:_List_1_AddCollection_m3266731889_gshared
scc:__ZN9Scripting25BroadcastScriptingMessageER10GameObjectPKc18ScriptingObjectPtr
Ql:_emscripten_glShaderBinary
Nog:_DelegatePInvokeWrapper_ThreadStart_t3437517264
aEg:_OpCode_Equals_m3738130494
hTe:_Array_InternalArray__RemoveAt_m1126483634
xVg:_Camera_INTERNAL_CALL_RaycastTry_m1030092423
zea:__ZNK20LocalFileSystemPosix6ExistsERK13FileEntryData
c9k:_InternalEnumerator_1_Dispose_m4038440306_AdjustorThunk
Tvj:__Z21RuntimeInvoker_Guid_tPFvvEPK10MethodInfoPvPS4_
$Vc:__ZN5physx35NpArticulationJointGetBodiesFromScbERNS_3Scb17ArticulationJointERPNS0_4BodyES5_
fv:__ZN7mecanim5human19MaskHasLeftFootGoalERKNS_6bitsetILj70EEE
FVd:__ZNK5physx2Sc15ClothFabricCore16getTetherLengthsEPfj
mKj:__Z101RuntimeInvoker_Int32_t2071877448_RuntimeObject_Color32_t874517518_Int32_t2071877448_Int32_t2071877448PFvvEPK10MethodInfoPvPS4_
_Zj:_Mesh_get_colors32_m4153271224
axe:__Z58Register_UnityEngine_Canvas_GetETC1SupportedCanvasMaterialv
aQb:__ZN17AnimationCurveTplIfE8TransferI18StreamedBinaryReadILb1EEEEvRT_
xbf:_DateTimeOffset_GetHashCode_m3312197462_AdjustorThunk
HAe:__ZN18UnityConnectClientD2Ev
s1f:_ServicePoint_set_UseNagleAlgorithm_m2618011464
Jti:_InputField_get_textComponent_m2074509413
zGh:_il2cpp_set_data_dir
mxd:__ZN5physx2Sc13ConstraintSim8getForceERNS_6PxVec3ES3_
quj:__Z51RuntimeInvoker_Double_t4078015681_Int32_t2071877448PFvvEPK10MethodInfoPvPS4_
Xkh:_Uri_get_IsUnc_m2111738174
Lkk:__ZL79Convert_t2607082565_CustomAttributesCacheGenerator_Convert_ToUInt64_m1691869628P21CustomAttributesCache
Mhb:__ZN16LevelGameManager23VirtualRedirectTransferER19StreamedBinaryWriteILb0EE
Bub:__Z32TransferEnumWithNameForceIntSizeI14SafeBinaryRead16GfxPrimitiveTypeEvRT_RT0_PKc17TransferMetaFlags
Bfl:_DefaultComparer__ctor_m1961329658_gshared
jEg:_ParameterBuilder_get_Attributes_m2421099277
tIj:__Z66RuntimeInvoker_Void_t1841601450_ObjectU26_t597476745_RuntimeObjectPFvvEPK10MethodInfoPvPS4_
lol:_TouchScreenKeyboard_get_done_m406461410
qml:_DataUtility_INTERNAL_CALL_GetPadding_m1621366113
YTj:_GUISkin_get_toggle_m4153935270
fCc:__ZN5physx15PxGeometryQuery18computePenetrationERNS_6PxVec3ERfRKNS_10PxGeometryERKNS_11PxTransformES6_S9_
DEg:_TypeBuilder_IsValueTypeImpl_m1499671481
Sze:__ZN11UnityEngine15PlatformWrapper30GetGraphicsDriverLibraryStringEv
yBk:__ZL51UIVertex_t1204258818_CustomAttributesCacheGeneratorP21CustomAttributesCache
R9d:__ZN5Unity12PhysicsQueryC2Ev
brh:__ZL24UnresolvedVirtualCall_40P12Il2CppObjectS0_PK10MethodInfo
WPf:_EncryptedPrivateKeyInfo_Decode_m1706190306
fRb:__Z18Transfer_BlittableI18StreamedBinaryReadILb0EELb0E4AABBEvRK29SerializationCommandArgumentsR31RuntimeSerializationCommandInfo
GE:__ZN16MecanimAnimation24DeleteAnimatedPropertiesERP26IAnimatedPropertyEvaluator
$sj:__Z42RuntimeInvoker_CspProviderFlags_t105264000PFvvEPK10MethodInfoPvPS4_
OYg:_ControllerColliderHit_t4070855101_marshal_pinvoke
E8e:_Convert_ToUInt16_m1665900934
fDl:_Converter_2_BeginInvoke_m898151494_gshared
Mlf:_RegionInfo__ctor_m2058831971
NUa:__Z14DrawGUITextureRK5RectTIfEP7Texture11ColorRGBA32P8Materiali
u7g:_Text_get_supportRichText_m3291105891
Njl:_RectTransform_GetParentSize_m1571597933
FB:__ZN9BlobWrite8TransferI22OffsetPtrArrayTransferIKN4math7_float4EEEEvRT_PKc17TransferMetaFlags
yNf:_Kernel_DwordMod_m978954867
jja:__ZN15TextureSettings8TransferI24GenerateTypeTreeTransferEEvRT_
igh:_MatchCollection_GetEnumerator_m3516985966
kwc:__ZN9JSONWrite8TransferI4AABBEEvRT_PKc17TransferMetaFlags
qkg:_UTF7Encoding__ctor_m2365939916
wQa:__ZN25MultiBlocksMemoryFileData9SetLengthEy
_ml:_TextGenerationSettings_Equals_m3944651893_AdjustorThunk
m0g:_MatEntry__ctor_m3650167335
MSd:__ZNK18ScBeforeSolverTask7getNameEv
Tpb:__ZNK9Texture2D20GetRuntimeMemorySizeEv
lsg:_TypeInitializationException__ctor_m2993591639
WFd:__ZN5physx14solve1D4_BlockEPKNS_23PxcSolverConstraintDescEjRNS_16PxcSolverContextE
$1k:_EqualityComparer_1__ctor_m3788663378_gshared
Zm:_emscripten_glUniform2iv
Ffk:__ZL46DES_t1353513560_CustomAttributesCacheGeneratorP21CustomAttributesCache
ECc:__ZL33GeomMTDCallback_ConvexHeightFieldRN5physx6PxVec3ERfRKNS_10PxGeometryERKNS_11PxTransformES5_S8_
tZj:_Matrix4x4_ToString_m1982554457_AdjustorThunk
Gee:_UNITY_FT_Outline_Transform
KUj:_SkinChangedDelegate_BeginInvoke_m4259161711
hlc:__Z60Register_UnityEngine_Sprites_DataUtility_Internal_GetMinSizev
Pwh:__ZN6il2cpp2vm5Class10GetMethodsEP11Il2CppClassPPv
IDe:__ZNK25UnityWebRequestJavaScript17GetUploadProgressEv
Z$a:__Z30AddDefaultStreamsToMeshBuffersR9GfxDeviceR11MeshBuffersRK16DrawBuffersRange17ShaderChannelMaskS6_
eKj:__Z86RuntimeInvoker_Int32_t2071877448_Vector2_t2243707579_Vector2_t2243707579_RuntimeObjectPFvvEPK10MethodInfoPvPS4_
KMe:_Hash_GetObjectData_m315532943
EJa:__ZN7ApiGLES17DeleteFramebufferERN2gl6HandleILNS0_10ObjectTypeE9EEES3_
LLa:__ZN15UniformTFMethod13MapBoneBufferEj
hTf:_RecordProtocol_SendAlert_m2816808523
Hse:__ZN2UI14CanvasRendererD2Ev
bLd:__ZN5physx26PxcPCMContactCapsuleConvexERKNS_2Gu13GeometryUnionES3_RKNS_11PxTransformES6_RKfRNS_10PxcNpCacheERNS0_13ContactBufferE
Qwf:_SynchronizedReader_Read_m1399666181
BGg:_MonoEvent_get_Name_m2796714646
kQh:__ZN15dense_hashtableINSt3__24pairIK10KeyWrapperINS1_IPK9EventInfoP11Il2CppClassEEEjEES9_17ReflectionMapHashIS8_EN14dense_hash_mapIS9_jSD_NS9_14EqualsComparerINS0_8equal_toIS8_EEEENS0_9allocatorISB_EEE9SelectKeyESI_SK_E15set_deleted_keyERKSB_
tfa:__Z9SetupArgviPPKc
rLj:__Z53RuntimeInvoker_Void_t1841601450_LabelData_t3712112744PFvvEPK10MethodInfoPvPS4_
MBi:_Array_InternalArray__IEnumerable_GetEnumerator_TisHitInfo_t1761367055_m2486283755_gshared
ytc:__ZN9rapidjson13GenericReaderINS_4UTF8IcEES2_13JSONAllocatorE11ParseObjectILj0ENS_19GenericStringStreamIS2_EENS_15GenericDocumentIS2_S3_S3_EEEEvRT0_RT1_
_We:_Convert_ToBoolean_m2032547942
oUf:_Context_get_SentConnectionEnd_m3114190867
ZYc:__ZN5physx10PxsContext17addParticleSystemEPNS_15PxsParticleDataERKNS_26PxvParticleSystemParameterEb
VWc:__ZN5physx3Scb5Scene13addRigidNoSimINS0_4BodyELb1ELb1EEEvRT_RNS0_13ObjectTrackerE
tgb:__ZN12ImmediatePtrI10GameObjectE8TransferI19StreamedBinaryWriteILb0EEEEvRT_
npb:__ZN12CubemapArray23VirtualRedirectTransferER24GenerateTypeTreeTransfer
Lqh:__ZL24UnresolvedVirtualCall_22P12Il2CppObjectS0_iS0_S0_S0_PK10MethodInfo
L5:__ZN12FileAccessor4OpenER15FileSystemEntry14FilePermission16FileAutoBehavior
Oej:_ReadOnlyCollection_1__ctor_m2364452928_gshared
B1h:__ZN6il2cpp2os9Directory6CreateERKNSt3__212basic_stringIcNS2_11char_traitsIcEENS2_9allocatorIcEEEEPi
KQg:_AnimatorControllerPlayable_Play_m1490151611_AdjustorThunk
kna:__ZN4PPtrI6ShaderE8TransferI18StreamedBinaryReadILb0EEEEvRT_
QHc:__ZL19sweepBoxVsTrianglesjPKN5physx10PxTriangleERKNS_2Gu3BoxERKNS_6PxVec3EfRNS_10PxSweepHitENS_7PxFlagsINS_9PxHitFlag4EnumEtEEbPKj
A6a:__ZN23TransformChangeDispatch32QueueTransformChangeIfHasChangedERK15TransformAccess
Zgi:_PointerEventData_set_clickTime_m3931922487
mX:__ZNSt3__24listIP19CloudServiceHandler13stl_allocatorIS2_L18MemLabelIdentifier86ELi16EEE6removeERKS2_
iSj:_WindowFunction__ctor_m977095815
Mjf:_NumberFormatter_AppendNonNegativeNumber_m629862866
G4d:__ZN9Rigidbody18AddForceAtPositionERK8Vector3fS2_i
KSa:__ZN15ArchiveReadFile5WriteEyPKvPy
E9g:_ResourceInfo__ctor_m2401359321_AdjustorThunk
W1h:__ZN6il2cpp2os26LibraryNamePrefixAndSuffixC2EPKcS3_
C1e:_Hashtable__ctor_m392789568
Ung:_Mutex_CreateMutex_internal_m2352956576
omg:_UTF7Encoding__cctor_m4192443836
brc:__Z31GUIStyle_CUSTOM_SetFontInternalP12Il2CppObjectS0_
B:tempValue
Mcb:__Z29StdTemplateConversionFunctionIaiEbPvR14SafeBinaryRead
yDk:__ZL65GUISkin_t1436893342_CustomAttributesCacheGenerator_m_CustomStylesP21CustomAttributesCache
Qnf:_Int16_System_IConvertible_ToSingle_m3277935657
P1:__Z29scripting_class_from_fullnamePKcS0_S0_
wii:_StandaloneInputModule_get_inputMode_m1415645893
$qk:__ZL97GameObject_t1756533147_CustomAttributesCacheGenerator_GameObject_GetComponentInParent_m1235194528P21CustomAttributesCache
f2g:_Raycast3DCallback_Invoke_m2271859924
By:__ZN26AnimatorControllerPlayable18DeallocateBindingsEv
NCc:__ZN5physx2Gu29ConvexVsMeshContactGeneration20generateLastContactsEv
HTc:__ZNK5physx2Gu22SupportMapRelativeImplINS0_4BoxVEE14doSupportSweepERKNS_6shdfnd3aos5Vec3VE
QQg:_AnimatorControllerPlayable_HasState_m3003093532
LCk:__ZL83Event_t3028476042_CustomAttributesCacheGenerator_Event_set_displayIndex_m3631666901P21CustomAttributesCache
Vie:_UNITY_FT_Stream_ReadAt
uuk:__ZL111Object_t1021602117_CustomAttributesCacheGenerator_Object_DestroyImmediate_m3563317232____allowDestroyingAssets1P21CustomAttributesCache
hid:__ZN5physx2Sc17ParticleSystemSim16getParticleStateEv
SRd:__ZN5physx6shdfnd5ArrayINS_25PxsCompoundContactManagerENS0_19ReflectionAllocatorIS2_EEE8recreateEj
wRk:_Enumerator_get_CurrentKey_m2387752419_AdjustorThunk
DVj:_GUIStyle_get_lineHeight_m2132859383
PI:__Z87Register_UnityEngine_Animations_AnimatorControllerPlayable_INTERNAL_CALL_GetFloatStringv
MAh:__ZN15dense_hashtableINSt3__24pairIK10KeyWrapperIN6il2cpp5utils13dynamic_arrayIPK10Il2CppTypeLj4EEEEPFvvEEESA_NS3_8metadata19Il2CppSignatureHashEN14dense_hash_mapISA_SD_SG_NSA_14EqualsComparerINSF_22Il2CppSignatureCompareEEENS0_9allocatorISE_EEE9SelectKeyESK_SM_E9set_valueEPSE_RKSE_
vfj:_ReadOnlyCollection_1_System_Collections_Generic_IListU3CTU3E_RemoveAt_m2137782652_gshared
jQj:_UnityEvent_FindMethod_Impl_m3303953986
wj:_glReadBuffer
rsg:_UInt16_System_IConvertible_ToBoolean_m887616848
OId:__ZN5physx14PxsAABBManagerC2ERNS_2Cm13EventProfilerERNS_19PxcScratchAllocatorE
opk:__ZL120ScriptableObject_t1975622470_CustomAttributesCacheGenerator_ScriptableObject_Internal_CreateScriptableObject_m1778903390P21CustomAttributesCache
zS:__ZN11AudioModule22CreateAudioClipFromWWWEP10IWWWStreamPKcbbi
elg:_StringBuilder_set_Length_m3039225444
zHj:__Z37RuntimeInvoker_AspectMode_t1166448724PFvvEPK10MethodInfoPvPS4_
O9i:_Collection_1_System_Collections_IList_Contains_m3870109702_gshared
Cyi:_Array_InternalArray__ICollection_Contains_TisRaycastResult_t21186376_m3188614988_gshared
kXk:_Dictionary_2_System_Collections_Generic_ICollectionU3CSystem_Collections_Generic_KeyValuePairU3CTKeyU2CTValueU3EU3E_get_IsReadOnly_m1111602362_gshared
n9e:_CultureAwareComparer_GetHashCode_m3681260951
Due:__Z13RegisterClassIN2UI11CanvasGroupEEvv
Xyl:_U3CStartU3Ec__Iterator0__ctor_m951808111_gshared
ZZb:__ZN6prcoreL11inner_clearILj4EEEvPhjjj
_f:_emscripten_glClear
o2g:_Selectable__ctor_m1440593935
p1a:__ZN15SHConstantCacheC2ER13BatchRendererR15RenderLoopStats
t8h:_GC_initialize_offsets
M9:__ZNK8Playable6HandleEv
zJl:___cxa_guard_abort
a1a:__Z30SetupBakedOcclusionForGeometrybRK26SharedLightmapSettingsDataRK15LightmapIndicesR17ShaderPassContext
Wyg:_CustomAttributeTypedArgument_t1498197914_marshal_pinvoke_back
U3:__ZN14MessageHandler28MessageIDToMessageIdentifierEi
h0f:_HttpRequestCreator_Create_m3607509610
cDk:__ZL50GUISkin_t1436893342_CustomAttributesCacheGeneratorP21CustomAttributesCache
bvb:__ZNK11SpriteAtlas20GetRuntimeRenderDataEPK6Sprite
fsh:__ZL24UnresolvedVirtualCall_98P12Il2CppObject8IntPtr_tPK10MethodInfo
S1i:_List_1_Shift_m3824049528_gshared
Idg:_ArrayFixupRecord__ctor_m3659990982
AUf:_Context_get_RandomCS_m3946020109
T4j:__ZL72IntPtr_t_CustomAttributesCacheGenerator_IntPtr_op_Inequality_m3044532593P21CustomAttributesCache
doi:_Dropdown_get_onValueChanged_m3334401942
iai:__ZN6il2cpp2vm10WaitHandle19NewManualResetEventEb
qpl:_UISystemProfilerApi_EndSample_m2059427490
myg:_Default_ReorderArgumentArray_m3980835731
owg:_Version_GetHashCode_m880841176
sw:__ZN7mecanim14ValueArrayCopyILb0EEEvPKNS_10ValueArrayEPS1_
$Jg:_CustomEventData_Add_m4160204358
xH:__Z51Register_UnityEngine_Animator_get_hasBoundPlayablesv
XDl:_Nullable_1_ToString_m1238126148_AdjustorThunk
pe:emscriptenWebGLGetUniform
Cp:FUNCTION_TABLE_iiiiiiiiiii
UJc:__ZN5physx2Gu19sweepCapsuleCapsuleERKNS0_7CapsuleES3_RKNS_6PxVec3EfRfRS4_S8_jRt
oEd:__ZN5physx2Gu29EPASupportMapPairRelativeImplINS0_9TriangleVENS0_11ConvexHullVEED0Ev
yva:__Z32TransferEnumWithNameForceIntSizeI14SafeBinaryRead13TextureFormatEvRT_RT0_PKc17TransferMetaFlags
kNk:__ZL86Scrollbar_t3248359358_CustomAttributesCacheGenerator_Scrollbar_ClickRepeat_m3403943364P21CustomAttributesCache
V5a:__ZL10CleanUpJobP20CullingGroupsJobData
QYe:_Char_CompareTo_m3044885427_AdjustorThunk
Qsf:_FileStream_GetSecureFileName_m508045384
Y$a:__Z20IsRunningNativeTestsv
dbl:_InternalEnumerator_1_System_Collections_IEnumerator_get_Current_m2035754659_AdjustorThunk
Xxb:__ZN10MeshFilter23VirtualRedirectTransferER24GenerateTypeTreeTransfer
dWd:__ZN5physx13BigConvexData4LoadERNS_13PxInputStreamE
EUa:__ZN13RenderManager15BatchModeUpdateEv
_ul:_Predicate_1_EndInvoke_m973058386_gshared
usk:__ZL52LayerMask_t3188175821_CustomAttributesCacheGeneratorP21CustomAttributesCache
v6i:_Collection_1_Add_m3985367602_gshared
iub:__ZN14SafeBinaryRead21TransferSTLStyleArrayI13dynamic_arrayI8Vector2fLj4EEEEvRT_17TransferMetaFlags
Vna:__ZN17PersistentManager51InstanceIDToLocalSerializedObjectIdentifierInternalEiR31LocalSerializedObjectIdentifier
XIg:_StrongNameKeyPair_System_Runtime_Serialization_IDeserializationCallback_OnDeserialization_m2330221363
c4c:__ZN5physx2Sc8ActorSim24postDominanceGroupChangeEv
zfl:_DefaultComparer__ctor_m1661558765_gshared
HSj:_GUILayoutEntry_CalcWidth_m2520096159
Td:_glVertexAttribIPointer
Ivg:_UnhandledExceptionEventHandler_EndInvoke_m2207457167
iXk:_Dictionary_2_System_Collections_ICollection_get_IsSynchronized_m304009368_gshared
IFe:_HMAC_set_HashName_m457235014
j9b:__ZNK6Sprite10GetPaddingE20SpriteRenderDataMode
W4c:__ZN5physx2Cm8PtrTable5clearERNS0_22PtrTableStorageManagerE
Mxi:_Array_InternalArray__ICollection_Contains_TisTableRange_t2011406615_m605506746_gshared
EXk:_Dictionary_2_Add_m1296007576_gshared
m8e:_Decimal_op_Explicit_m729046406
ENc:__ZN5physx3Cct15ObstacleContext7releaseEv
lqi:_Graphic_OnEnable_m2900261811
AFd:__ZN5physx27solveFrictionBlockWriteBackEPKNS_23PxcSolverConstraintDescEjRNS_16PxcSolverContextEPNS_25PxcThresholdStreamElementEjPi
fig:_CryptographicUnexpectedOperationException__ctor_m3552441227
B_e:_ArrayListWrapper_Clear_m321161741
kvi:_InputField_LineDownCharacterPosition_m2690468785
Uie:_UNITY_ft_glyphslot_alloc_bitmap
wKi:_Array_Sort_TisVector2_t2243707579_TisVector2_t2243707579_m2582252549_gshared
rug:_UInt64_System_IConvertible_ToDouble_m2828923873
Azh:__ZN15dense_hashtableI10KeyWrapperIPK17Il2CppGenericInstES4_N6il2cpp8metadata21Il2CppGenericInstHashEN14dense_hash_setIS4_S7_NS4_14EqualsComparerINS6_24Il2CppGenericInstCompareEEENSt3__29allocatorIS4_EEE8IdentityESB_SE_E16reset_thresholdsEv
O0b:__ZZN2UI13RectTransform15InitializeClassEvEN31FunctorImpl_62kTransformChanged4CallEPviR11MessageData
QYi:_List_1_System_Collections_IList_set_Item_m1129584681_gshared
Yng:_SendOrPostCallback__ctor_m107067079
oke:_ft_raster1_render
ikc:__Z57Register_UnityEngine_RectTransform_INTERNAL_set_anchorMaxv
bqg:_TimeSpan_CompareTo_m4183101766_AdjustorThunk
jIl:__ZNKSt3__221__basic_string_commonILb1EE20__throw_length_errorEv
Clg:_StringBuilder_Insert_m1733097906
Nj:_JS_SystemInfo_GetMemory
Wgl:_Comparer_1__ctor_m1157133632_gshared
XYf:_SslStreamBase_get_HashStrength_m480059173
oKa:__ZN18GfxFramebufferGLES13ReadbackImageER14ImageReferenceiiiiii
OVk:_ValueCollection_System_Collections_Generic_ICollectionU3CTValueU3E_Clear_m3271993638_gshared
Cyj:__Z35RuntimeInvoker_Position_t3781184359PFvvEPK10MethodInfoPvPS4_
h4e:_Enumerator_MoveNext_m1419609883
BM:__ZN4FMOD7Channel19setReverbPropertiesEPK29FMOD_REVERB_CHANNELPROPERTIES
s3:__ZN13MonoBehaviour22GetScriptFullClassNameEv
QHh:_il2cpp_object_get_class
ZRd:__ZN5physx6shdfnd4sortIPNS_15PxsContactPatchENS_27SortBoundsPredicateManifoldENS0_19ReflectionAllocatorIS3_EEEEvPT_jRKT0_RKT1_j
Oah:_GuidAttribute__ctor_m1099153635
Zpl:_Vector2__cctor_m3670745621
Cij:_ReadOnlyCollection_1_Contains_m1816350632_gshared
r0f:_ServicePointManager_FindServicePoint_m3137356168
jua:__ZN20SphericalHarmonicsL211AddWeightedERKS_f
FJk:__ZL106PointerEventData_t1599784723_CustomAttributesCacheGenerator_PointerEventData_set_pressPosition_m2094137883P21CustomAttributesCache
zrd:__ZN5physx2Sc24ElementInteractionMarker12onDeactivateEj
Mhi:_PointerInputModule_GetPointerData_m1695674453
u2g:__Z14bankers_roundff
ctj:__Z90RuntimeInvoker_Void_t1841601450_RuntimeObject_RuntimeObject_RuntimeObject_SByte_t454417549PFvvEPK10MethodInfoPvPS4_
oKb:__Z19TransferField_ArrayI17RemapPPtrTransfer27Converter_SimpleNativeClassI8GUIStyleEEvRK23StaticTransferFieldInfoR31RuntimeSerializationCommandInfoRT0_
P0:__ZL22StaticInitializeShaderPv
i9e:_Convert_ToUInt64_m345450801
_Dl:_Predicate_1_BeginInvoke_m2559992383_gshared
ltc:__ZN9JSONWrite8TransferI10ColorRGBAfEEvRT_PKc17TransferMetaFlags
KZg:_Debug_Log_m920475918
QWh:__ZNK15dense_hashtableINSt3__24pairIK10KeyWrapperIP14Il2CppIUnknownEjEES5_N6il2cpp5utils11PointerHashIS3_EEN14dense_hash_mapIS5_jSB_NS5_14EqualsComparerINS0_8equal_toIS4_EEEENS0_9allocatorIS7_EEE9SelectKeyESG_SI_E10test_emptyERK30dense_hashtable_const_iteratorIS7_S5_SB_SK_SG_SI_E
ZMc:__ZN5physx3Cct26CharacterControllerManager16createControllerERKNS_16PxControllerDescE
O3:__Z25scripting_method_get_name18ScriptingMethodPtr
rkc:__Z35Register_UnityEngine_Resources_Loadv
PIb:__Z19TransferField_ArrayI14SafeBinaryRead16Converter_StringEvRK23StaticTransferFieldInfoR31RuntimeSerializationCommandInfoRT0_
FHl:_rename
v8h:_GC_exit_check
$ol:_Transform_INTERNAL_CALL_TransformDirection_m2899991790
NAf:_NotSupportedException__ctor_m3232764727
H$f:_TypeConverterAttribute_Equals_m2330345916
GDc:__ZNK5physx2Gu15OBBTriangleTest10obbTriTestERKNS_6PxVec3ES4_S4_
ayj:__Z90RuntimeInvoker_Boolean_t3825574718_Int32_t2071877448_Int32U26_t455636984_Int32_t2071877448PFvvEPK10MethodInfoPvPS4_
E3f:_X509Certificate2_get_NotAfter_m3430171627
s2:__Z20UnlockObjectCreationv
uzj:__Z54RuntimeInvoker_Int32_t2071877448_LayerMask_t3188175821PFvvEPK10MethodInfoPvPS4_
Yaf:_DateTime_ToString_m1117481977
qsf:_MonoIO_CreateDirectory_m379525469
yCi:__ZN21InterfaceFuncInvoker2Ii22UILineInfo_t3621277874S0_E6InvokeEjP11Il2CppClassP12Il2CppObjectS0_S0_
wB:__ZN9BlobWrite8TransferI22OffsetPtrArrayTransferI9OffsetPtrIN7mecanim12statemachine18StateMachineMemoryEEEEEvRT_PKc17TransferMetaFlags
vge:_UNITY_ft_smooth_renderer_class_pic_free
A$i:_List_1_System_Collections_IList_Remove_m3763718607_gshared
sUg:_Bounds_get_center_m129401026
RQ:__ZN19AudioPlayableOutput22OnConnectionHashChangeEv
PPe:_String_Concat_m2000667605
uOj:__Z63RuntimeInvoker_KeyValuePair_2_t888819835_IntPtr_t_RuntimeObjectPFvvEPK10MethodInfoPvPS4_
yDh:__ZN6il2cpp2os19SocketHandleWrapperC2ERKS1_
J3h:__ZN6il2cpp2vm6String8NewUtf16EPKDsi
_0h:__ZN6il2cpp2os10ThreadImpl12QueueUserAPCEPFvPvES2_
KJ:__Z32TransferEnumWithNameForceIntSizeI14SafeBinaryReadN10SampleClip17CompressionFormatEEvRT_RT0_PKc17TransferMetaFlags
Oee:__ZN20TextRenderingPrivate15DynamicFontData36GetFaceForCharacterIfAvailableInFontERKNS_7FontRefERKNSt3__26vectorI4PPtrIN13TextRendering4FontEE13stl_allocatorIS9_L18MemLabelIdentifier34ELi16EEEEj
FOc:__ZN5physx12PxControllerD2Ev
nOi:_ExecuteEvents_GetEventHandler_TisRuntimeObject_m3333041576_gshared
UYi:__ZN23InterfaceActionInvoker2IP28UICharInfoU5BU5D_t2749705857iE6InvokeEjP11Il2CppClassP12Il2CppObjectS1_i
nsk:__ZL81Input_t1785128008_CustomAttributesCacheGenerator_Input_get_touchCount_m2050827666P21CustomAttributesCache
zJc:__ZNK5physx2Gu15HeightFieldUtil12traceSegmentI25CapsuleTraceSegmentReportLb0ELb0ELb1EEEvRKNS_6PxVec3ES6_PT_PS5_
gFh:__ZNSt3__26__treeIP11Il2CppClassNS_4lessIS2_EENS_9allocatorIS2_EEE16__insert_node_atEPNS_16__tree_node_baseIPvEERSB_SB_
Plj:__Z50RuntimeInvoker_Int32_t2071877448_Int16_t4041245914PFvvEPK10MethodInfoPvPS4_
kMc:__ZN5physx3Cct17CapsuleController13setStepOffsetEf
Ppe:_UNITY_FT_Hypot
aKd:__ZN5physx10PxsContext23prepareCMDiscreteUpdateEPNS_10PxBaseTaskE
uVe:_BitConverter_ToInt64_m1329623425
v1b:__ZN8RendererC2E12RendererType18MemLabelIdentifier18ObjectCreationMode
nhk:__ZL95ASCIIEncoding_t3022927988_CustomAttributesCacheGenerator_ASCIIEncoding_GetByteCount_m1396020051P21CustomAttributesCache
x4c:__ZN5physx6shdfnd5ArrayIPvNS0_19ReflectionAllocatorINS_2Cm5BlockIhLj256EEEEEE4copyINS0_15InlineAllocatorILj256ES7_EEEEvRKNS1_IS2_T_EE
WIk:__ZL92PointerEventData_t1599784723_CustomAttributesCacheGenerator_U3CpointerDragU3Ek__BackingFieldP21CustomAttributesCache
ig:_emscripten_glGetError
VOh:__ZN15dense_hashtableINSt3__24pairIK10KeyWrapperIPK14Il2CppAssemblyEPK22Il2CppMonoAssemblyNameEES6_N6il2cpp5utils11PointerHashIS4_EEN14dense_hash_mapIS6_SA_SF_NS6_14EqualsComparerINS0_8equal_toIS5_EEEENS0_9allocatorISB_EEE9SelectKeyESK_SM_E14squash_deletedEv
Elj:__Z70RuntimeInvoker_Boolean_t3825574718_RuntimeObject_UInt64U26_t1611942494PFvvEPK10MethodInfoPvPS4_
oN:__Z14FMOD_FILE_SeekPvjS_
J9f:_MethodCall_get_Properties_m1893707917
o5j:__ZL72Enum_t2459695545_CustomAttributesCacheGenerator_Enum_ToObject_m604645223P21CustomAttributesCache
b8c:__ZN5physx6shdfnd8PoolBaseINS_11NpAggregateENS0_19ReflectionAllocatorIS2_EEE15disposeElementsEv
ZSk:_ShimEnumerator_get_Entry_m2387156530_gshared
F5j:__ZL82RuntimeArray_CustomAttributesCacheGenerator_Array_SetValue_m2421438042____indices1P21CustomAttributesCache
EIi:_Array_InternalArray__set_Item_TisContentType_t1028629049_m703420360_gshared
xye:__Z56Register_UnityEngine_Analytics_CustomEventData_AddStringv
Drk:__ZL75Screen_t786852042_CustomAttributesCacheGenerator_Screen_get_dpi_m3345126327P21CustomAttributesCache
s7a:__ZNK13RenderTexture32CalculateNeedsInvertedProjectionEv
sNc:__ZN5physx2Gu17RadixSortBuffered4SortEPKfj
qg:emscriptenWebGLGet
Bil:_Rect_GetHashCode_m559954498_AdjustorThunk
V5:__Z19CanReplaceComponentRN5Unity9ComponentEPKNS_4TypeEPN4core12basic_stringIcNS5_20StringStorageDefaultIcEEEE
E6j:__ZL77RuntimeArray_CustomAttributesCacheGenerator_Array_ConstrainedCopy_m1922927602P21CustomAttributesCache
H2b:__ZN12CubemapArray11InitTextureEiii13TextureFormatb
Ipa:__ZN6prcoreL18BlitIntegerToFloatERK14ImageReferenceRS0_
Nnl:_Texture_INTERNAL_get_texelSize_m3180609662
Mwk:__ZL93Physics_t634932869_CustomAttributesCacheGenerator_Physics_RaycastAll_m410413656____layerMask2P21CustomAttributesCache
Qbc:__Z17GetSceneBuildInfoRKN4core12basic_stringIcNS_20StringStorageDefaultIcEEEEiR14SceneBuildInfo
vPa:__ZNK15Lz4Decompressor20DecompressStreamInitEPPv
NLh:__ZN24dense_hashtable_iteratorINSt3__24pairIK10KeyWrapperIPK10Il2CppTypeEjEES6_N6il2cpp8metadata14Il2CppTypeHashEN14dense_hash_mapIS6_jSB_NS6_14EqualsComparerINSA_26Il2CppTypeEqualityComparerEEENS0_9allocatorIS8_EEE9SelectKeyESF_SH_E30advance_past_empty_and_deletedEv
Z5i:_Collection_1_set_Item_m3803272710_gshared
d_j:_Mesh_SetUVs_m841280343
MHg:_MonoMethodInfo_t3646562144_marshal_pinvoke_cleanup
J3f:_X509Certificate2_get_SignatureAlgorithm_m3069898012
g0f:_HttpRequestCreator__ctor_m2513916021
Wpf:_Int64_System_IConvertible_ToSingle_m1678482180
mWj:_GUIStyle_INTERNAL_CALL_Internal_CalcSizeWithConstraints_m1203344891
dC:__ZN7mecanim5human13HumanFixTwistEPKNS0_5HumanEPNS_8skeleton13SkeletonPoseTIN4math4trsXEEES9_iiRKf
H0a:__ZL24AssignProjectorQueuesJobP30AssignProjectorQueuesJobHeader
Ipg:_TimeSpan_get_Hours_m3804628138
upi:_FontData_set_alignByGeometry_m2819509290
PZh:__ZN14dense_hash_mapI10KeyWrapperIP12Il2CppObjectEN6il2cpp2gc9CachedCCWENS4_5utils11PointerHashIS1_EENS3_14EqualsComparerINSt3__28equal_toIS2_EEEENSB_9allocatorINSB_4pairIKS3_S6_EEEEEC2EjRKS9_RKSE_
rhh:_Regex__ctor_m3250610064
SAh:__ZN15dense_hashtableINSt3__24pairIK10KeyWrapperIN6il2cpp5utils13dynamic_arrayIPK10Il2CppTypeLj4EEEEPFvvEEESA_NS3_8metadata19Il2CppSignatureHashEN14dense_hash_mapISA_SD_SG_NSA_14EqualsComparerINSF_22Il2CppSignatureCompareEEENS0_9allocatorISE_EEE9SelectKeyESK_SM_E4swapERSP_
UXb:__ZN9ShaderLab20SerializedSubProgram14SetConstBufferEPKci
xMf:_ArgumentNullException__ctor_m911049464
dGg:_TargetParameterCountException__ctor_m2760108938
$9d:__ZN13PhysicsModule17SetRigidBodyStateER9RigidbodyRKN8IPhysics14RigidBodyStateE
Dwl:_InvokableCall_4_Find_m1467690987_gshared
lkj:_Comparison_1_Invoke_m345024424_gshared
ome:_cf2_getStdVW
nhj:_ReadOnlyCollection_1_System_Collections_IList_Insert_m3936197025_gshared
Ogf:_EventHandler_BeginInvoke_m3027583606
J_:__Z40DebugStringToFilePostprocessedStacktraceRK21DebugStringToFileData
cBd:__ZN5physx2Sq12BucketPruner11shiftOriginERKNS_6PxVec3E
fyc:__Z29Transfer_Blittable_ArrayFieldI8JSONReadjEvRT_R9ArrayInfoRK23StaticTransferFieldInfo
Fdl:_InternalEnumerator_1__ctor_m3220229132_AdjustorThunk
wWc:__ZN5physx6shdfnd5ArrayIPNS_2Sc16ArticulationCoreENS0_19ReflectionAllocatorIS4_EEE15growAndPushBackERKS4_
Bml:_StateMachineBehaviour_OnStateEnter_m1095276890
F$j:_Object_GetInstanceID_m1920497914
beh:_ContextAttribute__ctor_m4006843177
Fal:_InternalEnumerator_1_get_Current_m314017974_AdjustorThunk
Xg:__setLetterbox
CTi:_List_1_RemoveAll_m1569860525_gshared
joa:__ZNSt3__26__treeINS_12__value_typeIN9ShaderLab16FastPropertyNameEfEENS_19__map_value_compareIS3_S4_NS_4lessIS3_EELb1EEENS_9allocatorIS4_EEE12__find_equalIS3_EERPNS_16__tree_node_baseIPvEENS_21__tree_const_iteratorIS4_PNS_11__tree_nodeIS4_SE_EEiEESH_RKT_
yQd:__ZN5physx19normalizePartitionsERNS_6shdfnd5ArrayIjNS0_19ReflectionAllocatorIjEEEEPNS_23PxcSolverConstraintDescEPKNS_13PxcSolverBodyEjjS5_
vnl:_TextGenerator_Populate_Internal_m1817393161
o8j:__ZL57CollectionBase_t1101587467_CustomAttributesCacheGeneratorP21CustomAttributesCache
BEc:__ZN18ContactCapsuleMesh20processTriangleCacheILj16EEEbRN5physx2Gu13TriangleCacheIXT_EEE
Rwb:__ZNSt3__26vectorI17BlendShapeChannelNS_9allocatorIS1_EEE6assignINS_11__wrap_iterIPS1_EEEENS_9enable_ifIXaasr21__is_forward_iteratorIT_EE5valuesr16is_constructibleIS1_NS_15iterator_traitsISA_E9referenceEEE5valueEvE4typeESA_SA_
swi:_LayoutElement_set_preferredWidth_m3072758716
zxl:_UnityEvent_1_AddListener_m1708363187_gshared
s2f:_AsnEncodedData_ToString_m724151831
cVa:__ZN11TimeManager11GetRealtimeEv
W4i:_Collection_1_System_Collections_IList_get_IsFixedSize_m2408637569_gshared
gng:_UTF8Encoding_GetByteCount_m1469571127
dSc:__ZN5physx2Sc16InteractionScene25removeFromActiveActorListERNS0_5ActorE
YDe:__ZN20UnityWebRequestProtoI19TransportJavaScript16AtomicRefCounter14RedirectHelper14ResponseHelper15DownloadHandler13UploadHandler12HeaderHelper14AsyncOperationE26Job_ExecuteUnityWebRequestEPS8_
BN:__ZN29AudioEffectInternalDefinitionC2EP26UnityAudioEffectDefinitionb
nGg:_MonoMethodInfo_GetDeclaringType_m4186531677
Ibg:_SoapTypeAttribute_SetReflectionObject_m1566293812
W$k:_DefaultComparer__ctor_m418731767_gshared
gE:__ZN4PPtrI6AvatarE8TransferI18StreamedBinaryReadILb0EEEEvRT_
BOc:__ZN5physx3Ext21InertiaTensorComputer6rotateERKNS_7PxMat33E
cCl:_Enumerator_System_Collections_IEnumerator_Reset_m2573763156_AdjustorThunk
edg:_RemotingServices_CreateClientProxy_m1631035355
Xug:_UInt64_ToString_m2892887310
dEk:__ZL88GUIStyle_t1799908754_CustomAttributesCacheGenerator_GUIStyle_set_fixedHeight_m1517737608P21CustomAttributesCache
DPd:__ZN5physx22PxcDiscreteNarrowPhaseERNS_18PxcNpThreadContextERNS_13PxcNpWorkUnitE
dva:_stbir_resize
Y2h:__ZN15dense_hashtableINSt3__24pairIK10KeyWrapperIPK19Il2CppGenericMethodEP10MethodInfoEES6_N6il2cpp8metadata23Il2CppGenericMethodHashEN14dense_hash_mapIS6_S9_SD_NS6_14EqualsComparerINSC_26Il2CppGenericMethodCompareEEENS0_9allocatorISA_EEE9SelectKeyESH_SJ_EC2ERKSM_j
byb:__ZN4PPtrI4MeshE8TransferI14SafeBinaryReadEEvRT_
aLd:__ZN5physx23PxcPCMContactCapsuleBoxERKNS_2Gu13GeometryUnionES3_RKNS_11PxTransformES6_RKfRNS_10PxcNpCacheERNS0_13ContactBufferE
WPa:__Z37ReadDirectoryInfo_UnityWebAndUnityRawR12FileAccessorRKN20ArchiveStorageHeader6HeaderERNS1_13DirectoryInfoE
jBi:_Array_InternalArray__IEnumerable_GetEnumerator_TisInt64_t909078037_m1219751804_gshared
u0:__ZNSt3__26__treeINS_12__value_typeIPKciEENS_19__map_value_compareIS3_S4_15compare_tstringIS3_ELb1EEENS_9allocatorIS4_EEE7destroyEPNS_11__tree_nodeIS4_PvEE
g7j:__ZL96RuntimeTypeHandle_t2330101084_CustomAttributesCacheGenerator_RuntimeTypeHandle_Equals_m452760426P21CustomAttributesCache
MEl:_FieldWithTarget_get_fieldPath_m354282076
uAl:_EqualityComparer_1_System_Collections_IEqualityComparer_Equals_m1960102236_gshared
$_k:_Dictionary_2_ToTValue_m1381983709_gshared
FAf:_MulticastDelegate_KPM_m1592985119
i_j:_MeshCollider_set_sharedMesh_m4192566451
FBj:__Z64RuntimeInvoker_Playable_t1896841784_AudioClipPlayable_t192218916PFvvEPK10MethodInfoPvPS4_
i7i:_Collection_1_ClearItems_m1410275009_gshared
ycj:_Collection_1_ConvertItem_m3941916604_gshared
RZa:__ZN20DynamicPropertySheet14SetValueQueuedEN9ShaderLab16FastPropertyNameEN19ShaderPropertySheet12PropertyTypeEjNS2_8SetFlagsE
qte:__ZN2UI6Canvas26MarkAllNestedCanvasesDirtyEv
aXh:__ZN6il2cpp2vm12ReboxIfBoxedEP14Il2CppIUnknownP11Il2CppClass
kMa:__ZN16GeometryJobTasks20ScheduleGeometryJobsER9GfxDevicePFvP15GeometryJobDataEPK22GeometryJobInstructionjb
fdb:__ZN25PathNamePersistentManagerD2Ev
l2:__ZN17PersistentManager48IntegrateObjectAndUnlockIntegrationMutexInternalEi
Xhj:_ReadOnlyCollection_1_System_Collections_IList_get_IsReadOnly_m3872065502_gshared
Jak:__ZL112TypeBuilder_t3308873219_CustomAttributesCacheGenerator_TypeBuilder_MakeGenericType_m4282022646____typeArguments0P21CustomAttributesCache
Yca:__ZZ29InitializeSortingGroupManagerPvEN44PostLateUpdateSortingGroupsUpdateRegistrator7ForwardEv
Aq:__ZN6Object12SetHideFlagsENS_9HideFlagsE
x3d:__ZN9Rigidbody23VirtualRedirectTransferER14SafeBinaryRead
JPl:_emscripten_glGetFramebufferAttachmentParameteriv__wrapper
kVa:__ZN13RendererScene15InitializeUmbraEv
tRg:_AnimatorTransitionInfo_IsName_m2561957738_AdjustorThunk
Vta:__Z28CalculateGlobalMatrixInverse23TransformAccessReadOnly
pvc:__ZN4PPtrI6ObjectE8TransferI9JSONWriteEEvRT_
p7j:__ZL60SecurityAttribute_t2016950496_CustomAttributesCacheGeneratorP21CustomAttributesCache
Hwb:__ZN13dynamic_arrayI12BoneWeights4Lj16EE18resize_initializedEjRKS0_12ResizePolicy
Hhi:_PointerEventData_ToString_m1218584363
lYe:_Char_System_IConvertible_ToChar_m1489061093_AdjustorThunk
wmg:_UTF7Encoding_GetCharCount_m2589913583
SHk:__ZL117RenderPipelineManager_t984453155_CustomAttributesCacheGenerator_RenderPipelineManager_set_currentPipeline_m3825706412P21CustomAttributesCache
vid:__ZNK5physx15PxsParticleData15getWorldBoundsVEv
r1d:__ZN15CapsuleCollider13AwakeFromLoadE17AwakeFromLoadMode
p3:__ZN13MonoBehaviour19ReleaseMonoInstanceEv
Quf:_MemoryStream_CalculateNewCapacity_m3533542025
xKc:__ZN12_GLOBAL__N_124HfTrianglesEntityReport27onEventEjPj
W$c:__ZNK5physx2Sc15ArticulationSim16createDriveCacheEfj
Vkd:__ZN5physx22NpParticleBaseTemplateINS_16PxParticleSystemENS_16NpParticleSystemEE17setStaticFrictionEf
o6k:_InternalEnumerator_1_Dispose_m318835130_AdjustorThunk
_kh:_Uri_Reduce_m2577728307
hqg:_TimeSpan_Equals_m4102942751_AdjustorThunk
NVk:_ValueCollection_System_Collections_Generic_ICollectionU3CTValueU3E_Add_m1903672223_gshared
w3c:__ZN5physx17PxsContactManager16resetCachedStateEv
ZDe:__ZN12HeaderHelper14SetUnvalidatedERKN4core12basic_stringIcNS0_20StringStorageDefaultIcEEEES6_b
WJ:__ZN4FMOD6SoundI7releaseEv
txk:__ZL103Collider_t3497673348_CustomAttributesCacheGenerator_Collider_INTERNAL_CALL_Internal_Raycast_m1149196481P21CustomAttributesCache
snd:__ZN5physx20NpRigidActorTemplateINS_14PxRigidDynamicEE15setActorSimFlagEb
K5j:__ZL70RuntimeArray_CustomAttributesCacheGenerator_Array_SetValue_m1489959987P21CustomAttributesCache
gii:_MouseButtonEventData__ctor_m618518000
e3k:_EqualityComparer_1_get_Default_m3222318365_gshared
KQa:__ZN10MemoryFile9SetLengthEy
htg:_UInt16_ToString_m2038947049_AdjustorThunk
tPg:_AnimatorControllerPlayable_GetNextAnimatorClipInfoInternal_m1102604948
XMc:__ZNK5physx3Cct26CharacterControllerManager16getNbControllersEv
$Db:__Z28scripting_class_is_interface17ScriptingClassPtr
ki:_glTexStorage2D
yHi:_Array_InternalArray__Insert_TisRaycastHit2D_t4063908774_m3174907903_gshared
IXb:__ZNK9ShaderLab10SubProgram14EnsureCompiledEv
Hkj:__Z79RuntimeInvoker_Boolean_t3825574718_RuntimeObject_RuntimeObject_SByte_t454417549PFvvEPK10MethodInfoPvPS4_
Afg:_ObjectManager_RecordFixup_m3572285566
f9j:__ZL55DaylightTime_t3800227331_CustomAttributesCacheGeneratorP21CustomAttributesCache
q6d:__ZN5physx7profile10DataBufferINS_6shdfnd6MutexTINS0_26WrapperReflectionAllocatorIhEEEENS0_14ScopedLockImplIS6_EEE17handleBufferFlushEPKhj
e3e:_SortedList_InitTable_m460350503
E3:__Z18BuildScriptClassId17ScriptingClassPtr
x7k:_InternalEnumerator_1_get_Current_m4279678504_AdjustorThunk
Tr:__ZNK16LevelGameManager7GetNameEv
Y4i:_Collection_1_System_Collections_IList_get_Item_m2415649949_gshared
l3b:__ZN8Renderer28HandleParentHierarchyChangesEPK23TransformAccessReadOnlyj
bDg:_ILTokenInfo_t149559338_marshal_pinvoke_cleanup
Vea:__ZL31DeleteLastPathNameComponentImplRKN4core12basic_stringIcNS_20StringStorageDefaultIcEEEEPKc
i$b:__Z13RegisterClassI18DelayedCallManagerEvv
KAe:__ZN18UnityConnectClient15GetCloudServiceEv
CKb:__Z18Transfer_BlittableI24GenerateTypeTreeTransferLb0EiEvRK29SerializationCommandArgumentsR31RuntimeSerializationCommandInfo
jTd:__ZN5physx20PxsConstraintProjectEPKNS_13PxsConstraintEbf
bbd:__ZN5physx7NpShape7setFlagENS_11PxShapeFlag4EnumEb
VDb:__ZL28SerializationCommandGroupForRK31TransferFunctionScriptingTraits17ScriptingClassPtr17ScriptingFieldPtrRK20CoreScriptingClasses
mib:__ZN10TagManager32RegisterDefaultTagsAndLayerMasksEv
kzl:_TweenRunner_1_StopTween_m2135918118_gshared
NWk:_ValueCollection_get_Count_m4142113966_gshared
T1j:_PlayableHandle_SetDuration_m1990009798_AdjustorThunk
gPd:__ZN5physx2Sc35ParticleElementRbElementInteraction12onDeactivateEj
ZBh:__ZN15dense_hashtableINSt3__24pairIK10KeyWrapperIPKcEP11Il2CppClassEES5_N6il2cpp5utils11StringUtils12StringHasherIS4_EEN14dense_hash_mapIS5_S8_SE_NS5_14EqualsComparerINSB_13VmStringUtils21CaseSensitiveComparerEEENS0_9allocatorIS9_EEE9SelectKeyESJ_SL_E15insert_noresizeERKS9_
dog:_SynchronizationLockException__ctor_m549086841
Xvk:__ZL105RectTransform_t3349966182_CustomAttributesCacheGenerator_RectTransform_INTERNAL_get_sizeDelta_m3975625099P21CustomAttributesCache
Fye:__Z56Register_UnityEngine_Analytics_CustomEventData_AddUInt32v
ZZe:_ArrayList_InsertRange_m1478230997
WEa:__ZN4gles8InitCapsEP7ApiGLESP12GraphicsCapsR16GfxDeviceLevelGL
Joa:__ZN6prcore14BlitImageFloatERK14ImageReferenceRS0_NS0_8BlitModeE
RUe:_Swapper_EndInvoke_m677693941
nwa:__Z24CalculateVertexLightDataRK15SharedLightDataR14GfxVertexLight
oZj:_Matrix4x4_Equals_m1321236479_AdjustorThunk
Ui:_glEnable
Ura:__ZN15dense_hashtableINSt3__24pairIKiiEEi21InstanceIDHashFunctorN14dense_hash_mapIiiS4_NS0_8equal_toIiEE13stl_allocatorIS3_L18MemLabelIdentifier1ELi16EEE9SelectKeyES7_SA_E12maybe_shrinkEv
QXa:__ZNK25CameraStackRenderingState21GetImageEffectTextureEb
zgg:_RuntimeMethodHandle__ctor_m2437574937_AdjustorThunk
Owd:__ZN5physx2Sq8AABBTreeC2Ev
z5j:__ZL72RuntimeArray_CustomAttributesCacheGenerator_Array_get_Length_m1498215565P21CustomAttributesCache
$tc:__Z35Transfer_Blittable_FixedBufferFieldI9JSONWriteiEvRK29SerializationCommandArgumentsR31RuntimeSerializationCommandInfo
svk:__ZL99Transform_t3275118058_CustomAttributesCacheGenerator_Transform_INTERNAL_get_localPosition_m94028171P21CustomAttributesCache
Isg:_UInt16_System_IConvertible_ToInt64_m2835280558_AdjustorThunk
S2j:_Quaternion_GetHashCode_m2270520528_AdjustorThunk
Kok:__ZL53g_UnityEngine_Assembly_CustomAttributesCacheGeneratorP21CustomAttributesCache
jvl:_Predicate_1_BeginInvoke_m3926587117_gshared
DBb:__ZNSt3__26vectorI4PPtrI6ObjectE13stl_allocatorIS3_L18MemLabelIdentifier51ELi16EEE6assignINS_11__wrap_iterIPS3_EEEENS_9enable_ifIXaasr21__is_forward_iteratorIT_EE5valuesr16is_constructibleIS3_NS_15iterator_traitsISD_E9referenceEEE5valueEvE4typeESD_SD_
ty:__ZN26AnimatorControllerPlayable17ProcessRootMotionEP35AnimationPlayableEvaluationConstantP32AnimationPlayableEvaluationInputP33AnimationPlayableEvaluationOutput
DWi:_List_1_get_Item_m1231764300_gshared
Zkj:__Z94RuntimeInvoker_Boolean_t3825574718_Int32_t2071877448_SByte_t454417549_ExceptionU26_t1467204777PFvvEPK10MethodInfoPvPS4_
wni:_DefaultControls_CreateToggle_m1568873127
m1i:_List_1__cctor_m1022807427_gshared
c8j:__ZL63KeyNotFoundException_t1722175009_CustomAttributesCacheGeneratorP21CustomAttributesCache
L_k:_Dictionary_2_InitArrays_m2270022740_gshared
J4e:_Convert_ToBoolean_m2188088811
sze:__ZN11UnityEngine7Connect15DeviceInfoEvent16CollectExtraInfoEv
d5h:__ZN6il2cpp2os11Environment22SetEnvironmentVariableERKNSt3__212basic_stringIcNS2_11char_traitsIcEENS2_9allocatorIcEEEESA_
tCj:__Z50RuntimeInvoker_AnimationOffsetPlayable_t1019600543PFvvEPK10MethodInfoPvPS4_
lWd:__ZN5physx2Gu10ConvexMeshD2Ev
Nlg:_UnicodeEncoding_GetChars_m3765282346
Kqf:_IntPtr__ctor_m4104029105
Pek:__ZL114BinaryFormatter_t1866979105_CustomAttributesCacheGenerator_BinaryFormatter_get_DefaultSurrogateSelector_m219714691P21CustomAttributesCache
MOh:__ZN6il2cpp2gc19AppendOnlyGCHashMapIPK10Il2CppTypeP20Il2CppReflectionTypeNS_8metadata14Il2CppTypeHashENS7_26Il2CppTypeEqualityComparerEEC2Ev
Rbl:_InternalEnumerator_1_System_Collections_IEnumerator_get_Current_m771161214_AdjustorThunk
Dzf:_MonoType_get_attributes_m1493788675
IHl:_atol
lai:__ZN6il2cpp6icalls8mscorlib6System10Reflection9FieldInfo25internal_from_handle_typeE12Il2CppIntPtrS5_
f7e:_Convert_ToDouble_m4236754739
aYf:_SslClientStream_get_PrivateKeyCertSelectionDelegate_m3715949545
Uyh:__ZN15dense_hashtableINSt3__24pairIK10KeyWrapperIPKcEP11Il2CppClassEES5_N6il2cpp5utils11StringUtils12StringHasherIS4_EEN14dense_hash_mapIS5_S8_SE_NS5_14EqualsComparerINSB_13VmStringUtils21CaseSensitiveComparerEEENS0_9allocatorIS9_EEE9SelectKeyESJ_SL_EC2EjRKSE_RKSJ_RKSN_
Moi:_Dropdown_CreateItem_m2702141380
hjj:_ReadOnlyCollection_1_IndexOf_m224962127_gshared
L8j:__ZL48Stack_t1043988394_CustomAttributesCacheGeneratorP21CustomAttributesCache
Hp:FUNCTION_TABLE_viifi
Kp:FUNCTION_TABLE_viiff
HT:__Z75AudioPlayableGraphExtensions_CUSTOM_INTERNAL_CALL_InternalCreateAudioOutputR14HPlayableGraphP12Il2CppStringP15HPlayableOutput
oQc:__ZNK5physx2Sc8ShapeSim10getBodySimEv
FJj:__Z59RuntimeInvoker_Boolean_t3825574718_ResourceInfo_t3933049236PFvvEPK10MethodInfoPvPS4_
yGg:_MonoEvent_GetAddMethod_m4289563120
RJj:__Z59RuntimeInvoker_Boolean_t3825574718_RaycastHit2D_t4063908774PFvvEPK10MethodInfoPvPS4_
cqe:_UNITY_tt_face_free_hdmx
dRh:__ZN15dense_hashtableINSt3__24pairIK10KeyWrapperINS1_IP11Il2CppClassjEEES4_EES6_N6il2cpp8metadata14ArrayClassHashEN14dense_hash_mapIS6_S4_SB_NS6_14EqualsComparerINSA_17ArrayClassCompareEEENS0_9allocatorIS8_EEE9SelectKeyESF_SH_E5clearEv
ryh:__ZNSt3__218uninitialized_copyIPNS_4pairIK10KeyWrapperIPK11Il2CppClassEPKcEESB_EET0_T_SD_SC_
DIh:__ZN6il2cpp2vm14TypeNameParser5ParseEb
V1g:_ReflectionMethodsCache__ctor_m1835220
nul:_RefreshScene_Refresh_m2563309098
j8j:__ZL71SynchronizedArrayListWrapper_t3317806524_CustomAttributesCacheGeneratorP21CustomAttributesCache
B4c:__ZN5physx6shdfnd5ArrayIPvNS0_19ReflectionAllocatorINS_2Cm5BlockIhLj128EEEEEE15growAndPushBackERKS2_
ZCe:__ZN23UnityPurchasingSettingsC2Ev
tff:_Double_ToString_m1864290157
xyb:__ZNK9Transform13GetWorldScaleEv
Wtj:__Z50RuntimeInvoker_Int64_t909078037_Double_t4078015681PFvvEPK10MethodInfoPvPS4_
DVc:__ZN5physx2Sc11Interaction10onActivateEj
gJc:__ZNK5physx2Gu29EPASupportMapPairRelativeImplINS0_4BoxVENS0_11ConvexHullVEE6getDirEv
Jbd:__ZN5physx14NpShapeManager15setupSceneQueryERNS_2Sq17SceneQueryManagerERKNS_12PxRigidActorERKNS_7NpShapeE
q8:__ZNSt3__26__treeINS_12__value_typeI18VertexChannelsInfo16MeshVertexFormatEENS_19__map_value_compareIS2_S4_NS_4lessIS2_EELb1EEE13stl_allocatorIS4_L18MemLabelIdentifier16ELi16EEE12__find_equalIS2_EERPNS_16__tree_node_baseIPvEENS_21__tree_const_iteratorIS4_PNS_11__tree_nodeIS4_SF_EEiEESI_RKT_
Haj:_Collection_1_System_Collections_IList_get_Item_m1122792492_gshared
jva:__ZL37stbir__resample_horizontal_downsampleP11stbir__infoiPf
X6i:__ZN21InterfaceFuncInvoker1Ib18Color32_t874517518E6InvokeEjP11Il2CppClassP12Il2CppObjectS0_
qsa:__ZNK5Unity9Component38MarkGameObjectAndComponentDependenciesER27GarbageCollectorThreadState
ZQg:_Animator_get_hasBoundPlayables_m3670407842
Y_:__ZL16OutOfMemoryErrorjj18MemLabelIdentifieriPKc
mYc:__ZNK5physx2Sc9ClothCore23getExternalAccelerationEv
B$e:_SynchronizedArrayListWrapper_Contains_m2259439339
hR:__ZNK7Texture21GetShadowSamplingModeEv
d4:__ZNK11TypeManager15ClassNameToRTTIEPKcb
kIc:__ZN5physx2Gu13coarseCullingERKNS_6PxVec3ES3_ffRKNS_10PxTriangleE
Oth:__ZL25UnresolvedVirtualCall_187P12Il2CppObject20TimeSpan_t3430258949PK10MethodInfo
Nda:__ZN13ScreenManager21OnWindowRegainedFocusEv
SRb:__Z18Transfer_BlittableI18StreamedBinaryReadILb0EELb1EdEvRK29SerializationCommandArgumentsR31RuntimeSerializationCommandInfo
bWg:_WillRenderCanvases_BeginInvoke_m1914028027
Gmf:_Guid__ctor_m2599802704
otf:_FileStream_get_CanRead_m4148920720
TEe:__ZN13RuntimeStaticINSt3__26vectorIPN5physx15PxVehicleWheelsENS0_9allocatorIS4_EEEELb0EE13StaticDestroyEPv
HNj:__Z31RuntimeInvoker_Link_t2723257478PFvvEPK10MethodInfoPvPS4_
IPd:__ZN5physx2Sc5Scene29processNarrowPhaseTouchEventsEv
zHa:__ZN4crnd12symbol_codec32decode_receive_static_data_modelERNS_25static_huffman_data_modelE
J0b:__ZN18ScriptingArguments8AddFloatEf
$kf:_GregorianCalendar_set_CalendarType_m2438362222
Smi:_FloatTween_get_targetValue_m2120061648_AdjustorThunk
Eoj:__Z44RuntimeInvoker_RuntimeTypeHandle_t2330101084PFvvEPK10MethodInfoPvPS4_
Nyi:_Array_InternalArray__ICollection_Contains_TisVector2_t2243707579_m3625698589_gshared
p_c:__ZN5physx6shdfnd5ArrayIPvNS0_15InlineAllocatorILj256ENS0_19ReflectionAllocatorINS_18NpArticulationLinkEEEEEE15growAndPushBackERKS2_
Tuc:__Z18Transfer_BlittableI9JSONWriteLb0EaEvRK29SerializationCommandArgumentsR31RuntimeSerializationCommandInfo
Pkj:__Z45RuntimeInvoker_SByte_t454417549_RuntimeObjectPFvvEPK10MethodInfoPvPS4_
_U:__ZN11UnityEngine15CloudWebService14DataDispatcher34OnSessionContainerArchivedAndReadyERNS0_16SessionContainerE
Klf:_NumberFormatInfo_GetFormat_m3247563525
KNc:__ZNK5physx3Cct15ObstacleContext11getObstacleEj
_Rf:_CipherSuiteCollection__ctor_m2154226461
KMb:__Z18Transfer_BlittableI19StreamedBinaryWriteILb0EELb0E8Vector3fEvRK29SerializationCommandArgumentsR31RuntimeSerializationCommandInfo
Kil:_RectOffset__ctor_m2227510254
TTb:__ZN14SafeBinaryRead19TransferSTLStyleMapINSt3__23mapIN4core12basic_stringIcNS3_20StringStorageDefaultIcEEEEiNS1_4lessIS7_EENS1_9allocatorINS1_4pairIKS7_iEEEEEEEEvRT_17TransferMetaFlags
NMh:__ZN15dense_hashtableINSt3__24pairIK10KeyWrapperINS1_IPK11Il2CppImageP11Il2CppClassEEEjEES9_17ReflectionMapHashIS8_EN14dense_hash_mapIS9_jSD_NS9_14EqualsComparerINS0_8equal_toIS8_EEEENS0_9allocatorISB_EEE9SelectKeyESI_SK_ED2Ev
Lhe:_gray_move_to
gjg:_DSAParameters_t1872138834_marshal_pinvoke
oxj:__Z37RuntimeInvoker_ContentType_t859870085PFvvEPK10MethodInfoPvPS4_
Ubj:_Collection_1_System_Collections_IEnumerable_GetEnumerator_m4174600764_gshared
HNh:__ZN6il2cpp2vm10Reflection14GetEventObjectEP11Il2CppClassPK9EventInfo
rTf:_TlsStream_Write_m2271546135
Ibc:__Z30RegisterValidateMethodCallbackiPF18ScriptingMethodPtrS_17ScriptingClassPtrP6ObjectEPKc
nfa:__ZN20LocalFileSystemPosixD0Ev
xAk:__ZL133AnimatorControllerPlayable_t1744083903_CustomAttributesCacheGenerator_AnimatorControllerPlayable_INTERNAL_CALL_GetFloatID_m1278007428P21CustomAttributesCache
qif:_CultureInfo_ConstructInternalLocaleFromCurrentLocale_m1342751405
Skg:_Latin1Encoding_GetString_m3553289597
mAd:__ZN5physx13IslandManager6resizeEj
hje:_tt_cmap_init
Ta:invoke_viidi
URk:_Enumerator_get_Current_m1020413567_AdjustorThunk
aUi:_List_1_System_Collections_IList_get_IsFixedSize_m1122077912_gshared
FRi:_Enumerator_System_Collections_IEnumerator_get_Current_m1103666686_AdjustorThunk
n0b:__ZN9TextAssetC2E18MemLabelIdentifier18ObjectCreationMode
hVc:__ZN5physx6shdfnd8PoolBaseINS_2Cm5BlockIPvLj16EEENS0_19ReflectionAllocatorIS5_EEE17releaseEmptySlabsEv
WSi:_List_1_System_Collections_ICollection_CopyTo_m2020941110_gshared
j_g:_Display_RecreateDisplayList_m3412638488
pNh:__ZN15dense_hashtableINSt3__24pairIK10KeyWrapperINS1_IPK12PropertyInfoP11Il2CppClassEEEjEES9_17ReflectionMapHashIS8_EN14dense_hash_mapIS9_jSD_NS9_14EqualsComparerINS0_8equal_toIS8_EEEENS0_9allocatorISB_EEE9SelectKeyESI_SK_E8min_sizeEjj
Kkk:__ZL79Convert_t2607082565_CustomAttributesCacheGenerator_Convert_ToUInt64_m2215781574P21CustomAttributesCache
FVl:_emscripten_glCheckFramebufferStatus__wrapper
pSh:__ZNK15dense_hashtableINSt3__24pairIK10KeyWrapperIP11Il2CppClassES4_EES5_N6il2cpp8metadata16SZArrayClassHashEN14dense_hash_mapIS5_S4_SA_NS5_14EqualsComparerINS9_19SZArrayClassCompareEEENS0_9allocatorIS7_EEE9SelectKeyESE_SG_E12test_deletedEj
uOc:__ZL20updateMassAndInertiabRN5physx11PxRigidBodyEPKfjPKNS_6PxVec3Eb
zxc:__Z18Transfer_BlittableI8JSONReadLb0EdEvRK29SerializationCommandArgumentsR31RuntimeSerializationCommandInfo
A6d:__ZN5physx24NpPtrTableStorageManagerC2Ev
ILk:__ZL98Graphic_t2426225576_CustomAttributesCacheGenerator_Graphic_get_useLegacyMeshGeneration_m1366444625P21CustomAttributesCache
$Ij:__Z83RuntimeInvoker_Boolean_t3825574718_NavigationU26_t3929175072_Navigation_t1571958496PFvvEPK10MethodInfoPvPS4_
Wwe:__Z44Register_UnityEngine_Canvas_set_sortingOrderv
xog:_Thread_ClrState_m822263449
sDf:_SimpleCollator_LastIndexOfOrdinalIgnoreCase_m550798345
fWj:_GUIStyle_INTERNAL_CALL_Internal_GetCursorStringIndex_m3074318281
tAa:__ZNK9GfxDevice13GetViewMatrixEv
dtd:__ZN5physx7NpScene15flushSimulationEb
X9c:__ZN5physx6shdfnd8PoolBaseINS_10NpMaterialENS0_19ReflectionAllocatorIS2_EEE12allocateSlabEv
_4:__ZN8TypeTree8BlobReadERPKhS1_ib
RZd:__ZN5physx18ReducedVertexCloudC2EPKNS_6PxVec3Ej
eYk:_Dictionary_2_System_Collections_Generic_ICollectionU3CSystem_Collections_Generic_KeyValuePairU3CTKeyU2CTValueU3EU3E_Remove_m3080541539_gshared
Nsa:__ZN18LoadSceneOperation23GetAllowSceneActivationEv
MMg:_AnimationPlayableOutput_op_Implicit_m1147972631
jjb:__ZN6CameraD0Ev
TEf:_ModulusRing_Multiply_m386339435
dba:__ZN31CanvasBatchIntermediateRenderer16StaticInitializeEPv
bri:_GraphicRaycaster_U3CRaycastU3Em__0_m3971200721
Hfj:_ReadOnlyCollection_1_System_Collections_IList_RemoveAt_m3004588099_gshared
Fx:__ZN7mecanim12AndValueMaskILb0EEEvPKNS_14ValueArrayMaskEPS1_
N6e:_Decimal_op_Implicit_m4246329390
zMf:_ArgumentNullException__ctor_m2252076819
R8a:__ZN10GameObjectC2E18MemLabelIdentifier18ObjectCreationMode
Nge:_raccess_guess_apple_double
pLj:__Z70RuntimeInvoker_Void_t1841601450_CustomAttributeNamedArgument_t94157543PFvvEPK10MethodInfoPvPS4_
I_f:_ListDictionary_GetEnumerator_m1511032609
RAg:_TypeBuilder_get_FullName_m1626507516
Yeg:_SerializationInfo__ctor_m4016423422
vIa:__ZL18ProgramUniform1uivPK7ApiGLESjiihPKv
S2b:__ZN14Texture2DArray13RebuildMipMapEv
Txh:__ZN13Il2CppHashSetIPK17Il2CppGenericInstN6il2cpp8metadata21Il2CppGenericInstHashENS4_24Il2CppGenericInstCompareENSt3__29allocatorI10KeyWrapperIS2_EEEEC2EjRKS5_RKS6_
IGb:__Z18Transfer_BlittableI14SafeBinaryReadLb1EaEvRK29SerializationCommandArgumentsR31RuntimeSerializationCommandInfo
h2h:__ZN6il2cpp2gc16GarbageCollector14RemoveWeakLinkEPPv
VXb:__ZN9ShaderLab20SerializedSubProgram14AddVectorParamEPKcii15ShaderParamTypei
LVi:_List_1_System_Collections_Generic_IEnumerableU3CTU3E_GetEnumerator_m3123730956_gshared
_ue:__ZN2UI14CanvasRenderer12CleanupClassEv
l2c:__ZNK5physx19NpRigidBodyTemplateINS_18PxArticulationLinkEE27getMinCCDAdvanceCoefficientEv
oij:_ReadOnlyCollection_1_System_Collections_IEnumerable_GetEnumerator_m1734360860_gshared
y0k:_DefaultComparer__ctor_m1052417779_gshared
DNe:_SystemException__ctor_m2688248668
Q9g:_ResourceSet_ReadResources_m1669023823
IKf:_PKCS12_RemoveCertificate_m1590055870
bTh:__ZN6il2cpp2vm6Thread7SetNameEP12Il2CppThreadP12Il2CppString
sci:__ZNSt3__214__split_bufferINS_12basic_stringIDsNS_11char_traitsIDsEENS_9allocatorIDsEEEERNS4_IS6_EEEC2EjjS8_
hwk:__ZL107Collision_t2876846408_CustomAttributesCacheGenerator_Collision_t2876846408____frictionForceSum_PropertyInfoP21CustomAttributesCache
Dq:__ZN6Object23VirtualRedirectTransferER19StreamedBinaryWriteILb1EE
fga:__ZN13ScreenManager18SetAllowCursorLockEb
sW:__ZN11UnityEngine15CloudWebService10RestClientINS0_23WebRequestRestHeaderMapEE16SetRequestHeaderERKN4core12basic_stringIcNS4_20StringStorageDefaultIcEEEESA_
tCb:__ZN30RuntimeInitializeOnLoadManager15ClassMethodInfo8TransferI14SafeBinaryReadEEvRT_
GYc:__ZNK5physx2Sc10ClothShape8isActiveEv
FOk:__ZL73CanvasScaler_t2574720772_CustomAttributesCacheGenerator_m_ScreenMatchModeP21CustomAttributesCache
SS:__ZL22InitializeModule_Audiov
RAd:__ZN5physx2Sq11PruningPoolD0Ev
beb:__ZN16MemoryFileSystem8IsLockedERK13FileEntryData
JId:__ZN3MBP15removeBoxPrunerEj
eRh:__ZN15dense_hashtableINSt3__24pairIK10KeyWrapperINS1_IP11Il2CppClassjEEES4_EES6_N6il2cpp8metadata14ArrayClassHashEN14dense_hash_mapIS6_S4_SB_NS6_14EqualsComparerINSA_17ArrayClassCompareEEENS0_9allocatorIS8_EEE9SelectKeyESF_SH_E8min_sizeEjj
fGg:_MonoCMethod_Invoke_m931478014
xmj:__Z86RuntimeInvoker_Int32_t2071877448_Int16_t4041245914_Int32_t2071877448_Int32_t2071877448PFvvEPK10MethodInfoPvPS4_
X9g:_SatelliteContractVersionAttribute__ctor_m2605651717
Cl:_emscripten_glBindRenderbuffer
Pqc:__Z32GUIStyle_Set_Custom_PropClippingP12Il2CppObjecti
gSe:_DecoderExceptionFallbackBuffer_GetNextChar_m1727394816
q8h:_GC_dirty_init
bUe:_Array_Copy_m1969461849
qeg:_MessageFormatter_ReadMethodResponse_m4134629501
W_h:__ZN6il2cpp2vm5Field14GetValueObjectEP9FieldInfoP12Il2CppObject
sue:__ZNK2UI6Canvas16GetTargetDisplayEv
ONk:__ZL68Selectable_t1490392188_CustomAttributesCacheGenerator_m_InteractableP21CustomAttributesCache
Nrl:_Blended_Steering_GetSteering_m2749660351
Bgf:_Environment_get_OSVersion_m1247315981
KFc:__ZL15SweepBoxCapsulePKN5physx3Cct9SweepTestEPKNS0_11SweptVolumeEPKNS0_11TouchedGeomERKNS_14PxExtendedVec3ERKNS_6PxVec3ERNS0_12SweptContactE
O8:__ZN6Object17FindObjectsOfTypeEPKN5Unity4TypeER13dynamic_arrayIPS_Lj4EEb
E7b:__ZNSt3__26vectorINS_4pairIiiEE13stl_allocatorIS2_L18MemLabelIdentifier1ELi16EEE21__push_back_slow_pathIKS2_EEvRT_
D6f:_Capture_get_Length_m1952322390
Avc:__ZN9JSONWrite8TransferI4PPtrI9Texture2DEEEvRT_PKc17TransferMetaFlags
sDb:__ZN13MonoBehaviour17RemoveFromManagerEv
nUd:__ZN5physx2Sc19ParticlePacketShapeD2Ev
hve:__ZL23RegisterModuleICalls_UIv
Utb:__ZL11DecodeValuePPKcS0_
lpj:__Z235RuntimeInvoker_Int32_t2071877448_RuntimeObject_Int32_t2071877448_Int32_t2071877448_RuntimeObject_Int32_t2071877448_Int32_t2071877448_BooleanU26_t3168250738_BooleanU26_t3168250738_SByte_t454417549_SByte_t454417549_ContextU26_t3131521781PFvvEPK10MethodInfoPvPS4_
yTk:_ShimEnumerator_MoveNext_m2013866013_gshared
KZ:__ZN13MemoryManagerC2Ev
sLa:__ZN12SkinMeshInfo10DeallocateEPS_
Uol:_Transform_SetParent_m1963830867
Uyk:__ZL66AnimationOffsetPlayable_t1019600543_CustomAttributesCacheGeneratorP21CustomAttributesCache
XSa:__ZN20ArchiveStorageReader28AcquireAndPrefillUnusedBlockEjPNS_11CacheResultE
L2b:__Z12NHxRoughnessIA4_tEvP9Texture2DPT_iiii
aol:_Touch_get_phase_m196706494_AdjustorThunk
msh:__ZL25UnresolvedVirtualCall_105P12Il2CppObjecthPK10MethodInfo
gag:_MethodDictionary_get_SyncRoot_m673971424
n9:__ZN18AsyncUploadManagerD2Ev
JZb:__ZN9Transform5ResetEv
vMb:__Z22TransferField_NonArrayI24GenerateTypeTreeTransfer16Converter_StringEvRK23StaticTransferFieldInfoR31RuntimeSerializationCommandInfoRT0_
_ie:_UNITY_FT_CMap_New
ATg:_AudioMixerPlayable_Equals_m3014217409_AdjustorThunk
n0f:_HttpWebRequest_System_Runtime_Serialization_ISerializable_GetObjectData_m3671622902
Xfa:__Z17MainLoopKeepalivePv
_Xc:__ZN5physx7NpScene16addActorInternalERNS_7PxActorE
agh:_MatchCollection__ctor_m1944681790
vnc:__ZN18CrashReportHandler25UnregisterGlobalCallbacksEv
lGe:_HMACSHA512__ctor_m1667460019
N5a:__Z24ScheduleCullingAllGroupsR8JobFenceRK22SceneCullingParameters4PPtrI6CameraERK13CullingOutputRK13dynamic_arrayIP12CullingGroupLj4EERKS_
AFl:_printf_core
PKe:_ToBase64Transform_get_OutputBlockSize_m949275583
vcj:_Collection_1_set_Item_m3254085220_gshared
Z4a:__Z14CalcHullBoundsPK8Vector3fPKhhRK5PlaneRK10Matrix4x4fR10MinMaxAABB
qcg:_RealProxy__ctor_m2147093603
vhl:_RaycastHit2D_get_point_m442317739_AdjustorThunk
iQ:__ZNK14SoundHandleAPI12GetFrequencyEv
q$i:_List_1__ctor_m3511181530_gshared
MZa:__Z19SetupLODFadeKeywordR17ShaderPassContexti
Mie:_UNITY_FT_Stream_ReadFields
Sfj:_ReadOnlyCollection_1_get_Count_m2180604490_gshared
dNb:__Z18Transfer_BlittableI19StreamedBinaryWriteILb0EELb0E5RectTIfEEvRK29SerializationCommandArgumentsR31RuntimeSerializationCommandInfo
uOk:__ZL75ToggleGroup_t1030026315_CustomAttributesCacheGenerator_U3CU3Ef__amU24cache1P21CustomAttributesCache
NKa:__ZL25CheckCopyTextureArgumentsRK7ApiGLESP11GLESTextureS3_
g9:__ZN13dynamic_arrayI26EnlightenSystemInformationLj8EE6insertEPS0_PKS0_S4_
Eie:_tt_name_entry_ascii_from_utf16
HAf:_MulticastNotSupportedException__ctor_m2164514827
I9e:_DateTime_System_IConvertible_ToChar_m2489529194_AdjustorThunk
_Lb:__Z29Transfer_Blittable_ArrayFieldI24GenerateTypeTreeTransferyEvRT_R9ArrayInfoRK23StaticTransferFieldInfo
TM:__ZN4FMOD7SystemI9playSoundE17FMOD_CHANNELINDEXPNS_5SoundEbPPNS_7ChannelE
_9d:__ZN13PhysicsModule31GetColliderComponentsInChildrenERK10GameObjectbbR13dynamic_arrayIPN5Unity9ComponentELj4EE
U5j:__ZL74RuntimeArray_CustomAttributesCacheGenerator_Array_BinarySearch_m1368352453P21CustomAttributesCache
nZ:__GLOBAL__sub_I_runtime_graphics_mesh2_lump_cpp
pGk:__ZL68PreferBinarySerialization_t2472773525_CustomAttributesCacheGeneratorP21CustomAttributesCache
vdd:__ZNK5physx7NpCloth16getStretchConfigENS_22PxClothFabricPhaseType4EnumE
Sjk:__ZL78Convert_t2607082565_CustomAttributesCacheGenerator_Convert_ToSByte_m1183867428P21CustomAttributesCache
Ex:__ZN27AnimationLayerMixerPlayable17LayerMixerProcessEP35AnimationPlayableEvaluationConstantP32AnimationPlayableEvaluationInputP33AnimationPlayableEvaluationOutputM17AnimationPlayableFvS1_S3_S5_EMS_FvS1_S3_S5_ESA_MS_FvS5_S1_S3_S5_ifE
AIh:__ZN6il2cpp2os4File4ReadEPNS0_10FileHandleEPciPi
vL:__ZN12AudioManager23VirtualRedirectTransferER18StreamedBinaryReadILb0EE
FSi:_List_1_Remove_m2616693989_gshared
VHl:_realloc
gmc:__Z57Register_UnityEngine_Transform_INTERNAL_get_localRotationv
h5g:_ScrollRect_SetLayoutVertical_m1225848090
t8i:__ZN21InterfaceFuncInvoker1Ib22UICharInfo_t3056636800E6InvokeEjP11Il2CppClassP12Il2CppObjectS0_
gCb:__ZN30RuntimeInitializeOnLoadManager23VirtualRedirectTransferER17RemapPPtrTransfer
nMl:dynCall_viif
RGg:_MonoField_get_DeclaringType_m1591666235
L4k:_InternalEnumerator_1__ctor_m2111763266_AdjustorThunk
Z8f:_Enumerator_MoveNext_m4234629003
qki:_ButtonClickedEvent__ctor_m938038541
gTd:__ZN5physx2Sc24ConstraintProjectionTree11projectPoseERNS0_19ConstraintGroupNodeE
OJb:__ZL26Transfer_SimpleNativeClassI17RemapPPtrTransfer8GradientLb0EEvRK29SerializationCommandArgumentsR31RuntimeSerializationCommandInfo
I5j:__ZL69RuntimeArray_CustomAttributesCacheGenerator_Array_GetValue_m518505780P21CustomAttributesCache
bvj:__Z52RuntimeInvoker_UInt64_t2909196914_Single_t2076509932PFvvEPK10MethodInfoPvPS4_
xEh:__ZN6il2cpp6icalls8mscorlib6System8MonoType14get_attributesEP20Il2CppReflectionType
Yjk:__ZL78Convert_t2607082565_CustomAttributesCacheGenerator_Convert_ToSByte_m1880147062P21CustomAttributesCache
gae:__ZN13PhysicsModule29GetColliderMaterialInstanceIDER8Collider
Ezf:_MonoType_GetDefaultConstructor_m925465120
P1c:__ZNK5physx20NpRigidActorTemplateINS_18PxArticulationLinkEE14getConstraintsEPPNS_12PxConstraintEjj
VMl:dynCall_viifffi
aX:__ZN13UploadHandlerD2Ev
nKl:dynCall_viiiiiffi
id:_emscripten_glBlendFuncSeparate
rCg:_GenericTypeParameterBuilder_IsPrimitiveImpl_m1198748291
w1:__Z20scripting_string_newPKc
eul:_Player_FixedUpdate_m252956515
zkc:__Z43Material_CUSTOM_Internal_CreateWithMaterialP12Il2CppObjectS0_
jsf:_Directory_GetCurrentDirectory_m44486537
SXh:__ZNK24NamespaceAndNamePairHashclERKNSt3__24pairIPKcS3_EE
s3i:_Collection_1_System_Collections_ICollection_CopyTo_m1047946700_gshared
W7e:_Convert_ToInt64_m4057339019
n2c:__ZNK5physx19NpRigidBodyTemplateINS_18PxArticulationLinkEE27getMaxDepenetrationVelocityEv
hXd:__ZThn8_N5physx2Gu11HeightFieldD1Ev
ORh:__ZNSt3__218uninitialized_copyIPNS_4pairIK10KeyWrapperIP11Il2CppClassES4_EES8_EET0_T_SA_S9_
Gnd:__ZN5physx19NpRigidBodyTemplateINS_14PxRigidDynamicEED0Ev
d0c:__ZNK5physx19PxArticulationJoint19getConcreteTypeNameEv
NC:__ZNSt3__26__sortIRPFbPKN8Animator11AnimatorJobES4_EPS4_EEvT0_S9_T_
LK:__ZN17AudioCustomFilterD2Ev
$I:__Z91Register_UnityEngine_Animations_AnimatorControllerPlayable_INTERNAL_CALL_ResetTriggerStringv
QZb:__ZN9Transform16ResetReplacementEv
spc:__ZNK8GUIStyle13GetLineHeightEv
wsl:_CreateOnPress_CreateObjectOnPress_m2549140166
XJa:__ZN18GfxFramebufferGLES18ReleaseFramebufferEP17RenderSurfaceBaseP14GfxContextGLES
qdh:_Context_GetDynamicPropertyCollection_m1987747444
YZk:_Dictionary_2_make_pair_m1307594529_gshared
M3f:_X509Certificate2_get_Version_m1927399907
s5b:__ZN13ProduceHelperI6CameraLb0EE7ProduceE18MemLabelIdentifier18ObjectCreationMode
Jsi:_Image_RadialCut_m3229543088
yY:__ZN19CloudServiceHandler34HandleSaveFileWebRequestPlayerLoopEv
Vy:__ZN7mecanim21ValueArrayReverseCopyEPKNS_18ValueArrayConstantEPKNS_10ValueArrayES2_PS3_PKi
wK:__Z31GetParentSampleClipFromInstancePN11SoundHandle8InstanceE
Q0b:__ZNK28RectTransformPropertyBinding13GetFloatValueERKN11UnityEngine9Animation10BoundCurveE
jLc:__ZN5physx11PxHitBufferINS_12PxOverlapHitEE14processTouchesEPKS1_j
P7a:__ZN6Camera22StandaloneCustomRenderENS_10RenderFlagEP6ShaderRKN4core12basic_stringIcNS3_20StringStorageDefaultIcEEEEPNS_21PerformRenderFunctionE
Mod:__ZL22addOrRemoveRigidObjectILb0ELb0ELb0ELb1EN5physx3Scb11RigidStaticEEvRNS0_2Sc5SceneERT3_b
ddi:__ZN6il2cpp2os16ThreadLocalValue8GetValueEPPv
eCh:__ZN6il2cpp2vm13MetadataCache14GetGenericInstEPKPK10Il2CppTypej
QJe:_SHA384Managed_Initialize_m712692291
G5k:_InternalEnumerator_1__ctor_m2688327768_gshared
Sbh:_ChannelInfo__ctor_m2502026239
ad:invoke_iiidii
nck:__ZL60CallingConvention_t3354538265_CustomAttributesCacheGeneratorP21CustomAttributesCache
Amc:__Z52Object_CUSTOM_GetOffsetOfInstanceIDInCPlusPlusObjectv
Gol:_Transform_get_right_m440863970
tVc:__ZN5physx6shdfnd4sortIPvNS0_4LessIS2_EENS0_19ReflectionAllocatorINS_2Cm5BlockIS2_Lj8EEEEEEEvPT_jRKT0_RKT1_j
zR:__ZN9AudioClip15InitializeClassEv
E9c:__ZNK5physx9NpPhysics11getNbShapesEv
tq:setThrew
D2b:__ZL21BuildEmptyCubeTexturePKci11ColorRGBA3217TextureColorSpace
WTb:__ZN14SafeBinaryRead21TransferSTLStyleArrayINSt3__26vectorIN9ShaderLab20SerializedSubProgramENS1_9allocatorIS4_EEEEEEvRT_17TransferMetaFlags
Mii:_StandaloneInputModule_set_cancelButton_m2642677329
Gwc:__Z15Transfer_StringI8JSONReadLb1EEvRK29SerializationCommandArgumentsR31RuntimeSerializationCommandInfo
dqa:__ZN6prcoreL17RemapGenericFloatI17TexFormatRGBFloat15TexFormatRGHalfEEvPKNS_9InnerInfoE
c$a:__Z25DoForwardShaderRenderLoopR17RenderLoopContextR13dynamic_arrayI16RenderObjectDataLj4EERK11CullResultsbbbN6Camera10RenderFlagE
DNi:_GameObject_GetComponent_TisRuntimeObject_m2812611596_gshared
cie:_sfnt_load_face
Cee:_UNITY_FT_Render_Glyph_Internal
Mmg:_UTF8Encoding_GetByteCount_m2372933408
ndh:_Context_get_NeedsContextSink_m1907794755
Vhe:_UNITY_ft_service_list_lookup
NOf:_ARC4Managed_GenerateKey_m716135508
HJb:__Z18Transfer_BlittableI17RemapPPtrTransferLb1E11ColorRGBA32EvRK29SerializationCommandArgumentsR31RuntimeSerializationCommandInfo
Xoc:__ZN5IMGUI21SelectReceivingWindowER8GUIStateb
CEc:__ZN5physx2Gu20intersectTriangleBoxERKNS_6PxVec3ES3_S3_S3_S3_
gG:__ZNK26AnimatorControllerPlayable17ValidateGoToStateERiS0_
z8c:__ZN5physx10NpMaterial8setFlagsENS_7PxFlagsINS_14PxMaterialFlag4EnumEtEE
tfb:__ZN13BaseAllocator13TryDeallocateEPv
mOb:__Z29Transfer_Blittable_ArrayFieldI19StreamedBinaryWriteILb0EEfEvRT_R9ArrayInfoRK23StaticTransferFieldInfo
NTe:_Array_CreateInstance_m1054139389
HTj:_GUIStyleState_GetGUIStyleState_m2816150617
j6k:_InternalEnumerator_1__ctor_m967618647_AdjustorThunk
Ldb:__ZN16MemoryFileSystem5WriteER13FileEntryDatayPvPy
sDi:_Array_InternalArray__IndexOf_TisLink_t2723257478_m86070942_gshared
_Xk:_Dictionary_2_System_Collections_ICollection_get_IsSynchronized_m1738433079_gshared
Tjb:__ZNSt3__26vectorIN12FlareManager10FlareEntryENS_9allocatorIS2_EEE21__push_back_slow_pathIKS2_EEvRT_
ohi:_PointerEventData_get_pointerId_m2835313597
KXg:_Collision_get_impactForceSum_m521972354
lFe:_SHA1_Create_m4086509717
MVi:_List_1_System_Collections_ICollection_CopyTo_m467073326_gshared
lKj:__Z111RuntimeInvoker_Int32_t2071877448_RuntimeObject_AnimatorClipInfo_t3905751349_Int32_t2071877448_Int32_t2071877448PFvvEPK10MethodInfoPvPS4_
AHg:_MonoMethodInfo_GetMethodInfo_m3298558752
gL:__ZN13AudioListener17RemoveFromManagerEv
de:_glAttachShader
Qoi:_Dropdown_SetAlpha_m2769981009
U4d:__ZN5physx6shdfnd8internal8HashBaseINS0_4PairIKtPKcEEtNS0_4HashItEENS1_11HashMapBaseItS6_S9_NS_7profile26WrapperReflectionAllocatorIS6_EEE6GetKeyESD_Lb1EE6createERS4_Rb
GYa:__ZNK6Camera19GetProjectionMatrixEv
kEl:_Predicate_1_BeginInvoke_m1856151290_gshared
EUd:__ZNK5physx2Cm12DelegateTaskINS_2Sc5SceneEXadL_ZNS3_18clothPreprocessingEPNS_10PxBaseTaskEEEE7getNameEv
Ytd:__ZNK5physx7NpScene24getWakeCounterResetValueEv
Xmd:__ZN5physx20NpRigidActorTemplateINS_14PxRigidDynamicEE17resolveReferencesERNS_24PxDeserializationContextE
Jgj:_ReadOnlyCollection_1_System_Collections_IList_Contains_m673434054_gshared
tef:_StackTrace__ctor_m2404985356
oLd:__ZN5physx2Gu32PCMConvexVsMeshContactGeneration20generateLastContactsEv
m3:__Z38PreallocateObjectFromPersistentManagerib
W9e:_DateTime_System_IConvertible_ToSingle_m3927769066
J8c:__ZThn12_N5physx10NpMaterialD0Ev
fxk:__ZL84Collider_t3497673348_CustomAttributesCacheGenerator_Collider_get_enabled_m3927623311P21CustomAttributesCache
T8f:_CostDelegate__ctor_m80452417
pZ:__GLOBAL__sub_I_runtime_interfaces_lump_cpp
_pb:__ZNK9Texture2D20GetUnscaledTextureIDEv
GEd:__ZN5physx2Gu29EPASupportMapPairRelativeImplINS0_9TriangleVENS0_8CapsuleVEED0Ev
S_d:__ZN5physx6shdfnd4sortIjNS_19SortBoundsPredicateENS0_19ReflectionAllocatorIjEEEEvPT_jRKT0_RKT1_j
xSl:_glFenceSync__wrapper
wAf:_MonoType_get_ContainsGenericParameters_m3229732653
cJ:__Z103Register_UnityEngine_Animations_AnimatorControllerPlayable_INTERNAL_CALL_IsParameterControlledByCurveIDv
hbd:__ZN5physx7NpShape14onRefCountZeroEv
J2i:_Queue_1_Peek_m1463479953_gshared
WSg:_AudioClipPlayable_INTERNAL_CALL_GetStartDelayInternal_m3715907549
cMk:__ZL53InputField_t1631627530_CustomAttributesCacheGeneratorP21CustomAttributesCache
wtl:_MoveDiagonalLeftForwardPlayerState__ctor_m2817091813
p_d:__ZL15TestContainmentRKN5physx6PxVec3EPKfjPKNS_2Gu15HullPolygonDataE
dqb:__ZNK9Texture2D26CanReuploadDataToGfxDeviceEv
ISb:__ZN18StreamedBinaryReadILb0EE21TransferSTLStyleArrayI13dynamic_arrayI4AABBLj4EEEEvRT_17TransferMetaFlags
Dtj:__Z119RuntimeInvoker_Int32_t2071877448_RuntimeObject_Int32_t2071877448_Int32_t2071877448_CharU26_t1894467670_SByte_t454417549PFvvEPK10MethodInfoPvPS4_
Csg:_UInt16_System_IConvertible_ToDouble_m4100549304_AdjustorThunk
pta:__Z29ClearRepeatingLogMessageStatev
cxk:__ZL82Rigidbody_t4233889191_CustomAttributesCacheGenerator_Rigidbody_AddForce_m334589953P21CustomAttributesCache
qXd:__ZN5physx2Gu11HeightField12loadFromDescERKNS_17PxHeightFieldDescEb
uOe:_Single_System_IConvertible_ToInt16_m962677079
C8:__ZN21EnlightenSceneMappingaSERKS_
_aj:_Collection_1_SetItem_m546457615_gshared
vdi:__ZNK6il2cpp8metadata21Il2CppGenericInstHashclEPK17Il2CppGenericInst
IOe:_Single_System_IConvertible_ToUInt32_m2447833283
jhj:_ReadOnlyCollection_1_System_Collections_IList_Add_m3806843030_gshared
MOa:__ZN7ApiGLESD2Ev
A9a:__ZN9Transform47ClearTransformHierarchyAndApplyToSerializedDataEv
T9k:_InternalEnumerator_1_get_Current_m4083613828_AdjustorThunk
crd:__ZN5physx6shdfnd8PoolBaseINS_2Gu30LargePersistentContactManifoldENS0_19ReflectionAllocatorIS3_EEE12allocateSlabEv
r8c:__ZNK5physx10NpMaterial17getReferenceCountEv
rHe:_RijndaelManaged_GenerateKey_m3366247933
Rrf:_BinaryReader_ReadUInt64_m1893783375
q8i:_Collection_1_System_Collections_IEnumerable_GetEnumerator_m3927563793_gshared
ldb:__ZN17PersistentManager9AddStreamEv
KMl:dynCall_fidi
MKh:__ZN15dense_hashtableINSt3__24pairIK10KeyWrapperINS1_IPK9FieldInfoP11Il2CppClassEEEjEES9_17ReflectionMapHashIS8_EN14dense_hash_mapIS9_jSD_NS9_14EqualsComparerINS0_8equal_toIS8_EEEENS0_9allocatorISB_EEE9SelectKeyESI_SK_E12resize_deltaEjj
Orc:__Z47Register_UnityEngine_GUIStyle_set_imagePositionv
sPd:__ZN5physx20getVertexEdgeIndicesERKNS_2Gu11HeightFieldEjjjPNS_8EdgeDataE
prc:__Z49GUIStyle_CUSTOM_INTERNAL_CALL_Internal_DrawCursor13Il2Cpp_IntPtrRK5RectTIfEP12Il2CppObjectiRK10ColorRGBAf
J3g:_ScrollRect_set_movementType_m3292965850
$ik:__ZL59AttributeTargets_t1984597432_CustomAttributesCacheGeneratorP21CustomAttributesCache
iwd:__ZN5physx6shdfnd5ArrayIPNS_2Sc8BodyCoreENS0_19ReflectionAllocatorIS4_EEE6resizeEjRKS4_
cjl:_RectTransform_set_anchorMin_m4247668187
_Mc:__ZN5physx3Cct26CharacterControllerManager16createControllerERNS_9PxPhysicsEPNS_7PxSceneERKNS_16PxControllerDescE
EX:__ZN11UnityEngine15CloudWebService14RestDownloaderD2Ev
gcb:__Z29StdTemplateConversionFunctionIjhEbPvR14SafeBinaryRead
nSi:_List_1_GrowIfNeeded_m2986672263_gshared
h4k:_ArrayReadOnlyList_1_Remove_m2325516426_gshared
P1e:_Hashtable_get_Count_m830088216
Dbc:__ZNK13MonoBehaviour13GetScriptTypeEv
Zha:__ZN13RenderTexture12SetDimensionE16TextureDimension
jll:_ScriptableObject_CreateInstance_m3921674852
Ve:_SDL_FreeRW
pzd:__ZN5physx6shdfnd8PoolBaseINS_2Cm5BlockIhLj128EEENS0_19ReflectionAllocatorIS4_EEE15disposeElementsEv
qJe:_SHA1Internal_FillBuff_m891541953
rmk:__ZL62ResolveEventHandler_t3842432458_CustomAttributesCacheGeneratorP21CustomAttributesCache
Lve:__Z34CanvasRenderer_Get_Custom_PropCullP12Il2CppObject
tjd:__ZN5physx3Scb14ParticleSystem14setRestOffsetsEjRKNS_16PxStrideIteratorIKjEERKNS2_IKfEE
f2d:__ZN12MeshCollider11CreateShapeEPvPK9RigidbodyRK8Vector3f
HP:__ZN20SoundChannelInstance8getDelayE14FMOD_DELAYTYPEPjS1_
ebi:__ZNSt3__26__treeINS_12__value_typeIPvxEENS_19__map_value_compareIS2_S3_NS_4lessIS2_EELb1EEENS_9allocatorIS3_EEE12__find_equalIS2_EERPNS_16__tree_node_baseIS2_EESF_RKT_
Tok:__ZL97Application_t354826772_CustomAttributesCacheGenerator_Application_InvokeOnBeforeRender_m799598445P21CustomAttributesCache
Oti:_InputField_set_customCaretColor_m3534590098
T3g:_ScrollRect_set_viewport_m323693490
ngk:__ZL66RijndaelManagedTransform_t135163252_CustomAttributesCacheGeneratorP21CustomAttributesCache
gkf:_NumberFormatter_FormatExponential_m3975285307
rde:__ZNSt3__26vectorIN20TextRenderingPrivate8FontImpl13CharacterInfoE13stl_allocatorIS3_L18MemLabelIdentifier1ELi16EEE8__appendEj
v:tempBigInt
bf:_emscripten_glVertexAttrib1fv
AUb:__ZNSt3__26vectorIN9ShaderLab20SerializedSubProgram12UAVParameterENS_9allocatorIS3_EEE7reserveEj
gDj:__Z116RuntimeInvoker_Void_t1841601450_PlayableHandleU26_t4210769902_Int32_t2071877448_Int32_t2071877448_Single_t2076509932PFvvEPK10MethodInfoPvPS4_
XMi:_Array_InternalArray__get_Item_TisTypeTag_t141209596_m1747911007_gshared
oKg:_AnimationCurve_Init_m1486386337
vYg:_Component_GetComponents_m3712441745
Yud:__ZN5physx13NpVolumeCacheC2EPNS_2Sq17SceneQueryManagerEjj
pWc:__ZThn24_N5physx2Sc20ArticulationJointSimD1Ev
yui:_InputField_get_selectionAnchorPosition_m466595604
yik:__ZL99Thread_t241561612_CustomAttributesCacheGenerator_Thread_t241561612____ExecutionContext_PropertyInfoP21CustomAttributesCache
oSe:_DecoderReplacementFallback_get_DefaultString_m3399348550
vxl:_UnityAction_4_Invoke_m3312096275_gshared
RPk:__ZL111LayoutUtility_t4076838048_CustomAttributesCacheGenerator_LayoutUtility_U3CGetPreferredHeightU3Em__5_m1524880643P21CustomAttributesCache
sMh:__ZN24dense_hashtable_iteratorINSt3__24pairIK10KeyWrapperINS1_IPK10MethodInfoP11Il2CppClassEEEjEES9_17ReflectionMapHashIS8_EN14dense_hash_mapIS9_jSD_NS9_14EqualsComparerINS0_8equal_toIS8_EEEENS0_9allocatorISB_EEE9SelectKeyESI_SK_E30advance_past_empty_and_deletedEv
ujd:__ZN5physx2Sc18ParticleSystemCore14setRestOffsetsEjRKNS_16PxStrideIteratorIKjEERKNS2_IKfEE
TEc:__ZN5physx2Gu16testPolyDataAxisERKNS0_8CapsuleVERKNS0_13PolygonalDataEPNS0_12SupportLocalERKNS_6shdfnd3aos6FloatVERSB_RNSA_5Vec3VE
Vjl:_RectTransformUtility_ScreenPointToRay_m1842507230
b7a:__ZN16ReflectionProbes16UpdateSampleDataEv
gZc:__ZN5physx2Sc17ParticleSystemSimD0Ev
HQk:_Enumerator_VerifyState_m2118679243_gshared
wFb:__ZN14SafeBinaryRead21TransferSTLStyleArrayI10vector_setI4PPtrI10MonoScriptENSt3__24lessIS4_EE13stl_allocatorIS4_L18MemLabelIdentifier76ELi16EEEEEvRT_17TransferMetaFlags
Mqi:_Graphic_UnregisterDirtyLayoutCallback_m1724443555
jbh:_SafeHandle_Finalize_m1839546519
Cvb:__ZN14Texture2DArray5ResetEv
lyc:__ZN8JSONRead21TransferSTLStyleArrayINSt3__26vectorI10RectOffset13stl_allocatorIS3_L18MemLabelIdentifier1ELi16EEEEEEvRT_S5_17TransferMetaFlags
Wdl:_InternalEnumerator_1_MoveNext_m252820768_AdjustorThunk
Ydh:_Context_AllocateNamedDataSlot_m3200404053
Bwa:__ZN14BatchAllocator6CommitE18MemLabelIdentifier
K2f:_X509EnhancedKeyUsageExtension_Decode_m3866320499
ckf:_NumberFormatter_AppendIntegerStringWithGroupSeparator_m1401773574
ZIh:__ZNK6il2cpp2vm14TypeNameParser10NextWillBeEcb
nRf:_CipherSuite_get_ServerHMAC_m3566778727
R8j:__ZL64DebuggerBrowsableState_t944457511_CustomAttributesCacheGeneratorP21CustomAttributesCache
zf:_JS_Sound_Play
Ysi:_Image_IsRaycastLocationValid_m864962354
Mpj:__Z181RuntimeInvoker_Void_t1841601450_RuntimeObject_Int32_t2071877448_Int32_t2071877448_RuntimeObject_Int32_t2071877448_Int32_t2071877448_RuntimeObject_Int32_t2071877448_Int32_t2071877448PFvvEPK10MethodInfoPvPS4_
xTb:__ZN9ShaderLab16SerializedShader8TransferI14SafeBinaryReadEEvRT_
$wa:__ZN5Mutex7TryLockEv
CXg:_Collision_get_collider_m3340328360
fC:__ZN7mecanim8skeleton13SkeletonAlignEPKNS0_8SkeletonERKN4math7_float4ES7_i
w3b:__ZN19ShaderPropertySheet16SetVectorIndexedEN9ShaderLab16FastPropertyNameEifRK8Vector4fNS_8SetFlagsE
Mr:__ZN14SafeBinaryRead21TransferSTLStyleArrayIN4core12basic_stringIcNS1_20StringStorageDefaultIcEEEEEEvRT_17TransferMetaFlags
Mcg:_RemotingConfiguration_RegisterWellKnownServiceType_m2491506630
U1g:_RectMask2D_OnCanvasHierarchyChanged_m2610677147
idk:__ZL55_TypeBuilder_t2783404358_CustomAttributesCacheGeneratorP21CustomAttributesCache
duh:__ZL25UnresolvedVirtualCall_204P12Il2CppObjectPK10MethodInfo
Kcb:__Z29StdTemplateConversionFunctionIayEbPvR14SafeBinaryRead
rod:__ZNK5physx20NpRigidActorTemplateINS_13PxRigidStaticEE14getConstraintsEPPNS_12PxConstraintEjj
pHc:__ZN25MeshMTDGenerationCallbackD0Ev
exi:_LayoutRebuilder_Initialize_m2671585490
KXi:_List_1_System_Collections_IList_IndexOf_m4061554721_gshared
fY:__ZN11UnityEngine15CloudWebService14DataDispatcher4StopEv
MLg:_AnimationLayerMixerPlayable_SetLayerAdditive_m4206337590_AdjustorThunk
CUb:__ZNSt3__26vectorIN9ShaderLab20SerializedSubProgram12UAVParameterENS_9allocatorIS3_EEE8__appendEj
P5i:_Collection_1_GetEnumerator_m434271983_gshared
lOh:__ZNK15dense_hashtableINSt3__24pairIK10KeyWrapperINS1_IPK9EventInfoP11Il2CppClassEEEjEES9_17ReflectionMapHashIS8_EN14dense_hash_mapIS9_jSD_NS9_14EqualsComparerINS0_8equal_toIS8_EEEENS0_9allocatorISB_EEE9SelectKeyESI_SK_E12test_deletedERK24dense_hashtable_iteratorISB_S9_SD_SM_SI_SK_E
Ooc:__ZN5IMGUI9GUIWindow5OnGUIER8GUIState
oVk:_Enumerator_get_Current_m2986380627_gshared
Jka:__ZN17ScriptingGCHandle7AcquireE18ScriptingObjectPtr25ScriptingGCHandleWeakness
Zch:_LifetimeServices_set_LeaseTime_m1487876644
Dzg:_ConstructorBuilder_not_supported_m3687319507
bT:__ZN19AudioPlayableOutputC2EjP13PlayableGraph
O6j:__ZL48IList_t3321498491_CustomAttributesCacheGeneratorP21CustomAttributesCache
o3c:__ZN5physx12NpConstraint8comShiftEPNS_12PxRigidActorE
zOe:_Single_System_IConvertible_ToInt64_m3555853323_AdjustorThunk
dfl:_InternalEnumerator_1__ctor_m3901400705_AdjustorThunk
lLl:dynCall_iifiii
Vua:__Z21HasAlphaTextureFormat13TextureFormat
fS:__ZN12AudioManager6UpdateEv
Qua:__ZN14ImageReference9BlitImageERKS_NS_8BlitModeE
pHg:_MonoMethod_get_MethodHandle_m1882915015
Gt:__ZN8Animator12AddToManagerEv
kbk:__ZL93ConstructorInfo_t2851816542_CustomAttributesCacheGenerator_ConstructorInfo_Invoke_m2144827141P21CustomAttributesCache
fTk:_ShimEnumerator_get_Key_m1171725158_gshared
TDc:__ZNK5physx2Gu16SupportLocalImplINS0_11ConvexHullVEE9doSupportERKNS_6shdfnd3aos5Vec3VERNS5_6FloatVESA_
oEb:__ZN23CachedSerializationDataD2Ev
H6a:__ZNK25CameraStackRenderingState31CalculateStereoCameraTargetTypeEv
OAc:__ZNK5physx3Cct13BoxController8getActorEv
Onb:__ZN14RenderSettings23VirtualRedirectTransferER14SafeBinaryRead
g1h:__ZN6il2cpp2os10ThreadImpl15CurrentThreadIdEv
Gaj:_Collection_1_System_Collections_IList_get_IsReadOnly_m4005091053_gshared
Ayi:_Array_InternalArray__ICollection_Contains_TisColor32_t874517518_m2818328910_gshared
alb:__ZN17GlobalGameManager8TransferI17RemapPPtrTransferEEvRT_
hYd:__ZN5physx6shdfnd8internal8HashBaseIPNS_2Gu12TriangleMeshES5_NS0_4HashIS5_EENS1_11HashSetBaseIS5_S7_NS0_9AllocatorELb1EE6GetKeyES9_Lb1EE5eraseERKS5_
gMf:_AppDomainInitializer_EndInvoke_m4003801172
w6j:__ZL66RuntimeArray_CustomAttributesCacheGenerator_Array_Sort_m2544329074P21CustomAttributesCache
uhl:_RaycastHit2D_get_point_m442317739
Lri:_LayoutGroup_SetChildAlongAxis_m1615929339
Anb:__ZN16LevelGameManager8TransferI18StreamedBinaryReadILb0EEEEvRT_
hqe:_UNITY_tt_face_load_fpgm
$yb:__ZN12InputManagerD0Ev
obi:__ZN6il2cpp6icalls8mscorlib6System11Diagnostics10StackTrace9get_traceEP15Il2CppExceptionib
rlf:_NumberFormatInfo_set_NumberNegativePattern_m1050626150
rVj:_GUIStyle_get_overflow_m1125058093
KHk:__ZL109PlayerConnection_t3517219175_CustomAttributesCacheGenerator_PlayerConnection_DisconnectedCallback_m4115432464P21CustomAttributesCache
Q3g:_ScrollRect_get_scrollSensitivity_m1160815603
Hlg:_UnicodeEncoding_GetBytes_m1337660232
M3c:__ZN5physx2Sc9RigidCore20removeShapeFromSceneERNS0_9ShapeCoreEb
oRb:__Z18Transfer_BlittableI18StreamedBinaryReadILb0EELb1EtEvRK29SerializationCommandArgumentsR31RuntimeSerializationCommandInfo
_Hl:_posix_memalign
M3b:__ZN13ProduceHelperI12MeshRendererLb0EE7ProduceE18MemLabelIdentifier18ObjectCreationMode
N_d:__ZN5physx11RTreeCooker18buildFromTrianglesERNS_2Gu5RTreeEPKNS_6PxVec3EjPKtPKjjRNS_6shdfnd5ArrayIjNSB_19ReflectionAllocatorIjEEEEPNS0_13RemapCallbackEfNS_17PxMeshCookingHint4EnumE
XZc:__ZN5physx6shdfnd5ArrayIPvNS0_15InlineAllocatorILj256ENS0_19ReflectionAllocatorINS_14NpArticulationEEEEEE15growAndPushBackERKS2_
e2i:_List_1_get_Count_m1249351212_gshared
bfl:_InternalEnumerator_1_get_Current_m747506907_AdjustorThunk
fVg:_Camera_get_eventMask_m4241372419
vRd:__ZN29PxsCreateFinalizeContactsTaskD0Ev
ntj:__Z38RuntimeInvoker_PaddingMode_t3032142640PFvvEPK10MethodInfoPvPS4_
fRf:_CertificateValidationCallback2_BeginInvoke_m3996282202
_Xf:_SslClientStream_get_ClientCertSelectionDelegate_m2316959461
y$e:_SynchronizedArrayListWrapper_get_SyncRoot_m1466044127
r4:__ZNK15MonoScriptCache7ReleaseEv
zwh:__ZN6il2cpp2vm5Class13HasReferencesEP11Il2CppClass
UMd:__ZN5physx9PxTaskMgrC2EPNS_15PxCpuDispatcherEPNS_15PxGpuDispatcherEPNS_15PxSpuDispatcherE
Ng:_glBindTexture
M5i:_Collection_1_ClearItems_m3585785594_gshared
oGl:_snprintf
WOk:__ZL84HorizontalOrVerticalLayoutGroup_t1968298610_CustomAttributesCacheGenerator_m_SpacingP21CustomAttributesCache
Xxg:_Binder__ctor_m1361613966
vui:_InputField_set_caretPosition_m888572237
UCg:_ILGenerator__cctor_m3943061018
P_e:_ArrayListWrapper_Clone_m1506311066
R_g:_Event_get_character_m3740896233
asa:__Z36scripting_liveness_calculation_begin17ScriptingClassPtriPFvPP12Il2CppObjectiPvES3_PFvvES7_
xzl:_ListPool_1_Get_m4215629480_gshared
IMa:__ZN16UniformCacheGLES6CreateERK20GpuProgramParameters
Vmg:_UTF8Encoding_Fallback_m811555654
Kug:_UInt64_CompareTo_m3513742483
_Di:_Array_InternalArray__IndexOf_TisPlayableBinding_t2498078091_m398853908_gshared
gll:_ScriptableObject_t1975622470_marshal_pinvoke_cleanup
wkg:_Encoding_GetString_m1894033578
egj:_ReadOnlyCollection_1_System_Collections_IList_Clear_m1918003010_gshared
bnl:_TextGenerator_t647235000_marshal_pinvoke_cleanup
Kmj:__Z77RuntimeInvoker_Void_t1841601450_RuntimeObject_RuntimeObject_Int32_t2071877448PFvvEPK10MethodInfoPvPS4_
HPl:_emscripten_glGetProgramInfoLog__wrapper
KE:__ZN25AnimatedPropertyEvaluator29BindCurveToScriptingObjectPtrERKN13AnimationClip10FloatCurveEj18ScriptingObjectPtrb
sBk:__ZL94Font_t4239498691_CustomAttributesCacheGenerator_Font_InvokeTextureRebuilt_Internal_m2007522718P21CustomAttributesCache
_Gc:__ZN5physx2Gu17EPASupportMapPairD2Ev
Zmg:_UTF8Encoding_InternalGetChars_m373801468
h6:__ZN17PersistentManager23DestroyFromFileInternalEi
Iuk:__ZL98Object_t1021602117_CustomAttributesCacheGenerator_Object_DoesObjectWithInstanceIDExist_m2570795274P21CustomAttributesCache
sll:_ScrollViewState__ctor_m535685782
o$a:__Z19SetupMotionMatricesR6CameraR18RPDataMotionVector
tgf:_Enum_ToString_m2112979707
inl:_TextGenerator_ValidatedSettings_m1640214759
Iek:__ZL55SoapServices_t3397513225_CustomAttributesCacheGeneratorP21CustomAttributesCache
vag:_MonoMethodMessage_get_MethodName_m3580519713
uD:__ZN26AnimatorControllerPlayable18PrepareForPlaybackERN7mecanim6memory9AllocatorE
aDd:__ZN5physx19PxsMaterialCombiner24combineIsotropicFrictionERKNS_15PxsMaterialDataES3_
Cff:_Enum_t2459695545_marshal_pinvoke_cleanup
Dll:_HitInfo_t1761367055_marshal_pinvoke_cleanup
QCi:_Array_FindLastIndex_TisRuntimeObject_m986818300_gshared
rNi:_Array_InternalArray__get_Item_TisUIVertex_t1204258818_m3450355955_gshared
cOi:_Mesh_GetAllocArrayFromChannel_TisColor32_t874517518_m2030100417_gshared
Akd:__ZN5physx22NpParticleBaseTemplateINS_16PxParticleSystemENS_16NpParticleSystemEE20lockParticleReadDataEv
Dla:__ZN22CreateGpuProgramOutputC2Ev
u5f:_X509Chain__ctor_m2242540866
dxk:__ZL92Rigidbody_t4233889191_CustomAttributesCacheGenerator_Rigidbody_AddForce_m2352384298____mode3P21CustomAttributesCache
IQj:_Object__ctor_m197157284
Jtk:__ZL99SortingLayer_t221838959_CustomAttributesCacheGenerator_SortingLayer_GetLayerValueFromID_m4029056996P21CustomAttributesCache
Cuf:_MemoryStream_InternalConstructor_m2423667240
Ajh:_CapturingGroup_set_Index_m2175936006
qbg:_SoapMethodAttribute_SetReflectionObject_m3431595769
VYd:__ZN5physx7Cooking16cookTriangleMeshERKNS_18PxTriangleMeshDescERNS_14PxOutputStreamE
t6g:_Slider_set_maxValue_m2951480075
iye:__Z38CustomEventData_CUSTOM_InternalDestroyP12Il2CppObject
P8d:__ZN14CompletionTask4InitEPN5physx7PxSceneE
hXc:__ZN5physx2Sc7ElementD0Ev
s$d:__ZN5physx6shdfnd10Foundation7releaseEv
ywh:__ZN6il2cpp2vm5Class4InitEP11Il2CppClass
cd:invoke_vidi
I9b:__ZNK15GUIEventManager15GetEventAtIndexEi
Ste:__ZN2UI14CanvasRenderer17SyncDirtyElementsER8JobFence
kRb:__Z18Transfer_BlittableI18StreamedBinaryReadILb0EELb0ExEvRK29SerializationCommandArgumentsR31RuntimeSerializationCommandInfo
$li:_ColorBlock_op_Inequality_m1517672458
m4h:__ZN6il2cpp5utils11StringUtils15StringDuplicateEPKc
lzk:__ZL156AnimatorControllerPlayable_t1744083903_CustomAttributesCacheGenerator_AnimatorControllerPlayable_INTERNAL_CALL_GetAnimatorTransitionInfoInternal_m1417370130P21CustomAttributesCache
G8a:__Z15CanAddComponentR10GameObjectPKN5Unity4TypeE
Wka:__ZNK9ShaderLab21ShaderRasterStateDesc16ToGfxRasterStateEPK19ShaderPropertySheetS3_R14GfxRasterState
Vti:_InputField_set_onValueChange_m1749304609
nig:_CspParameters__ctor_m2480441577
kdi:__ZN6il2cpp2os9EventImplC2Ebb
zdh:_DynamicPropertyCollection_NotifyMessage_m840388347
Kkh:_Uri_ParseUri_m5711497
BE:__ZN4PPtrI13MonoBehaviourE8TransferI19StreamedBinaryWriteILb0EEEEvRT_
Uyj:__Z98RuntimeInvoker_RuntimeObject_RuntimeObject_RayU26_t3651946800_Single_t2076509932_Int32_t2071877448PFvvEPK10MethodInfoPvPS4_
h$:__Z20IsMatrixBuiltinParamPKcPi
O6i:_Collection_1_CheckWritable_m2467777750_gshared
UMk:__ZL108MaskableGraphic_t540192618_CustomAttributesCacheGenerator_MaskableGraphic_ParentMaskStateChanged_m3643747340P21CustomAttributesCache
hMh:__ZN15dense_hashtableINSt3__24pairIK10KeyWrapperINS1_IPK10MethodInfoP11Il2CppClassEEEjEES9_17ReflectionMapHashIS8_EN14dense_hash_mapIS9_jSD_NS9_14EqualsComparerINS0_8equal_toIS8_EEEENS0_9allocatorISB_EEE9SelectKeyESI_SK_E16reset_thresholdsEv
d3b:__ZN8Renderer19PostInitializeClassEv
rol:_TrackedReference_t1045890189_marshal_pinvoke_back
b5k:_InternalEnumerator_1_get_Current_m1943362081_AdjustorThunk
xql:_Vector3_get_sqrMagnitude_m1814096310_AdjustorThunk
A9h:__ZN6il2cpp6icalls8mscorlib6System8Delegate23CreateDelegate_internalEP20Il2CppReflectionTypeP12Il2CppObjectP22Il2CppReflectionMethodb
Q5j:__ZL82RuntimeArray_CustomAttributesCacheGenerator_Array_GetValue_m1507415734____indices0P21CustomAttributesCache
jyg:_Default_check_type_m2363631305
EDb:__ZN18DelayedCallManager18CancelCallDelayed2E4PPtrI6ObjectEPF15CallObjectStatePS1_PvES7_
mGg:_MonoCMethod_get_DeclaringType_m4147430117
yfb:__ZN25ThreadsafeLinearAllocator10ReallocateEPvji
bGb:__Z18Transfer_BlittableI14SafeBinaryReadLb1E11QuaternionfEvRK29SerializationCommandArgumentsR31RuntimeSerializationCommandInfo
r1c:__ZNK5physx18PxArticulationLink8isKindOfEPKc
Vca:__ZN18SpriteAtlasManagerD0Ev
aEi:_Array_InternalArray__IndexOf_TisRaycastHit2D_t4063908774_m3739817942_gshared
_Hg:_MonoProperty_GetAccessors_m3704698731
i9d:__Z25CreatePxMeshFromUnityMeshP4MeshbbRK10Matrix4x4f13TransformTypef
b9h:_GC_disable
Kwb:__ZN10Matrix4x4f8TransferI14SafeBinaryReadEEvRT_
nn:FUNCTION_TABLE_vifiiiiiiiiiiiiiiiiii
Txf:_UnmanagedMemoryStream_ReadByte_m2501145010
Aeg:_ObjectRecord_UnchainFixup_m3025030310
A6:__Z6AppendRKN4core12basic_stringIcNS_20StringStorageDefaultIcEEEEPKc
c5j:__ZL60MulticastDelegate_t3201952435_CustomAttributesCacheGeneratorP21CustomAttributesCache
$ra:__ZL14OnWorldStoppedv
AOb:__Z18Transfer_BlittableI18StreamedBinaryReadILb1EELb0E8Vector3fEvRK29SerializationCommandArgumentsR31RuntimeSerializationCommandInfo
Tyj:__Z81RuntimeInvoker_RuntimeObject_Ray_t2469606224_Single_t2076509932_Int32_t2071877448PFvvEPK10MethodInfoPvPS4_
Wjd:__ZN5physx3Scb14ParticleSystem12ForceUpdates7destroyEv
XLk:__ZL61Image_t2042527209_CustomAttributesCacheGenerator_m_FillCenterP21CustomAttributesCache
KFa:__ZN7ApiGLES18ClearBufferSubDataEjN2gl12BufferTargetEll
col:_Touch_get_type_m3264731406_AdjustorThunk
Yec:__Z37Camera_Get_Custom_PropAllCamerasCountv
Xvb:__ZN14Texture2DArray8TransferI18StreamedBinaryReadILb0EEEEvRT_
N4c:__ZN5physx15NpActorTemplateINS_18PxArticulationLinkEED2Ev
I3a:__Z18ApplyOcclusionMaskR19ProbeOcclusionCacheRK17LightProbeContextRK10RenderNodeb
Wtf:_FileStreamAsyncResult__ctor_m1096228032
Kke:_Split_Cubic
V0d:__ZN11BoxCollider8TransferI18StreamedBinaryReadILb0EEEEvRT_
fuk:__ZL78Time_t31991979_CustomAttributesCacheGenerator_Time_get_unscaledTime_m862335845P21CustomAttributesCache
aji:_StandaloneInputModule_ProcessMouseEvent_m3840335260
Sbf:_DBNull_System_IConvertible_ToSByte_m1228193074
u5i:_Collection_1__ctor_m2818834331_gshared
pNi:_Array_InternalArray__get_Item_TisUICharInfo_t3056636800_m3872982785_gshared
Zxj:__Z68RuntimeInvoker_UInt16_t986882611_UInt16_t986882611_UInt16_t986882611PFvvEPK10MethodInfoPvPS4_
R8d:__Z19ExtractDataFromMeshR4MeshR13dynamic_arrayI8Vector3fLj4EERS1_ItLj2EES6_
IOg:_AnimatorControllerPlayable_INTERNAL_CALL_GetLayerIndexInternal_m2875146206
i1h:__ZN6il2cpp2os10ThreadImpl22CreateForCurrentThreadEv
Wyk:__ZL136AnimationOffsetPlayable_t1019600543_CustomAttributesCacheGenerator_AnimationOffsetPlayable_INTERNAL_CALL_GetPositionInternal_m1117100583P21CustomAttributesCache
K8i:_Collection_1_Insert_m3041550124_gshared
d6c:__ZN5physx2Sc16ArticulationCore26setMaxProjectionIterationsEj
vtf:_FileStream_FlushBuffer_m2594140542
VKc:__ZN26IntersectAnyVsMeshCallbackILi1ELb0EED2Ev
hsc:__Z64Register_UnityEngine_GUIStyle_GetFontInternalDuringLoadingThreadv
wke:_ft_black_render
_4h:__ZN6il2cpp2vm8Profiler12GCHeapResizeEx
RMl:dynCall_viiifi
zJa:__ZN18GfxFramebufferGLES20ActiveContextChangedEPP17RenderSurfaceBaseS2_
Ylk:__ZL51TimeSpan_t3430258949_CustomAttributesCacheGeneratorP21CustomAttributesCache
vJa:__Z19PluginsRenderMarkeri
Muk:__ZL80Object_t1021602117_CustomAttributesCacheGenerator_Object_Instantiate_m2439155489P21CustomAttributesCache
jF:__ZN10HumanTrait18InitializeBoneNameEv
g$k:_DefaultComparer__ctor_m899694595_gshared
LMg:_AnimationPlayableOutput_GetHandle_m1362491789_AdjustorThunk
ukh:__ZN23InterfaceActionInvoker1ItE6InvokeEjP11Il2CppClassP12Il2CppObjectt
g8e:_Convert_ToSByte_m1570938941
kSb:__Z29Transfer_Blittable_ArrayFieldI18StreamedBinaryReadILb0EEyEvRT_R9ArrayInfoRK23StaticTransferFieldInfo
Ymh:_X509CertificateEnumerator_get_Current_m3129374511
B1k:_EqualityComparer_1_get_Default_m875724809_gshared
MYh:__ZNSt3__214__split_bufferIN6il2cpp2vm5Image20EmbeddedResourceDataERNS_9allocatorIS4_EEEC2EjjS7_
eed:__ZNK5physx7NpCloth25getNbSelfCollisionIndicesEv
tck:__ZL57DispIdAttribute_t607560947_CustomAttributesCacheGeneratorP21CustomAttributesCache
UK:__ZN12AudioManager17RemoveAudioSourceEP11AudioSource
qRl:_emscripten_glBindProgramARB__wrapper
F6j:__ZL83RuntimeArray_CustomAttributesCacheGenerator_RuntimeArray____LongLength_PropertyInfoP21CustomAttributesCache
rtj:__Z151RuntimeInvoker_Int32_t2071877448_RuntimeObject_Int32_t2071877448_Int32_t2071877448_RuntimeObject_Int32_t2071877448_DecoderFallbackBufferU26_t3597875002PFvvEPK10MethodInfoPvPS4_
sZg:_CullingGroup_Finalize_m3172731580
Dzl:_ListPool_1__cctor_m709904475_gshared
tWd:__ZNK5physx2Gu10ConvexMesh17getReferenceCountEv
dNi:_Array_InternalArray__get_Item_TisUInt64_t2909196914_m2580870875_gshared
aRh:__ZN15dense_hashtableINSt3__24pairIK10KeyWrapperINS1_IP11Il2CppClassjEEES4_EES6_N6il2cpp8metadata14ArrayClassHashEN14dense_hash_mapIS6_S4_SB_NS6_14EqualsComparerINSA_17ArrayClassCompareEEENS0_9allocatorIS8_EEE9SelectKeyESF_SH_E4swapERSK_
uud:__ZN5physx2Sc5Scene22setNbContactDataBlocksEj
ing:_UTF8Decoder_GetChars_m3819660582
WT:__ZN5physx14PxLightCpuTask12addReferenceEv
$rb:__ZN21EnlightenSceneMapping8TransferI19StreamedBinaryWriteILb0EEEEvRT_
l_h:__ZN6il2cpp2gc16GarbageCollector19InitializeFinalizerEv
Xy:__ZN7mecanim8skeleton18CreateSkeletonMaskEjPKNS0_19SkeletonMaskElementERNS_6memory9AllocatorE
m6j:__ZL66RuntimeArray_CustomAttributesCacheGenerator_Array_Sort_m4096942812P21CustomAttributesCache
Boc:__ZN10GUIManager10DoGUIEventER10InputEventb
URf:_Context_get_ClientWriteKey_m2235605337
aLb:__Z35Transfer_Blittable_FixedBufferFieldI24GenerateTypeTreeTransferxEvRK29SerializationCommandArgumentsR31RuntimeSerializationCommandInfo
$Rk:_Enumerator__ctor_m3597047336_AdjustorThunk
i0:__Z20CalculateSqrDistanceRK8Vector3fRK4AABB
L9d:__ZN14PhysicsManager15ProcessContactsEv
xIc:__ZN21BoxTraceSegmentReport7onEventEjPj
_0c:__ZN5physx2Sc21ArticulationJointCore13setSwingLimitEff
KO:__Z32AudioMixerDuckingProcessCallbackP21UnityAudioEffectStatePfS1_jii
iEc:__ZL20HullProjectionCB_BoxRKN5physx2Gu13PolygonalDataERKNS_6PxVec3ERKNS_2Cm8Matrix34ERKNS7_23FastVertex2ShapeScalingERfSE_
_yg:_CustomAttributeTypedArgument_GetHashCode_m999147081_AdjustorThunk
g2b:__ZN26CustomRenderTextureManagerD2Ev
Etf:_FileStream_Read_m3880951166
UId:__ZN5physx14PxsAABBManager21selfCollideAggregatesEPKNS_19AggregateSortedDataE
AL:__ZN12AudioManager8TransferI24GenerateTypeTreeTransferEEvRT_
Eoa:__Z25GetBytesFromTextureFormat13TextureFormat
Nua:__ZN9Texture3D19UnloadFromGfxDeviceEb
aRd:__ZN5physx12_GLOBAL__N_112innerProductERKNS_14Px1DConstraintERS1_RKNS0_9MassPropsE
rJb:__Z18Transfer_BlittableI17RemapPPtrTransferLb0EsEvRK29SerializationCommandArgumentsR31RuntimeSerializationCommandInfo
Fzi:_Array_InternalArray__ICollection_Remove_TisContactPoint_t1376425630_m2242111467_gshared
kLl:dynCall_iifff
uj:_emscripten_webgl_init_context_attributes
ulk:__ZL67Math_t2022911894_CustomAttributesCacheGenerator_Math_Min_m105057611P21CustomAttributesCache
DE:__ZN16MecanimAnimation25RegisterIAnimationBindingEPKN5Unity4TypeEiP17IAnimationBinding
n4:__Z32scripting_class_get_assemblyname17ScriptingClassPtr
gAe:__ZN11UnityEngine15PlatformWrapper15GetVRDeviceNameEv
DXk:_Dictionary_2_Resize_m2532139610_gshared
zml:_StackTraceUtility__cctor_m1132099289
X$i:_List_1_IndexOf_m2019441835_gshared
gFd:__ZN5physx26PxcFrictionPatchStreamPairC2ERNS_17PxcNpMemBlockPoolE
dqg:_TimeSpan_Equals_m2029123271_AdjustorThunk
DCh:__ZN6il2cpp2vm13MetadataCache23GetInvokerMethodPointerEPK10MethodInfoPK20Il2CppGenericContext
QNa:__ZN9GfxDevice21RegisterNativeTextureE9TextureIDi16TextureDimension
mif:_CultureInfo__ctor_m456863818
Dai:__ZN6il2cpp6icalls8mscorlib6System10Reflection4Emit11TypeBuilder20create_generic_classEP27Il2CppReflectionTypeBuilder
oFh:__ZNSt3__26vectorIPK10MethodInfoNS_9allocatorIS3_EEE26__swap_out_circular_bufferERNS_14__split_bufferIS3_RS5_EE
bRi:_Enumerator_MoveNext_m2504790928_gshared
XTj:_GUISkin_set_button_m412653849
Bj:_emscripten_glUniformMatrix4fv
rRh:__ZN15dense_hashtableINSt3__24pairIK10KeyWrapperINS1_IP11Il2CppClassjEEES4_EES6_N6il2cpp8metadata14ArrayClassHashEN14dense_hash_mapIS6_S4_SB_NS6_14EqualsComparerINSA_17ArrayClassCompareEEENS0_9allocatorIS8_EEE9SelectKeyESF_SH_E13set_empty_keyERKS8_
vYb:__ZN12ScriptMapperD2Ev
p3d:__ZN9Rigidbody13AwakeFromLoadE17AwakeFromLoadMode
OIk:__ZL85AxisEventData_t1524870173_CustomAttributesCacheGenerator_U3CmoveDirU3Ek__BackingFieldP21CustomAttributesCache
F6c:__ZNK5physx14NpSceneQueries10multiQueryINS_12PxOverlapHitEEEbRKNS_15MultiQueryInputERNS_13PxHitCallbackIT_EENS_7PxFlagsINS_9PxHitFlag4EnumEtEEPKNS_12PxQueryCacheERKNS_17PxQueryFilterDataEPNS_21PxQueryFilterCallbackEPNS_20BatchQueryFilterDataE
rwi:_LayoutElement_get_preferredWidth_m3246897845
Rmh:_X509Certificate_PEM_m49854707
MPg:_AnimatorControllerPlayable_GetParameter_m4243058543_AdjustorThunk
S8d:__ZL21GetMeshLocationDetailR4Mesh
N2f:_X509BasicConstraintsExtension__ctor_m3320418592
$lh:_ExtendedKeyUsageExtension_Decode_m901297139
zVb:__Z32TransferEnumWithNameForceIntSizeI14SafeBinaryRead7FogModeEvRT_RT0_PKc17TransferMetaFlags
wlc:__Z52Register_UnityEngine_RenderTexture_Internal_GetWidthv
L7j:__ZL89SafeWaitHandle_t481461830_CustomAttributesCacheGenerator_SafeWaitHandle__ctor_m1710231470P21CustomAttributesCache
N7h:_GC_check_leaked
bXb:__ZN9ShaderLab20SerializedSubProgram16TextureParameter8TransferI19StreamedBinaryWriteILb0EEEEvRT_
Mb:invoke_fiiiiiiiifiiiif
HHi:_Array_InternalArray__Insert_TisVector4_t2243707581_m1643342708_gshared
Tgb:__ZNK7Hash12812PackToUInt32Ev
a0g:_Mask_OnSiblingGraphicEnabledDisabled_m865494155
q$f:_KeysCollection_System_Collections_ICollection_get_SyncRoot_m2289369147
nY:__ZN11UnityEngine15CloudWebService16SessionContainer8AddEventEPNS0_14CloudEventInfoE
KMa:__Z4TrimRKN4core12basic_stringIcNS_20StringStorageDefaultIcEEEES5_
B7g:_Text_set_resizeTextMaxSize_m4034967714
q7j:__ZL55GuidAttribute_t222072359_CustomAttributesCacheGeneratorP21CustomAttributesCache
GRj:_GUIStyle_SetDefaultFont_m2095841351
Lyg:_CustomAttributeNamedArgument_Equals_m2691468532
m4j:__ZL74String_t_CustomAttributesCacheGenerator_String_Concat_m3881798623____args0P21CustomAttributesCache
Afk:__ZL103CryptoConfig_t896479599_CustomAttributesCacheGenerator_CryptoConfig_CreateFromName_m2169102076____args1P21CustomAttributesCache
sub:__ZN10VertexData8TransferI14SafeBinaryReadEEvRT_
f0c:__ZN5physx19NpArticulationJointD0Ev
NM:__ZN4FMOD8ChannelI8setDelayE14FMOD_DELAYTYPEjj
T3e:_Stack__ctor_m2410583781
H8h:_GC_malloc_atomic
q7d:__ZN5physx9NpPhysics14createInstanceEjRNS_12PxFoundationERKNS_17PxTolerancesScaleEbPNS_20PxProfileZoneManagerE
Mbe:__Z59Register_UnityEngine_Physics_INTERNAL_CALL_Internal_Raycastv
hyg:_Default_GetBetterMethod_m4255740863
Ozg:_ConstructorBuilder_GetILGenerator_m1731893569
Wsd:__ZNK5physx7NpScene17getFilterCallbackEv
OYh:__ZNSt3__214__split_bufferIN6il2cpp2vm5Image20EmbeddedResourceDataERNS_9allocatorIS4_EEED2Ev
t2:__ZL20SortItemByInstanceIDRKN18AwakeFromLoadQueue4ItemES2_
Y6d:__ZN5physx6shdfnd5ArrayIPvNS0_15InlineAllocatorILj256ENS0_19ReflectionAllocatorINS_24NpPtrTableStorageManager8PtrBlockILi16EEEEEEEE15growAndPushBackERKS2_
sEg:_TypeBuilder_create_runtime_class_m2719530260
oIe:_RNGCryptoServiceProvider_RngClose_m2921734810
rEk:__ZL85GUIStyle_t1799908754_CustomAttributesCacheGenerator_GUIStyle_set_richText_m1853532836P21CustomAttributesCache
pz:__ZNK34AnimationStateMachineMixerPlayable26GetInterruptedPosePlayableEv
PBe:__ZN20UnityConnectSettings8TransferI24GenerateTypeTreeTransferEEvRT_
IB:__ZN34BlobWriteTransferSTLStyleArrayImplI22OffsetPtrArrayTransferIbEEclERS1_17TransferMetaFlagsR9BlobWrite
Dok:__ZL199U3CCreateWhereIteratorU3Ec__Iterator1D_1_t2523986802_CustomAttributesCacheGenerator_U3CCreateWhereIteratorU3Ec__Iterator1D_1_System_Collections_Generic_IEnumeratorU3CTSourceU3E_get_Current_m517722874P21CustomAttributesCache
Cdj:_ReadOnlyCollection_1_Contains_m1227826160_gshared
GCf:_SimpleCollator_IsHalfKana_m4255579023
eZf:_InternalAsyncResult_get_Count_m1291942796
v3i:_Collection_1_System_Collections_IList_Contains_m3365884450_gshared
$ad:__ZN5physx7NpShape13setRestOffsetEf
i3h:__ZNK15dense_hashtableINSt3__24pairIK10KeyWrapperIPK19Il2CppGenericMethodEP10MethodInfoEES6_N6il2cpp8metadata23Il2CppGenericMethodHashEN14dense_hash_mapIS6_S9_SD_NS6_14EqualsComparerINSC_26Il2CppGenericMethodCompareEEENS0_9allocatorISA_EEE9SelectKeyESH_SJ_E10test_emptyERK30dense_hashtable_const_iteratorISA_S6_SD_SL_SH_SJ_E
CSa:__Z16FlaggedAsSkippedIN4core12basic_stringIcNS0_20StringStorageDefaultIcEEEEEbRK13FileEntryInfoRKT_19FileEnumerationFlag
Zaj:_Collection_1_set_Item_m3440986310_gshared
s8:__ZL31InitializeRendererUpdateManagerPv
iki:_BaseMeshEffect__ctor_m2843647600
Gvj:__Z106RuntimeInvoker_RuntimeObject_Int16_t4041245914_RuntimeObject_BooleanU26_t3168250738_BooleanU26_t3168250738PFvvEPK10MethodInfoPvPS4_
Bbd:__ZN5physxL11getTriangleERKNS_2Gu12TriangleMeshEjPNS_6PxVec3EPKS4_PKvRKNS_2Cm8Matrix34Eb
SR:__ZN13AudioListener12CleanupClassEv
b3d:__ZN14SafeBinaryRead21TransferSTLStyleArrayINSt3__26vectorIjNS1_9allocatorIjEEEEEEvRT_17TransferMetaFlags
LTf:_ClientSessionInfo_Dispose_m2571428025
K8:__Z13GetIEnlightenv
XWf:_RecordProtocol_decryptRecordFragment_m2510859489
$Dk:__ZL105GUIStyle_t1799908754_CustomAttributesCacheGenerator_GUIStyle_INTERNAL_set_Internal_clipOffset_m2024478897P21CustomAttributesCache
Hcd:__ZNK5physx7NpCloth16lockParticleDataEv
Vei:_BaseRaycaster_get_sortOrderPriority_m3340181311
Qzb:__ZN11TimeManager8TransferI19StreamedBinaryWriteILb0EEEEvRT_
luf:_DelegatePInvokeWrapper_ReadDelegate_t3184826381
xok:__ZL91HashSet_1_t2624254809_CustomAttributesCacheGenerator_HashSet_1_OnDeserialization_m627602129P21CustomAttributesCache
Itk:__ZL86Material_t193706927_CustomAttributesCacheGenerator_Material_DisableKeyword_m1204728089P21CustomAttributesCache
Jle:_compare_uni_maps
$qe:__ZL34RegisterModuleICalls_TextRenderingv
Xze:__ZN11UnityEngine15PlatformWrapper27GetGraphicsCapsSupportFlagsEv
ise:__ZNSt3__218__insertion_sort_3IRPFbPN2UI6CanvasES3_EPS3_EEvT0_S8_T_
E4j:__ZL80Decimal_t724701077_CustomAttributesCacheGenerator_Decimal_op_Explicit_m714968249P21CustomAttributesCache
spj:__Z172RuntimeInvoker_Int32_t2071877448_RuntimeObject_Int32_t2071877448_Int32_t2071877448_RuntimeObject_Int16_t4041245914_Int32_t2071877448_SByte_t454417549_ContextU26_t3131521781PFvvEPK10MethodInfoPvPS4_
hdf:_Decimal_Equals_m1115043331
fyd:__ZN5physx13NpRigidStatic9visualizeERNS_2Cm12RenderOutputEPNS_7NpSceneE
jOb:__ZN12NativeBufferI16Converter_StringE15SetupForWritingER9ArrayInfo
Sii:_StandaloneInputModule_DeactivateModule_m2952848884
XTl:___cxa_end_catch__wrapper
Uj:_emscripten_glVertexAttrib3fv
cld:__ZNK5physx22NpParticleBaseTemplateINS_16PxParticleSystemENS_16NpParticleSystemEE13getRestOffsetEv
THk:__ZL119RenderPipelineManager_t984453155_CustomAttributesCacheGenerator_RenderPipelineManager_CleanupRenderPipeline_m2242901458P21CustomAttributesCache
BAd:__ZN5physx6shdfnd8PoolBaseINS_2Sc35ParticleElementRbElementInteractionENS0_19ReflectionAllocatorIS3_EEE15disposeElementsEv
yth:__ZL25UnresolvedVirtualCall_171P12Il2CppObject19Vector3_t2243707580PK10MethodInfo
Wfi:_Entry__ctor_m1176697586
Qrf:_BinaryReader_ReadUInt32_m1363572147
Zuk:__ZL119PlayableHandle_t213697122_CustomAttributesCacheGenerator_PlayableHandle_INTERNAL_CALL_SetInputCountInternal_m3510545880P21CustomAttributesCache
pAf:_MonoType_get_Module_m3769241394
Dkk:__ZL79Convert_t2607082565_CustomAttributesCacheGenerator_Convert_ToUInt32_m3391339025P21CustomAttributesCache
o8a:__ZN13MonoBehaviour22DoScriptRebuildWarningEv
_ec:__Z38Camera_CUSTOM_INTERNAL_CALL_RaycastTryP12Il2CppObjectRK3Rayfi
snc:__ZN18CrashReportHandler12CloseServiceEv
K7g:_Text_get_verticalOverflow_m3134063496
NPg:_AnimatorControllerPlayable_StringToHash_m2562221043
K4b:__ZZL23RegisterLightPropertiesR22GenericPropertyBindingEN22Wrapper_LightSpotAngle13GetFloatValueEPv
Eah:_GCHandle_get_Target_m2327042781
c3f:_PublicKey_get_EncodedKeyValue_m3051963850
fuj:__Z50RuntimeInvoker_Char_t3454481338_Single_t2076509932PFvvEPK10MethodInfoPvPS4_
nre:__Z38TextGenerator_Get_Custom_PropLineCountP12Il2CppObject
CIc:__ZN5physx2Gu26EPASupportMapPairLocalImplINS0_9TriangleVENS0_4BoxVEED0Ev
NJl:_llvm_cttz_i32
g3f:_PublicKey_DecodeDSA_m1169363495
Jpc:__ZN11IMGUIModule25GetGUIStyleScriptingClassEv
Hoe:_tt_get_interface
WJi:_Array_Sort_TisRuntimeObject_m143182644_gshared
Xhg:_AsymmetricKeyExchangeFormatter__ctor_m3362140205
jUh:__ZN6il2cpp5utils9PathUtils7CombineIcEENSt3__212basic_stringIT_NS3_11char_traitsIS5_EENS3_9allocatorIS5_EEEERKSA_SC_
h$f:_NameObjectCollectionBase_BaseGet_m667273025
cJd:__ZN5physx14PxsAABBManager16processBPResultsERKNS_20PxsComputeAABBParamsE
vwc:__ZN9JSONWrite8TransferI13dynamic_arrayIiLj4EEEEvRT_PKc17TransferMetaFlags
jHd:__ZN5physx23PxsBroadPhaseContextSapD2Ev
U_d:__ZN5physx12SubSortQuickC2EPjPKNS_10PxBounds3VEjf
z1:__Z18ConvertUTF16toUTF8PPKtS0_PPhS2_15ConversionFlags
D2h:__ZN6il2cpp2os20PathErrnoToErrorCodeERKNSt3__212basic_stringIcNS1_11char_traitsIcEENS1_9allocatorIcEEEEi
y5k:_InternalEnumerator_1_System_Collections_IEnumerator_Reset_m4211243679_AdjustorThunk
trg:_TypeLoadException__ctor_m1903359728
Uuh:__ZL16my_g_bit_nth_msfj
AUk:_Transform_1_BeginInvoke_m3014766640_gshared
Vfl:_DefaultComparer_Compare_m2469517726_gshared
pGe:_KeySizes__ctor_m3526899007
GRh:__ZN15dense_hashtableINSt3__24pairIK10KeyWrapperIP11Il2CppClassES4_EES5_N6il2cpp8metadata16SZArrayClassHashEN14dense_hash_mapIS5_S4_SA_NS5_14EqualsComparerINS9_19SZArrayClassCompareEEENS0_9allocatorIS7_EEE9SelectKeyESE_SG_E12expand_arrayEjN21dense_hash_map_traits17integral_constantIbLb0EEE
Lnf:_Int16_System_IConvertible_ToInt32_m191782913_AdjustorThunk
kpl:_SpriteAtlasManager__cctor_m1344469326
BGk:__ZL69ArgumentCache_t4810721_CustomAttributesCacheGenerator_m_FloatArgumentP21CustomAttributesCache
t4i:_Collection_1_CopyTo_m1578267616_gshared
ujg:_EncoderReplacementFallback__ctor_m2208438262
zYa:__Z23SetupStereoFlareElementP11FlareVertexRK8Vector2fS3_S3_RK11ColorRGBA32RK10Matrix4x4fRK8Vector3fb
Ttl:_TargetPistol__ctor_m1090319403
Dxj:__Z91RuntimeInvoker_X509ChainStatusFlags_t480677120_RuntimeObject_RuntimeObject_SByte_t454417549PFvvEPK10MethodInfoPvPS4_
Mwh:__ZN6il2cpp2vm5Class15GetInstanceSizeEPK11Il2CppClass
pIj:__Z37RuntimeInvoker_Enumerator_t3806193287PFvvEPK10MethodInfoPvPS4_
ab:invoke_iiiifiiii
ufj:_ReadOnlyCollection_1_System_Collections_Generic_ICollectionU3CTU3E_Remove_m3751131234_gshared
P_k:_Dictionary_2_CopyTo_m1495142643_gshared
Fzc:__ZN9rapidjson8internal6u64toaEyPc
xyl:_EventFunction_1_BeginInvoke_m3064802067_gshared
llk:__ZL67IndexOutOfRangeException_t3527622107_CustomAttributesCacheGeneratorP21CustomAttributesCache
ffd:__ZNK5physx2Sc9ClothCore16getRestPositionsEPNS_6PxVec4E
SDd:__ZN5physx20PxcSweepConvexConvexERKNS_11PxsCCDShapeES2_PKNS_12PxsRigidBodyES5_RKNS_11PxTransformES8_S8_S8_fRNS_6PxVec3ESA_RNS_10PxcNpCacheERNS_18PxcNpThreadContextEf
usf:_Directory_GetFiles_m4036267478
fH:__Z64AnimationOffsetPlayable_CUSTOM_INTERNAL_CALL_GetRotationInternalR9HPlayableR11Quaternionf
nlf:_NumberFormatInfo_get_CurrencyNegativePattern_m3972163809
mid:__ZN5physx15PxsParticleDataD0Ev
bKa:__ZL19BlitFramebufferImplRN4gles23BlitFramebufferDrawQuadER9GfxDevice9TextureIDRK8Vector4f
$Ib:__Z18Transfer_BlittableI17RemapPPtrTransferLb0EhEvRK29SerializationCommandArgumentsR31RuntimeSerializationCommandInfo
LYd:__ZN5physx6shdfnd5ArrayIPvNS0_19ReflectionAllocatorIN17PxcPoolMallocData9PoolData8EEEE15growAndPushBackERKS2_
mLh:__ZN15dense_hashtableINSt3__24pairIK10KeyWrapperIPK10Il2CppTypeEjEES6_N6il2cpp8metadata14Il2CppTypeHashEN14dense_hash_mapIS6_jSB_NS6_14EqualsComparerINSA_26Il2CppTypeEqualityComparerEEENS0_9allocatorIS8_EEE9SelectKeyESF_SH_E4findERS7_
Hzj:__Z83RuntimeInvoker_Void_t1841601450_QuaternionU26_t4187826802_QuaternionU26_t4187826802PFvvEPK10MethodInfoPvPS4_
Tdj:_ReadOnlyCollection_1_System_Collections_IList_Add_m2333231354_gshared
Ojk:__ZL78Convert_t2607082565_CustomAttributesCacheGenerator_Convert_ToSByte_m2470292806P21CustomAttributesCache
gfe:_UNITY_FT_List_Add
iEg:_OpCodes__cctor_m939885911
qH:__Z87Register_UnityEngine_Animations_AnimationPlayableOutput_INTERNAL_CALL_InternalGetTargetv
OPf:_PKCS1_RSASP1_m1748738009
Fvk:__ZL95Transform_t3275118058_CustomAttributesCacheGenerator_Transform_INTERNAL_CALL_LookAt_m1443061981P21CustomAttributesCache
N0d:__ZN5physx15PxGeometryQuery14getWorldBoundsERKNS_10PxGeometryERKNS_11PxTransformEf
Qrl:_Cat__ctor_m2148486693
gpb:__ZN12CubemapArray21AwakeFromLoadThreadedEv
S0j:_PlayableHandle_CompareVersion_m276961171
ugd:__ZN5physx2Sc9ClothCore18setSolverFrequencyEf
Ulh:_UriParser_InitializeAndValidate_m251943319
HKe:_SymmetricAlgorithm_set_Padding_m3081984460
zzb:__ZN9InputAxis8TransferI18StreamedBinaryReadILb0EEEEvRT_
fXd:__ZN5physx2Gu11HeightField8requiresERNS_23PxProcessPxBaseCallbackE
fgg:_StreamingContext_t1417235061_marshal_pinvoke_back
PDc:__ZN5physx2Gu16buildPartialHullERKNS0_13PolygonalDataEPNS0_12SupportLocalERNS0_14SeparatingAxesERKNS_6shdfnd3aos5Vec3VESC_
a_e:_ArrayList_RemoveAt_m2578928333
HGb:__Z18Transfer_BlittableI14SafeBinaryReadLb0EaEvRK29SerializationCommandArgumentsR31RuntimeSerializationCommandInfo
mFj:__Z51RuntimeInvoker_Boolean_t3825574718_Rect_t3681755626PFvvEPK10MethodInfoPvPS4_
Zcj:_ReadOnlyCollection_1_System_Collections_IList_set_Item_m1233322304_gshared
gmh:_GeneralNames_get_DNSNames_m2721668874
Ttj:__Z76RuntimeInvoker_Boolean_t3825574718_TimeSpan_t3430258949_TimeSpan_t3430258949PFvvEPK10MethodInfoPvPS4_
Hff:_Enum_System_IConvertible_ToByte_m38374586
Hcj:_ReadOnlyCollection_1_System_Collections_Generic_IListU3CTU3E_RemoveAt_m1592158292_gshared
Nwg:_PlatformNotSupportedException__ctor_m3301654967
eOl:_emscripten_glFrustum__wrapper
szk:__ZL148AnimatorControllerPlayable_t1744083903_CustomAttributesCacheGenerator_AnimatorControllerPlayable_INTERNAL_CALL_GetParameterCountInternal_m3540558817P21CustomAttributesCache
t$c:__ZNK5physx2Sc16ArticulationCore17releaseDriveCacheERNS_9PxcFsDataE
nXf:_ReceiveRecordAsyncResult_get_CompletedWithError_m2670396551
KOj:__Z37RuntimeInvoker_Enumerator_t2983962278PFvvEPK10MethodInfoPvPS4_
Ucf:_Decimal_Equals_m1798565377
Xkb:__ZN17GlobalGameManager8TransferI24GenerateTypeTreeTransferEEvRT_
HGj:__Z38RuntimeInvoker_ContentType_t1028629049PFvvEPK10MethodInfoPvPS4_
FPc:__ZN5physx11NpAggregate7releaseEv
qMk:__ZL66InputField_t1631627530_CustomAttributesCacheGenerator_m_CaretColorP21CustomAttributesCache
C$d:__ZN5physx6shdfnd7PAUtilsD2Ev
_Ag:_TypeBuilder_check_created_m2929267877
qwj:__Z121RuntimeInvoker_Int64_t909078037_Int32_t2071877448_Int32_t2071877448_Int32_t2071877448_Int32_t2071877448_Int32_t2071877448PFvvEPK10MethodInfoPvPS4_
rVa:__Z20SyncFenceCullResultsR11CullResults
zLa:__ZN15TextureTFMethod20IsBoneCountSupportedEi
iG:__ZN26AnimatorControllerPlayable9GotoStateEiifff
lUj:_GUISkin_set_horizontalScrollbarThumb_m2119687595
mAi:_PlayableHandle_IsPlayableOfType_TisAudioMixerPlayable_t1831808911_m1065481197_AdjustorThunk
Jbg:_ObjRef__ctor_m1486312270
Lnc:__ZN18CrashReportManagerC2E18MemLabelIdentifier18ObjectCreationMode
V9e:_DateTime_System_IConvertible_ToSByte_m2575078084_AdjustorThunk
rKb:__Z22TransferField_NonArrayI17RemapPPtrTransfer27Converter_SimpleNativeClassI8GUIStyleEEvRK23StaticTransferFieldInfoR31RuntimeSerializationCommandInfoRT0_
nRg:_AnimatorStateInfo_IsTag_m1529621725_AdjustorThunk
Vad:__ZN5physx7NpShape12setMaterialsEPKPNS_10PxMaterialEt
h1b:__ZNK17AnimationCurveTplIfE20EvaluateWithoutCacheEfRf
J0h:__ZN6il2cpp2os6Thread12QueueUserAPCEPFvPvES2_
BSe:_EncoderExceptionFallback_Equals_m762170768
_la:__ZN19ShaderPropertySheet10SetTextureERK23FastTexturePropertyNameP7Texture
WAi:_Array_InternalArray__IEnumerable_GetEnumerator_TisDictionaryEntry_t3048875398_m3498834924_gshared
WWj:_GUIStyleState__ctor_m3611888666
$5i:_Collection_1_IsValidItem_m1304951912_gshared
K8b:__ZN4Mesh10SetNormalsEPK8Vector3fj
QHg:_PropertyInfo__ctor_m1808219471
g6e:_Convert_ToDateTime_m4161927553
eBg:_TypeBuilder_GetConstructors_m774120094
OBk:__ZL87Canvas_t209405766_CustomAttributesCacheGenerator_Canvas_set_overrideSorting_m3982973573P21CustomAttributesCache
Ls:__ZN17AnimationCurveTplIfE8TransferI14SafeBinaryReadEEvRT_
Uak:__ZL72AssemblyDefaultAliasAttribute_t1774139159_CustomAttributesCacheGeneratorP21CustomAttributesCache
Vqj:__Z75RuntimeInvoker_Boolean_t3825574718_RuntimeObject_MonoIOErrorU26_t1029615899PFvvEPK10MethodInfoPvPS4_
PWj:_GUIStyle_INTERNAL_CALL_SetMouseTooltip_m3411291301
lkh:_RegularExpression_set_GroupCount_m2991393456
uNc:__ZN5physx2Gu9RadixSortD2Ev
lhf:_Calendar_get_EraNames_m452820602
Ctb:__ZNSt3__26vectorIN15QualitySettings14QualitySettingENS_9allocatorIS2_EEE6assignIPS2_EENS_9enable_ifIXaasr21__is_forward_iteratorIT_EE5valuesr16is_constructibleIS2_NS_15iterator_traitsIS9_E9referenceEEE5valueEvE4typeES9_S9_
Igb:__ZNK5Unity9Component10GetEnabledEv
rLc:__Z15raycast_capsuleRKN5physx10PxGeometryERKNS_11PxTransformERKNS_6PxVec3ES8_fNS_7PxFlagsINS_9PxHitFlag4EnumEtEEjPNS_12PxRaycastHitEbPFbRSD_PvESG_
KWa:__ZNK19ShaderPropertySheet11HasPropertyERKN9ShaderLab16FastPropertyNameE
G9e:_DateTime_System_IConvertible_ToByte_m2670443498_AdjustorThunk
dhd:__ZNK5physx15NpActorTemplateINS_15PxParticleFluidEE14getOwnerClientEv
CZ:__GLOBAL__sub_I_runtime_utilities4_lump_cpp
pLk:__ZL58FontData_t2614388407_CustomAttributesCacheGenerator_m_FontP21CustomAttributesCache
iHh:_il2cpp_class_get_image
B5:__Z16AsyncReadRequestP16AsyncReadCommand
vmk:__ZL81BigInteger_t925946153_CustomAttributesCacheGenerator_BigInteger__ctor_m4013661868P21CustomAttributesCache
VRd:__ZNK5physx34PxsSolverConstraintPostProcessTask7getNameEv
FNf:_BigInteger_op_Addition_m1734797151
ZEc:__ZN5physx2Gu23distancePointBoxSquaredERKNS_6PxVec3ES3_S3_RKNS_7PxMat33EPS1_
h7d:__ZN5physx9NpPhysics20MeshDeletionListener28onGuMeshFactoryBufferReleaseEPKNS_6PxBaseEtb
Z4i:_Collection_1_System_Collections_IList_set_Item_m3488446830_gshared
zBg:_EnumBuilder_CreateNotSupportedException_m62763134
ODe:__ZNK12HeaderHelper3GetERKN4core12basic_stringIcNS0_20StringStorageDefaultIcEEEE
Zxe:__Z24GetUnityAnalyticsManagerv
BHe:_RijndaelManagedTransform_TransformBlock_m2558865851
v5i:_Collection_1_System_Collections_Generic_ICollectionU3CTU3E_get_IsReadOnly_m4096071066_gshared
qzb:__ZN9InputAxis8TransferI14SafeBinaryReadEEvRT_
I2:__ZNK21ExecutionOrderManager30GetCustomAwakeFromLoadQueueForEPKN5Unity4TypeE
psd:__ZNK5physx7NpScene9getActorsENS_7PxFlagsINS_15PxActorTypeFlag4EnumEtEEPPNS_7PxActorEjj
Lyk:__ZL141AnimationClipPlayable_t4099382200_CustomAttributesCacheGenerator_AnimationClipPlayable_INTERNAL_CALL_GetRemoveStartOffsetInternal_m3895628593P21CustomAttributesCache
aDe:__Z27RegisterModule_UnityConnectv
AOh:__ZN6il2cpp2vm10Reflection27GetCustomAttributesCacheForEP25Il2CppReflectionParameter
bkd:__ZN5physx15PxParticleFluidD0Ev
fAd:__ZN5physx11NodeManagerD0Ev
yIg:_ParameterInfo_get_IsRetval_m1881464570
AUg:_Bounds_get_size_m1728027642_AdjustorThunk
lcg:_RealProxy__ctor_m3041043303
wjf:_NumberFormatter_Init_m2654758994
aGe:_HMACSHA1__ctor_m1168389339
uDj:__Z69RuntimeInvoker_Boolean_t3825574718_TextGenerationSettings_t2543476768PFvvEPK10MethodInfoPvPS4_
hQc:__ZNK5physx2Sc8BodyCore6getSimEv
ssk:__ZL100Input_t1785128008_CustomAttributesCacheGenerator_Input_INTERNAL_get_compositionCursorPos_m2426914348P21CustomAttributesCache
juh:__ZL25UnresolvedVirtualCall_210P12Il2CppObjectPK10MethodInfo
TG:__Z96Register_UnityEngine_Animations_AnimationClipPlayable_INTERNAL_CALL_SetRemoveStartOffsetInternalv
fO:__ZN10ObjectPoolIN4FMOD12ChannelGroupENS0_13ChannelGroupIEE7SetSizeEi
zFf:_PrimalityTest_BeginInvoke_m966469054
Eca:__ZN15dense_hashtableINSt3__24pairIKN4core12basic_stringIcNS2_20StringStorageDefaultIcEEEE13dynamic_arrayI4PPtrI6SpriteELj4EEEES6_20StringHash32FunctionIS6_EN14dense_hash_mapIS6_SC_SF_NS0_8equal_toIS6_EE13stl_allocatorISD_L18MemLabelIdentifier79ELi16EEE9SelectKeyESI_SL_E9copy_fromERKSO_j
uug:_UInt64_System_IConvertible_ToInt16_m2797150165_AdjustorThunk
RMi:_Array_InternalArray__get_Item_TisLabelData_t3712112744_m863115768_gshared
ppf:_Int32_Parse_m753946802
KYj:_Material_DisableKeyword_m1204728089
p_:__Z22ValidateTlsfAllocationPvjiS_
$9c:__ZN5physx2Cm12RefCountable14onRefCountZeroEv
c0i:_List_1_RemoveAt_m2331128844_gshared
iNg:_AnimatorControllerPlayable_GetFloatString_m3678921564
QEg:_UnmanagedMarshal_ToMarshalAsAttribute_m3695569337
pdd:__ZNK5physx7NpCloth25getMotionConstraintConfigEv
cIb:__Z14resize_trimmedINSt3__26vectorI17AnimationCurveTplIfE13stl_allocatorIS3_L18MemLabelIdentifier1ELi16EEEEEvRT_j
G6a:__ZN25CameraStackRenderingState19SetupLastEyeCamerasERK11CameraStack
Hdc:__Z12GUIDToStringRK9UnityGUID
_Ee:__GLOBAL__sub_I_runtime_vr_plugininterface_lump_cpp
pwi:_LayoutElement_get_minHeight_m2070403283
Z$h:__ZN6il2cpp6icalls8mscorlib6System4Enum12get_hashcodeEP12Il2CppObject
tK:__ZN11SoundHandleC2ERKS_
b0g:_Mask_OnEnable_m501850981
HPf:_RSASslSignatureFormatter__ctor_m2530528184
QVg:_Canvas_get_targetDisplay_m316548313
MH:__Z75AnimatorControllerPlayable_CUSTOM_INTERNAL_CALL_GetAnimatorClipInfoInternalR9HPlayableihP12Il2CppObject
Brd:__ZThn8_N5physx2Sc24ElementInteractionMarker7destroyEv
eFf:_BigInteger_op_Addition_m1196561843
CQb:__ZN11Quaternionf8TransferI18StreamedBinaryReadILb1EEEEvRT_
kcb:__Z29StdTemplateConversionFunctionItxEbPvR14SafeBinaryRead
ddh:_FormatterData__ctor_m3974986124
L9j:__ZL64FileNotFoundException_t4200667904_CustomAttributesCacheGeneratorP21CustomAttributesCache
AHe:_RijndaelManagedTransform_get_CanReuseTransform_m3735256596
hNc:__ZN5physx3Cct26CharacterControllerManager24setOverlapRecoveryModuleEb
c1e:_Comparer__cctor_m1327316974
psf:_MonoIO_ExistsFile_m1421941572
dbf:_DateTime_op_GreaterThanOrEqual_m3818963848
rza:__ZNSt3__26__treeINS_12__value_typeI18VertexChannelsInfoP17VertexDeclarationEENS_19__map_value_compareIS2_S5_NS_4lessIS2_EELb1EEE13stl_allocatorIS5_L18MemLabelIdentifier14ELi16EEE12__find_equalIS2_EERPNS_16__tree_node_baseIPvEENS_21__tree_const_iteratorIS5_PNS_11__tree_nodeIS5_SG_EEiEESJ_RKT_
Hw:__ZN17AnimationPlayable18DeallocateBindingsEv
H9a:__ZN6Camera25StandaloneRenderToCubemapEP7TextureiPFvPK9SceneNodePK4AABBR9IndexListPvESA_j
lni:_DefaultControls_SetDefaultTextValues_m1707718380
lji:_TouchInputModule_UseFakeInput_m2112019004
mfi:_EventSystem_get_baseEventDataCache_m4294741599
yJl:___cxa_guard_release
Snb:__ZN14RenderSettings18TransferDeprecatedI14SafeBinaryReadEEvRT_
NGc:__ZN24ConvexVsHeightfieldSweepD0Ev
sEk:__ZL85GUIStyle_t1799908754_CustomAttributesCacheGenerator_GUIStyle_Internal_Draw_m694122665P21CustomAttributesCache
X_:__ZN12TLSAllocatorI14StackAllocatorE8AllocateEji
D3:__ZN16ScriptingManager18GetMonoScriptCacheEi
joj:__Z62RuntimeInvoker_Void_t1841601450_RuntimeObject_Int64_t909078037PFvvEPK10MethodInfoPvPS4_
PSj:_GUIStyle_get_stretchHeight_m3396762700
ayh:__ZN15dense_hashtableINSt3__24pairIK10KeyWrapperIPK11Il2CppClassEPKcEES6_N6il2cpp5utils11PointerHashIS3_EEN14dense_hash_mapIS6_S9_SE_NS6_14EqualsComparerINS0_8equal_toIS5_EEEENS0_9allocatorISA_EEE9SelectKeyESJ_SL_E15set_deleted_keyERKSA_
rri:_GridLayoutGroup_CalculateLayoutInputHorizontal_m2355123124
uok:__ZL84Locale_t4255929017_CustomAttributesCacheGenerator_Locale_GetText_m512920887____args1P21CustomAttributesCache
OGb:__Z18Transfer_BlittableI14SafeBinaryReadLb1EyEvRK29SerializationCommandArgumentsR31RuntimeSerializationCommandInfo
PHk:__ZL89U3CInvokeMessageIdSubscribersU3Ec__AnonStorey0_t1899782350_CustomAttributesCacheGeneratorP21CustomAttributesCache
$sc:__ZN8JSONRead8TransferIfEEvRT_PKc17TransferMetaFlagsb
pwk:__ZL105Physics_t634932869_CustomAttributesCacheGenerator_Physics_Raycast_m3475924638____queryTriggerInteraction4P21CustomAttributesCache
KDg:_ModuleBuilder_GetTypes_m93550753
eZg:_Coroutine__ctor_m1253937571
qhj:_ReadOnlyCollection_1_System_Collections_ICollection_get_IsSynchronized_m4063596282_gshared
QVe:__ZN21InterfaceFuncInvoker2IP12Il2CppObjectP6Type_tS1_E6InvokeEjP11Il2CppClassS1_S3_S1_
yIl:__ZNSt3__212basic_stringIcNS_11char_traitsIcEENS_9allocatorIcEEE6appendEPKcj
Dak:__ZL54TypeBuilder_t3308873219_CustomAttributesCacheGeneratorP21CustomAttributesCache
aed:__ZN5physx7NpCloth25setSelfCollisionStiffnessEf
yDd:__ZZN5physx28PxcSweepEstimateAnyShapeMeshERKNS_11PxsCCDShapeES2_PKNS_12PxsRigidBodyES5_RKNS_11PxTransformES8_fEN2CBD0Ev
z7i:_Collection_1_CheckWritable_m691269733_gshared
GOj:__Z54RuntimeInvoker_Void_t1841601450_IntPtr_t_RuntimeObjectPFvvEPK10MethodInfoPvPS4_
bCg:_GenericTypeParameterBuilder_GetAttributeFlagsImpl_m3338182267
sU:__ZN13Simd4iFactoryIN6detail9FourTupleEEC2Eiiii
Lwf:_SynchronizedReader__ctor_m1408327515
mph:_X509Store_LoadCrl_m1146720614
xKj:__Z59RuntimeInvoker_Int32_t2071877448_KeyValuePair_2_t3749587448PFvvEPK10MethodInfoPvPS4_
qij:_ReadOnlyCollection_1_System_Collections_IList_Clear_m1858417639_gshared
L2e:_Slot_t2022531261_marshal_pinvoke_cleanup
NRg:_LogCallback__ctor_m898185969
Brb:__ZN15SerializeTraitsI33EnlightenTerrainChunksInformationE8TransferI14SafeBinaryReadEEvRS0_RT_
R7c:__ZN5physx2Sc14ConstraintCoreD2Ev
Xul:_Predicate_1__ctor_m1567825400_gshared
t3b:__ZNK32RendererMaterialAnimationBinding9BindValueER6ObjectRKN11UnityEngine9Animation14GenericBindingERNS3_10BoundCurveE
Q4c:__ZN5physx15NpActorTemplateINS_18PxArticulationLinkEE13setActorFlagsENS_7PxFlagsINS_11PxActorFlag4EnumEtEE
Bob:__Z13GetIAnimationv
pva:__ZL18stbir__support_onef
tYd:__ZN5physx6shdfnd8internal8HashBaseIPNS_11PxAggregateES4_NS0_4HashIS4_EENS1_11HashSetBaseIS4_S6_NS0_9AllocatorELb0EE6GetKeyES8_Lb0EE15reserveInternalEj
VUi:_List_1_System_Collections_IList_Remove_m2040310137_gshared
$fh:_Match_get_Regex_m3526002767
X9j:__ZL49Stream_t3255436806_CustomAttributesCacheGeneratorP21CustomAttributesCache
hvc:__Z26Transfer_UnityEngineObjectI9JSONWriteLb0EEvRK29SerializationCommandArgumentsR31RuntimeSerializationCommandInfo
Xga:__ZN9ShaderLab4Pass9ApplyPassEjPK19ShaderPropertySheetR17ShaderPassContextP6ShaderiPKNS_10GrabPassesEPNS_11SubProgramsE
Zma:__ZNSt3__26vectorIN4core12basic_stringIcNS1_20StringStorageDefaultIcEEEE13stl_allocatorIS5_L18MemLabelIdentifier1ELi16EEE6assignINS_11__wrap_iterIPS5_EEEENS_9enable_ifIXaasr21__is_forward_iteratorIT_EE5valuesr16is_constructibleIS5_NS_15iterator_traitsISF_E9referenceEEE5valueEvE4typeESF_SF_
Btg:_UInt32_System_IConvertible_ToInt16_m2251335934_AdjustorThunk
dte:__ZNSt3__27__sort5IRNS_6__lessIN2UI14DepthSortEntryES3_EEPS3_EEjT0_S7_S7_S7_S7_T_
Nee:_UNITY_FT_DivFix
XMh:__ZNSt3__218uninitialized_copyIPNS_4pairIK10KeyWrapperINS1_IPK11Il2CppImageP11Il2CppClassEEEjEESC_EET0_T_SE_SD_
Ia:invoke_vdd
ro:FUNCTION_TABLE_fiii
obl:_InternalEnumerator_1_Dispose_m3838127340_AdjustorThunk
fff:_Double_System_IConvertible_ToUInt32_m624993430
vo:FUNCTION_TABLE_fiif
iJk:__ZL89PointerEventData_t1599784723_CustomAttributesCacheGenerator_U3CdraggingU3Ek__BackingFieldP21CustomAttributesCache
Uqe:__ZZ29InitializeTextRenderingModulevEN27cleanupAfterLoadRegistrator7ForwardEv
_og:_Scheduler_Add_m376749205
Dx:__ZN27AnimationLayerMixerPlayable24ProcessAnimationLayerMixEP33AnimationPlayableEvaluationOutputP35AnimationPlayableEvaluationConstantP32AnimationPlayableEvaluationInputS1_if
K8j:__ZL53SortedList_t3004938869_CustomAttributesCacheGeneratorP21CustomAttributesCache
Dbi:__ZN6il2cpp6icalls8mscorlib4Mono8Security12Cryptography18KeyPairPersistence19_IsMachineProtectedEP12Il2CppString
sRl:_emscripten_glGenVertexArrays__wrapper
d6a:__Z29PluginsIssueRenderingExtEvent26UnityRenderingExtEventTypePv
WXh:__ZN15dense_hashtableINSt3__24pairIK10KeyWrapperINS1_IPKcS4_EEEiEES6_24NamespaceAndNamePairHashN14dense_hash_mapIS6_iS9_NS6_14EqualsComparerI26NamespaceAndNamePairEqualsEENS0_9allocatorIS8_EEE9SelectKeyESD_SF_E12resize_deltaEjj
qdl:_InternalEnumerator_1_Dispose_m3464626239_AdjustorThunk
t2b:__Z14RandomRotationP9Texture2DPhiiii
hdg:_SingleCallIdentity__ctor_m1512303454
S9k:_InternalEnumerator_1_MoveNext_m1594563423_AdjustorThunk
T5d:__ZThn132_N5physx7profile8ZoneImplINS_28PxProfileNameProviderForwardEED1Ev
SBk:__ZL86Canvas_t209405766_CustomAttributesCacheGenerator_Canvas_get_sortingLayerID_m1396307660P21CustomAttributesCache
tth:__ZL25UnresolvedVirtualCall_166P12Il2CppObject20UIVertex_t1204258818S1_PK10MethodInfo
FZi:_List_1_System_Collections_IList_Insert_m2036969360_gshared
i7g:_StencilMaterial_Add_m1745413071
Vll:_SpaceAttribute__ctor_m1444406696
Osd:__ZN5physx7NpScene27setCCDContactModifyCallbackEPNS_26PxCCDContactModifyCallbackE
Ltf:_ReadDelegate__ctor_m885671467
wZd:__ZNK5physx17ConvexHullBuilder17ComputeGeomCenterERNS_6PxVec3E
Cbf:_DateTimeOffset_ToString_m2121173678_AdjustorThunk
Smk:__ZL50X509Crl_t1699034837_CustomAttributesCacheGeneratorP21CustomAttributesCache
ewj:__Z74RuntimeInvoker_RuntimeObject_RuntimeObject_Int16_t4041245914_RuntimeObjectPFvvEPK10MethodInfoPvPS4_
LHd:__ZN3MBPD0Ev
Pj:_JS_WebRequest_SetResponseHandler
qUl:_glDeleteProgram__wrapper
ffc:__Z50Register_UnityEngine_Camera_INTERNAL_get_pixelRectv
eyk:__ZL119AudioClipPlayable_t192218916_CustomAttributesCacheGenerator_AudioClipPlayable_INTERNAL_CALL_GetClipInternal_m2079955679P21CustomAttributesCache
Kpa:__ZN6prcoreL18BlitFloatToIntegerERK14ImageReferenceRS0_
_Kf:_X509CertificateCollection_get_Item_m410866272
Xhl:_Rect_get_yMax_m2915146103
zAl:_EqualityComparer_1_System_Collections_IEqualityComparer_Equals_m1705945391_gshared
Uvd:__ZNK5physx10PxsContext18getBounceThresholdEv
K0b:__Z13GetIPhysics2Dv
IX:__ZN11UnityEngine15CloudWebService14RestDownloader17OnCompleteContentEv
fKh:__ZN15dense_hashtableINSt3__24pairIK10KeyWrapperINS1_IPK14Il2CppAssemblyP11Il2CppClassEEEjEES9_17ReflectionMapHashIS8_EN14dense_hash_mapIS9_jSD_NS9_14EqualsComparerINS0_8equal_toIS8_EEEENS0_9allocatorISB_EEE9SelectKeyESI_SK_E15insert_noresizeERKSB_
iwj:__Z75RuntimeInvoker_RuntimeObject_RuntimeObject_Double_t4078015681_RuntimeObjectPFvvEPK10MethodInfoPvPS4_
xvj:__Z200RuntimeInvoker_Boolean_t3825574718_RuntimeObject_RuntimeObject_RuntimeObject_Int32_t2071877448_DateTimeU26_t3448131235_SByte_t454417549_BooleanU26_t3168250738_SByte_t454417549_ExceptionU26_t1467204777PFvvEPK10MethodInfoPvPS4_
Xqd:__ZN5physx6shdfnd5ArrayIPvNS0_15InlineAllocatorILj256ENS0_19ReflectionAllocatorINS_2Gu31SpherePersistentContactManifoldEEEEEE15growAndPushBackERKS2_
bUd:__ZN5physx2Cm18DelegateFanoutTaskINS_2Sc5SceneEXadL_ZNS3_17finalizationPhaseEPNS_10PxBaseTaskEEEE11runInternalEv
waa:__ZNSt3__26vectorI20ProcessCallbackGroupNS_9allocatorIS1_EEEC2ERKS4_
Bz:__ZN17AnimationPlayable28UpdateInternalStateRecursiveILi1ELb0EEEvPK35AnimationPlayableEvaluationConstant
A0i:_List_1_System_Collections_ICollection_get_SyncRoot_m1429670979_gshared
cb:invoke_vifff
Tgc:__Z41Register_UnityEngine_GameObject_set_layerv
K4k:_InternalEnumerator_1__ctor_m2111763266_gshared
Phc:__Z53Register_UnityEngine_Input_INTERNAL_get_mousePositionv
aid:__ZN5physx15NpParticleFluid15exportExtraDataERNS_22PxSerializationContextE
TSl:_glGetVertexAttribiv__wrapper
K3c:__ZN5physx6shdfnd15atomicDecrementEPVi
yf:_emscripten_request_fullscreen
XTd:__ZN5physx2Cm12DelegateTaskINS_2Sc5SceneEXadL_ZNS3_11postCCDPassEPNS_10PxBaseTaskEEEED0Ev
Shl:_Rect_get_xMin_m1161102488
xhl:_RaycastHit2D_get_normal_m3768105386_AdjustorThunk
pea:__ZN20LocalFileSystemWebGL6DeleteER13FileEntryDatab
Gcf:_Decimal_System_IConvertible_ToUInt16_m1621568250
Af:_emscripten_glDisableVertexAttribArray
Kuk:__ZL79Object_t1021602117_CustomAttributesCacheGenerator_Object_Instantiate_m938141395P21CustomAttributesCache
ko:FUNCTION_TABLE_iiiifiiii
Vpg:_TimeSpan_get_TotalMinutes_m1645177229_AdjustorThunk
Ec:invoke_fifffi
qVk:_Enumerator__ctor_m3539306986_gshared
jGa:__ZN4gles23ClearCurrentFramebufferEP7ApiGLESbbbRK10ColorRGBAffi
cy:__ZN7mecanim12statemachine20CreateStateWorkspaceEjjjRNS_6memory9AllocatorE
nGf:__ZN21InterfaceFuncInvoker3IP22ByteU5BU5D_t3397334013S1_iiE6InvokeEjP11Il2CppClassP12Il2CppObjectS1_ii
J5k:_InternalEnumerator_1_System_Collections_IEnumerator_get_Current_m3680087284_gshared
cZd:__ZN5physx2Gu11HeightField13releaseMemoryEb
Lf:_emscripten_glDeleteObjectARB
_Ha:__Z14DecompressDXT3iiiPKjPj
Bxf:_UnexceptionalStreamReader_Read_m3839775235
_qa:__ZN6prcoreL27StretchGenericFloatBilinearI18TexFormatARGBFloatEEvPKNS_9InnerInfoE
xlc:__Z53Register_UnityEngine_RenderTexture_Internal_GetHeightv
PNi:_Dropdown_GetOrAddComponent_TisRuntimeObject_m2875934266_gshared
zcg:_RealProxy_SetTargetDomain_m3940877656
Lqa:__ZN6prcoreL17RemapGenericFloatI17TexFormatRGBAHalf18TexFormatARGBFloatEEvPKNS_9InnerInfoE
Nff:_Enum_System_IConvertible_ToInt32_m2459904362
lpc:__ZNK8GUIStyle21DrawWithTextSelectionER8GUIStateRK5RectTIfER10GUIContentbbbbbiiRK10ColorRGBAfSA_
lwj:__Z61RuntimeInvoker_RuntimeObject_Double_t4078015681_RuntimeObjectPFvvEPK10MethodInfoPvPS4_
cbc:__ZN10systeminfo21SupportsAccelerometerEv
zpc:__Z14GetBuiltinSkini
wSe:_DecoderReplacementFallbackBuffer_Reset_m2576819665
Knc:__ZN18CrashReportHandler23RegisterGlobalCallbacksEv
mcl:_InternalEnumerator_1_MoveNext_m607849555_AdjustorThunk
q2e:_Enumerator__cctor_m298562758
bCl:_Enumerator_System_Collections_IEnumerator_Reset_m2573763156_gshared
Jzf:_MonoType_GetConstructors_internal_m2709619723
mNe:_WindowsIdentity_Dispose_m2649088337
fZb:__ZN2UI13RectTransform23VirtualRedirectTransferER14SafeBinaryRead
Zvl:_InvokableCall_1__ctor_m54675381_gshared
xtd:__ZN5physx7NpScene17flushQueryUpdatesEv
Tzf:_MonoType_GetMethodImpl_m593754598
hSi:_List_1_System_Collections_ICollection_get_SyncRoot_m3733894943_gshared
pYi:_List_1_Reverse_m302978607_gshared
JVb:__ZNSt3__26vectorIN9ShaderLab20SerializedSubProgramENS_9allocatorIS2_EEE6assignIPS2_EENS_9enable_ifIXaasr21__is_forward_iteratorIT_EE5valuesr16is_constructibleIS2_NS_15iterator_traitsIS9_E9referenceEEE5valueEvE4typeES9_S9_
gxc:__Z18Transfer_BlittableI8JSONReadLb0E8BitFieldEvRK29SerializationCommandArgumentsR31RuntimeSerializationCommandInfo
tdg:_SoapServices_RegisterInteropXmlType_m2949236705
OLh:__ZNK15dense_hashtableINSt3__24pairIK10KeyWrapperIPK10Il2CppTypeEjEES6_N6il2cpp8metadata14Il2CppTypeHashEN14dense_hash_mapIS6_jSB_NS6_14EqualsComparerINSA_26Il2CppTypeEqualityComparerEEENS0_9allocatorIS8_EEE9SelectKeyESF_SH_E10test_emptyERK24dense_hashtable_iteratorIS8_S6_SB_SJ_SF_SH_E
vPb:__ZL17Transfer_GUIStyleI18StreamedBinaryReadILb1EELb0EEvRK29SerializationCommandArgumentsR31RuntimeSerializationCommandInfo
rRe:_String_CharCopy_m2550399897
Ywj:__Z234RuntimeInvoker_RuntimeObject_Int16_t4041245914_RuntimeObject_Int32_t2071877448_Int32_t2071877448_Int32_t2071877448_SByte_t454417549_SByte_t454417549_SByte_t454417549_SByte_t454417549_Int16_t4041245914_SByte_t454417549_SByte_t454417549PFvvEPK10MethodInfoPvPS4_
Ptd:__ZN5physx7NpScene10unlockReadEv
STb:__ZN9ShaderLab14SerializedPass8TransferI14SafeBinaryReadEEvRT_
rqc:__Z71Register_UnityEngine_GUILayoutUtility_INTERNAL_CALL_Internal_MoveWindowv
dS:__ZN12AudioManager16SetListenerPauseEb
sUh:__ZN6il2cpp2vm9Exception25RaiseOutOfMemoryExceptionERKNS_5utils10StringViewIDsEE
p5i:_Collection_1_IsValidItem_m2254106115_gshared
nBg:_TypeBuilder_GetEvent_m3876348075
R6g:_Slider_OnMove_m641164662
fa:invoke_viiiiiiiiiii
$El:___syscall_ret
bpg:_Scheduler__ctor_m3716265742
cIf:_MACAlgorithm_Final_m4076939925
OIh:__ZNSt3__212basic_stringIcNS_11char_traitsIcEENS_9allocatorIcEEE6assignINS_11__wrap_iterIPKcEEEENS_9enable_ifIXaasr21__is_forward_iteratorIT_EE5valuesr38__libcpp_string_gets_noexcept_iteratorISC_EE5valueERS5_E4typeESC_SC_
Iye:__Z56Register_UnityEngine_Analytics_CustomEventData_AddDoublev
nth:__ZL25UnresolvedVirtualCall_160P12Il2CppObject23RaycastResult_t21186376S1_PK10MethodInfo
Zub:__ZN11ChannelInfo8TransferI19StreamedBinaryWriteILb0EEEEvRT_
p5k:_InternalEnumerator_1_System_Collections_IEnumerator_get_Current_m3583252352_gshared
QAg:_EnumBuilder_get_FullName_m2818393911
rfd:__ZN5physx2Sc9ClothCore22setFrictionCoefficientEf
qZa:__ZN14qsort_internal13Partition3WayIP17RODataReplacementi19ROSorterReplacementEENSt3__24pairIT_S6_EES6_S6_T0_T1_
p9c:__ZNK5physx9NpPhysics17getNbConvexMeshesEv
Kvf:_StreamAsyncResult_get_Done_m2858832609
ktd:__ZNK5physx7NpScene29getContactCorrelationDistanceEv
ehc:__Z34Register_UnityEngine_Gradient_Initv
Pzl:_ObjectPool_1_set_countAll_m1742773675_gshared
Pfg:_SerializationEntry_get_Value_m1628109884_AdjustorThunk
Lei:_BaseInputModule_GetAxisEventData_m3903709281
eNi:_Array_InternalArray__get_Item_TisUriScheme_t1876590943_m1821482697_gshared
Lsl:_DoubleJumpPlayerState_Execute_m776893752
IMf:_BigInteger__ctor_m3239748086
Mda:__ZN13ScreenManager23SetIsOrientationEnabledE18EnabledOrientationb
srh:__ZL24UnresolvedVirtualCall_57P12Il2CppObjectiPK10MethodInfo
dkk:__ZL79Convert_t2607082565_CustomAttributesCacheGenerator_Convert_ToUInt16_m1043031438P21CustomAttributesCache
Jx:__ZN7mecanim5human25HumanPoseAddOverrideLayerERNS0_9HumanPoseERKS1_fRKNS_6bitsetILj70EEE
Lqd:__ZN5physx16PxsIslandManager16clearEdgeRigidCMERKNS_20PxsIslandManagerHookIjLj4294967295EEE
b1b:__ZN13ProduceHelperI9TransformLb0EE7ProduceE18MemLabelIdentifier18ObjectCreationMode
isc:__Z45Register_UnityEngine_GUIStyle_GetFontInternalv
NOc:__ZN5physx6shdfnd8SyncImpl4waitEj
qsh:__ZL25UnresolvedVirtualCall_109P12Il2CppObjectS0_S0_iiPK10MethodInfo
vRe:_StringComparer_get_InvariantCultureIgnoreCase_m1052445386
j9i:_Collection_1_System_Collections_IList_get_IsFixedSize_m3946690039_gshared
CJk:__ZL98PointerEventData_t1599784723_CustomAttributesCacheGenerator_PointerEventData_get_delta_m1072163964P21CustomAttributesCache
t$k:_DefaultComparer_GetHashCode_m2506382068_gshared
CYg:_Component_SendMessageUpwards_m19741277
h3k:_EqualityComparer_1_System_Collections_IEqualityComparer_GetHashCode_m1012273405_gshared
rFi:_Array_InternalArray__ICollection_Add_TisHitInfo_t1761367055_m2956071622_gshared
xtk:__ZL74Random_t1170710517_CustomAttributesCacheGenerator_Random_Range_m2884721203P21CustomAttributesCache
Kbl:_InternalEnumerator_1_MoveNext_m470170271_AdjustorThunk
a9a:__ZN10GameObject23VirtualRedirectTransferER18StreamedBinaryReadILb0EE
p2h:__ZN6il2cpp2gc16GarbageCollector13AllocateFixedEjPv
Qel:_InternalEnumerator_1_Dispose_m2270401482_AdjustorThunk
$g:_glFrontFace
ofg:_ObjectRecord_get_IsUnsolvedObjectReference_m2202692850
T6f:_FactoryCache_Cleanup_m4130035987
Sxe:__ZN18BaseUnityAnalytics7ReleaseEv
TF:__ZN26AnimatorControllerPlayable14SetLayerWeightEif
$$b:__ZN13ProduceHelperI19LowerResBlitTextureLb0EE7ProduceE18MemLabelIdentifier18ObjectCreationMode
cvd:__ZN5physx13NpVolumeCache17getNbCachedShapesEv
u2a:__ZNSt3__26vectorI16ShadowCasterData13stl_allocatorIS1_L18MemLabelIdentifier2ELi16EEE21__push_back_slow_pathIKS1_EEvRT_
aAi:_PlayableHandle_IsPlayableOfType_TisAnimationClipPlayable_t4099382200_m682525715_AdjustorThunk
Nwl:_UnityAction_1_Invoke_m1279802577_gshared
dug:_UInt32_ToString_m1783596809
$jl:_Vector3_get_forward_m1201659139
b1i:_List_1_Sort_m269561757_gshared
vEk:__ZL110GUIStyle_t1799908754_CustomAttributesCacheGenerator_GUIStyle_INTERNAL_CALL_Internal_DrawPrefixLabel_m557487542P21CustomAttributesCache
Bre:__Z51Register_UnityEngine_TextGenerator_GetLinesInternalv
wCl:_HashSet_1_Init_m1258286688_gshared
j6i:_Collection_1_System_Collections_IList_Contains_m3345685421_gshared
Ioh:_X509ExtensionCollection_get_Item_m4212651995
Zdj:_ReadOnlyCollection_1_System_Collections_IList_RemoveAt_m525136953_gshared
KCi:__ZN21InterfaceFuncInvoker1Ii19Vector4_t2243707581E6InvokeEjP11Il2CppClassP12Il2CppObjectS0_
aqa:__ZN6prcoreL17RemapGenericFloatI17TexFormatRGBFloat18TexFormatRGBAFloatEEvPKNS_9InnerInfoE
Fwd:__ZN5physx2Sc5Scene15getRenderBufferEv
iug:_UInt64_System_IConvertible_ToBoolean_m3012279573_AdjustorThunk
Xrg:_Type_get_IsGenericTypeDefinition_m2147901038
kRa:__ZN12HandlerChain10ToAbsoluteEPKc
eeh:_ContextAttribute_Freeze_m4133346275
$pj:__Z34RuntimeInvoker_DateTime_t693205669PFvvEPK10MethodInfoPvPS4_
Uif:_GregorianCalendar__ctor_m3794576475
_tg:_UInt32_TryParse_m4283512434
mYk:__ZN21InterfaceFuncInvoker2Ib8IntPtr_tS0_E6InvokeEjP11Il2CppClassP12Il2CppObjectS0_S0_
bZh:__ZN15dense_hashtableI10KeyWrapperIP18Il2CppGenericClassES3_N6il2cpp8metadata22Il2CppGenericClassHashEN14dense_hash_setIS3_S6_NS3_14EqualsComparerINS5_25Il2CppGenericClassCompareEEENSt3__29allocatorIS3_EEE8IdentityESA_SD_E8min_sizeEjj
fDb:__ZN13MonoBehaviour23VirtualRedirectTransferER19StreamedBinaryWriteILb0EE
kK:__ZN9AudioClip11CreateSoundEv
DYj:_Material_get_mainTexture_m432794412
YSk:_ShimEnumerator_MoveNext_m3313047792_gshared
a6i:_Collection_1_ConvertItem_m2185647560_gshared
Aqg:_TimeSpan_op_Inequality_m257547441
Ing:_ExecutionContext_GetObjectData_m1456913356
xQh:__ZN14dense_hash_mapI10KeyWrapperINSt3__24pairIPK9FieldInfoP11Il2CppClassEEEj17ReflectionMapHashIS8_ENS9_14EqualsComparerINS1_8equal_toIS8_EEEENS1_9allocatorINS2_IKS9_jEEEEEC2EjRKSB_RKSF_
X_j:_Object_set_hideFlags_m2204253440
ZLh:__ZNK15dense_hashtableINSt3__24pairIK10KeyWrapperINS1_IPK10MethodInfoP11Il2CppClassEEEjEES9_17ReflectionMapHashIS8_EN14dense_hash_mapIS9_jSD_NS9_14EqualsComparerINS0_8equal_toIS8_EEEENS0_9allocatorISB_EEE9SelectKeyESI_SK_E13find_positionERSA_
IAg:_EnumBuilder_get_Assembly_m4285228003
vDa:__ZN13GfxDeviceGLES20CreateComputeProgramEPKhj
Y1j:_PlayableOutput__ctor_m3826671654
Nkf:_DateTimeFormatInfo_get_RoundtripPattern_m562440017
pCe:__ZN11UnityEngine7Connect16PersistentValues13RestoreValuesER8JSONRead
X3d:__ZN14SphereCollider22FetchPoseFromTransformEv
SSa:__ZN20ArchiveStorageReader31TryToReadDirectoryFromBlockDataEyPKvj
v0k:_DefaultComparer__ctor_m3947565964_gshared
Mef:_Double_System_IConvertible_ToByte_m3004284950_AdjustorThunk
xdg:_TypeEntry_get_AssemblyName_m1762285107
oPd:__ZNK5physx2Gu11HeightField17getHeightInternalEff
fXh:__ZN6il2cpp2vmL11GetIdentityEP14Il2CppIUnknown
DHf:_SmallXmlParser_ReadCDATASection_m2558307107
w7h:_GC_push_gc_structures
Esd:__ZNK5physx7NpScene22getClientBehaviorFlagsEh
Q$f:_ServicePointManager_get_ServerCertificateValidationCallback_m1409951209
W9c:__ZN5physx9NpFactory14createMaterialEfff
cBc:__ZNK5physx3Cct13BoxController8getStatsERNS_17PxControllerStatsE
XOh:__ZN15dense_hashtableINSt3__24pairIK10KeyWrapperIPK14Il2CppAssemblyEPK22Il2CppMonoAssemblyNameEES6_N6il2cpp5utils11PointerHashIS4_EEN14dense_hash_mapIS6_SA_SF_NS6_14EqualsComparerINS0_8equal_toIS5_EEEENS0_9allocatorISB_EEE9SelectKeyESK_SM_E4swapERSP_
Ful:_WithDrum_GetAmmoCount_m2918362536
N3e:_Enumerator_get_Current_m1271212567
vU:__ZN5physx5cloth11PhaseConfigC2Et
NMa:__Z22GetShaderCachePathGLESv
Y9d:__ZN13PhysicsModule21OverlapBoxUserCollectERK8Vector3fS2_RK11Quaternionfi23QueryTriggerInteractionRN8IPhysics12IUserCollectE
eBc:__ZN5physx3Cct13BoxControllerD2Ev
UXj:_Input_set_compositionCursorPos_m1615567306
E0f:_IPAddress_ParseIPV6_m2209709575
ord:__ZThn8_N5physx2Sc19ShapeInstancePairLLD0Ev
oKd:__ZN5physx19PxcContactSphereBoxERKNS_2Gu13GeometryUnionES3_RKNS_11PxTransformES6_RKfRNS_10PxcNpCacheERNS0_13ContactBufferE
l8g:_Toggle_set_group_m3833595685
jxi:_LayoutRebuilder_ForceRebuildLayoutImmediate_m566681977
Ssd:__ZNK5physx7NpScene21getBroadPhaseCallbackEh
qUc:__ZN5physx6shdfnd5ArrayIPNS_12PxConstraintENS0_19ReflectionAllocatorIS3_EEE15growAndPushBackERKS3_
qvb:__ZNSt3__213__stable_sortIRNS_4lessI4PPtrI11SpriteAtlasEEENS_11__wrap_iterIPS4_EEEEvT0_SA_T_NS_15iterator_traitsISA_E15difference_typeEPNSD_10value_typeEi
AMa:__ZNSt3__26vectorIPN19ConstantBuffersGLES11ConstBufferENS_9allocatorIS3_EEE21__push_back_slow_pathIKS3_EEvRT_
x$c:__ZNK5physx2Sc15ArticulationSim11checkResizeEv
Abe:__Z37MeshCollider_Get_Custom_PropSkinWidthP12Il2CppObject
OCj:__Z74RuntimeInvoker_AnimatorControllerPlayable_t1744083903_Playable_t1896841784PFvvEPK10MethodInfoPvPS4_
zFi:_Array_InternalArray__ICollection_Add_TisVector4_t2243707581_m698578249_gshared
z0:__ZN8keywords6CreateEPKc
uFc:__ZN5physx2Gu11gjkRelativeINS0_8CapsuleVENS0_11ConvexHullVEEEjRKT_RKT0_RKNS_6shdfnd3aos15PsMatTransformVERNSB_5Vec3VESG_SG_RNSB_6FloatVE
S:Math_imul
bVj:_GUIStyle_set_active_m2896743432
Vyb:__ZN14SpriteRenderer15SetupPropertiesEv
Qtb:__ZN11PlayerPrefs6GetIntERKN4core12basic_stringIcNS0_20StringStorageDefaultIcEEEEi
yAh:__ZN6il2cpp5utils13dynamic_arrayIPK10Il2CppTypeLj4EEC2ERKS5_
QNe:_SecurityFrame_t1002202659_marshal_pinvoke_back
a0j:_Physics_Raycast_m2036777053
jre:__Z45TextGenerator_CUSTOM_INTERNAL_get_rectExtentsP12Il2CppObjectP5RectTIfE
aRf:_CertificateValidationCallback_Invoke_m2500463874
wEk:__ZL102GUIStyle_t1799908754_CustomAttributesCacheGenerator_GUIStyle_Internal_GetCursorFlashOffset_m3177259302P21CustomAttributesCache
xAi:_SetPropertyUtility_SetStruct_TisChar_t3454481338_m2333420724_gshared
Eqi:_Graphic_Raycast_m3582517890
g2e:_Hashtable_ContainsKey_m2716576664
Itl:_MoveLeftPlayerState_Execute_m3931062993
q4d:__ZN12PhysXRaycast19ApplyParticleForcesER13dynamic_arrayI21BatchedColliderResultLj4EE
Cgh:_PatternCompiler_EmitCategory_m1696942454
Rcf:_Decimal_decimalFloorAndTrunc_m3655683429
TFi:_Array_InternalArray__ICollection_CopyTo_TisInt32_t2071877448_m984622488_gshared
p1:__ZN18ScriptingArguments9AddObjectE18ScriptingObjectPtr
mve:__Z39CanvasGroup_Get_Custom_PropInteractableP12Il2CppObject
UU:__ZN11UnityEngine15CloudWebService16SessionContainerD2Ev
zGa:__ZN17GenericDynamicVBOC2ER9GfxDevice13GfxBufferModejj
Ddh:_Context_get_HasDynamicSinks_m1998518649
woc:__ZZN10GUIManager14InitGUIManagerEvEN41PreUpdateIMGUISendQueuedEventsRegistrator7ForwardEv
qOg:_AnimatorControllerPlayable_ResetTrigger_m758725835_AdjustorThunk
Vod:__ZNK5physx2Sc5Scene7isValidEv
lW:__ZN11UnityEngine15CloudWebService17SessionEventQueue10PurgeItemsEj
Vud:__ZN5physx2Sq17SceneQueryManager29setDynamicTreeRebuildRateHintEj
WWk:_ValueCollection_System_Collections_Generic_ICollectionU3CTValueU3E_get_IsReadOnly_m1530798787_gshared
Pdi:_AbstractEventData_get_used_m4208553917
O7a:__ZN6Camera16StandaloneRenderENS_10RenderFlagEP6ShaderRKN4core12basic_stringIcNS3_20StringStorageDefaultIcEEEE
QSe:_Array_System_Collections_IList_get_Item_m2088124007
iTe:_Array_GetLength_m2083296647
dhk:__ZL58SecurityElement_t2325568386_CustomAttributesCacheGeneratorP21CustomAttributesCache
vpb:__ZNK12CubemapArray13GetIsReadableEv
R$e:_SynchronizedArrayListWrapper_ToArray_m1522185111
ROb:__Z18Transfer_BlittableI18StreamedBinaryReadILb1EELb1EtEvRK29SerializationCommandArgumentsR31RuntimeSerializationCommandInfo
rNe:_SecurityContext_get_FlowSuppressed_m420202521
uqj:__Z55RuntimeInvoker_DayOfWeek_t721777893_DateTime_t693205669PFvvEPK10MethodInfoPvPS4_
FBa:__ZN9GfxDevice20DeallocRenderSurfaceEP17RenderSurfaceBase
m_c:__ZN5physx6shdfnd5ArrayIPvNS0_19ReflectionAllocatorINS_18NpArticulationLinkEEEE4copyINS0_15InlineAllocatorILj256ES5_EEEEvRKNS1_IS2_T_EE
Yvg:_ValueType_ToString_m3796301715
dJa:__ZN20GpuProgramParameters36UpdatePrepareValuesMaximumBufferSizeEv
BBc:__ZNK5physx3Cct10Controller12getKineShapeEv
gic:__Z53Register_UnityEngine_Quaternion_INTERNAL_CALL_Inversev
aJi:_Array_qsort_TisUICharInfo_t3056636800_m2607408901_gshared
GSc:__ZN5physx6shdfnd4sortIPvNS0_4LessIS2_EENS0_19ReflectionAllocatorINS_2Sc18TriggerInteractionEEEEEvPT_jRKT0_RKT1_j
dSj:_GUILayoutGroup__ctor_m992523271
gxj:__Z62RuntimeInvoker_Void_t1841601450_Byte_t3683104436_RuntimeObjectPFvvEPK10MethodInfoPvPS4_
Sib:__ZN12BaseRenderer23RendererBecameInvisibleEv
end:__ZNK5physx2Sc8BodyCore14getMaxAngVelSqEv
zde:__ZN20TextRenderingPrivate8FontImpl13CharacterInfo8TransferI18StreamedBinaryReadILb0EEEEvRT_
wMb:__Z29Transfer_Blittable_ArrayFieldI24GenerateTypeTreeTransferfEvRT_R9ArrayInfoRK23StaticTransferFieldInfo
Foj:__Z76RuntimeInvoker_RuntimeObject_RuntimeObject_SByte_t454417549_SByte_t454417549PFvvEPK10MethodInfoPvPS4_
Bab:__ZN19CustomRenderTexture9AddParentE4PPtrIS_E
g6k:_InternalEnumerator_1_MoveNext_m930150026_AdjustorThunk
Hsb:__ZN8Gradient8TransferI14SafeBinaryReadEEvRT_
lyl:_UnityEvent_1_Invoke_m1533100983_gshared
Yma:__ZNSt3__26vectorIN4core12basic_stringIcNS1_20StringStorageDefaultIcEEEE13stl_allocatorIS5_L18MemLabelIdentifier1ELi16EEE7reserveEj
U$f:_FileWebRequest__ctor_m4003648606
jOk:__ZL71SpriteState_t1353336012_CustomAttributesCacheGenerator_m_DisabledSpriteP21CustomAttributesCache
Pff:_Enum_System_IConvertible_ToSByte_m3488526280
GEg:_TypeBuilder_ToString_m1952363535
pSj:_GUIContent__ctor_m845353549
K_j:_MonoBehaviour_StopAllCoroutines_m1675795839
Uwa:__ZN18IDCollectorFunctorD0Ev
nLd:__ZN5physx2Gu32PCMConvexVsMeshContactGeneration15processTriangleEPKNS_6PxVec3EjhPKj
dwj:__Z73RuntimeInvoker_RuntimeObject_RuntimeObject_SByte_t454417549_RuntimeObjectPFvvEPK10MethodInfoPvPS4_
ONg:_AnimatorControllerPlayable_GetIntegerString_m2944800090
Euk:__ZL82Object_t1021602117_CustomAttributesCacheGenerator_Object_DestroyObject_m2343493981P21CustomAttributesCache
XAf:_NumberFormatter_Init_m1022036773
q6h:_GC_new_free_list_inner
f$k:_DefaultComparer_Equals_m85211180_gshared
e9i:_Collection_1_System_Collections_IList_IndexOf_m1950953062_gshared
Lzf:_MonoType_InternalGetEvent_m532443236
Z7i:_Collection_1_IndexOf_m2700825189_gshared
ROd:__ZN5physx6shdfnd5ArrayINS_2Cm8Matrix34ENS0_19ReflectionAllocatorIS3_EEE15growAndPushBackERKS3_
tgl:_Comparer_1_get_Default_m2605397692_gshared
uLd:__ZN5physx2Gu32PCMConvexVsMeshContactGeneration31generatePolyDataContactManifoldERNS0_9TriangleVEjjhPNS0_21MeshPersistentContactERjRKNS_6shdfnd3aos6FloatVERNS8_5Vec3VE
nCj:__Z93RuntimeInvoker_Void_t1841601450_PlayableHandleU26_t4210769902_Int32_t2071877448_RuntimeObjectPFvvEPK10MethodInfoPvPS4_
Z_d:__ZN5physx10SubSortSAH5splitEPjj
Wxc:__ZN8JSONRead8TransferI10RectOffsetEEvRT_PKc17TransferMetaFlagsb
OXh:__ZNK15dense_hashtableINSt3__24pairIK10KeyWrapperINS1_IPKcS4_EEEiEES6_24NamespaceAndNamePairHashN14dense_hash_mapIS6_iS9_NS6_14EqualsComparerI26NamespaceAndNamePairEqualsEENS0_9allocatorIS8_EEE9SelectKeyESD_SF_E12test_deletedERK24dense_hashtable_iteratorIS8_S6_S9_SH_SD_SF_E
VV:__ZN9JSONWrite8TransferIN11UnityEngine15CloudWebService14DataErrorEvent15FileErrorDetailEEEvRT_PKc17TransferMetaFlags
TRe:_Decoder__ctor_m2623573910
Fwa:__Z21ClearFenceWithoutSyncR8JobFence
WGc:__ZN5physx2Gu3EPA8addFacetEjjjRKNS_6shdfnd3aos6FloatVES6_
Tej:_ReadOnlyCollection_1_System_Collections_Generic_IListU3CTU3E_RemoveAt_m1731148677_gshared
Gbj:_Collection_1_RemoveAt_m2471647752_gshared
aN:__ZN12SoundManager20RegisterModifiedClipEP10SampleClip
pyb:__ZN12MeshRenderer15AddAsRenderNodeER15RenderNodeQueueRK20DeprecatedSourceData
EOc:__ZN5physx3Cct9CCTParamsC2Ev
uzh:__ZN15dense_hashtableI10KeyWrapperIPK17Il2CppGenericInstES4_N6il2cpp8metadata21Il2CppGenericInstHashEN14dense_hash_setIS4_S7_NS4_14EqualsComparerINS6_24Il2CppGenericInstCompareEEENSt3__29allocatorIS4_EEE8IdentityESB_SE_E13set_empty_keyERKS4_
Scd:__ZN5physx7NpCloth21setStiffnessFrequencyEf
hea:__ZNK20LocalFileSystemPosix8IsHiddenERK13FileEntryData
Ulc:__Z37Transform_CUSTOM_INTERNAL_CALL_LookAtP12Il2CppObjectRK8Vector3fS3_
jXd:__ZThn8_N5physx2Gu11HeightField14onRefCountZeroEv
Anh:_X501__cctor_m2610532554
Fck:__ZL95SafeHandle_t2733794115_CustomAttributesCacheGenerator_SafeHandle_DangerousGetHandle_m1328172664P21CustomAttributesCache
wKj:__Z48RuntimeInvoker_Int32_t2071877448_Link_t865133271PFvvEPK10MethodInfoPvPS4_
_Rc:__ZN5physx2Sc5Actor9setActiveEbj
tRe:_StringComparer__ctor_m2275216983
BEj:__Z83RuntimeInvoker_Void_t1841601450_RuntimeObject_Internal_DrawArgumentsU26_t3595831378PFvvEPK10MethodInfoPvPS4_
$$i:_List_1_CheckCollection_m2220107869_gshared
Vpb:__ZN7Cubemap23VirtualRedirectTransferER18StreamedBinaryReadILb0EE
pTf:_RecordProtocol_EncodeRecord_m3884270352
DJe:_SHA256_Create_m896954069
lpe:_Read_CVT
uSc:__ZN5physx2Sc10NPhaseCore28reserveContactReportPairDataEjjRj
U8e:_Convert_ToUInt32_m776714429
AFc:__ZN5physx2Gu22barycentricCoordinatesERKNS_6shdfnd3aos5Vec3VES5_S5_RNS2_6FloatVE
MPa:__ZN12FileAccessor4SeekEx10FileOrigin
qLb:__ZL26Transfer_SimpleNativeClassI24GenerateTypeTreeTransfer17AnimationCurveTplIfELb0EEvRK29SerializationCommandArgumentsR31RuntimeSerializationCommandInfo
ucd:__ZN5physx15NpActorTemplateINS_7PxClothEE12setActorFlagENS_11PxActorFlag4EnumEb
Prb:__ZN24GenerateTypeTreeTransfer8TransferI13dynamic_arrayI33EnlightenTerrainChunksInformationLj4EEEEvRT_PKc17TransferMetaFlags
rZd:__ZL18TestUnifiedNormalsjPKN5physx6PxVec3EjPNS_2Gu9TriangleTIjEEb
bZg:_Coroutine_t2299508840_marshal_pinvoke
A8:__ZN16LightmapSettings20DidChangeActiveSceneEP10UnitySceneS1_
xQk:__ZL59g_AssemblyU2DCSharp_Assembly_CustomAttributesCacheGeneratorP21CustomAttributesCache
ZFh:__ZN6il2cpp5utils9PathUtils8BasenameIcEENSt3__212basic_stringIT_NS3_11char_traitsIS5_EENS3_9allocatorIS5_EEEERKSA_
rO:__ZN10AudioMixer11SetupGroupsEv
Atk:__ZL91Resources_t339470017_CustomAttributesCacheGenerator_Resources_GetBuiltinResource_m582410469P21CustomAttributesCache
dqc:__Z35Register_UnityEngine_Event_get_typev
CIf:_PrivateKeyInfo_DecodeRSA_m1427048948
tsl:_CollisionAvoidance_GetSteering_m2903730075
EUh:__ZN6il2cpp2vm9Exception23GetInvalidCastExceptionERKNS_5utils10StringViewIDsEE
PNf:_BigInteger_op_GreaterThanOrEqual_m2643115413
jxg:_Assembly_FillName_m1934025015
grf:_IntPtr_op_Explicit_m1073656736
mQe:_String_IndexOf_m2126171214
Eqf:_Int64_ToString_m1544341651_AdjustorThunk
UVd:__ZNK5physx13GuMeshFactory17getNbConvexMeshesEv
Dmf:_Guid_CheckNull_m2903986431
jmk:__ZL62CrossContextDelegate_t754146990_CustomAttributesCacheGeneratorP21CustomAttributesCache
pUg:_Bounds__ctor_m1202659404
x2:__Z63ThreadAndSerializationSafeCheckGetMonoBehaviourBeingTransferredv
a9h:_GC_enable
kVf:_TlsClientCertificateVerify_ProcessAsSsl3_m3377063356
WOh:__ZN15dense_hashtableINSt3__24pairIK10KeyWrapperIPK14Il2CppAssemblyEPK22Il2CppMonoAssemblyNameEES6_N6il2cpp5utils11PointerHashIS4_EEN14dense_hash_mapIS6_SA_SF_NS6_14EqualsComparerINS0_8equal_toIS5_EEEENS0_9allocatorISB_EEE9SelectKeyESK_SM_EC2ERKSP_j
Eii:_StandaloneInputModule_set_repeatDelay_m2820945738
Isf:_EndOfStreamException__ctor_m4268387737
itg:_UInt16_ToString_m4213290405
Khc:__Z37Register_UnityEngine_Input_GetAxisRawv
ZGk:__ZL123UnitySynchronizationContext_t1205147244_CustomAttributesCacheGenerator_UnitySynchronizationContext_ExecuteTasks_m2941058172P21CustomAttributesCache
P1i:_List_1_GetIndex_m433539411_gshared
lfk:__ZL59StreamingContext_t1417235061_CustomAttributesCacheGeneratorP21CustomAttributesCache
Zbh:_ChannelServices_RegisterChannel_m3832858065
Wff:_Enum_GetName_m1226611481
qDl:_Func_2_Invoke_m4121137703_gshared
zSh:__ZN24dense_hashtable_iteratorINSt3__24pairIK10KeyWrapperINS1_IP11Il2CppClassjEEES4_EES6_N6il2cpp8metadata14ArrayClassHashEN14dense_hash_mapIS6_S4_SB_NS6_14EqualsComparerINSA_17ArrayClassCompareEEENS0_9allocatorIS8_EEE9SelectKeyESF_SH_E30advance_past_empty_and_deletedEv
zOj:__Z74RuntimeInvoker_DictionaryEntry_t3048875398_RuntimeObject_Int32_t2071877448PFvvEPK10MethodInfoPvPS4_
luj:__Z53RuntimeInvoker_DateTime_t693205669_Single_t2076509932PFvvEPK10MethodInfoPvPS4_
Gvb:__ZN14Texture2DArray23VirtualRedirectTransferER18StreamedBinaryReadILb0EE
gjh:_Literal_CompileLiteral_m276843152
YYb:__ZN2UI13RectTransform13AwakeFromLoadE17AwakeFromLoadMode
BQd:__ZN5physx23PxsSolverSetupSolveTaskD2Ev
S1a:__ZN14qsort_internal30FindAndMovePivotToLastPositionIP20ShadowCasterSortDatai26ShadowCasterSortDataSorterEEvT_S4_T0_T1_
_zh:__ZNK15dense_hashtableI10KeyWrapperIPK19Il2CppGenericMethodES4_N6il2cpp8metadata23Il2CppGenericMethodHashEN14dense_hash_setIS4_S7_NS4_14EqualsComparerINS6_26Il2CppGenericMethodCompareEEENSt3__29allocatorIS4_EEE8IdentityESB_SE_E3endEv
OFb:__Z18Transfer_BlittableI14SafeBinaryReadLb1EiEvRK29SerializationCommandArgumentsR31RuntimeSerializationCommandInfo
$9g:_DefaultDependencyAttribute__ctor_m107693037
uni:_DefaultControls_CreateSlider_m3525165396
rxa:__ZN17PersistentManager13GetAllFileIDsERKN4core12basic_stringIcNS0_20StringStorageDefaultIcEEEER13dynamic_arrayIxLj8EE
sHh:_il2cpp_field_get_offset
scg:_ProxyAttribute_GetPropertiesForNewContext_m3587421540
iUe:_Array_LastIndexOf_m4096535198
SZe:_ArrayList_Add_m1719188324
_6c:__ZN18MultiQueryCallbackIN5physx12PxOverlapHitEE6invokeERfPKNS0_2Sq13PrunerPayloadEj
GMl:dynCall_vifiiiiiiiiiiiiiiiiiiiiiii
aff:_Double_System_IConvertible_ToSByte_m1653690240_AdjustorThunk
I3d:__ZN14SphereColliderD0Ev
iJc:__ZN5physx2Gu18gjkRelativeRayCastINS0_4BoxVES2_NS0_10ShrunkBoxVES3_EEbRT_RT0_RKNS_6shdfnd3aos15PsMatTransformVERKNS9_6FloatVERKNS9_5Vec3VESI_RSD_RSG_SK_fb
il:_glGetStringi
TWj:_GUIStyleState_t3801000545_marshal_pinvoke
_E:__ZZN8Animator15InitializeClassEvEN43FunctorImpl_420kDidModifyAnimatorController4CallEPviR11MessageData
zhd:__ZN5physx22NpParticleBaseTemplateINS_15PxParticleFluidENS_15NpParticleFluidEE14setRestitutionEf
$vb:__ZN18StreamedBinaryReadILb0EE21TransferSTLStyleArrayI13dynamic_arrayI8Vector4fLj4EEEEvRT_17TransferMetaFlags
AWd:__ZThn8_N5physx2Gu10ConvexMeshD0Ev
Q4f:_X509Chain_get_CertificateCollection_m324631835
u2k:_EqualityComparer_1__cctor_m1011898363_gshared
ZAd:__ZNK5physx2Sq12BucketPruner7raycastERKNS_6PxVec3ES4_RfRNS0_14PrunerCallbackE
hDi:_Array_InternalArray__IndexOf_TisClientCertificateType_t4001384466_m1168139450_gshared
QBg:_FieldBuilder_get_Name_m2243491233
HW:__ZN11UnityEngine15CloudWebService20WebRequestRestClient18GetResponseHeadersEv
c7b:__ZN16PropertyAccessorC2Ev
Stb:__ZNSt3__23mapIN4core12basic_stringIcNS1_20StringStorageDefaultIcEEEE9PrefValueNS_4lessIS5_EENS_9allocatorINS_4pairIKS5_S6_EEEEEixERSB_
lPb:__Z35Transfer_Blittable_FixedBufferFieldI18StreamedBinaryReadILb1EEaEvRK29SerializationCommandArgumentsR31RuntimeSerializationCommandInfo
D6b:__ZN15DirectorManager22ConstructPlayableGraphEv
xda:__ZN13ScreenManager16SetScreenTimeoutEi
$Jb:__Z18Transfer_BlittableI17RemapPPtrTransferLb0EdEvRK29SerializationCommandArgumentsR31RuntimeSerializationCommandInfo
AKe:_SymmetricAlgorithm_set_IV_m4262655606
k7g:_StencilMaterial__cctor_m2963056855
EAl:_EqualityComparer_1_System_Collections_IEqualityComparer_Equals_m315020809_gshared
ZZi:_List_1_Find_m3680710386_gshared
MQg:_AnimatorControllerPlayable_Play_m614561002_AdjustorThunk
Uyg:_CustomAttributeNamedArgument_GetHashCode_m3715408876_AdjustorThunk
qre:__Z38Register_UnityEngine_Font_HasCharacterv
V3f:_X509Certificate2_AppendBuffer_m3517242299
X5a:__Z35IntersectSpherePlaneBoundsOptimizedRKN4math7_float4EPS1_i
Cif:_CultureInfo_get_IsNeutralCulture_m3874876470
Gzk:__ZL137AnimatorControllerPlayable_t1744083903_CustomAttributesCacheGenerator_AnimatorControllerPlayable_CrossFadeInFixedTimeInternal_m3383124488P21CustomAttributesCache
Fdf:_Delegate_CreateDelegate_m3813023227
qQc:__ZN5physx2Sc8ShapeSim20createLowLevelVolumeEjRKNS_9PxBounds3EjNS_9AABBMgrIdE
rlh:_Uri_get_AbsoluteUri_m2120317928
AI:__Z100Register_UnityEngine_Animations_AnimatorControllerPlayable_INTERNAL_CALL_GetAnimatorClipInfoInternalv
W$h:__ZN6il2cpp2os5posix15PosixWaitObject13InterruptWaitEv
Xcd:__ZNK5physx7NpCloth22getAngularInertiaScaleEv
kph:_X509Store_get_Crls_m1365300487
XKc:__ZN26IntersectAnyVsMeshCallbackILi1ELb1EE10processHitERKN5physx12PxRaycastHitERKNS1_6PxVec3ES7_S7_RfPKj
a8:__Z22CleanupLODGroupManagerPv
sFi:_Array_InternalArray__ICollection_Add_TisContentType_t1028629049_m2984242302_gshared
nwd:__ZN5physx6shdfnd5ArrayINS_2Sc5Scene14SimpleBodyPairENS0_19ReflectionAllocatorIS4_EEE8recreateEj
Sl:_glUniform3fv
xBb:__ZNSt3__218__insertion_sort_3IRN15ResourceManager10Dependency6SorterEPS2_EEvT0_S6_T_
DRi:_Enumerator_System_Collections_IEnumerator_Reset_m3796537546_AdjustorThunk
wqe:_UNITY_FT_Init_Class_tt_service_gx_multi_masters
twj:__Z53RuntimeInvoker_Int32_t2071877448_TimeSpan_t3430258949PFvvEPK10MethodInfoPvPS4_
kbl:_InternalEnumerator_1_System_Collections_IEnumerator_Reset_m3249248421_AdjustorThunk
ymj:__Z64RuntimeInvoker_RuntimeObject_Int32_t2071877448_Int16_t4041245914PFvvEPK10MethodInfoPvPS4_
uzf:_IntComparer_Compare_m3057931085
y0a:__ZNK16LightmapSettings31GetRealtimeLightmapDecodeValuesEv
QO:__ZN5audio5mixer12SetSuspendedERNS0_16AudioMixerMemoryEb
Hsa:__ZN17PersistentManager21UnloadNonDirtyStreamsEv
Xpj:__Z63RuntimeInvoker_DSAParameters_t1872138834_BooleanU26_t3168250738PFvvEPK10MethodInfoPvPS4_
PJj:__Z62RuntimeInvoker_Boolean_t3825574718_PlayableBinding_t2498078091PFvvEPK10MethodInfoPvPS4_
tVh:__ZN6il2cpp2vm13LivenessStateC2EP11Il2CppClassjPFvPP12Il2CppObjectiPvES7_PFvvESB_
lOi:_Array_ConvertAll_TisRuntimeObject_TisRuntimeObject_m2423585546_gshared
uWa:__ZN12ImageFilters4BlitER17ShaderPassContextP7TextureP13RenderTextureiPK18SharedMaterialDataPKcP6ShaderiNS_9BlitFlagsE11CubemapFaceRK8Vector2fSH_
j2f:_Oid__ctor_m1936781897
$6d:__ZN5physx6shdfnd8PoolBaseINS_24NpPtrTableStorageManager8PtrBlockILi4EEENS0_19ReflectionAllocatorIS4_EEE12allocateSlabEv
o$j:_Object_INTERNAL_CALL_Internal_InstantiateSingleWithParent_m1401308849
vW:__ZN11UnityEngine15CloudWebService10RestClientINS0_23WebRequestRestHeaderMapEED2Ev
I9g:_ResourceSet__ctor_m1222864106
BTd:__ZN5physx2Sc5Scene13ccdBroadPhaseEPNS_10PxBaseTaskE
E3i:_Collection_1_System_Collections_IList_get_Item_m3376056117_gshared
Msa:__ZN18LoadSceneOperationD0Ev
Zfi:__ZN23InterfaceActionInvoker1IP28PointerEventData_t1599784723E6InvokeEjP11Il2CppClassP12Il2CppObjectS1_
pLd:__ZN5physx2Gu24PCMMeshContactGeneration15processContactsEhb
ZKg:_AnimationClipPlayable_INTERNAL_CALL_CreateHandleInternal_m218917601
U3j:__ZL76UInt16_t986882611_CustomAttributesCacheGenerator_UInt16_TryParse_m1818885113P21CustomAttributesCache
CRi:_Enumerator_VerifyState_m3639069574_gshared
DHa:__ZN4crnd25static_huffman_data_model22prepare_decoder_tablesEv
Sqb:__ZN9Texture2D23VirtualRedirectTransferER17RemapPPtrTransfer
k2b:__ZN16ReflectionProbesD2Ev
mNf:_ModulusRing_Difference_m662924064
Nal:_InternalEnumerator_1_MoveNext_m1869236997_gshared
hli:_CanvasUpdateRegistry_ObjectValidForUpdate_m855695984
Wti:_InputField_set_onValueChanged_m2406388125
Vcj:_ReadOnlyCollection_1_System_Collections_ICollection_get_SyncRoot_m2702046016_gshared
fda:__ZL22CleanupUnityWebStreamsPv
dRb:__Z18Transfer_BlittableI18StreamedBinaryReadILb0EELb0E10ColorRGBAfEvRK29SerializationCommandArgumentsR31RuntimeSerializationCommandInfo
L_f:_ListDictionary_Add_m4276262662
F8:__Znaj
aIe:_RIPEMD160Managed_GGG_m1639995340
QUl:_emscripten_glEnableClientState__wrapper
D$:__ZN17MessageIdentifierC2EPKcNS_7OptionsEPKN5Unity4TypeES1_
UH:__Z76AnimatorControllerPlayable_CUSTOM_INTERNAL_CALL_CrossFadeInFixedTimeInternalR9HPlayableifif
MUk:_Enumerator_System_Collections_IEnumerator_get_Current_m1648049763_gshared
Zek:__ZL66ISerializationSurrogate_t1282780357_CustomAttributesCacheGeneratorP21CustomAttributesCache
Hqj:__Z31RuntimeInvoker_Char_t3454481338PFvvEPK10MethodInfoPvPS4_
Mib:__ZN11GameManager15ThreadedCleanupEv
t_i:_List_1__ctor_m1337392449_gshared
EFd:__ZN5physxL26solveFriction4_StaticBlockEPKNS_23PxcSolverConstraintDescERNS_16PxcSolverContextE
bTe:_Array_System_Collections_IList_Remove_m2438892375
mwf:_TextWriter__ctor_m2225796097
Lch:__ZN21InterfaceFuncInvoker0IP24StringU5BU5D_t1642385972E6InvokeEjP11Il2CppClassP12Il2CppObject
ihb:__ZN14SafeBinaryRead8TransferI14ConstantStringEEvRT_PKc17TransferMetaFlags
ill:_ScriptableObject_Internal_CreateScriptableObject_m1778903390
iKd:__ZN5physx30PxcGetMaterialShapeHeightFieldEPKNS_12PxsShapeCoreES2_RNS_18PxcNpThreadContextEPNS_15PxsMaterialInfoE
bka:__ZNK6Camera16GetStereoEnabledEv
W2b:__ZN12LightManager15InitializeClassEv
kUd:__ZN5physx6shdfnd8PoolBaseINS_2Sc19ParticlePacketShapeENS0_19ReflectionAllocatorIS3_EEE12allocateSlabEv
bla:__ZN9ShaderLab11shaderprops16GetComputeBufferEPK19ShaderPropertySheetS3_NS_16FastPropertyNameE
AVj:_GUIStyle_GetFontInternal_m3509743324
C1:__ZN18ScriptingArgumentsC2Ev
Iqg:_TimeZone_IsDaylightSavingTime_m875882154
PJk:__ZL104PointerEventData_t1599784723_CustomAttributesCacheGenerator_PointerEventData_set_scrollDelta_m4002219844P21CustomAttributesCache
w4k:_ArrayReadOnlyList_1_Insert_m503707439_gshared
UPl:_emscripten_glBlendFuncSeparate__wrapper
bSf:_CipherSuiteCollection_System_Collections_IList_set_Item_m750275607
uNg:_AnimatorControllerPlayable_SetFloatID_m3806317182
ZEa:__Z17HasSampledTexture14GraphicsFormat13formatSupport
PXa:__ZNK25CameraStackRenderingState27GetStereoImageEffectTextureEb
iJe:_SHA1CryptoServiceProvider__ctor_m3127563759
er:__ZN8Vector3f8TransferI14SafeBinaryReadEEvRT_
zac:__ZN13BuildSettings13GetSceneIndexERKN4core12basic_stringIcNS0_20StringStorageDefaultIcEEEE
$Pk:__ZL103BaseVertexEffect_t2504093552_CustomAttributesCacheGenerator_BaseVertexEffect_ModifyVertices_m3446986347P21CustomAttributesCache
Fp:FUNCTION_TABLE_ii
NLg:_AnimationLayerMixerPlayable_SetLayerMaskFromAvatarMask_m2582039992
Gib:__ZN10TagManager8TransferI18StreamedBinaryReadILb0EEEEvRT_
Jkj:__Z45RuntimeInvoker_Char_t3454481338_RuntimeObjectPFvvEPK10MethodInfoPvPS4_
Juc:__Z18Transfer_BlittableI9JSONWriteLb0E8BitFieldEvRK29SerializationCommandArgumentsR31RuntimeSerializationCommandInfo
cug:_UInt32_ToString_m3894907091_AdjustorThunk
JBi:_Array_InternalArray__IEnumerable_GetEnumerator_TisPlayableBinding_t2498078091_m2095426925_gshared
lvl:_Predicate_1__ctor_m2863314033_gshared
iOl:b44
Qb:invoke_diiii
vEi:_Array_ForEach_TisRuntimeObject_m1849351808_gshared
aKc:__ZL17sweepVolumeVsMeshPKN5physx3Cct9SweepTestEPKNS0_11TouchedMeshERNS0_12SweptContactERKNS_6PxVec3ERKNS_10PxGeometryERKNS_11PxTransformEjPKNS_10PxTriangleEj
mTk:_ShimEnumerator_get_Key_m616785465_gshared
tHf:_SmallXmlParser_Error_m1832158746
P7f:_RepeatContext_get_IsLazy_m1620488045
hl:_glDeleteVertexArrays
DOd:__ZN5physx2Gu31checkOverlapOBB_heightFieldGeomERKNS_10PxGeometryERKNS_11PxTransformERKNS0_3BoxE
ydb:__Z24CreateDirectoryRecursiveRKN4core12basic_stringIcNS_20StringStorageDefaultIcEEEE
fOl:b41
EWb:__ZN9ShaderLab20SerializedSubProgram8TransferI18StreamedBinaryReadILb0EEEEvRT_
Ovf:_StreamAsyncResult_get_AsyncWaitHandle_m4218169359
mYj:_LayerMask_op_Implicit_m2135076047
eEk:__ZL89GUIStyle_t1799908754_CustomAttributesCacheGenerator_GUIStyle_get_stretchWidth_m1223411161P21CustomAttributesCache
roc:__Z22MonoGUIContentToNative18ScriptingObjectPtrR10GUIContent
SCc:__ZN5physx2Gu23findRotationMatrixFromZERKNS_6PxVec3E
y4a:__Z9EndJobSetR8JobFence11JobPriority
TEd:__ZNK5physx2Gu29EPASupportMapPairRelativeImplINS0_8CapsuleVENS0_11ConvexHullVEE18doWarmStartSupportEiiRNS_6shdfnd3aos5Vec3VES8_S8_
Ure:__ZN2UI13CanvasManager9AddCanvasEPNS_6CanvasE
Ova:__ZN9Texture3D8TransferI19StreamedBinaryWriteILb0EEEEvRT_
UYa:__ZNK6Camera22CalculateRenderingPathEv
bwc:__ZN9JSONWrite8TransferI5RectTIfEEEvRT_PKc17TransferMetaFlags
nLg:_AnimationClipPlayable_INTERNAL_CALL_GetRemoveStartOffsetInternal_m3895628593
avd:__ZN5physx13NpVolumeCache10invalidateEv
tKa:__Z13ConvertMipmap14GraphicsFormatPKvS_Pviiii
HQf:_ContentInfo_get_Content_m1802070908
UJe:_SHA384Managed_processBlock_m3232296629
RKf:_X509Certificate_get_PublicKey_m714501701
dyj:__Z70RuntimeInvoker_Boolean_t3825574718_UInt16_t986882611_Int32_t2071877448PFvvEPK10MethodInfoPvPS4_
bwi:_U3CMouseDragOutsideRectU3Ec__Iterator1_System_Collections_IEnumerator_get_Current_m561728752
Pie:_tt_sbit_decoder_load_image
Iia:__Z14IsHalfRTFormat19RenderTextureFormat
BQe:_String_LastIndexOf_m290475879
zCi:__ZN21InterfaceFuncInvoker1Ii22UILineInfo_t3621277874E6InvokeEjP11Il2CppClassP12Il2CppObjectS0_
Xsi:_Image_get_layoutPriority_m2151045813
RRh:__ZN15dense_hashtableINSt3__24pairIK10KeyWrapperIP11Il2CppClassES4_EES5_N6il2cpp8metadata16SZArrayClassHashEN14dense_hash_mapIS5_S4_SA_NS5_14EqualsComparerINS9_19SZArrayClassCompareEEENS0_9allocatorIS7_EEE9SelectKeyESE_SG_EC2EjRKSA_RKSE_RKSI_
mhd:__ZN5physx22NpParticleBaseTemplateINS_15PxParticleFluidENS_15NpParticleFluidEE12setPositionsEjRKNS_16PxStrideIteratorIKjEERKNS4_IKNS_6PxVec3EEE
cxf:_TextReader_Read_m975794707
Joc:__ZNSt3__24listIN10GUIManager12SortedScriptE11memory_poolIS2_EE6__sortI13OldSortScriptEENS_15__list_iteratorIS2_PvEESA_SA_jRT_
RQc:__ZN5physx6shdfnd5ArrayIPvNS0_19ReflectionAllocatorINS_2Sc10NPhaseCore16ClothListElementEEEE15growAndPushBackERKS2_
mug:_UInt64_System_IConvertible_ToChar_m1930853313_AdjustorThunk
fVf:_TlsClientCertificate_SendCertificates_m1096074091
aog:_SynchronizationContext__ctor_m1576930414
U2e:_SyncHashtable_get_Item_m408601391
Hfk:__ZL45DSA_t903174880_CustomAttributesCacheGeneratorP21CustomAttributesCache
Yej:_ReadOnlyCollection_1_System_Collections_IEnumerable_GetEnumerator_m1401363518_gshared
hGj:__Z86RuntimeInvoker_Void_t1841601450_RuntimeObject_RayU26_t3651946800_SingleU26_t4173844468PFvvEPK10MethodInfoPvPS4_
HCe:__ZN11UnityEngine15PlatformWrapper20GetRuntimePlatformIdEv
i3i:_Stack_1_System_Collections_ICollection_CopyTo_m2104527616_gshared
zlg:_StringBuilder_AppendFormat_m1666670800
S2a:__ZN18DeferredRenderLoop13RenderGBufferEP13RenderTexturePS1_b8JobFencePK25DeferredRenderLoopScratchRi
Rsl:_Face_GetSteering_m3751956292
xDj:__Z97RuntimeInvoker_Boolean_t3825574718_RuntimeObject_TextGenerationSettings_t2543476768_RuntimeObjectPFvvEPK10MethodInfoPvPS4_
Cil:_Rect_Equals_m3806390726
MPj:__Z80RuntimeInvoker_RuntimeObject_RaycastResult_t21186376_RuntimeObject_RuntimeObjectPFvvEPK10MethodInfoPvPS4_
JJb:__Z18Transfer_BlittableI17RemapPPtrTransferLb1E8BitFieldEvRK29SerializationCommandArgumentsR31RuntimeSerializationCommandInfo
DTh:__ZN6il2cpp6icalls8mscorlib6System9ThreadingL11ThreadStartEPv
Faa:__ZN15DirectorManager12OnSampleTimeEv
ohj:_ReadOnlyCollection_1_System_Collections_IList_Remove_m3878418841_gshared
wLf:_AttrListImpl_GetName_m1919558736
Bja:__ZN12CachedReader10Align4ReadEv
olh:_Uri_op_Equality_m110355127
kcj:_Collection_1_CopyTo_m42272870_gshared
YUh:__ZN6il2cpp2vm9Exception28GetMarshalDirectiveExceptionEPKc
zAf:_MulticastDelegate_GetObjectData_m3187757658
iDl:_Func_2_Invoke_m2929712329_gshared
Mgb:__ZNK9Behaviour22GetTypeVirtualInternalEv
Iki:_CanvasScaler_set_referencePixelsPerUnit_m1188599784
pMj:__Z74RuntimeInvoker_Void_t1841601450_Int32_t2071877448_RaycastHit2D_t4063908774PFvvEPK10MethodInfoPvPS4_
G7c:__ZN5physx2Sc14ConstraintCore13setBreakForceEff
A0b:__ZNK28MonoBehaviourPropertyBinding12SetPPtrValueERKN11UnityEngine9Animation10BoundCurveEi
Z6a:__Z21GetScriptingArraySize17ScriptingArrayPtr
Tce:__ZN20TextRenderingPrivate8FontImpl8TransferI14SafeBinaryReadEEvRT_
iGj:__Z74RuntimeInvoker_Int32_t2071877448_RaycastHit_t87180320_RaycastHit_t87180320PFvvEPK10MethodInfoPvPS4_
Mih:__ZN23InterfaceActionInvoker1IP19LinkRef_t2090853131E6InvokeEjP11Il2CppClassP12Il2CppObjectS1_
Ena:__Z35UnityPropertySheet_MakeSortedColorsRKNSt3__23mapIN9ShaderLab16FastPropertyNameE10ColorRGBAfNS_4lessIS2_EENS_9allocatorINS_4pairIKS2_S3_EEEEEER10vector_mapIS2_S3_S5_NS6_INS7_IS2_S3_EEEEE
nEj:__Z116RuntimeInvoker_Void_t1841601450_Rect_t3681755626_RuntimeObject_Int32_t2071877448_Int32_t2071877448_Int32_t2071877448PFvvEPK10MethodInfoPvPS4_
HVj:_GUIStyle_Draw_m4006459684
rHk:__ZL104PlayableExtensions_t2358977238_CustomAttributesCacheGenerator_PlayableExtensions_SetDuration_m3676215212P21CustomAttributesCache
plj:__Z110RuntimeInvoker_Boolean_t3825574718_RuntimeObject_SByte_t454417549_Int64U26_t763825331_ExceptionU26_t1467204777PFvvEPK10MethodInfoPvPS4_
y9d:__ZZN14PhysicsManager15InitializeClassEvEN63EarlyUpdatePhysicsResetInterpolatedTransformPositionRegistrator7ForwardEv
BCa:__ZN9GfxDevice17ImmediateTexCoordEifff
zhh:_Parser_ParseRegularExpression_m2390577313
tke:_ft_black_new
HUe:_Array_double_swapper_m1175307080
vIj:__Z64RuntimeInvoker_Boolean_t3825574718_IntPtr_t_ObjectU26_t597476745PFvvEPK10MethodInfoPvPS4_
rrk:__ZL102GameObject_t1756533147_CustomAttributesCacheGenerator_GameObject_Internal_CreateGameObject_m3428198595P21CustomAttributesCache
Jih:_Alternation_AddAlternative_m623421443
q5f:_X509CertificateEnumerator_System_Collections_IEnumerator_Reset_m327358896
Lwj:__Z65RuntimeInvoker_Void_t1841601450_Byte_t3683104436_Byte_t3683104436PFvvEPK10MethodInfoPvPS4_
JFi:_Array_InternalArray__ICollection_CopyTo_TisKeyValuePair_2_t1174980068_m1818152223_gshared
JMe:_Hash__ctor_m2554411450
sKe:_SHAConstants__cctor_m2781430679
pOe:_Single_System_IConvertible_ToDateTime_m2510003459_AdjustorThunk
Ydf:_Delegate_RemoveImpl_m3666700529
PNl:_emscripten_glUniform4f__wrapper
d$f:_NameObjectCollectionBase_OnDeserialization_m3478980442
vsi:_Image_get_mainTexture_m1027716278
W6j:__ZL70Type_t_CustomAttributesCacheGenerator_Type_GetConstructors_m2314877651P21CustomAttributesCache
Nti:_InputField_set_caretColor_m2252440840
ERd:__ZN5physx6shdfnd5ArrayINS_25PxcThresholdStreamElementENS0_19ReflectionAllocatorIS2_EEE8recreateEj
NT:__Z78Register_UnityEngine_Audio_AudioPlayableOutput_INTERNAL_CALL_InternalSetTargetv
GJi:_Array_Resize_TisVector2_t2243707579_m1117258774_gshared
q$a:__ZNK6Camera16GetProjectionFarEv
fs:__Z24InverseTransformRotationRK23TransformAccessReadOnlyRKN4math7_float4E
xyf:_MissingFieldException__ctor_m1161042282
WYe:_Char_GetHashCode_m2343577184
fDe:__Z31GetPerformanceReportingSettingsv
Iob:__ZNK14PlayableOutput11DerivesFromE17ScriptingClassPtr
Tva:__ZN7Texture34CreateFileTextureUploadInstructionE18TextureUploadFlagsj
Dml:_StateMachineBehaviour_OnStateExit_m1490844990
pCa:__ZN9GfxDevice21ResetDynamicResourcesEv
jWa:__ZN13ComputeShader14SetBufferParamEjRKN9ShaderLab16FastPropertyNameE15ComputeBufferID
Mlb:__ZThn280_N31CanvasBatchIntermediateRenderer20OnAssetBoundsChangedEv
Ydd:__ZN5physx7NpCloth21setCollisionMassScaleEf
SOd:__ZN5physx6shdfnd5ArrayINS_7PxPlaneENS0_19ReflectionAllocatorIS2_EEE8recreateEj
hgg:_StreamingContext__ctor_m3063421596_AdjustorThunk
aae:__ZN13PhysicsModule17GetRigidBodyStateERK9RigidbodyPN8IPhysics14RigidBodyStateE
bhj:_ReadOnlyCollection_1_System_Collections_Generic_IListU3CTU3E_Insert_m3054305464_gshared
e0b:__ZN19LowerResBlitTexture13ApplySettingsEv
U4j:__ZL70IntPtr_t_CustomAttributesCacheGenerator_IntPtr_op_Explicit_m3896766622P21CustomAttributesCache
$D:__ZN8Animator8TransferI14SafeBinaryReadEEvRT_
BRh:__ZN15dense_hashtableINSt3__24pairIK10KeyWrapperIP11Il2CppClassES4_EES5_N6il2cpp8metadata16SZArrayClassHashEN14dense_hash_mapIS5_S4_SA_NS5_14EqualsComparerINS9_19SZArrayClassCompareEEENS0_9allocatorIS7_EEE9SelectKeyESE_SG_E4swapERSJ_
Zhb:__ZN17GlobalGameManager23VirtualRedirectTransferER18StreamedBinaryReadILb0EE
Ech:_ConfigHandler_CheckPath_m2296459741
w6g:_Slider_get_value_m4182660424
Q5:__Z23AsyncReadForceCloseFileRKN4core12basic_stringIcNS_20StringStorageDefaultIcEEEE
zu:__ZN17AnimationPlayable34CollectAnimatorControllerPlayablesER13dynamic_arrayIP26AnimatorControllerPlayableLj4EE
OS:__ZN16BaseVideoTexture19UpdateVideoTexturesEv
Blb:__Z28BuildSingleStreamChannelInfo17ShaderChannelMaskRK20VertexChannelsLayoutS_S2_P11ChannelInfo
qua:__ZNK16LightmapSettings23HasLightProbeTetrahedraEv
v8d:__ZN13ProduceHelperI15CapsuleColliderLb0EE7ProduceE18MemLabelIdentifier18ObjectCreationMode
sUf:_Context_get_WriteSequenceNumber_m243492531
_tb:__ZN6Sprite23VirtualRedirectTransferER19StreamedBinaryWriteILb0EE
Pak:__ZL51Assembly_t4268412390_CustomAttributesCacheGeneratorP21CustomAttributesCache
tQe:_String_LastIndexOfAny_m1473637802
Hlc:__Z38Transform_CUSTOM_INTERNAL_set_positionP12Il2CppObjectRK8Vector3f
jwg:_Version_CompareTo_m596235198
JWi:_List_1_System_Collections_ICollection_CopyTo_m3062449209_gshared
aLh:__ZNK15dense_hashtableINSt3__24pairIK10KeyWrapperINS1_IPK9FieldInfoP11Il2CppClassEEEjEES9_17ReflectionMapHashIS8_EN14dense_hash_mapIS9_jSD_NS9_14EqualsComparerINS0_8equal_toIS8_EEEENS0_9allocatorISB_EEE9SelectKeyESI_SK_E5beginEv
tla:__ZNK9ShaderLab7Program19HasMatchingVariantsERK13dynamic_arrayI16ShaderKeywordSetLj4EE
ZB:__ZN15SerializeTraitsIN4math4trsXEE8TransferI8BlobSizeEEvRS1_RT_
EFa:__ZN14DataBufferGLES11CopySubDataEPKS_jjj
Re:_emscripten_glVertexPointer
ROa:__ZNSt3__26__treeI20DeviceDepthStateGLES11memcmp_lessIS1_S1_ENS_9allocatorIS1_EEE7destroyEPNS_11__tree_nodeIS1_PvEE
Lte:__ZN2UI13PrepareOutputERNS_7BatchesEjjNS_30AdditionalCanvasShaderChannelsE
WUi:_List_1_System_Collections_Generic_ICollectionU3CTU3E_get_IsReadOnly_m1614481629_gshared
y2a:__Z17GetFrustumPortionPK8Vector3fffPS_
FTc:__ZNK5physx2Gu22SupportMapRelativeImplINS0_4BoxVEE18doWarmStartSupportEiRNS_6shdfnd3aos5Vec3VE
Bvg:_UnauthorizedAccessException__ctor_m259001183
DWh:__ZN15dense_hashtableINSt3__24pairIK10KeyWrapperIP14Il2CppIUnknownEjEES5_N6il2cpp5utils11PointerHashIS3_EEN14dense_hash_mapIS5_jSB_NS5_14EqualsComparerINS0_8equal_toIS4_EEEENS0_9allocatorIS7_EEE9SelectKeyESG_SI_E14squash_deletedEv
Tlb:__ZN5Light13AwakeFromLoadE17AwakeFromLoadMode
hol:_TouchScreenKeyboard_set_text_m3456054179
XHk:__ZL60MovedFromAttribute_t922195725_CustomAttributesCacheGeneratorP21CustomAttributesCache
Fni:_DefaultControls_CreateDropdown_m1384069408
whi:_PointerEventData_get_clickCount_m4064532478
yfj:_ReadOnlyCollection_1_System_Collections_Generic_ICollectionU3CTU3E_get_IsReadOnly_m3508872969_gshared
Lgf:_EventArgs__cctor_m1350395667
Ohl:_Rect_get_position_m24550734_AdjustorThunk
LWg:_CapsuleCollider__ctor_m1053705808
Yxl:_UnityEvent_1_GetDelegate_m4062537313_gshared
phf:_CCGregorianCalendar_is_leap_year_m567513478
Q2f:_Oid_get_Value_m2271181078
gVe:_Attribute_IsDefined_m2118467641
BIf:_PrivateKeyInfo_Normalize_m3959595934
jJj:__Z68RuntimeInvoker_Void_t1841601450_Int32_t2071877448_Color32_t874517518PFvvEPK10MethodInfoPvPS4_
z5k:_InternalEnumerator_1_System_Collections_IEnumerator_get_Current_m3125080595_gshared
N9i:_Collection_1_System_Collections_IList_Add_m2091889616_gshared
r7b:__ZN16StreamedResource8TransferI24GenerateTypeTreeTransferEEvRT_
$oi:_DropdownItem_OnPointerEnter_m761897861
HLg:_AnimationLayerMixerPlayable_INTERNAL_CALL_IsLayerAdditiveInternal_m364677421
JI:__Z90Register_UnityEngine_Animations_AnimatorControllerPlayable_INTERNAL_CALL_CrossFadeInternalv
nNc:__ZN5physx3Cct10Controller13onOriginShiftERKNS_6PxVec3E
WLa:__ZN10Matrix3x3f15InvertTransposeEv
Zyi:_Array_InternalArray__ICollection_Remove_TisKeyValuePair_2_t1174980068_m2768765894_gshared
KCb:__ZN24GenerateTypeTreeTransfer8TransferINSt3__26vectorIN4core12basic_stringIcNS3_20StringStorageDefaultIcEEEE13stl_allocatorIS7_L18MemLabelIdentifier12ELi16EEEEEEvRT_PKc17TransferMetaFlags
rnh:_PKCS12_CertificateSafeBag_m3272197807
rVf:_TlsClientCertificateVerify_ProcessAsTls1_m1960818833
mEd:__ZN5physx2Gu19_gjkRelativeRayCastINS0_9TriangleVENS0_11ConvexHullVEEEbRT_RT0_RKNS_6shdfnd3aos15PsMatTransformVERKNS9_6FloatVERKNS9_5Vec3VESI_RSD_RSG_SK_f
OIb:__Z29Transfer_Blittable_ArrayFieldI14SafeBinaryRead8Vector3fEvRT_R9ArrayInfoRK23StaticTransferFieldInfo
otg:_UInt32_System_IConvertible_ToBoolean_m91295134
Ong:_Monitor_Monitor_test_synchronised_m1542589500
erk:__ZL85GameObject_t1756533147_CustomAttributesCacheGenerator_GameObject_get_layer_m725607808P21CustomAttributesCache
TLj:__Z66RuntimeInvoker_Void_t1841601450_Int32_t2071877448_Slot_t2022531261PFvvEPK10MethodInfoPvPS4_
Lde:__ZN20TextRenderingPrivate8FontImpl18ResetCachedTextureEv
n4j:__ZL75String_t_CustomAttributesCacheGenerator_String_Concat_m626692867____values0P21CustomAttributesCache
ork:__ZL98GameObject_t1756533147_CustomAttributesCacheGenerator_GameObject_SendMessage_m71956653____options2P21CustomAttributesCache
oJf:_SymmetricTransform_TransformFinalBlock_m4192185386
qmf:_TextInfo__ctor_m1263401274
zJd:__ZNK5physx19ActorAABBUpdateTask7getNameEv
uzl:_ListPool_1_Release_m3047738410_gshared
fol:_TouchScreenKeyboard_Open_m913506328
_6h:_GC_print_finalization_stats
gUf:_Context_get_SecurityProtocolFlags_m3295551796
AWk:_ValueCollection__ctor_m927733289_gshared
kka:__ZN11NamedObject15ThreadedCleanupEv
RRg:_LowMemoryCallback__ctor_m4181659636
tbl:_InternalEnumerator_1__ctor_m2981879621_AdjustorThunk
Kec:__Z53Register_UnityEngine_Behaviour_get_isActiveAndEnabledv
Upk:__ZL87Component_t3819376471_CustomAttributesCacheGenerator_Component_GetComponent_m4225719715P21CustomAttributesCache
V0f:_IPAddress_ToString_m267966740
mAl:_EqualityComparer_1__ctor_m3971803374_gshared
Kr:__ZNSt3__26vectorIN4core12basic_stringIcNS1_20StringStorageDefaultIcEEEENS_9allocatorIS5_EEE8__appendEj
iTg:_AudioClipPlayable_SetPauseDelayInternal_m3827440449
VAb:__ZN26PlayerSettingsSplashScreen8TransferI17RemapPPtrTransferEEvRT_
cii:_ButtonState_get_eventData_m1293357996
k9k:_InternalEnumerator_1_get_Current_m3922357178_gshared
VEh:__ZN6il2cpp6icalls8mscorlib6SystemL17CollectTypeFieldsINS_5utils10functional10TrueFilterEEEvP11Il2CppClassPKS7_iRNSt3__26vectorIP9FieldInfoNSB_9allocatorISE_EEEERKT_
OKk:__ZL72ColorBlock_t2652774230_CustomAttributesCacheGenerator_m_HighlightedColorP21CustomAttributesCache
fUc:__ZN5physx3Scb5Scene20addArticulationJointERNS0_17ArticulationJointE
_qg:_Type_get_IsValueType_m1733572463
Ysd:__ZN5physx7NpScene14resetFilteringERNS_12PxRigidActorEPKPNS_7PxShapeEj
x_b:__Z13GetTagManagerv
y6k:_InternalEnumerator_1_Dispose_m1748410190_AdjustorThunk
SUg:_Collider__ctor_m1476559039
zzi:_Array_InternalArray__ICollection_Remove_TisUInt16_t986882611_m65494986_gshared
Rfj:_ReadOnlyCollection_1_IndexOf_m3054637117_gshared
Zuh:__ZL10roundUp128PyS_
EU:__ZN11UnityEngine15CloudWebService17CloudJobSchedulerD0Ev
oPe:_String_System_IConvertible_ToBoolean_m2696751322
z1d:__ZN15CapsuleCollider23VirtualRedirectTransferER14SafeBinaryRead
Qsa:__ZN18LoadSceneOperation7PerformEv
yyd:__ZN5physx2Sc5Scene26setSimulationEventCallbackEPNS_25PxSimulationEventCallbackEh
r9k:_InternalEnumerator_1__ctor_m3228997263_AdjustorThunk
Dek:__ZL105ConfigHandler_t2180714860_CustomAttributesCacheGenerator_ConfigHandler_ValidatePath_m3188987489____paths1P21CustomAttributesCache
zSj:_GUILayer_INTERNAL_CALL_HitTest_m693512502
sse:__ZNK2UI11CanvasGroup22GetTypeVirtualInternalEv
tCc:__ZL30GeomMTDCallback_CapsuleCapsuleRN5physx6PxVec3ERfRKNS_10PxGeometryERKNS_11PxTransformES5_S8_
Ju:__ZN7mecanim9animation17DestroyClipOutputEPNS0_10ClipOutputERNS_6memory9AllocatorE
gVg:_Camera_get_pixelRect_m2084185953
KKc:__ZL18intersectAnyVsMeshILi0EEbPKN5physx2Gu6SphereEPKNS1_7CapsuleEPKNS1_3BoxERKNS1_13RTreeMidphaseERKNS0_11PxTransformERKNS0_11PxMeshScaleEP14LimitedResults
IHj:__Z163RuntimeInvoker_Void_t1841601450_RuntimeObject_Int32_t2071877448_SByte_t454417549_SByte_t454417549_SingleU26_t4173844468_SingleU26_t4173844468_SingleU26_t4173844468PFvvEPK10MethodInfoPvPS4_
$oc:__Z21CleanupGlobalGUIStatev
Cpg:_TimeSpan__ctor_m1888018443_AdjustorThunk
kOj:__Z74RuntimeInvoker_Int32_t2071877448_UIVertex_t1204258818_UIVertex_t1204258818PFvvEPK10MethodInfoPvPS4_
P2e:_SyncHashtable_get_Count_m3694444082
X_c:__ZN5physx14NpArticulation6wakeUpEv
Hok:__ZL144U3CCreateWhereIteratorU3Ec__Iterator1D_1_t2523986802_CustomAttributesCacheGenerator_U3CCreateWhereIteratorU3Ec__Iterator1D_1_Dispose_m3152287270P21CustomAttributesCache
Fkj:__Z56RuntimeInvoker_RuntimeObject_RuntimeObject_RuntimeObjectPFvvEPK10MethodInfoPvPS4_
rNa:__ZN22VertexDeclarationCache5ClearEv
zTl:_emscripten_glUniform2i__wrapper
ybb:__ZN17PersistentManager12SetPathRemapERKN4core12basic_stringIcNS0_20StringStorageDefaultIcEEEES6_
Vw:__Z27ProcessRootMotionEmptyMixerP35AnimationPlayableEvaluationConstantP32AnimationPlayableEvaluationInputP33AnimationPlayableEvaluationOutput
e4a:__ZN6Camera24PrepareCullingParametersERK23CameraCullingParameters13RenderingPathR11CullResults
I0i:__ZN23InterfaceActionInvoker2IP25Vector3U5BU5D_t1172311765iE6InvokeEjP11Il2CppClassP12Il2CppObjectS1_i
bac:__Z12SetIUISystemP9IUISystem
ata:__ZN19RuntimeSceneManager22EndIntegrateMainThreadEP10UnitySceneNS_11LoadingModeE
Lgk:__ZL84Evidence_t1407710183_CustomAttributesCacheGenerator_Evidence_GetHashCode_m1260371757P21CustomAttributesCache
Ifj:_ReadOnlyCollection_1_System_Collections_ICollection_get_IsSynchronized_m2344337514_gshared
gKb:__Z26Transfer_UnityEngineObjectI17RemapPPtrTransferLb0EEvRK29SerializationCommandArgumentsR31RuntimeSerializationCommandInfo
EHj:__Z34RuntimeInvoker_FitMode_t4030874534PFvvEPK10MethodInfoPvPS4_
DQe:_String_IsNullOrEmpty_m2802126737
TXe:_Byte_Parse_m1442736478
mqf:_Int64_Parse_m3258022240
nQe:_String_IndexOfOrdinal_m3591623977
Onl:_Texture2D_get_whiteTexture_m1979591766
gig:_CryptoConfig_EncodeLongNumber_m2352037787
Erg:_Type_GetMethod_m475234662
XOe:_Single_GetHashCode_m3102305584
TOi:_KeyValuePair_2__ctor_m1877755778_AdjustorThunk
vbh:_ActivationServices_get_ConstructionActivator_m1726426854
pMb:__Z29Transfer_Blittable_ArrayFieldI24GenerateTypeTreeTransfer4AABBEvRT_R9ArrayInfoRK23StaticTransferFieldInfo
ojk:__ZL76Convert_t2607082565_CustomAttributesCacheGenerator_Convert_ToChar_m245844937P21CustomAttributesCache
Jik:__ZL52Activator_t1850728717_CustomAttributesCacheGeneratorP21CustomAttributesCache
a8h:_GC_adj_bytes_allocd
$6g:_SpriteState_t1353336012_marshal_pinvoke_cleanup
nFi:_Array_InternalArray__ICollection_Add_TisKeyframe_t1449471340_m887263954_gshared
zXd:__ZN5physx20InternalTriangleMesh16allocateVerticesEj
spl:_UIVertex__cctor_m803910084
TGi:_Array_InternalArray__Insert_TisDateTime_t693205669_m1484996356_gshared
Yjh:__ZN23InterfaceActionInvoker2IP19LinkRef_t2090853131S1_E6InvokeEjP11Il2CppClassP12Il2CppObjectS1_S1_
iYk:_Dictionary_2_System_Collections_IDictionary_GetEnumerator_m1484720898_gshared
_uf:_MonoIO_get_ConsoleInput_m2976499023
eEg:_OpCode_get_Size_m481593949_AdjustorThunk
j0e:_BitArrayEnumerator_checkVersion_m3839504595
wTe:_Array_GetUpperBound_m1352329707
HHd:__ZN5physx6shdfnd5ArrayINS_17PxcBroadPhasePairENS0_19ReflectionAllocatorIS2_EEE8recreateEj
g1b:__ZNK17AnimationCurveTplIfE20FindIndexForSamplingERKNS0_5CacheEfRiS4_
Ja:invoke_fiiifii
PSf:_RecordProtocol__ctor_m168945279
tbf:_DateTimeOffset_Equals_m3728302791_AdjustorThunk
WIc:__ZThn4_N16RayRTreeCallbackILi1ELb0EED1Ev
i6d:__ZN5physx7profile11EventBufferINS_24PxDefaultContextProviderENS_6shdfnd6MutexTINS0_26WrapperReflectionAllocatorIhEEEENS0_14ScopedLockImplIS7_EENS_24PxProfileNullEventFilterEE9sendEventINS0_10StartEventEEEvRNS0_11EventHeaderERT_
UWj:_GUIStyleState_t3801000545_marshal_pinvoke_back
j2a:__ZN20SphericalHarmonicsL219AddDirectionalLightERKN4math7_float3ERKNS0_7_float4E
hWd:__ZN5physx13BigConvexDataD2Ev
zqg:_TimeSpan_op_GreaterThanOrEqual_m3997050520
fkk:__ZL77Convert_t2607082565_CustomAttributesCacheGenerator_Convert_ToUInt16_m36213644P21CustomAttributesCache
yaa:__Z26ScheduleJobForEachInternalR8JobFencePFvPvjES1_iPFvS1_E11JobPriority
$2f:_OidEnumerator_MoveNext_m1889267785
_Ta:__ZZ23InitPlayerLoopCallbacksvEN41PostLateUpdateProfilerEndFrameRegistrator7ForwardEv
Jac:__ZN9Scripting18RaiseMonoExceptionEPKcz
xwk:__ZL76Physics_t634932869_CustomAttributesCacheGenerator_Physics_Raycast_m780162053P21CustomAttributesCache
Lqb:__ZN9Texture2D8TransferI19StreamedBinaryWriteILb0EEEEvRT_
PTj:_GUISkin_set_box_m877476512
cpi:_OptionData__ctor_m3070653720
jzl:_TweenRunner_1_StartTween_m3792842064_gshared
u3b:__ZN9ShaderLab16FastPropertyName15InitBy28BitHashEj
xOe:_Single_System_IConvertible_ToInt32_m3269519527_AdjustorThunk
Twh:__ZN6il2cpp2vm5Class7GetNameEP11Il2CppClass
oJe:_SHA1Internal_ProcessBlock_m4070037334
q3k:_U3CGetEnumeratorU3Ec__Iterator0_System_Collections_IEnumerator_get_Current_m2580780957_gshared
Prk:__ZL87RectOffset_t3387826427_CustomAttributesCacheGenerator_RectOffset_get_bottom_m4112328858P21CustomAttributesCache
dmg:_UTF32Encoding_GetDecoder_m2714144074
Xbg:_ObjRef_GetObjectData_m3081609242
KJd:__ZN5physx20updateBodyShapeAABBsEPKjjS1_PKNS_17PxcAABBDataStaticEPNS_11IntegerAABBEj
L0b:__ZN13ProduceHelperIN2UI13RectTransformELb0EE7ProduceE18MemLabelIdentifier18ObjectCreationMode
Ewb:__ZN17PackedFloatVector12UnpackFloatsEPfiiii
thk:__ZL113EncoderReplacementFallback_t4228544112_CustomAttributesCacheGenerator_EncoderReplacementFallback__ctor_m517300448P21CustomAttributesCache
edj:_ReadOnlyCollection_1__ctor_m3671019970_gshared
$z:__ZN17AnimationPlayable28UpdateInternalStateRecursiveILi3ELb0EEEvPK35AnimationPlayableEvaluationConstant
wDa:__ZN13GfxDeviceGLES21DestroyComputeProgramER12ObjectHandleI18ComputeProgram_TagPvE
z6e:_Convert_ToDecimal_m2007036836
e8:__ZN17UniqueIDGenerator16DestroyPureIndexEj
o4:__ZL21AppendNestedClassName17ScriptingClassPtrRN4core17string_with_labelILi1EEE
sUb:__ZN14SafeBinaryRead21TransferSTLStyleArrayINSt3__26vectorIN9ShaderLab20SerializedSubProgram12UAVParameterENS1_9allocatorIS5_EEEEEEvRT_17TransferMetaFlags
Cdh:_Context_NotifyDynamicSinks_m1367144344
dRk:_Enumerator__ctor_m1897170543_AdjustorThunk
a_:__ZNK13BaseAllocator10IsAssignedEv
NV:__ZN24TextDOMTransferWriteBaseI9JSONWriteE12PushMetaFlagEi
Ddd:__ZN5physx7NpCloth22removeCollisionCapsuleEj
zMj:__Z87RuntimeInvoker_Void_t1841601450_AnimatorClipInfoU5BU5DU26_t3073013608_Int32_t2071877448PFvvEPK10MethodInfoPvPS4_
VSf:_TlsClientCertificateVerify__ctor_m110646389
cra:__ZN6prcoreL26RemapGenericIntegerToFloatI17TexFormatARGB888815TexFormatRFloatEEvPKNS_9InnerInfoE
SZ:__ZN5Mutex6UnlockEv
nEh:__ZN6il2cpp2vm10ThreadPool10InitializeEv
Ldh:_Context_GetServerContextSinkChain_m390126977
bJh:__ZN6il2cpp2vm17TypeNameParseInfoD2Ev
LRd:__ZN5physx18PxsSolverStartTask16articulationTaskEv
RDk:__ZL89GUIStyle_t1799908754_CustomAttributesCacheGenerator_GUIStyle_set_imagePosition_m327170707P21CustomAttributesCache
Hwf:_StringReader_Read_m513112775
ssb:__ZNK8Renderer8GetLayerEv
pVc:__ZN5physx6shdfnd4sortIPvNS0_4LessIS2_EENS0_19ReflectionAllocatorINS_2Cm5BlockIS2_Lj16EEEEEEEvPT_jRKT0_RKT1_j
mMc:__ZN5physx3Cct17CapsuleController18setNonWalkableModeENS_27PxControllerNonWalkableMode4EnumE
BVc:__ZN5physx2Sc11InteractionD2Ev
Bkb:__ZN12FlareManager11DeleteFlareEi
_4i:_Collection_1_Add_m2613548553_gshared
ez:__ZN7mecanim9animation22DestroyBlendTreeOutputEPNS0_15BlendTreeOutputERNS_6memory9AllocatorE
D_a:__ZNK6Camera20GetReplacementShaderEv
d7c:__ZN18MultiQueryCallbackIN5physx12PxRaycastHitEE6invokeERfPKNS0_2Sq13PrunerPayloadEj
dcf:_Decimal__ctor_m569480123_AdjustorThunk
m0f:_HttpWebRequest__cctor_m3013631978
_ai:__ZNSt3__26__treeINS_12__value_typeINS_12basic_stringIcNS_11char_traitsIcEENS_9allocatorIcEEEEPFvvEEENS_19__map_value_compareIS7_SA_NS_4lessIS7_EELb1EEENS5_ISA_EEE4findIS7_EENS_15__tree_iteratorISA_PNS_11__tree_nodeISA_PvEEiEERKT_
FUb:__ZNSt3__26vectorIN9ShaderLab20SerializedSubProgram14ConstantBufferENS_9allocatorIS3_EEE7reserveEj
wnk:__ZL63GlobalProxySelection_t2251180943_CustomAttributesCacheGeneratorP21CustomAttributesCache
fva:__ZL23stbir__calculate_memoryP11stbir__info
Osj:__Z83RuntimeInvoker_Void_t1841601450_Int64_t909078037_Int32_t2071877448_Int64_t909078037PFvvEPK10MethodInfoPvPS4_
uMh:__ZNK15dense_hashtableINSt3__24pairIK10KeyWrapperINS1_IPK10MethodInfoP11Il2CppClassEEEjEES9_17ReflectionMapHashIS8_EN14dense_hash_mapIS9_jSD_NS9_14EqualsComparerINS0_8equal_toIS8_EEEENS0_9allocatorISB_EEE9SelectKeyESI_SK_E12test_deletedERK24dense_hashtable_iteratorISB_S9_SD_SM_SI_SK_E
RGf:_KeyGeneratedEventHandler_EndInvoke_m1587195139
Fod:__ZN5physx15NpActorTemplateINS_13PxRigidStaticEE13setActorFlagsENS_7PxFlagsINS_11PxActorFlag4EnumEtEE
m3g:_Scrollbar_FindSelectableOnRight_m3219495255
Kq:__ZN9Behaviour11FixedUpdateEv
J1k:_EqualityComparer_1_System_Collections_IEqualityComparer_GetHashCode_m487741360_gshared
jse:__ZNSt3__227__insertion_sort_incompleteIRPFbPN2UI6CanvasES3_EPS3_EEbT0_S8_T_
pzc:__ZNK9rapidjson12GenericValueINS_4UTF8IcEE13JSONAllocatorE6AcceptINS_12PrettyWriterI16TempBufferWriterS2_S2_S3_EEEEbRT_
Xld:__ZN5physx19NpRigidBodyTemplateINS_14PxRigidDynamicEE11attachShapeERNS_7PxShapeE
fKg:_UnityAnalyticsHandler_t3238795095_marshal_pinvoke_back
GWa:__ZNK6Camera18GetRenderRectangleEv
hBh:__ZN6il2cpp5utils13dynamic_arrayIPK10Il2CppTypeLj4EE7reserveEj
uEk:__ZL102GUIStyle_t1799908754_CustomAttributesCacheGenerator_GUIStyle_INTERNAL_CALL_SetMouseTooltip_m3411291301P21CustomAttributesCache
CGi:_Array_InternalArray__ICollection_CopyTo_TisVector3_t2243707580_m509487340_gshared
xRf:_CipherSuite_get_KeyBlockSize_m2993514247
nI:__Z82AnimatorControllerPlayable_CUSTOM_INTERNAL_CALL_IsParameterControlledByCurveStringR9HPlayableP12Il2CppString
pxc:__ZL26Transfer_SimpleNativeClassI8JSONRead10RectOffsetLb1EEvRK29SerializationCommandArgumentsR31RuntimeSerializationCommandInfo
uve:__Z44CanvasRenderer_CUSTOM_INTERNAL_CALL_SetColorP12Il2CppObjectRK10ColorRGBAf
zNi:_Component_GetComponentInChildren_TisRuntimeObject_m1823576579_gshared
VKi:_Array_swap_TisUICharInfo_t3056636800_m4036113126_gshared
m_d:__ZN5physx2Gu27computeBoundsAroundVerticesERNS_9PxBounds3EjPKNS_6PxVec3E
Jbh:_UrlAttribute_Equals_m1587451932
H1h:__ZNSt3__26__treeINS_12basic_stringIcNS_11char_traitsIcEENS_9allocatorIcEEEENS_4lessIS6_EENS4_IS6_EEE12__find_equalIS6_EERPNS_16__tree_node_baseIPvEESG_RKT_
tuc:__Z18Transfer_BlittableI9JSONWriteLb1EsEvRK29SerializationCommandArgumentsR31RuntimeSerializationCommandInfo
csd:__ZNK5physx7NpScene9getLimitsEv
Lye:__Z48UnityAnalyticsHandler_CUSTOM_SendCustomEventNameP12Il2CppObjectP12Il2CppString
ijg:_DSAParameters_t1872138834_marshal_pinvoke_cleanup
mka:__ZN6ObjectD2Ev
rdc:__ZN9Transform16SetLocalRotationERK11Quaternionf
IEd:__ZNK5physx2Gu29EPASupportMapPairRelativeImplINS0_9TriangleVENS0_8CapsuleVEE9doSupportERKNS_6shdfnd3aos5Vec3VERS7_SA_SA_
TNg:_AnimatorControllerPlayable_INTERNAL_CALL_GetIntegerID_m1635852922
N8k:_InternalEnumerator_1_get_Current_m3206960238_AdjustorThunk
dVa:__ZN13RenderManager37RenderCamerasWithScriptableRenderLoopEi
AId:__ZN3MBP12updateObjectEjRK5IAABB
RFf:_ASN1_Element_m2600236165
rYc:__ZN5physx6shdfnd5ArrayINS_6PxVec3ENS0_19ReflectionAllocatorIS2_EEE15growAndPushBackERKS2_
t9:__ZN23InstancedPropInfoStaticL16RegisterCallbackEPv
a6j:__ZL67RuntimeArray_CustomAttributesCacheGenerator_Array_IndexOf_m77084779P21CustomAttributesCache
gC:__ZN7mecanim8skeleton25SkeletonPoseComputeLocalQEPKNS0_8SkeletonEPKNS0_13SkeletonPoseTIN4math4trsXEEEPS7_ii
zyk:__ZL85AudioClip_t1932558630_CustomAttributesCacheGenerator_AudioClip_get_length_m3881628918P21CustomAttributesCache
hdk:__ZL50_Thread_t1894135853_CustomAttributesCacheGeneratorP21CustomAttributesCache
I_h:__ZN6il2cpp2os19ReleaseSocketHandleEj
Igk:__ZL59ApplicationTrust_t3968282840_CustomAttributesCacheGeneratorP21CustomAttributesCache
K7j:__ZL128SafeHandleZeroOrMinusOneIsInvalid_t1177681199_CustomAttributesCacheGenerator_SafeHandleZeroOrMinusOneIsInvalid__ctor_m3340306667P21CustomAttributesCache
sS:__ZN11AudioModule16GetDSPSampleRateEv
a3h:__ZN15dense_hashtableINSt3__24pairIK10KeyWrapperIPK19Il2CppGenericMethodEP10MethodInfoEES6_N6il2cpp8metadata23Il2CppGenericMethodHashEN14dense_hash_mapIS6_S9_SD_NS6_14EqualsComparerINSC_26Il2CppGenericMethodCompareEEENS0_9allocatorISA_EEE9SelectKeyESH_SJ_E5clearEv
d7b:__ZN16PropertyAccessor5ClearEv
$vd:__ZN5physx2Sc5Scene20fireTriggerCallbacksEv
Zzg:_TypeBuilder_get_next_table_index_m1415870184
BJl:___cxa_can_catch
ZNf:_SequentialSearchPrimeGeneratorBase_GenerateNewPrime_m296245934
YYe:_Char_GetUnicodeCategory_m4273361321
e4j:__ZL63String_t_CustomAttributesCacheGenerator_String_Split_m394273024P21CustomAttributesCache
xBd:__ZN5physx2Sq10AABBPrunerC2Eb
tse:__ZN2UI11CanvasGroup23VirtualRedirectTransferER19StreamedBinaryWriteILb0EE
XDd:__ZN5physx2Gu18GJKRelativeRayCastERNS0_8CapsuleVERNS0_4BoxVERKNS_6shdfnd3aos15PsMatTransformVERKNS6_6FloatVERKNS6_5Vec3VESF_RSA_RSD_SH_fb
W_a:__ZN6Camera28DefaultPerformRenderFunctionD0Ev
kyf:_Math_Round_m565516458
tdh:_Identity_get_ClientDynamicProperties_m767245959
x5k:_InternalEnumerator_1__ctor_m675130983_AdjustorThunk
FXk:_Dictionary_2_Clear_m899854001_gshared
P$h:__ZN6il2cpp2os5posix15PosixWaitObjectC2ENS2_4TypeE
PYa:__ZN6Camera21PostMultiCustomRenderENS_10RenderFlagEb
HBk:__ZL83Canvas_t209405766_CustomAttributesCacheGenerator_Canvas_get_scaleFactor_m1115379735P21CustomAttributesCache
oEg:_TypeBuilder_create_generic_class_m986834171
FWc:__ZN5physx15PxsArticulationD2Ev
UKa:__ZN12_GLOBAL__N_112UploadImagesEP7ApiGLESjji14GraphicsFormatPKhjS2_iiii16TextureUsageModePh
Aya:__ZN23ShaderVariantCollection13WarmupShadersEv
fUf:_Context_set_ProtocolNegotiated_m1177527245
stg:_UInt32_System_IConvertible_ToChar_m1056040486
V3:__Z25GetCommonScriptingClassesv
OZf:_TlsStream_get_Length_m1562309511
rta:__Z27scripting_gc_collect_unsafei
xS:__ZN11AudioModule20SuspendVideoTexturesEv
m0e:_CaseInsensitiveComparer__ctor_m1125492797
R2b:__ZN12CubemapArrayC2E18MemLabelIdentifier18ObjectCreationMode
wOj:__Z73RuntimeInvoker_DictionaryEntry_t3048875398_RuntimeObject_SByte_t454417549PFvvEPK10MethodInfoPvPS4_
Qnd:__ZN5physx13NpRigidStaticC2ERKNS_11PxTransformE
Z4e:_Convert_ToByte_m395020137
C0j:_Plane_ToString_m3541300360_AdjustorThunk
MLb:__Z26Transfer_UnityEngineObjectI24GenerateTypeTreeTransferLb0EEvRK29SerializationCommandArgumentsR31RuntimeSerializationCommandInfo
Jne:_UNITY_FT_GlyphLoader_CheckPoints
AZi:_List_1_System_Collections_ICollection_CopyTo_m1995866425_gshared
LIl:___cxa_get_globals_fast
hEd:__ZN5physxL20PxcSweepBoxTrianglesERKNS_11PxsCCDShapeES2_RKNS_11PxTransformES5_S5_S5_fRNS_6PxVec3ES7_RNS_10PxcNpCacheERNS_18PxcNpThreadContextERKNS_2Cm23FastVertex2ShapeScalingERNS_2Gu9TriangleVEf
uxf:_TextWriter_WriteLine_m1754475888
DNc:__ZN5physx3Cct15ObstacleContextD0Ev
lwa:__ZN15SharedLightData7PrecalcEv
Kob:__ZN20ScriptPlayableOutputD0Ev
dua:__ZN10Matrix4x4fmLERKS_
Rvl:_InvokableCall_1_Invoke_m769918017_gshared
gr:__ZN4PPtrI9TransformE8TransferI18StreamedBinaryReadILb0EEEEvRT_
JMi:_Array_InternalArray__get_Item_TisDouble_t4078015681_m2215331088_gshared
Rgk:__ZL57PrincipalPolicy_t289802916_CustomAttributesCacheGeneratorP21CustomAttributesCache
uCj:__Z137RuntimeInvoker_AnimationOffsetPlayable_t1019600543_PlayableGraph_t1041204988_Vector3_t2243707580_Quaternion_t4030073918_Int32_t2071877448PFvvEPK10MethodInfoPvPS4_
MOb:__Z35Transfer_Blittable_FixedBufferFieldI18StreamedBinaryReadILb1EEsEvRK29SerializationCommandArgumentsR31RuntimeSerializationCommandInfo
F8i:_Collection_1_ClearItems_m3446813399_gshared
xXk:_Dictionary_2_Init_m3666073812_gshared
S_i:_List_1_AsReadOnly_m1681105545_gshared
ESa:__ZN15ArchiveReadFileD0Ev
hJf:_SymmetricTransform_TransformBlock_m1524716432
j_j:_MeshCollider_get_convex_m2666654546
pCi:_Array_compare_TisColor32_t874517518_m3842009370_gshared
EDj:__Z105RuntimeInvoker_Boolean_t3825574718_RuntimeObject_Vector2_t2243707579_RuntimeObject_Vector2U26_t3911752445PFvvEPK10MethodInfoPvPS4_
bAe:__ZN11UnityEngine15PlatformWrapper18GetOperatingSystemEv
uIa:__ZNSt3__26vectorIP14DataBufferGLESNS_9allocatorIS2_EEE21__push_back_slow_pathIKS2_EEvRT_
Swd:__ZN5physx3Scb9Aggregate9syncStateERNS0_5SceneE
tok:__ZL61ExtensionAttribute_t1840441203_CustomAttributesCacheGeneratorP21CustomAttributesCache
iij:_ReadOnlyCollection_1_System_Collections_Generic_ICollectionU3CTU3E_Remove_m974176789_gshared
Cdf:_Delegate_return_type_match_m4278947849
Bvi:_InputField_GenerateHightlight_m1346735465
aFh:__ZN6il2cpp6icalls8mscorlib6System8MonoType19GetGenericArgumentsEP20Il2CppReflectionType
Skh:_Uri_ParseNoExceptions_m1151989845
q4e:_GC_SuppressFinalize_m953228702
Fne:_FT_MSB
aPf:_MD2__ctor_m3133818738
AWj:_GUIStyle_get_clipping_m2754700641
sdg:_SoapServices_PreLoad_m490411755
G4b:__ZZL23RegisterLightPropertiesR22GenericPropertyBindingEN29Wrapper_LightShadowNormalBias13GetFloatValueEPv
eqj:__Z63RuntimeInvoker_RuntimeObject_Int32_t2071877448_SByte_t454417549PFvvEPK10MethodInfoPvPS4_
zbi:__ZN6il2cpp6icalls8mscorlib4Mono8Security12Cryptography18KeyPairPersistence10_CanSecureEP12Il2CppString
lFk:__ZL96CustomEventData_t1269126727_CustomAttributesCacheGenerator_CustomEventData_AddUInt16_m3349298376P21CustomAttributesCache
z2c:__ZN5physx7NpActor17resolveReferencesERNS_24PxDeserializationContextE
xae:__ZN9Rigidbody15InitializeClassEv
l3k:_Action_1_Invoke_m4180501989_gshared
e6g:_Slider__ctor_m3124136916
Kfl:_DefaultComparer__ctor_m3180706193_gshared
t$i:_List_1_System_Collections_Generic_IEnumerableU3CTU3E_GetEnumerator_m3625278020_gshared
cAa:__ZN13GfxDeviceGLES14SetRasterStateEPK17DeviceRasterState
wuj:__Z51RuntimeInvoker_Int16_t4041245914_Single_t2076509932PFvvEPK10MethodInfoPvPS4_
WGb:__Z30TransferField_LinearCollectionI14SafeBinaryReadEvRK29SerializationCommandArgumentsR31RuntimeSerializationCommandInfo
PQc:__ZN5physx6shdfnd8internal8HashBaseINS0_4PairIKPKNS_2Sc8ShapeSimENS4_10NPhaseCore16ClothListElementEEES7_NS0_4HashIS7_EENS1_11HashMapBaseIS7_SA_SD_NS0_9AllocatorEE6GetKeyESF_Lb1EE5eraseERS8_
M2f:_OidCollection_Add_m3712419303
uQc:__ZN5physx5Elems17setStaticAABBDataEjRKNS_17PxcAABBDataStaticE
BTf:_TlsServerHello__ctor_m3032108168
Mia:__ZN14SafeBinaryRead11EndTransferEv
sak:__ZL98ILGenerator_t99948092_CustomAttributesCacheGenerator_ILGenerator_Mono_GetCurrentOffset_m3553856682P21CustomAttributesCache
OLc:__ZN5physx11PxHitBufferINS_12PxRaycastHitEE14processTouchesEPKS1_j
jHb:__ZN14SafeBinaryRead8TransferI8MonoPPtrEEvRT_PKc17TransferMetaFlags
C_k:_Dictionary_2_System_Collections_Generic_ICollectionU3CSystem_Collections_Generic_KeyValuePairU3CTKeyU2CTValueU3EU3E_Remove_m1705959559_gshared
aTa:__ZN24dense_hashtable_iteratorINSt3__24pairIKN4core12basic_stringIcNS2_20StringStorageDefaultIcEEEEP20ArchiveStorageReaderEES6_20StringHash32FunctionIS6_EN14dense_hash_mapIS6_S9_SC_NS0_8equal_toIS6_EE13stl_allocatorISA_L18MemLabelIdentifier54ELi16EEE9SelectKeyESF_SI_EppEv
xdl:_InternalEnumerator_1_System_Collections_IEnumerator_get_Current_m1533037706_gshared
mtk:__ZL111MonoBehaviour_t1158329972_CustomAttributesCacheGenerator_MonoBehaviour_StartCoroutine_Auto_Internal_m1014513456P21CustomAttributesCache
ELa:__ZN21UniformBufferTFMethod13MapBoneBufferEj
rXf:_RecordProtocol_SendChangeCipherSpec_m3542001341
KIi:_Array_InternalArray__set_Item_TisVector3_t2243707580_m1390667454_gshared
e0i:_List_1_Sort_m3574220472_gshared
$Th:__ZNSt3__26vectorIcNS_9allocatorIcEEEC2Ej
Jhc:__Z40Register_UnityEngine_Input_GetKeyDownIntv
eHf:_KeyPairPersistence_CanSecure_m2251009700
Kx:__ZN7mecanim5human14HumanPoseClearERNS0_9HumanPoseERKNS_6bitsetILj70EEE
TEb:__ZN9TextAsset15ThreadedCleanupEv
Wag:_ReturnMessage_get_Properties_m531965085
_Bg:_GenericTypeParameterBuilder_IsSubclassOf_m563999142
ahf:_Exception_ToString_m627574695
pee:__ZNSt3__26vectorIN20TextRenderingPrivate8FontImpl7IntRectE13stl_allocatorIS3_L18MemLabelIdentifier34ELi16EEE21__push_back_slow_pathIKS3_EEvRT_
zaa:__Z21CompleteFenceInternalR8JobFence
Vpc:__Z30Event_Get_Custom_PropModifiersP12Il2CppObject
CWc:__ZN5physx6shdfnd5ArrayIPvNS0_16AlignedAllocatorILj64ENS0_9AllocatorEEEE15growAndPushBackERKS2_
dLh:__ZN30dense_hashtable_const_iteratorINSt3__24pairIK10KeyWrapperINS1_IPK9FieldInfoP11Il2CppClassEEEjEES9_17ReflectionMapHashIS8_EN14dense_hash_mapIS9_jSD_NS9_14EqualsComparerINS0_8equal_toIS8_EEEENS0_9allocatorISB_EEE9SelectKeyESI_SK_E30advance_past_empty_and_deletedEv
fch:_CrossAppDomainChannel_RegisterCrossAppDomainChannel_m43456045
Pu:__ZN7mecanim9animation16CreateClipOutputEPKNS0_4ClipERNS_6memory9AllocatorE
UGi:_Array_InternalArray__Insert_TisDecimal_t724701077_m1429254816_gshared
Fzl:_ListPool_1_Get_m2998644518_gshared
jSb:__ZN18StreamedBinaryReadILb0EE21TransferSTLStyleArrayI13dynamic_arrayIyLj8EEEEvRT_17TransferMetaFlags
ZJh:__ZN6il2cpp2vm10Reflection17GetAssemblyObjectEPK14Il2CppAssembly
Gpg:_TimeSpan_get_Days_m1002111510
SMc:__ZN5physx3Cct12SweptCapsuleC2Ev
mTb:__ZN6Shader21AwakeFromLoadThreadedEv
eqa:__ZN6prcoreL17RemapGenericFloatI17TexFormatRGBFloat17TexFormatRGBAHalfEEvPKNS_9InnerInfoE
mMk:__ZL70InputField_t1631627530_CustomAttributesCacheGenerator_m_CharacterLimitP21CustomAttributesCache
i0i:_List_1_get_Capacity_m2443158653_gshared
azc:__ZN8JSONRead21TransferSTLStyleArrayI13dynamic_arrayI8Vector2fLj4EEEEvRT_18MemLabelIdentifier17TransferMetaFlags
P7d:__ZN5physx24PxcContactBoxHeightFieldERKNS_2Gu13GeometryUnionES3_RKNS_11PxTransformES6_RKfRNS_10PxcNpCacheERNS0_13ContactBufferE
WEe:__ZN13RuntimeStaticINSt3__26vectorIjNS0_9allocatorIjEEEELb0EE16StaticInitializeEPv
kX:__ZN13UploadHandler10OnSentDataEj
Lci:__ZN6il2cpp2os9SemaphoreC2Eii
v5k:_InternalEnumerator_1_get_Current_m2960188445_AdjustorThunk
Dyj:__Z56RuntimeInvoker_UriHostNameType_t2148127109_RuntimeObjectPFvvEPK10MethodInfoPvPS4_
lHb:__ZNSt3__26vectorI8MonoPPtr13stl_allocatorIS1_L18MemLabelIdentifier1ELi16EEE8__appendEj
F7g:_Text_set_alignByGeometry_m1514652028
sZa:__ZN14qsort_internal30FindAndMovePivotToLastPositionIP17RODataReplacementi19ROSorterReplacementEEvT_S4_T0_T1_
PLa:__ZN15UniformTFMethod20IsBoneCountSupportedEi
qJd:__ZNK5physx23AggregateAABBUpdateTask7getNameEv
rLe:_X509Certificate_GetExpirationDateString_m2351894475
RZj:_Mesh_DefaultDimensionForChannel_m153181993
sil:_Rect_Contains_m1334685291_AdjustorThunk
xtf:_FileStream_get_Position_m465478322
Ozh:__ZN14dense_hash_setI10KeyWrapperIPK19Il2CppGenericMethodEN6il2cpp8metadata23Il2CppGenericMethodHashENS4_14EqualsComparerINS6_26Il2CppGenericMethodCompareEEENSt3__29allocatorIS4_EEEC2EjRKS7_RKSA_
UKl:dynCall_viidi
YGi:_Array_InternalArray__Insert_TisInt64_t909078037_m3039874636_gshared
gWe:_Convert_ToInt16_m1787678274
q8g:_ToggleGroup_NotifyToggleOn_m997426227
ou:__ZN8Playable18OnApplicationPauseEb
BXf:_RSASslSignatureDeformatter_SetKey_m1150106904
CCk:__ZL74Event_t3028476042_CustomAttributesCacheGenerator_Event_Cleanup_m1195902101P21CustomAttributesCache
l_k:_Dictionary_2_ContainsKeyValuePair_m3818021458_gshared
N1:__ZN24ScriptingMethodFiltering17FilterOnSignatureENS_18MethodSearchFilterE
qzg:_TypeBuilder_get_Module_m1668298460
lVd:__ZN5physx13NpClothFabric16scaleRestlengthsEf
KR:__ZN13ProduceHelperI9AudioClipLb0EE7ProduceE18MemLabelIdentifier18ObjectCreationMode
tda:__ZN18ScreenManagerWebGL13SetLockCursorE14CursorLockMode
bne:_cf2_arrstack_finalize
Rzf:_MonoType_GetMethodsByName_m1854415088
rRk:_Enumerator_get_CurrentValue_m3147984131_gshared
gAg:_DerivedType_GetMethods_m165266904
OIf:_RSAManaged_EncryptValue_m4089823119
FMj:__Z80RuntimeInvoker_Void_t1841601450_UICharInfoU5BU5DU26_t454909735_Int32_t2071877448PFvvEPK10MethodInfoPvPS4_
u0b:__ZN13MonoBehaviour19HandleNotificationsEPviR11MessageData
xpd:__ZN5physx6shdfnd5ArrayIPNS_2Sc17ParticleSystemSimENS0_19ReflectionAllocatorIS4_EEE8recreateEj
L$k:_DefaultComparer_GetHashCode_m926363525_gshared
jVj:_GUIStyle_set_focused_m1547304893
Wnd:__ZNK5physx13NpRigidStatic7getTypeEv
Y3g:_ScrollRect_get_verticalScrollbar_m2455612493
muf:_ReadDelegate_Invoke_m2091885836
pBg:_TypeBuilder_GetField_m2112455315
EOl:b58
FOl:b59
_Bj:__Z80RuntimeInvoker_PlayableHandle_t213697122_PlayableGraph_t1041204988_RuntimeObjectPFvvEPK10MethodInfoPvPS4_
sOl:b52
tOl:b53
qOl:b50
rOl:b51
lNd:__ZN5physx9PxTaskMgrD0Ev
zOl:b57
uOl:b54
vOl:b55
KEf:_Kernel_Multiply_m3585610531
_Qf:_CertificateSelectionCallback_EndInvoke_m3525317639
Anj:__Z51RuntimeInvoker_Decimal_t724701077_Int32_t2071877448PFvvEPK10MethodInfoPvPS4_
oHk:__ZL116PlayableAsset_t2298101656_CustomAttributesCacheGenerator_PlayableAsset_Internal_GetPlayableAssetDuration_m1442951748P21CustomAttributesCache
A9e:_DateTime__ctor_m3604679583_AdjustorThunk
qvk:__ZL96Transform_t3275118058_CustomAttributesCacheGenerator_Transform_INTERNAL_get_position_m1881704498P21CustomAttributesCache
hFk:__ZL94CustomEventData_t1269126727_CustomAttributesCacheGenerator_CustomEventData_AddChar_m1103619816P21CustomAttributesCache
NUe:_SimpleEnumerator_Reset_m1341779532
yJh:__ZNSt3__214__split_bufferINS_12basic_stringIcNS_11char_traitsIcEENS_9allocatorIcEEEERNS4_IS6_EEEC2EjjS8_
bIf:_MACAlgorithm_Core_m2390605245
rcl:_InternalEnumerator_1_System_Collections_IEnumerator_get_Current_m30488070_gshared
n$b:__ZN10GameObject12CleanupClassEv
_8k:_InternalEnumerator_1_System_Collections_IEnumerator_Reset_m2624612805_AdjustorThunk
mZc:__ZN5physx3Scb5Scene13addRigidNoSimINS0_11RigidStaticELb0ELb1EEEvRT_RNS0_13ObjectTrackerE
Vmb:__ZN15SerializeTraitsI13dynamic_arrayI11TetrahedronLj4EEE19ResizeSTLStyleArrayERS2_i18MemLabelIdentifier
IAa:__ZN9GfxDevice25SetShaderPropertiesSharedERK19ShaderPropertySheet
Dyl:_IndexedSet_1_GetEnumerator_m3646001838_gshared
poj:__Z96RuntimeInvoker_Int32_t2071877448_RuntimeObject_Int32_t2071877448_Int32_t2071877448_RuntimeObjectPFvvEPK10MethodInfoPvPS4_
CEb:__ZN10MonoScript17MainThreadCleanupEv
hIj:__Z39RuntimeInvoker_KeyValuePair_2_t38854645PFvvEPK10MethodInfoPvPS4_
WGa:__ZN18AsyncUploadManager19AsyncResourceUploadER9GfxDeviceii9TextureID
r1g:_VertexHelper_AddUIVertexTriangleStream_m4009409241
qgl:_Comparer_1__ctor_m844571340_gshared
c4b:__ZL25InitializeDefaultMaterialv
Uve:__Z53Register_UnityEngine_CanvasRenderer_get_materialCountv
tTf:_TlsStream_Write_m2055734301
eQa:__ZN19FileAccessorHandlerD2Ev
_gl:_Comparer_1__ctor_m2941434245_gshared
U8g:_VertexHelper_AddVert_m3290455716
sgk:__ZL56SHA256Managed_t2029745292_CustomAttributesCacheGeneratorP21CustomAttributesCache
oak:__ZL126GenericTypeParameterBuilder_t1370236603_CustomAttributesCacheGenerator_GenericTypeParameterBuilder_MakeGenericType_m2955814622P21CustomAttributesCache
Lwk:__ZL95Physics_t634932869_CustomAttributesCacheGenerator_Physics_RaycastAll_m410413656____maxDistance1P21CustomAttributesCache
oxa:__ZN17PersistentManager12UnloadStreamERKN4core12basic_stringIcNS0_20StringStorageDefaultIcEEEEb
kda:__ZN13ScreenManager17RequestResolutionEiibi
QKc:__ZN26IntersectAnyVsMeshCallbackILi0ELb1EED2Ev
GHh:_il2cpp_unity_liveness_calculation_from_statics
kLi:_Dictionary_2_Do_CopyTo_TisDictionaryEntry_t3048875398_TisDictionaryEntry_t3048875398_m983412647_gshared
ry:__ZNK26AnimatorControllerPlayable11DerivesFromE17ScriptingClassPtr
Vog:_Scheduler_get_Instance_m1989471839
Y1f:_WebProxy_GetProxy_m1249556681
d2f:_WebRequest_System_Runtime_Serialization_ISerializable_GetObjectData_m3377822910
Rsb:__ZN8Renderer8TransferI17RemapPPtrTransferEEvRT_
_Oj:__Z76RuntimeInvoker_Boolean_t3825574718_UIVertex_t1204258818_UIVertex_t1204258818PFvvEPK10MethodInfoPvPS4_
W7i:_Collection_1_Contains_m1299140035_gshared
POl:_glBlitFramebuffer__wrapper
tFi:_Array_InternalArray__ICollection_Add_TisUICharInfo_t3056636800_m968274080_gshared
Nzl:_ObjectPool_1__ctor_m1532275833_gshared
LDa:__ZN13GfxDeviceGLES19SetSinglePassStereoE16SinglePassStereo
ROj:__Z72RuntimeInvoker_Boolean_t3825574718_Color32_t874517518_Color32_t874517518PFvvEPK10MethodInfoPvPS4_
qhc:__Z22Input_CUSTOM_GetKeyInti
P2i:_Queue_1_System_Collections_ICollection_get_IsSynchronized_m3521628381_gshared
Grh:__ZL24UnresolvedVirtualCall_71P12Il2CppObjectS0_S0_iS0_S0_S0_PK10MethodInfo
N4j:__ZL64IntPtr_t_CustomAttributesCacheGenerator_IntPtr__ctor_m3803259710P21CustomAttributesCache
Y_i:_List_1_GetIndex_m3262928832_gshared
Led:__ZNK5physx2Sc9ClothCore16getCollisionDataEPNS_22PxClothCollisionSphereEPjPNS_21PxClothCollisionPlaneES4_PNS_24PxClothCollisionTriangleE
B7a:__Z24LookRotationToQuaternionRK8Vector3fS1_P11Quaternionf
z7a:__ZN16ReflectionProbes9GetCameraEv
Ykd:__ZN5physx22NpParticleBaseTemplateINS_16PxParticleSystemENS_16NpParticleSystemEE14resetFilteringEv
qMf:_ArgumentException__ctor_m2105824819
ADi:_Array_InternalArray__IndexOf_TisInt64_t909078037_m617406809_gshared
uue:__ZN2UI6Canvas17SetSortingLayerIDEi
T0g:_Navigation_t1571958496_marshal_pinvoke_back
jki:_BaseMeshEffect_get_graphic_m3358796463
M$h:__ZN6il2cpp2vm11MethodStack23CleanupForCurrentThreadEv
ZDl:_Predicate_1_Invoke_m695569038_gshared
EPi:_Enumerator_VerifyState_m825848279_AdjustorThunk
Zkb:__ZN20TierGraphicsSettings8TransferI24GenerateTypeTreeTransferEEvRT_
VAh:__ZN15dense_hashtableINSt3__24pairIK10KeyWrapperIN6il2cpp5utils13dynamic_arrayIPK10Il2CppTypeLj4EEEEPFvvEEESA_NS3_8metadata19Il2CppSignatureHashEN14dense_hash_mapISA_SD_SG_NSA_14EqualsComparerINSF_22Il2CppSignatureCompareEEENS0_9allocatorISE_EEE9SelectKeyESK_SM_E16reset_thresholdsEv
omj:__Z77RuntimeInvoker_Int32_t2071877448_RuntimeObject_RuntimeObject_SByte_t454417549PFvvEPK10MethodInfoPvPS4_
VQ:__ZN13AudioPlayable25UpdateChannelGroupVisitorERK16AudioProcessData
iJd:__ZN5physx10BPWorkTaskD0Ev
GIb:__ZN14SafeBinaryRead21TransferSTLStyleArrayI13dynamic_arrayI4AABBLj4EEEEvRT_17TransferMetaFlags
zna:__ZN18UnityPropertySheet8TransferI19StreamedBinaryWriteILb0EEEEvRT_
PVf:_TlsServerCertificate_checkServerIdentity_m3836435780
mba:__ZNSt3__26__treeINS_12__value_typeIiN11TypeManager18TypeCallbackStructEEENS_19__map_value_compareIiS4_NS_4lessIiEELb1EEENS_9allocatorIS4_EEE7destroyEPNS_11__tree_nodeIS4_PvEE
QJf:_PKCS12_Decrypt_m2353135969
Mak:__ZL93TypeBuilder_t3308873219_CustomAttributesCacheGenerator_TypeBuilder_IsAssignableTo_m3210661829P21CustomAttributesCache
B$g:_PersistentCallGroup_Initialize_m3908067069
CGg:_MonoEvent_ToString_m386956596
SFk:__ZL70RuntimePlatform_t1869584967_CustomAttributesCacheGenerator_FlashPlayerP21CustomAttributesCache
TJi:_Array_Sort_TisRuntimeObject_m3309514378_gshared
Y6b:__ZNK14PlayableOutput23GetSourcePlayableUnsafeEv
cka:__ZL19GetCameraTargetRectRK6Camerabb
lyd:__ZN5physx20NpRigidActorTemplateINS_13PxRigidStaticEE14resetFilteringERNS_3Scb11RigidObjectEPKPNS_7PxShapeEj
KTk:_Transform_1_BeginInvoke_m1786442111_gshared
Yzk:__ZL137AnimatorControllerPlayable_t1744083903_CustomAttributesCacheGenerator_AnimatorControllerPlayable_PlayInFixedTime_m135407725____fixedTime2P21CustomAttributesCache
gof:_Int32_GetFormatException_m1729046182
s8a:__ZN13dynamic_arrayIN10GameObject13ComponentPairELj4EE6insertEPS1_RKS1_
T3i:_Collection_1_get_Count_m3834276648_gshared
Lfb:__ZN21UnityDefaultAllocatorI17LowLevelAllocatorE10DeallocateEPv
pWg:_CanvasRenderer_DisableRectClipping_m2720508088
$Y:__GLOBAL__sub_I_runtime_camera2_lump_cpp
qmb:__ZN15SharedLightData22UpdateCookieTextureRefEv
Rs:__ZN15PackedIntVector8TransferI14SafeBinaryReadEEvRT_
$Eg:_FieldInfo_get_IsLiteral_m267898096
Yvk:__ZL105RectTransform_t3349966182_CustomAttributesCacheGenerator_RectTransform_INTERNAL_set_sizeDelta_m1402803191P21CustomAttributesCache
E0c:__ZNK5physx19NpArticulationJoint20getTangentialDampingEv
PYf:_SslStreamBase_EndNegotiateHandshake_m1732321201
gUk:_Transform_1_BeginInvoke_m1167293475_gshared
iL:__ZN13AudioListener8DoUpdateEv
FBc:__ZN5physx3Cct10Controller22setUpDirectionInternalERKNS_6PxVec3E
M3j:__ZL71SByte_t454417549_CustomAttributesCacheGenerator_SByte_Parse_m1620039654P21CustomAttributesCache
U4e:__Z13bankers_roundd
MAb:__ZN14SafeBinaryRead8TransferI5RectTIfEEEvRT_PKc17TransferMetaFlags
_i:_emscripten_glGenFramebuffers
_1e:_Hashtable_CopyTo_m2778915805
hba:__ZN17BaseObjectManager16StaticInitializeEPv
wzg:_ConstructorBuilder_get_IsCompilerContext_m2796899803
aqk:__ZL97Component_t3819376471_CustomAttributesCacheGenerator_Component_GetComponentsInChildren_m843288020P21CustomAttributesCache
cDi:_Array_IndexOf_TisUIVertex_t1204258818_m613887160_gshared
QBb:__ZN18StreamedBinaryReadILb0EE19TransferSTLStyleMapINSt3__28multimapIN4core12basic_stringIcNS4_20StringStorageDefaultIcEEEE4PPtrI6ObjectENS2_4lessIS8_EE13stl_allocatorINS2_4pairIKS8_SB_EEL18MemLabelIdentifier51ELi16EEEEEEvRT_17TransferMetaFlags
fni:_FloatTween_GetDuration_m1757342579_AdjustorThunk
t5e:_DateTime_CoreParse_m2014268103
K9g:_ResourceSet_Dispose_m2968479859
LRg:_Application_InvokeOnBeforeRender_m799598445
Pgb:__ZN9Behaviour23VirtualRedirectTransferER17RemapPPtrTransfer
Gxe:__ZN21UnityAnalyticsManager23VirtualRedirectTransferER19StreamedBinaryWriteILb0EE
Zuc:__Z18Transfer_BlittableI9JSONWriteLb0EyEvRK29SerializationCommandArgumentsR31RuntimeSerializationCommandInfo
ika:__ZN13RenderTexture15ThreadedCleanupEv
vEe:__ZNK20UnityWebRequestProtoI19TransportJavaScript16AtomicRefCounter14RedirectHelper14ResponseHelper15DownloadHandler13UploadHandler12HeaderHelper14AsyncOperationE19GetDownloadProgressEv
cCi:_Array_BinarySearch_TisRuntimeObject_m3361740551_gshared
opb:__ZN12CubemapArray23VirtualRedirectTransferER14SafeBinaryRead
xfd:__ZNK5physx2Sc9ClothCore23getNbCollisionTrianglesEv
Su:__ZN21AnimationClipPlayable16ProcessHumanPassEPK35AnimationPlayableEvaluationConstantPK32AnimationPlayableEvaluationInputP33AnimationPlayableEvaluationOutput
Hbd:__ZN5physx7NpShape16setFlagsInternalENS_7PxFlagsINS_11PxShapeFlag4EnumEhEE
pij:_ReadOnlyCollection_1_System_Collections_IList_Add_m616574295_gshared
mce:__Z48Register_UnityEngine_MeshCollider_get_sharedMeshv
hof:_Int32_ProcessTrailingWhitespace_m2812079777
zta:__ZN18ProceduralMaterial9ReloadAllEbb
bkc:__Z43RectTransform_CUSTOM_INTERNAL_set_sizeDeltaP12Il2CppObjectRK13Vector2fIcall
MJc:__ZN5physx2Gu30distanceSegmentTriangleSquaredERKNS_6shdfnd3aos5Vec3VES5_S5_S5_S5_RS3_S6_
T1f:_WebProxy__ctor_m3679722173
Y7k:_InternalEnumerator_1_Dispose_m2743309309_AdjustorThunk
VXh:__ZN15dense_hashtableINSt3__24pairIK10KeyWrapperINS1_IPKcS4_EEEiEES6_24NamespaceAndNamePairHashN14dense_hash_mapIS6_iS9_NS6_14EqualsComparerI26NamespaceAndNamePairEqualsEENS0_9allocatorIS8_EEE9SelectKeyESD_SF_E6insertERKS8_
oja:__ZN24GenerateTypeTreeTransfer18BeginArrayTransferEPKcS1_Ri17TransferMetaFlags
o9d:__ZN14PhysicMaterial23GetInstantiatedMaterialEPS_R6Object
aHa:__Z16DecompressCrunchPKhRjR13TextureFormatiiii18MemLabelIdentifier
k1i:_List_1__ctor_m2082969060_gshared
NIj:__Z69RuntimeInvoker_Void_t1841601450_Int32U26_t455636984_Int32_t2071877448PFvvEPK10MethodInfoPvPS4_
Tm:___syscall51
Xm:___syscall54
FYh:__ZNSt3__26__treeINS_12__value_typeIP24Il2CppReflectionAssemblyPvEENS_19__map_value_compareIS3_S5_NS_4lessIS3_EELb1EEENS_9allocatorIS5_EEE12__find_equalIS3_EERPNS_16__tree_node_baseIS4_EESH_RKT_
fxl:_UnityAction_2_Invoke_m1994351568_gshared
jKg:_UnityAnalyticsHandler_Dispose_m1048126775
Lzj:__Z79RuntimeInvoker_Void_t1841601450_QuaternionU26_t4187826802_Vector3U26_t425862308PFvvEPK10MethodInfoPvPS4_
xNb:__Z18Transfer_BlittableI19StreamedBinaryWriteILb0EELb1EjEvRK29SerializationCommandArgumentsR31RuntimeSerializationCommandInfo
ZD:__ZNK8Animator20IsAnyRendererVisibleEv
psh:__ZL25UnresolvedVirtualCall_108P12Il2CppObjectS0_28StreamingContext_t1417235061PK10MethodInfo
Kne:_cff_builder_add_point1
PYh:__ZN6il2cpp2vm5Image21GetCachedResourceDataEPK11Il2CppImageRKNSt3__212basic_stringIcNS5_11char_traitsIcEENS5_9allocatorIcEEEE
Uri:_HorizontalOrVerticalLayoutGroup_set_childControlWidth_m4209477792
vwj:__Z54RuntimeInvoker_TimeSpan_t3430258949_Double_t4078015681PFvvEPK10MethodInfoPvPS4_
gFi:_Array_InternalArray__ICollection_Add_TisUInt32_t2149682021_m2629016323_gshared
cGb:__Z18Transfer_BlittableI14SafeBinaryReadLb0E10ColorRGBAfEvRK29SerializationCommandArgumentsR31RuntimeSerializationCommandInfo
Fa:invoke_iiiiiiiiii
mR:__ZNK7Texture10GetVRUsageEv
MGi:_Array_InternalArray__Insert_TisKeyValuePair_2_t888819835_m975554221_gshared
Msj:__Z59RuntimeInvoker_RuntimeObject_Int64_t909078037_RuntimeObjectPFvvEPK10MethodInfoPvPS4_
Rsa:__ZN18LoadSceneOperation19IntegrateTimeSlicedEi
epg:_Scheduler_SchedulerThread_m2209572785
VCf:_SortKeyBuffer_GetResultAndReset_m2516956577
ZJ:__ZN4FMOD7SystemI11createSoundEPKcjP22FMOD_CREATESOUNDEXINFOPPNS_5SoundE
vdb:__ZN10FileSystem19SetCurrentDirectoryERKN4core12basic_stringIcNS0_20StringStorageDefaultIcEEEE
Ozl:_ObjectPool_1_get_countAll_m4217365918_gshared
p4:__ZN16ScriptingManager24NotifyScriptCacheReleaseEi
qok:__ZL85UriParser_t1012511323_CustomAttributesCacheGenerator_UriParser_OnRegister_m4010407891P21CustomAttributesCache
bak:__ZL63UnmanagedMemoryStream_t822875729_CustomAttributesCacheGeneratorP21CustomAttributesCache
Bec:__Z47Register_UnityEngine_Coroutine_ReleaseCoroutinev
kZc:__ZN10ScSceneFnsIN5physx3Scb11RigidStaticEE6insertERNS0_2Sc5SceneERS2_
QL:__ZN15AudioReverbZone13SetFMODValuesEv
mYg:_Component_GetComponentInChildren_m3925629424
Q0:__ZL19StaticDestroyShaderPv
Me:_glRenderbufferStorageMultisample
Ebg:_SoapTypeAttribute_get_XmlTypeName_m2546866572
NDk:__ZL89GUIStyle_t1799908754_CustomAttributesCacheGenerator_GUIStyle_AssignStyleState_m2665274947P21CustomAttributesCache
rce:__Z49Register_UnityEngine_MeshCollider_set_inflateMeshv
xz:__ZN23AnimationPlayableOutput17SetTargetAnimatorEP8Animator
aej:_ReadOnlyCollection_1_System_Collections_IList_get_IsFixedSize_m158012227_gshared
qoh:_X509Chain__ctor_m1113875360
TIb:__Z35Transfer_Blittable_SingleValueFieldI14SafeBinaryReadfEvRT_R17GeneralMonoObjectRK23StaticTransferFieldInfo
iWf:_TlsServerHello_processProtocol_m1241336522
dKc:__ZN5physx2Gu20sweepCCTBoxTrianglesEjPKNS_10PxTriangleEbRKNS_13PxBoxGeometryERKNS_11PxTransformERKNS_6PxVec3EfRSA_SD_RfRjPKjfNS_7PxFlagsINS_9PxHitFlag4EnumEtEE
Yyi:_Array_InternalArray__ICollection_Remove_TisKeyValuePair_2_t888819835_m1287715465_gshared
CDc:__ZN5physx2Gu15OBBTriangleTestC2ERKNS0_3BoxE
heh:_ContextAttribute_IsContextOK_m3281216012
yvf:_PathTooLongException__ctor_m3212099251
wVl:_pthread_cond_broadcast__wrapper
Gcl:_InternalEnumerator_1_MoveNext_m3299881374_AdjustorThunk
kFc:__ZN5physx2Gu21computeMTD_SphereMeshERNS_6PxVec3ERfRKNS0_6SphereERKNS_22PxTriangleMeshGeometryERKNS_11PxTransformE
_Mg:_AnimatorControllerPlayable_INTERNAL_CALL_CreateHandleInternal_m1836196929
_s:__ZN17PackedFloatVector8TransferI18StreamedBinaryReadILb0EEEEvRT_
Erk:__ZL88Screen_t786852042_CustomAttributesCacheGenerator_Screen_t786852042____width_PropertyInfoP21CustomAttributesCache
Wpb:__ZN7Cubemap23VirtualRedirectTransferER17RemapPPtrTransfer
V_d:__ZN5physx12SubSortQuick5sort4EPjjRNS_6shdfnd5ArrayINS_11RTreeNodeNQENS2_19ReflectionAllocatorIS4_EEEERjRNS_10PxBounds3VEj
nhc:__Z37Register_UnityEngine_Screen_get_widthv
CXc:__ZN5physx6shdfnd5ArrayIPNS_2Sc8BodyCoreENS0_19ReflectionAllocatorIS4_EEE15growAndPushBackERKS4_
Poi:_DropdownItem_get_image_m2752143412
vrh:__ZL24UnresolvedVirtualCall_60P12Il2CppObjectaPK10MethodInfo
i8b:__ZN22BlockMemoryCacheWriter11GetPathNameEv
oqi:_Graphic_Rebuild_m2617722358
FHd:__ZN5physx16PxsBroadPhaseMBPC2ERNS_19PxcScratchAllocatorERNS_2Cm13EventProfilerERKNS_11PxSceneDescEPNS_14PxsAABBManagerE
Kck:__ZL86SafeHandle_t2733794115_CustomAttributesCacheGenerator_SafeHandle_SetHandle_m1980208835P21CustomAttributesCache
K2d:__ZN14PhysicsManager23VirtualRedirectTransferER14SafeBinaryRead
_af:_DateTime_ToString_m3108726445_AdjustorThunk
sMi:_Array_InternalArray__get_Item_TisTableRange_t2011406615_m602485977_gshared
uvi:_InputField_Append_m2623574152
J4c:__ZN5physx7NpActor14onActorReleaseEPNS_7PxActorE
jMf:_ApplicationException__ctor_m1120437222
gHg:_MonoMethod__ctor_m4091684020
fNc:__ZN5physx3Cct26CharacterControllerManager19computeInteractionsEfPNS_26PxControllerFilterCallbackE
Kai:__GLOBAL__sub_I_Runtime_cpp_10065
pq:stackAlloc
UVc:__ZN5physx6shdfnd8PoolBaseINS_2Cm5BlockIhLj256EEENS0_19ReflectionAllocatorIS4_EEE12allocateSlabEv
Vec:__Z44Camera_CUSTOM_INTERNAL_CALL_ScreenPointToRayP12Il2CppObjectRK8Vector3fR3Ray
PQa:__ZN25SingleBlockMemoryFileData4LockEPPv
JRa:__ZN12HandlerChain5TouchER13FileEntryData
wDg:_MethodBuilder_GetHashCode_m1713271764
CXj:_Input_GetKeyDown_m1771960377
SSi:_List_1__ctor_m310736118_gshared
Hxi:_Array_get_swapper_TisUIVertex_t1204258818_m1078858558_gshared
