fd:_glClearStencil
_Jf:_Array_InternalArray__ICollection_Add_TisMark_t2724874473_m1613484179_gshared
AHc:__ZN5physx2Gu19gjkLocalPenetrationINS0_8CapsuleVENS0_17ShrunkConvexHullVEEEjRKT_RKT0_RKNS_6shdfnd3aos6FloatVERNSB_5Vec3VESG_SG_RSC_PhSI_Rhb
Lej:__ZL80Graphic_t2426225576_CustomAttributesCacheGenerator_Graphic_OnFillVBO_m1723985607P21CustomAttributesCache
Wmh:_RuntimeTypeHandle_GetObjectData_m3567098501
tei:_TypeBuilder_ToString_m1952363535
HPb:__ZN18StreamedBinaryReadILb1EE21TransferSTLStyleArrayIN4core12basic_stringIcNS2_20StringStorageDefaultIcEEEEEEvRT_17TransferMetaFlags
gql:__ZN6il2cpp2vm5Array13GetByteLengthEP11Il2CppArray
QSj:_Raycast3DCallback_BeginInvoke_m3028685017
zGh:__Z79RuntimeInvoker_RuntimeObject_Int64_t909078037_Int64_t909078037_Int64_t909078037PFvvEPK10MethodInfoPvPS4_
XIi:__ZL61IRemotingFormatter_t4112065742_CustomAttributesCacheGeneratorP21CustomAttributesCache
Zuk:_TextGenerator_get_lineCount_m4287181941
RCe:__ZN15DownloadHandler7OnAbortEv
FRk:_Comparison_1_Invoke_m353639462_gshared
BAh:_UInt64_System_IConvertible_ToDecimal_m4205696037
M2e:_GraphicRegistry_RegisterGraphicForCanvas_m2284226562
LHa:__Z21SourceMipLevelForBlitiiii
Glb:__ZN31CanvasBatchIntermediateRenderer15AddAsRenderNodeER15RenderNodeQueueRK20DeprecatedSourceData
Tbi:_GenericTypeParameterBuilder_GetEvent_m4210567427
Evi:_Playable__ctor_m2954384102
hnf:_Enumerator_get_Key_m2908810861
F6i:__ZL90GUIStyle_t1799908754_CustomAttributesCacheGenerator_GUIStyle_get_imagePosition_m1104201320P21CustomAttributesCache
sMf:_Array_InternalArray__Insert_TisKeyCode_t2283395152_m2243686093_gshared
_ye:__ZN11UnityEngine7Connect14AppUpdateEventD0Ev
sCj:_AnimatorControllerPlayable_SetBool_m1780824884_AdjustorThunk
lyd:__ZNK5physx2Sc5Scene24getContactModifyCallbackEv
HZ:__ZdlPv
CG:__ZN23AnimationOffsetPlayable11SetRotationE11Quaternionf
ht:__ZN11UnityEngine9Animation28GenericAnimationBindingCacheD2Ev
rBd:__ZN5physx2Sq10AABBPruner10addObjectsEPjPKNS_9PxBounds3EPKNS0_13PrunerPayloadEj
WAj:_AnimationOffsetPlayable_op_Explicit_m363086289
cJi:__ZL68RemotingSurrogateSelector_t2821375126_CustomAttributesCacheGeneratorP21CustomAttributesCache
wxj:_EqualityComparer_1__cctor_m968537130_gshared
Oog:_List_1_System_Collections_IList_IndexOf_m39706221_gshared
TFk:_UnityEvent_1_RemoveListener_m219620396_gshared
trj:_Dictionary_2_Remove_m1849931834_gshared
Mpf:_Decimal_op_Implicit_m2971610317
hc:invoke_viiiifiiiiif
S7a:__Z18RestoreRenderStateR20CameraRenderOldStateR17ShaderPassContext
Oif:_SynchronizedArrayListWrapper_get_Item_m3309425850
UOb:__Z18Transfer_BlittableI18StreamedBinaryReadILb1EELb1E5RectTIfEEvRK29SerializationCommandArgumentsR31RuntimeSerializationCommandInfo
iLb:__Z18Transfer_BlittableI24GenerateTypeTreeTransferLb0E11ColorRGBA32EvRK29SerializationCommandArgumentsR31RuntimeSerializationCommandInfo
V3:__Z25scripting_class_from_name17ScriptingImagePtrPKcS1_
Lcl:__ZN14dense_hash_mapI10KeyWrapperINSt3__24pairIPK12PropertyInfoP11Il2CppClassEEEj17ReflectionMapHashIS8_ENS9_14EqualsComparerINS1_8equal_toIS8_EEEENS1_9allocatorINS2_IKS9_jEEEEE15set_deleted_keyERSH_
cEb:__Z29scripting_class_enum_basetype17ScriptingClassPtr
I0j:__ZN21InterfaceFuncInvoker3IP12Il2CppObjectP8String_tS1_PS3_E6InvokeEjP11Il2CppClassS1_S3_S1_S4_
GQc:__ZN5physx6shdfnd8PoolBaseINS_2Sc10NPhaseCore16ClothListElementENS0_19ReflectionAllocatorIS4_EEE17releaseEmptySlabsEv
B3e:_GraphicRaycaster_get_ignoreReversedGraphics_m2757724367
eSh:__Z111RuntimeInvoker_Void_t1841601450_Vector4_t2243707581_Vector4_t2243707581_Vector4_t2243707581_Vector4_t2243707581PFvvEPK10MethodInfoPvPS4_
Uib:__ZNK12BaseRenderer18GetRenderNodeCountEv
hMj:_Collision_t2876846408_marshal_pinvoke_back
oUd:__ZN5physx2Sc14ConstraintCore10breakApartEv
Eci:_GenericTypeParameterBuilder_GetHashCode_m867619899
FZd:__ZN5physx2Gu15EdgeListBuilderC2Ev
Pwj:_EqualityComparer_1__cctor_m3397254040_gshared
cea:__ZNK20LocalFileSystemPosix6ParentERK13FileEntryDataRN4core12basic_stringIcNS3_20StringStorageDefaultIcEEEE
c$d:__ZN5physx7Cooking20loadTriangleMeshDescERKNS_18PxTriangleMeshDescERNS_19TriangleMeshBuilderE
qal:__ZN15dense_hashtableINSt3__24pairIK10KeyWrapperINS1_IPK9EventInfoP11Il2CppClassEEEjEES9_17ReflectionMapHashIS8_EN14dense_hash_mapIS9_jSD_NS9_14EqualsComparerINS0_8equal_toIS8_EEEENS0_9allocatorISB_EEE9SelectKeyESI_SK_E4swapERSN_
Xok:_RaycastHit2D_get_distance_m4065977169
Tuk:_TextGenerator_get_verts_m3124035267
b8f:_MonoType_CheckMethodSecurity_m4116906190
JTc:__ZN5physx9NpFactory21releaseConnectorArrayEPNS_16NpConnectorArrayE
brk:_Vector2_get_one_m3174311904
sEd:__ZNK5physx2Gu29EPASupportMapPairRelativeImplINS0_9TriangleVENS0_4BoxVEE6getDirEv
wPf:_Array_Sort_TisVector2_t2243707579_m1307634946_gshared
qxa:__ZN17PersistentManager22CheckInstanceIDsLoadedEPii
FFa:__ZN7ApiGLES17CopyBufferSubDataEjjlll
Job:__ZNK20ScriptPlayableOutput7GetTypeEv
IYi:__ZL99Sprite_t309593783_CustomAttributesCacheGenerator_Sprite_get_associatedAlphaSplitTexture_m3617241169P21CustomAttributesCache
NVk:__ZNSt3__26vectorIPK10Il2CppTypeNS_9allocatorIS3_EEE7reserveEj
BSk:_U3CCreateWhereIteratorU3Ec__Iterator1D_1_Reset_m1773515612_gshared
n$a:__ZN25CameraStackRenderingState20GetOrCreateBuiltinRTE24BuiltinRenderTextureTypeii17DepthBufferFormat19RenderTextureFormatj22RenderTextureReadWrite14VRTextureUsagei
d7e:_InputField_get_caretPosition_m1005871812
emb:__Z32TransferEnumWithNameForceIntSizeI14SafeBinaryRead16LightmappingMaskEvRT_RT0_PKc17TransferMetaFlags
Wpj:_Dictionary_2__ctor_m3111963761_gshared
GS:__ZN11AudioModule26SetDefaultMicrophoneDriverEPv
Zgd:__ZNK5physx15NpActorTemplateINS_15PxParticleFluidEE22getClientBehaviorFlagsEv
xIk:_AesManaged_CreateEncryptor_m1729287824
Ivb:__ZNK14Texture2DArray26CanReuploadDataToGfxDeviceEv
T3a:__ZN17PrePassRenderLoop14RenderBasePassEP13RenderTextureRK14LightingLayersR13dynamic_arrayI16RenderObjectDataLj4EERbR10MinMaxAABB
Yhb:__ZN17GlobalGameManager23VirtualRedirectTransferER17RemapPPtrTransfer
Mie:_sfnt_stream_close
Tff:_Char_System_IConvertible_ToInt16_m2741348777_AdjustorThunk
Doc:__ZN5IMGUI18RepaintModalWindowER8GUIState
h2e:_FontData_get_verticalOverflow_m83665814
aMg:_ReadOnlyCollection_1_System_Collections_Generic_IListU3CTU3E_set_Item_m1547026160_gshared
jCi:__ZL61MarshalAsAttribute_t2900773360_CustomAttributesCacheGeneratorP21CustomAttributesCache
nub:__Z23SetSpriteMeshIndexCountP14SharedMeshDataj
vha:__ZN7Texture13SetFilterModeEi
Wdc:__Z46Register_UnityEngine_Application_get_isPlayingv
Krl:__ZN6il2cpp8metadata13GenericMethod9GetMethodEPK19Il2CppGenericMethod
Nr:__ZNSt3__26vectorIN4core12basic_stringIcNS1_20StringStorageDefaultIcEEEENS_9allocatorIS5_EEE7reserveEj
fsf:_Convert_ToUInt16_m2130758075
T8k:__ZN15dense_hashtableINSt3__24pairIK10KeyWrapperINS1_IPK11Il2CppImageP11Il2CppClassEEEjEES9_17ReflectionMapHashIS8_EN14dense_hash_mapIS9_jSD_NS9_14EqualsComparerINS0_8equal_toIS8_EEEENS0_9allocatorISB_EEE9SelectKeyESI_SK_E3endEv
kUh:__Z132RuntimeInvoker_Void_t1841601450_RuntimeObject_AnimatorStateInfo_t2577870592_Int32_t2071877448_AnimatorControllerPlayable_t1744083903PFvvEPK10MethodInfoPvPS4_
G9g:_X509BasicConstraintsExtension_Encode_m3505127076
wAa:__ZN13GfxDeviceGLES11SetViewportERK5RectTIiE
g5e:_Image_get_pixelsPerUnit_m4104195799
lZj:_Toggle_InternalToggle_m2323729210
Yvf:_Decimal_System_IConvertible_ToInt64_m2504363272
Zb:invoke_vifiiii
$af:_Array_GetValue_m3182152438
ye:_emscripten_glDepthRange
Woh:_DESTransform_CipherFunct_m3559419566
yCc:__ZN5physx2Gu24contactConvexHeightfieldERKNS0_13GeometryUnionES3_RKNS_11PxTransformES6_RKfRNS0_5CacheERNS0_13ContactBufferE
kVc:__ZN5physx6shdfnd5ArrayIPvNS0_19ReflectionAllocatorINS_2Cm5BlockIS2_Lj8EEEEEE15growAndPushBackERKS2_
kXe:_StandaloneInputModule_get_repeatDelay_m3025279
Xli:_GUILayoutGroup_CalcWidth_m4107152934
zmh:_RuntimeFieldHandle_get_Value_m3963757144
wUb:__Z14resize_trimmedINSt3__26vectorIN9ShaderLab20SerializedSubProgram12UAVParameterENS0_9allocatorIS4_EEEEEvRT_j
Pfh:_SerializationInfo_AddValue_m1781549036
T1h:__Z59RuntimeInvoker_Void_t1841601450_PlayableBinding_t2498078091PFvvEPK10MethodInfoPvPS4_
AAj:_AnimationLayerMixerPlayable_SetLayerMaskFromAvatarMask_m2582039992_AdjustorThunk
uZg:_TlsServerKeyExchange_verifySignature_m3641534563
yac:__ZN13BuildSettings34ConvertScenePathToDisplayScenePathERKN4core12basic_stringIcNS0_20StringStorageDefaultIcEEEE
cIg:_Collection_1_Clear_m445145071_gshared
ung:_Enumerator__ctor_m3512622280_AdjustorThunk
zXj:_Slider_FindSelectableOnLeft_m3136767885
jHa:__ZN4crndL20crnd_default_reallocEPvjPjbS0_
T2e:__ZN21InterfaceFuncInvoker1IP19Material_t193706927S1_E6InvokeEjP11Il2CppClassP12Il2CppObjectS1_
TGf:_Array_BinarySearch_TisInt32_t2071877448_m51233948_gshared
yFl:__ZNSt3__212basic_stringIcNS_11char_traitsIcEENS_9allocatorIcEEEC2ERKS5_
uJd:__ZN5physx24PxsComputeAABBLocalSpaceERKNS_18PxcAABBDataDynamicERNS_9PxBounds3E
zih:_ProviderData_CopyFrom_m431414335
IVh:__Z74RuntimeInvoker_Boolean_t3825574718_Vector2_t2243707579_Vector2_t2243707579PFvvEPK10MethodInfoPvPS4_
evb:__ZN18SpriteAtlasManager19AddRequestingSpriteE4PPtrI6SpriteE
rsh:_UTF32Encoding_GetPreamble_m767706727
dlc:__Z33Texture_CUSTOM_Internal_GetHeightP12Il2CppObject
YEg:_Collection_1_System_Collections_IList_Add_m1953936885_gshared
x9e:_LayoutGroup_get_preferredHeight_m3901163825
QKh:__Z111RuntimeInvoker_Void_t1841601450_RuntimeObject_SByte_t454417549_ObjectU26_t597476745_HeaderU5BU5DU26_t2818328198PFvvEPK10MethodInfoPvPS4_
R6a:__ZN23ScriptableRenderContextC2Ev
Bjb:__ZN4PPtrI13RenderTextureE8TransferI18StreamedBinaryReadILb0EEEEvRT_
xdc:__Z22InverseTransformVector23TransformAccessReadOnlyRKN4math7_float3E
wpf:_DateTime_AbsoluteDays_m3061694073
Jpe:_UNITY_FT_Stream_GetChar
rPb:__Z18Transfer_BlittableI18StreamedBinaryReadILb1EELb1EdEvRK29SerializationCommandArgumentsR31RuntimeSerializationCommandInfo
rlj:_Enumerator_System_Collections_IEnumerator_get_Current_m229223308_gshared
ETi:__ZL202U3CCreateWhereIteratorU3Ec__Iterator1D_1_t2523986802_CustomAttributesCacheGenerator_U3CCreateWhereIteratorU3Ec__Iterator1D_1_System_Collections_Generic_IEnumerableU3CTSourceU3E_GetEnumerator_m2392330777P21CustomAttributesCache
VBd:__ZN5physx6shdfnd8internal8HashBaseINS0_4PairIKNS_2Sq13PrunerPayloadEjEES5_NS0_4HashIS5_EENS1_11HashMapBaseIS5_jS9_NS0_9AllocatorEE6GetKeyESB_Lb1EE5eraseERS6_
lEb:__Z26BuildSerializationCacheFor17ScriptingClassPtrRb
TJa:__ZN7ApiGLES15BlitFramebufferEN2gl6HandleILNS0_10ObjectTypeE9EEENS0_15FramebufferReadES3_S3_iiiiiiiiNS0_15FramebufferTypeE
NVd:__ZN5physx13GuMeshFactory16createConvexMeshERNS_13PxInputStreamE
N4d:__ZN5physx6shdfnd8internal8HashBaseINS0_4PairIKPKcjEES5_NS0_4HashIS5_EENS1_11HashMapBaseIS5_jS9_NS_7profile26WrapperReflectionAllocatorIjEEE6GetKeyESD_Lb1EE6createERS6_Rb
GPh:__Z112RuntimeInvoker_RuntimeObject_RuntimeObject_RuntimeObject_RuntimeObject_RuntimeObject_RuntimeObject_RuntimeObjectPFvvEPK10MethodInfoPvPS4_
vHi:__ZL55GCHandleType_t1970708122_CustomAttributesCacheGeneratorP21CustomAttributesCache
hPj:_Event_Init_m3901382626
yPk:__ZL25UnresolvedVirtualCall_150P12Il2CppObject23SpriteState_t1353336012S1_PK10MethodInfo
xif:_FixedSizeArrayListWrapper_AddRange_m2071800418
SE:__ZN13ProduceHelperI8AnimatorLb0EE7ProduceE18MemLabelIdentifier18ObjectCreationMode
tfa:__Z9InitInputv
jMh:__Z85RuntimeInvoker_Boolean_t3825574718_Int64_t909078037_Int64_t909078037_SByte_t454417549PFvvEPK10MethodInfoPvPS4_
Vtk:_StateMachineBehaviour_OnStateUpdate_m2021794605
Bng:_Enumerator_VerifyState_m2358705882_AdjustorThunk
gMb:__Z29Transfer_Blittable_ArrayFieldI24GenerateTypeTreeTransfer11ColorRGBA32EvRT_R9ArrayInfoRK23StaticTransferFieldInfo
LVd:__ZNK5physx13GuMeshFactory15getConvexMeshesEPPNS_12PxConvexMeshEjj
PTj:_Selectable_Navigate_m915280351
lkg:_AppDomain_getCurDomain_m591611373
eeb:__ZN16MemoryFileSystem6DeleteER13FileEntryDatab
Fxk:_Vector3_get_normalized_m936072361
Uua:__ZL21BlitScaleStbImageImplRK14ImageReferenceRS_NS_10ColorSpaceE
m8c:__ZN5physx10NpMaterial17setStaticFrictionEf
$3g:_TlsStream_set_Position_m378064217
xE:__ZN18StreamedBinaryReadILb0EE21TransferSTLStyleArrayI13dynamic_arrayIjLj4EEEEvRT_17TransferMetaFlags
Lsd:__ZNK5physx7NpScene19getFilterShaderDataEv
DHb:__Z29Transfer_Blittable_ArrayFieldI14SafeBinaryReadyEvRT_R9ArrayInfoRK23StaticTransferFieldInfo
fP:__ZN20SoundChannelInstance15setChannelGroupEPN4FMOD12ChannelGroupE
D7k:__ZNK15dense_hashtableINSt3__24pairIK10KeyWrapperINS1_IPK9FieldInfoP11Il2CppClassEEEjEES9_17ReflectionMapHashIS8_EN14dense_hash_mapIS9_jSD_NS9_14EqualsComparerINS0_8equal_toIS8_EEEENS0_9allocatorISB_EEE9SelectKeyESI_SK_E12test_deletedERK24dense_hashtable_iteratorISB_S9_SD_SM_SI_SK_E
p3c:__ZN5physx2Sc19ShapeInstancePairLL26onPoseChangedWhileSleepingEv
jMe:_Evidence_Equals_m2325859915
CDd:__ZN5physx22PxcSweepCapsuleCapsuleERKNS_11PxsCCDShapeES2_PKNS_12PxsRigidBodyES5_RKNS_11PxTransformES8_S8_S8_fRNS_6PxVec3ESA_RNS_10PxcNpCacheERNS_18PxcNpThreadContextEf
SLi:__ZL93WindowsIdentity_t373339331_CustomAttributesCacheGenerator_WindowsIdentity_Dispose_m2649088337P21CustomAttributesCache
O7h:_Default__ctor_m172834064
Uc:invoke_vifffii
adj:__ZL77StandaloneInputModule_t70867863_CustomAttributesCacheGenerator_m_VerticalAxisP21CustomAttributesCache
IRb:__Z35Transfer_Blittable_FixedBufferFieldI18StreamedBinaryReadILb0EEaEvRK29SerializationCommandArgumentsR31RuntimeSerializationCommandInfo
dNj:_Component_GetComponents_m637589504
glk:_Regex_IsMatch_m2159202025
BMc:__ZNK5physx3Cct17CapsuleController21getHalfHeightInternalEv
wQa:__ZNK25MultiBlocksMemoryFileData5CloneEv
LMg:_ReadOnlyCollection_1_System_Collections_IList_IndexOf_m3466286536_gshared
nxl:_GC_add_ext_descriptor
MLc:__ZN5physx21PxQueryFilterCallbackD2Ev
lyl:__ZN6il2cpp2os14WindowsRuntime22GetRestrictedErrorInfoEv
y5e:_Image_CalculateLayoutInputHorizontal_m3275149860
qfh:_RemotingServices_GetMethodBaseFromName_m3271095947
mSa:__ZN17ArchiveFileSystem11CreateAsDirER13FileEntryData
QOk:__ZL25UnresolvedVirtualCall_114P12Il2CppObjectssaaaPK10MethodInfo
RSc:__ZL30GeomOverlapCallback_CapsuleBoxRKN5physx10PxGeometryERKNS_11PxTransformES2_S5_PNS_2Gu12TriggerCacheE
EHl:dynCall_iiiiiiiiiiii
pRe:_ASCIIEncoding_GetBytes_m3617160053
mek:_InternalEnumerator_1_MoveNext_m2289229080_AdjustorThunk
yYg:_CipherSuiteCollection_System_Collections_IList_RemoveAt_m143866082
h2j:_Context_get_HasGlobalDynamicSinks_m3205328884
NF:__ZN26AnimatorControllerPlayable26ParameterControlledByCurveEi
rza:__ZN22VertexDeclarationCacheD0Ev
MYb:__ZL26KeywordSetToStringDontSortRKNSt3__26vectorIN4core12basic_stringIcNS1_20StringStorageDefaultIcEEEENS_9allocatorIS5_EEEERS5_
hye:__Z54Register_UnityEngine_Analytics_CustomEventData_AddCharv
Xpa:__ZN6prcoreL17RemapGenericFloatI16TexFormatRGFloat17TexFormatRGBAHalfEEvPKNS_9InnerInfoE
jK:__ZN12AudioManager22CreateFMODSoundFromWWWEP10IWWWStream15FMOD_SOUND_TYPE17FMOD_SOUND_FORMATjjbbP10SampleClip
q3b:__ZNK32RendererMaterialAnimationBinding15GenerateBindingERKN4core12basic_stringIcNS0_20StringStorageDefaultIcEEEEbRN11UnityEngine9Animation14GenericBindingE
r9k:__ZN24dense_hashtable_iteratorINSt3__24pairIK10KeyWrapperINS1_IPK11Il2CppImageP11Il2CppClassEEEjEES9_17ReflectionMapHashIS8_EN14dense_hash_mapIS9_jSD_NS9_14EqualsComparerINS0_8equal_toIS8_EEEENS0_9allocatorISB_EEE9SelectKeyESI_SK_E30advance_past_empty_and_deletedEv
rPh:__Z40RuntimeInvoker_HandshakeType_t2540099417PFvvEPK10MethodInfoPvPS4_
oji:_UnityEventBase_UnityEngine_ISerializationCallbackReceiver_OnBeforeSerialize_m1773826808
Guj:_DefaultComparer_GetHashCode_m361278435_gshared
U1k:__ZNSt3__26vectorIN6il2cpp6icalls8mscorlib6System12PropertyPairENS_9allocatorIS5_EEE21__push_back_slow_pathIS5_EEvOT_
j3:__ZN8Remapper23GetOrGenerateInstanceIDERK26SerializedObjectIdentifier
N4f:_StreamWriter_Flush_m3426120024
sSa:__ZN17FileSystemHandler10AtomicMoveER13FileEntryDataS1_
ib:invoke_iiiiiifffiiifii
q2f:_MemoryStream__ctor_m1489366847
EMe:_SecurityElement_IsValidTag_m64902195
ulj:_Enumerator_System_Collections_IEnumerator_get_Current_m229223308_AdjustorThunk
Fii:_PropertyInfo_SetValue_m2961483868
Ali:_GUILayoutEntry_set_style_m70917293
VWi:__ZL115TouchScreenKeyboard_t601950206_CustomAttributesCacheGenerator_TouchScreenKeyboard_Open_m3410222954____keyboardType1P21CustomAttributesCache
tug:_List_1_System_Collections_IList_Contains_m4193366963_gshared
hGk:_UnityEvent_3_FindMethod_Impl_m1889846153_gshared
Agh:_DictionaryEnumerator_get_Value_m1915638953
k8h:_ConstructorInfo_Invoke_m2144827141
vZi:__ZL82Object_t1021602117_CustomAttributesCacheGenerator_Object_get_hideFlags_m4158950869P21CustomAttributesCache
Aub:__ZN6Sprite8TransferI24GenerateTypeTreeTransferEEvRT_
lmc:__Z48Register_UnityEngine_Transform_SetAsFirstSiblingv
Qji:_Font_get_fontSize_m1732593415
Dub:__ZN7SubMesh8TransferI24GenerateTypeTreeTransferEEvRT_
TQk:__ZL25UnresolvedVirtualCall_225P12Il2CppObjecti23RaycastResult_t21186376PK10MethodInfo
Ihi:_MonoProperty_get_CanWrite_m2124922514
yBc:__ZN5physx3Cct10Controller6setPosERKNS_14PxExtendedVec3E
j1k:__ZN6il2cpp6icalls8mscorlib6SystemL16CheckMemberMatchI9FieldInfoNS_5utils10functional6FilterINSt3__212basic_stringIcNS8_11char_traitsIcEENS8_9allocatorIcEEEENS5_13VmStringUtils23CaseInsensitiveComparerEEEEEbPKT_PK11Il2CppClassSN_iRKT0_
FDc:__ZN5physx2GuL14testFaceNormalERKNS0_13PolygonalDataES3_PNS0_12SupportLocalES5_RKNS_6shdfnd3aos15PsMatTransformVESA_RKNS7_6FloatVERSB_RjRNS7_5Vec3VENS0_13FeatureStatusERSI_
BEl:_poll
c2f:_Stream_BeginRead_m1985960185
i0e:_Graphic_UnregisterDirtyVerticesCallback_m1526739224
w1b:__ZN13ProduceHelperI14Texture2DArrayLb0EE7ProduceE18MemLabelIdentifier18ObjectCreationMode
tdj:__ZL88TweenRunner_1_t2584777480_CustomAttributesCacheGenerator_TweenRunner_1_Start_m2640577060P21CustomAttributesCache
OVg:_MD4Managed_GG_m1462438360
jic:__Z46Mesh_CUSTOM_PrintErrorCantAccessMeshForIndicesP12Il2CppObject
vOf:_Array_Resize_TisColor32_t874517518_m2219502085_gshared
mdc:__ZN9Transform23SetSiblingIndexInternalEib
Mbg:_SimpleCollator_LastIndexOfOrdinal_m45234497
XSc:__ZL32GeomOverlapCallback_ConvexConvexRKN5physx10PxGeometryERKNS_11PxTransformES2_S5_PNS_2Gu12TriggerCacheE
hEl:___fseeko
KAa:__ZN13GfxDeviceGLES17DestroySubProgramEPN9ShaderLab10SubProgramE
Zu:__ZN7mecanim5human12HumanPoseSubERNS0_9HumanPoseERKS1_S4_
AVg:_MD4_Create_m2582504069
qLk:_HashSet_1_System_Collections_IEnumerable_GetEnumerator_m2498631708_gshared
Lll:__ZN6il2cpp8metadata15GenericMetadata15GetGenericClassEiPK17Il2CppGenericInst
Edf:_Boolean_System_IConvertible_ToInt16_m977801621
rGb:__Z18Transfer_BlittableI14SafeBinaryReadLb0E10Matrix4x4fEvRK29SerializationCommandArgumentsR31RuntimeSerializationCommandInfo
hUa:__Z24GetFixedBehaviourManagerv
B$h:__Z69RuntimeInvoker_Void_t1841601450_Int32_t2071877448_Vector4_t2243707581PFvvEPK10MethodInfoPvPS4_
zYa:__ZN12FlareManager9UpdateJobEP25FlareManagerUpdateJobData
O0k:__ZN6il2cpp2vm10ThreadPool4WaitEP17Il2CppAsyncResultPPv
MCl:_vfprintf
Qfh:_SerializationException__ctor_m1019897788
Vna:__ZL13SortTexByNameRKNSt3__24pairIN9ShaderLab16FastPropertyNameEN18UnityPropertySheet11UnityTexEnvEEES7_
kZa:__ZN20DynamicPropertySheetD0Ev
Fbb:__ZN14SafeBinaryRead17RegisterConverterEPKcS1_PFbPvRS_E
FZ:__ZN35RegisterRuntimeInitializeAndCleanup8RegisterEPFvPvES2_iS0_
omd:__ZNK5physx19NpRigidBodyTemplateINS_14PxRigidDynamicEE17getRigidBodyFlagsEv
vcf:_AsyncCallback__ctor_m3071689932
q2d:__ZN14PhysicMaterial8TransferI18StreamedBinaryReadILb0EEEEvRT_
JRg:_ReadOnlyCollection_1_System_Collections_IList_Clear_m2600246370_gshared
dob:__ZN20SphericalHarmonicsL215AddAmbientLightERK10ColorRGBAf
ace:__Z47Register_UnityEngine_MeshCollider_get_skinWidthv
GDd:__ZN5physx25PxcSweepConvexHeightfieldERKNS_11PxsCCDShapeES2_PKNS_12PxsRigidBodyES5_RKNS_11PxTransformES8_S8_S8_fRNS_6PxVec3ESA_RNS_10PxcNpCacheERNS_18PxcNpThreadContextEf
_0h:__Z62RuntimeInvoker_Int32_t2071877448_ParameterModifier_t1820634920PFvvEPK10MethodInfoPvPS4_
cfg:_DSAManaged_NormalizeArray_m2287089393
umc:__Z21Object_CUSTOM_DestroyP12Il2CppObjectf
ffk:_InternalEnumerator_1_System_Collections_IEnumerator_get_Current_m2389982234_AdjustorThunk
lUa:__ZN8Material26ResetAllCachedMaterialDataEP6Shader
eWj:_Selectable_get_interactable_m1725029500
hBi:__ZL66RuntimeArray_CustomAttributesCacheGenerator_Array_Sort_m3002148658P21CustomAttributesCache
Upe:_UNITY_TT_Get_MM_Var
YSk:__ZN6il2cpp6icalls8mscorlib6System7Decimal13decimal2Int64EP19il2cpp_decimal_reprPx
aa:invoke_diddi
mVe:_ExecuteEvents__cctor_m288775360
Dre:__ZNK2UI6Canvas13GetRenderModeEv
Bqf:_Double_TryParseStringConstant_m2585405703
zgi:_MonoField_get_Attributes_m4138688533
mHj:_AudioClipPlayable_GetHandle_m234442096_AdjustorThunk
LFb:__Z18Transfer_BlittableI14SafeBinaryReadLb0EiEvRK29SerializationCommandArgumentsR31RuntimeSerializationCommandInfo
C$k:__ZN6il2cpp2vm13MetadataCache30GetPropertyDefinitionFromIndexEi
XZj:_ResourceEnumerator__ctor_m1679839941
hHe:_RijndaelTransform_Clear_m1652144089
sld:__ZN5physx14NpRigidDynamic7releaseEv
G0f:_MonoIO_GetException_m2577367044
fBe:__ZN22BaseUnityConnectClient17InitializeSessionERKN4core12basic_stringIcNS0_20StringStorageDefaultIcEEEES6_N19CloudServiceHandler13InitModeFlagsE
Vnj:_Enumerator_MoveNext_m1404007384_gshared
x9f:_NumberFormatter_get_IsZero_m1325357749
Wzd:__ZN5physx6shdfnd8PoolBaseINS_21PxsBodyTransformVault13PxsBody2WorldENS0_19ReflectionAllocatorIS3_EEE15disposeElementsEv
nOl:_emscripten_glDeleteBuffers__wrapper
oWh:__Z121RuntimeInvoker_Void_t1841601450_Single_t2076509932_Single_t2076509932_Single_t2076509932_Single_t2076509932_RuntimeObjectPFvvEPK10MethodInfoPvPS4_
Mzf:_Enum_ToObject_m322320225
Ojj:_Enumerator_get_Current_m2754383612_gshared
zbc:__ZN13MonoBehaviour34StopCoroutineFromEnumeratorManagedE18ScriptingObjectPtr
QKe:_X509Certificate__ctor_m3860837120
ohe:_gray_raster_reset
RAj:_AnimationOffsetPlayable_CreateHandle_m1204489623
Wji:_GameObject_Internal_CreateGameObject_m3428198595
g_h:__Z109RuntimeInvoker_RuntimeObject_Ray_t2469606224_Single_t2076509932_Int32_t2071877448_RuntimeObject_RuntimeObjectPFvvEPK10MethodInfoPvPS4_
iKj:_Camera_RaycastTry2D_m755036866
ERg:_ReadOnlyCollection_1_System_Collections_Generic_IListU3CTU3E_set_Item_m3663361643_gshared
HJc:__ZN5physx2Gu30computeCapsule_TriangleMeshMTDERKNS_22PxTriangleMeshGeometryERKNS_11PxTransformERNS0_8CapsuleVEffbRNS_10PxSweepHitE
$zc:__ZN11UnityEngine9Analytics18SceneLoadTimeEvent12SetSceneLoadERKN4core12basic_stringIcNS2_20StringStorageDefaultIcEEEEiyyyy
NCb:__ZN30RuntimeInitializeOnLoadManager8TransferI18StreamedBinaryReadILb0EEEEvRT_
jtj:_Dictionary_2__ctor_m1206668798_gshared
Oai:_TypeBuilder_not_supported_m3178173643
Zhe:_UNITY_tt_face_load_pclt
jcc:__ZL34GetComponentsImplementationRecurseILb1ELi0ELi2EEbR10GameObjectbRK17CompareParametersRK39GetComponentsImplementation_ReturnValue
hrd:__ZThn8_N5physx2Sc19ShapeInstancePairLL10onActivateEj
Ozl:__ZN6il2cpp6icalls8mscorlib6System9Threading5Mutex20CreateMutex_internalEbP12Il2CppStringPb
eif:_ArrayListWrapper_Remove_m1105489978
AYa:__ZNK6Camera18WorldToScreenPointERK8Vector3fPb
MJd:__ZN5physx2Cm12DelegateTaskINS_10PxsContextEXadL_ZNS2_28mergeCMDiscreteUpdateResultsEPNS_10PxBaseTaskEEEE11runInternalEv
Qwe:__ZN14UnityAnalyticsD0Ev
_wk:_Vector2_ToString_m775491729
XYg:_TlsClientSettings_set_TargetHost_m3421266913
z_d:__ZN5physx19TriangleMeshBuilder10importMeshERKNS_18PxTriangleMeshDescERKNS_15PxCookingParamsEb
T2h:__Z84RuntimeInvoker_Void_t1841601450_RaycastResultU5BU5DU26_t2399554255_Int32_t2071877448PFvvEPK10MethodInfoPvPS4_
Ylf:_HashKeys_CopyTo_m3566668422
Hza:__Z18IsCompressedFormat14GraphicsFormat
qv:__ZN7mecanim9animation19AdjustPoseForMotionERKNS0_14AvatarConstantERKNS0_14SkeletonTQSMapERKN4math4trsXERNS_10ValueArrayERNS_8skeleton13SkeletonPoseTIS8_EESG_
qak:_InternalEnumerator_1_Dispose_m549215360_AdjustorThunk
$ff:_Convert_ToSByte_m2665932200
z2:__ZNSt3__227__insertion_sort_incompleteIRPFbRKN18AwakeFromLoadQueue4ItemES4_EPS2_EEbT0_S9_T_
J9h:_ILGenerator_label_fixup_m1325994348
Bpj:_ValueCollection_System_Collections_ICollection_get_IsSynchronized_m45572582_gshared
GZk:__ZN14dense_hash_mapI10KeyWrapperIN6il2cpp5utils13dynamic_arrayIPK10Il2CppTypeLj4EEEEPFvvENS1_8metadata19Il2CppSignatureHashENS8_14EqualsComparerINSB_22Il2CppSignatureCompareEEENSt3__29allocatorINSG_4pairIKS8_SA_EEEEE15set_deleted_keyERSJ_
URj:_Navigation_Equals_m4214630671_AdjustorThunk
QOg:_ReadOnlyCollection_1_System_Collections_Generic_IListU3CTU3E_set_Item_m257196015_gshared
ted:__ZN5physx6shdfnd5ArrayINS_18PxClothFabricPhaseENS0_19ReflectionAllocatorIS2_EEE8recreateEj
Erb:__ZN26EnlightenSystemInformation8TransferI14SafeBinaryReadEEvRT_
ERf:_Array_InternalArray__get_Item_TisLink_t2723257478_m2281261655_gshared
DHj:_AudioClipPlayable_INTERNAL_CALL_GetIsPlayingInternal_m4246314919
Wtd:__ZN5physx2Sq17SceneQueryManager11shiftOriginERKNS_6PxVec3E
dyb:__ZN12MeshRendererD0Ev
LHc:__ZN5physx2Gu16sweepBoxTriangleERKNS_10PxTriangleERKNS_9PxBounds3ERKNS_6PxVec3ES9_RS7_SA_Rf
Gmk:_ExpressionAssertion_IsComplex_m783019628
Zkf:_Hashtable__ctor_m2702360557
gi:_utime
j$d:__ZN5physx10writeChunkEaaaaRNS_14PxOutputStreamE
OUf:_DateTimeFormatInfo_get_RawAbbreviatedDayNames_m3998113647
T0k:__ZN6il2cpp6icalls8mscorlib6System8MonoType18IsGenericParameterEPK10Il2CppType
Mvj:_DefaultComparer_GetHashCode_m2596628120_gshared
mUg:_PrimalityTest_Invoke_m4058801829
cTf:_Mesh_GetAllocArrayFromChannel_TisRuntimeObject_m1450958222_gshared
Cn:FUNCTION_TABLE_viiiiif
hjh:_RemotingConfiguration_SetCustomErrorsMode_m1844153208
mo:FUNCTION_TABLE_viiiiii
g5c:__ZN5physx2Sc9RigidCore13onShapeChangeERNS0_9ShapeCoreENS_7PxFlagsINS0_21ShapeChangeNotifyFlag4EnumEjEENS4_INS_11PxShapeFlag4EnumEhEE
wRf:_Array_InternalArray__get_Item_TisChar_t3454481338_m3646615547_gshared
OD:__ZN7mecanim9animation22DestroyAvatarWorkspaceEPNS0_15AvatarWorkspaceERNS_6memory9AllocatorE
$Il:dynCall_viddi
Dsk:_ScriptableObject_CreateInstance_m3271154163
H3e:__ZN21InterfaceFuncInvoker0IiE6InvokeEjP11Il2CppClassP12Il2CppObject
Sid:__ZN5physx6shdfnd5ArrayIPvNS0_15InlineAllocatorILj256ENS0_19ReflectionAllocatorINS_2Sc19ParticlePacketShapeEEEEEE15growAndPushBackERKS2_
jGd:__ZN5physx17solveContactBlockEPKNS_23PxcSolverConstraintDescEjRNS_16PxcSolverContextE
s$d:__ZN5physx6shdfnd10FoundationD2Ev
DIf:_Array_InternalArray__IndexOf_TisResourceCacheItem_t333236149_m761772858_gshared
yoc:__ZNSt3__210__list_impIN10GUIManager12SortedScriptE11memory_poolIS2_EE5clearEv
KOi:__ZL76Convert_t2607082565_CustomAttributesCacheGenerator_Convert_ToInt64_m44696721P21CustomAttributesCache
Hob:__ZN14PlayableOutput17SetSourcePlayableEP8Playable
DTh:__Z68RuntimeInvoker_RuntimeObject_Vector3_t2243707580_Vector3_t2243707580PFvvEPK10MethodInfoPvPS4_
yjh:_TrackingServices__cctor_m3639412334
MDk:_InvokableCall_1_add_Delegate_m3068046591_gshared
brc:__Z32GUIStyle_Set_Custom_PropRichTextP12Il2CppObjecth
gD:__ZN7mecanim9animation29MotionOutputGetDeltaTransformEPKNS0_12MotionOutputE
WLe:_StrongNamePublicKeyBlob_Equals_m2407250401
Npj:_ValueCollection_System_Collections_IEnumerable_GetEnumerator_m1773104428_gshared
_zc:__ZN27PerformanceReportingManager21OnSceneTimingCallbackERK15SceneLoadTimingRKN4core12basic_stringIcNS3_20StringStorageDefaultIcEEEE
zF:__ZN8Animator14OnAddComponentEPN5Unity9ComponentE
yAg:_List_1_CheckMatch_m1184924052_gshared
Glc:__Z43Transform_CUSTOM_INTERNAL_get_localRotationP12Il2CppObjectP11Quaternionf
rAd:__ZN5physx2Sc10NPhaseCoreD2Ev
UUc:__ZN5physx2Sc7BodySim18onConstraintDetachEv
pvk:_Touch_get_fingerId_m4109475843_AdjustorThunk
l4b:__ZZL23RegisterLightPropertiesR22GenericPropertyBindingEN20Wrapper_LightColorr013SetFloatValueEPvf
Ki:_emscripten_glGetTexParameteriv
Rsd:__ZN5physx7NpScene8simulateEfPNS_10PxBaseTaskEPvjb
fug:_List_1_ToArray_m3752387798_gshared
wrd:__ZThn8_N5physx2Sc24ElementInteractionMarker10onActivateEj
M9j:_InternalEnumerator_1_get_Current_m3206960238_gshared
JWg:_RSAManaged_ImportParameters_m3060955884
Sig:_DeriveBytes__ctor_m3089550878
f9f:_NotImplementedException__ctor_m1305569814
x0j:_ChannelData_CopyFrom_m4049054607
w$b:__Z13RegisterClassI4MeshEvv
Sbj:__ZL94AxisEventData_t1524870173_CustomAttributesCacheGenerator_AxisEventData_get_moveDir_m3968662359P21CustomAttributesCache
fob:__ZN8PlayableD0Ev
z0i:__ZL96MeshCollider_t2718867283_CustomAttributesCacheGenerator_MeshCollider_get_inflateMesh_m3430853575P21CustomAttributesCache
DT:__Z84Register_UnityEngine_Audio_AudioMixerPlayable_INTERNAL_CALL_SetAutoNormalizeInternalv
AL:__ZN12AudioManager8TransferI19StreamedBinaryWriteILb0EEEEvRT_
J2f:_WriteDelegate_Invoke_m2103848735
evg:_List_1_get_Capacity_m4262042666_gshared
CBk:_X509Crl_get_IssuerName_m756409840
hQb:__ZN18StreamedBinaryReadILb1EE21TransferSTLStyleArrayI13dynamic_arrayI11ColorRGBA32Lj4EEEEvRT_17TransferMetaFlags
xnj:_Transform_1_EndInvoke_m687617772_gshared
MHk:_Locale_GetText_m512920887
p3b:__ZNK32RendererMaterialAnimationBinding12GetPPtrValueERKN11UnityEngine9Animation10BoundCurveE
ZQb:__Z18Transfer_BlittableI18StreamedBinaryReadILb0EELb0E8Vector2fEvRK29SerializationCommandArgumentsR31RuntimeSerializationCommandInfo
W1c:__ZN5physx18NpArticulationLink10clearForceENS_11PxForceMode4EnumE
Rih:_RemotingConfiguration_get_ProcessId_m3870172209
vEc:__ZN5physx2Gu30distanceSegmentTriangleSquaredERKNS_6PxVec3ES3_S3_S3_S3_PfS4_S4_
kue:__ZN2UI11CanvasGroup12CleanupClassEv
KWf:_SortKey_ToString_m2406913228
uea:__ZN22LocalFileSystemHandler9MakeLocalER13FileEntryDatab
stl:__ZN6il2cpp2vm8Profiler10AllocationEP12Il2CppObjectP11Il2CppClass
Hpf:_Convert_ToDateTime_m1020507389
x6b:__ZNK9HPlayable7IsValidEv
sfe:__ZNSt3__23mapIN20TextRenderingPrivate7FontRefENS1_6OSFontENS_4lessIS2_EENS_9allocatorINS_4pairIKS2_S3_EEEEEixERS8_
fca:__Z13FormatOrderedPKcz
E0f:_Path_IsPathRooted_m1347207448
Kkh:_ObjectManager_RegisterObjectInternal_m879109503
BCf:_Array_get_swapper_TisVector4_t2243707581_m97441823_gshared
vcd:__ZNK5physx15NpActorTemplateINS_7PxClothEE12getAggregateEv
sxa:__ZNSt3__26__sortIRNS_4lessIiEEPiEEvT0_S5_T_
Ece:__ZN14SafeBinaryRead21TransferSTLStyleArrayI10vector_mapINSt3__24pairIttEEfN20TextRenderingPrivate8FontImpl14KerningCompareENS2_9allocatorINS3_IS4_fEEEEEEEvRT_17TransferMetaFlags
S$b:__Z13RegisterClassI15QualitySettingsEvv
$rl:__ZN6il2cpp2vm6String21InitializeEmptyStringEP11Il2CppClass
I3a:__ZN25DeferredRenderLoopScratchD0Ev
lx:__ZN27AnimationLayerMixerPlayable14SetInputWeightEif
Vu:__ZN7mecanim9animation17EvaluateHumanPoseERKNS0_18ClipMuscleConstantERKNS0_15ClipMuscleInputEPKfRKNS0_12MotionOutputERNS_5human9HumanPoseE
KMi:__ZL90UTF7Encoding_t741406939_CustomAttributesCacheGenerator_UTF7Encoding_GetHashCode_m359766848P21CustomAttributesCache
LCd:__ZNK5physx2Cm12DelegateTaskINS_13PxsCCDContextEXadL_ZNS2_14postCCDAdvanceEPNS_10PxBaseTaskEEEE7getNameEv
eUb:__ZN15dense_hashtableINSt3__24pairIKiN4core17string_with_labelILi1EEEEEi18SInt32HashFunctionN14dense_hash_mapIiS5_S7_NS0_8equal_toIiEE13stl_allocatorIS6_L18MemLabelIdentifier1ELi16EEE9SelectKeyESA_SD_E9copy_fromERKSG_j
Wja:__ZN6Camera11ResetAspectEv
kyh:_Type_get_IsGenericType_m3396841573
HXa:__ZNSt3__227__insertion_sort_incompleteIRPFbP10GUIElementS2_EPS2_EEbT0_S7_T_
I9g:_X509BasicConstraintsExtension_get_HasPathLengthConstraint_m3788532759
Dlb:__ZNK17InstancedPropInfo22FillInstancePropertiesER19ShaderPropertySheetjPK17BatchInstanceDatajRK15RenderNodeQueue
vla:__ZN22CreateGpuProgramOutputD2Ev
QHi:__ZL58_AssemblyBuilder_t418776366_CustomAttributesCacheGeneratorP21CustomAttributesCache
BNc:__ZNK5physx3Cct15ObstacleContext14getNbObstaclesEv
TMb:__Z18Transfer_BlittableI19StreamedBinaryWriteILb0EELb1EsEvRK29SerializationCommandArgumentsR31RuntimeSerializationCommandInfo
rIe:_RSACryptoServiceProvider_EncryptValue_m802714447
zil:__ZN6il2cpp6icalls8mscorlib6System2IO6MonoIO9SetLengthE12Il2CppIntPtrxPi
jYd:__ZN5physx6shdfnd8PoolBaseINS_11NpAggregateENS0_19ReflectionAllocatorIS2_EEE12allocateSlabEv
hOi:__ZL76Convert_t2607082565_CustomAttributesCacheGenerator_Convert_ToByte_m932798552P21CustomAttributesCache
bld:__ZN5physx16NpParticleSystem23setParticleReadDataFlagENS_22PxParticleReadDataFlag4EnumEb
Mjd:__ZN5physx7NpScene26removeFromParticleBaseListERNS_14PxParticleBaseE
tTf:_DateTimeFormatInfo_GetInstance_m3133223810
GTg:_ModulusRing_BarrettReduction_m2802101099
bfd:__ZN5physx2Sc9ClothCore23setSelfCollisionIndicesEPKjj
ZQa:__ZN12HandlerChain4OpenER13FileEntryData14FilePermission16FileAutoBehavior
ZIk:_EqualityComparer_1_get_Default_m2134906921_gshared
Pfi:_MonoMethodInfo_GetParametersInfo_m3456861922
o8k:__ZN15dense_hashtableINSt3__24pairIK10KeyWrapperINS1_IPK10MethodInfoP11Il2CppClassEEEjEES9_17ReflectionMapHashIS8_EN14dense_hash_mapIS9_jSD_NS9_14EqualsComparerINS0_8equal_toIS8_EEEENS0_9allocatorISB_EEE9SelectKeyESI_SK_E6insertERKSB_
hAc:__ZN27PerformanceReportingManager29OnSceneLoadedAfterAwakeStaticEPS_iR18AwakeFromLoadQueueN19RuntimeSceneManager11LoadingModeE
Wra:__ZN18AssetBundleManager55CollectPreloadObjectsFromAssetBundleLoadAssetOperationsER13dynamic_arrayIiLj4EE
n5:__ZN14FileCacherReadD2Ev
Lwa:__ZN13RendererScene23UpdatePreviousFrameDataEii
LIe:_RSAPKCS1SignatureDeformatter_VerifySignature_m1825067195
ZOk:__ZL25UnresolvedVirtualCall_123P12Il2CppObjectffPK10MethodInfo
Hfc:__Z50Register_UnityEngine_CullingGroup_FinalizerFailurev
Ulg:_KeyValuePair_2_ToString_m2613351884_gshared
Nmb:__ZN14SafeBinaryRead21TransferSTLStyleArrayI10vector_mapI7Hash128iNSt3__24lessIS2_EE13stl_allocatorINS3_4pairIS2_iEEL18MemLabelIdentifier80ELi16EEEEEvRT_17TransferMetaFlags
Era:__ZN27UnloadUnusedAssetsOperationD0Ev
Njb:__ZN6Camera15ThreadedCleanupEv
hy:__ZN26AnimatorControllerPlayable6MemoryD2Ev
Rdj:__ZL69ColorBlock_t2652774230_CustomAttributesCacheGenerator_m_DisabledColorP21CustomAttributesCache
HXg:_CipherSuite_get_Code_m3902213587
WSj:_Scrollbar__ctor_m2244981801
vil:__ZN6il2cpp6icalls8mscorlib6System2IO6MonoIO9GetLengthE12Il2CppIntPtrPi
Nlh:_ObjectRecord_get_HasPendingFixups_m670959802
jDd:__ZN5physx10PxsCCDPair12updateShapesEv
nJe:_SHA256Managed_HashCore_m4111458495
ZBf:_CultureInfo_get_CompareInfo_m3085280862
XCi:__ZL55Dictionary_2_t2276497324_CustomAttributesCacheGeneratorP21CustomAttributesCache
Ksb:__ZN15StaticBatchInfo8TransferI14SafeBinaryReadEEvRT_
d$j:_DllImportAttribute__ctor_m1165454237
Llh:_ObjectManager_RecordDelayedFixup_m1895730844
Hjl:__ZNK15dense_hashtableINSt3__24pairIK10KeyWrapperIP14Il2CppIUnknownEjEES5_N6il2cpp5utils11PointerHashIS3_EEN14dense_hash_mapIS5_jSB_NS5_14EqualsComparerINS0_8equal_toIS4_EEEENS0_9allocatorIS7_EEE9SelectKeyESG_SI_E12test_deletedERK24dense_hashtable_iteratorIS7_S5_SB_SK_SG_SI_E
uwg:_List_1_System_Collections_IList_get_IsFixedSize_m3522184224_gshared
CJ:__ZN9AudioClip23VirtualRedirectTransferER18StreamedBinaryReadILb0EE
_Zg:_ClientSessionInfo_CheckDisposed_m1394638186
Lnh:_SByte_Parse_m2544167007
tUa:__ZNSt3__26vectorIPN9ShaderLab9SubShaderENS_9allocatorIS3_EEE21__push_back_slow_pathIKS3_EEvRT_
Mxf:_StackFrame_GetILOffset_m115192054
Bfd:__ZN5physx2Sc9ClothCore22removeCollisionCapsuleEj
_mh:_RuntimeTypeHandle_GetHashCode_m3697629454_AdjustorThunk
rcg:_BigInteger__ctor_m2945783161
K$g:_TlsClientHello_Update_m1723542631
lJi:__ZL96ProxyAttribute_t4031752430_CustomAttributesCacheGenerator_ProxyAttribute_IsContextOK_m2391079277P21CustomAttributesCache
PXf:_IndexOutOfRangeException__ctor_m3497760912
Q1h:__Z60RuntimeInvoker_Void_t1841601450_AnimatorClipInfo_t3905751349PFvvEPK10MethodInfoPvPS4_
aWc:__ZN5physx16PxsIslandManager25setArticulationLinkHandleEjPvRKNS_20PxsIslandManagerHookIjLj4294967295EEE
mQg:_ReadOnlyCollection_1_CopyTo_m1652036789_gshared
hk:_glCopyTexSubImage2D
Jih:_RealProxy_InternalGetTransparentProxy_m3415358600
y3b:__ZNK24RendererAnimationBinding13GetFloatValueERKN11UnityEngine9Animation10BoundCurveE
ZW:__ZNK15DownloadHandler14HasPendingDataEv
wRl:_glActiveTexture__wrapper
UDg:_Collection_1_Insert_m3594407958_gshared
dDk:_Predicate_1_Invoke_m3001657933_gshared
pda:__ZN18ScreenManagerWebGL13SetShowCursorEb
qtl:__ZN6il2cpp6icalls8mscorlib6System7Convert24InternalFromBase64StringEP12Il2CppStringb
qKe:_SymmetricAlgorithm_CreateDecryptor_m4240570785
JYj:_Text_get_preferredWidth_m3352156860
kej:__ZL87U3CDelayedDestroyDropdownListU3Ec__Iterator0_t3461999471_CustomAttributesCacheGeneratorP21CustomAttributesCache
l7h:_AssemblyCompanyAttribute__ctor_m1217508649
nue:__ZN2UI13CanvasManager14GetRenderOrderEPKNS_6CanvasE
R3c:__ZN5physx6shdfnd5ArrayIPNS_3Scb5ShapeENS0_15InlineAllocatorILj16ENS0_19ReflectionAllocatorIS4_EEEEE15growAndPushBackERKS4_
pGb:__Z18Transfer_BlittableI14SafeBinaryReadLb0E5RectTIfEEvRK29SerializationCommandArgumentsR31RuntimeSerializationCommandInfo
hDa:__ZN9GfxDevice18InsertCustomMarkerEi
UPg:_ReadOnlyCollection_1_System_Collections_Generic_IListU3CTU3E_RemoveAt_m878653284_gshared
zTf:_DateTimeFormatInfo_GetFormat_m3676195179
_Fa:__ZN14GfxContextGLES14GetFramebufferEv
AVh:__Z92RuntimeInvoker_Void_t1841601450_PlayableHandleU26_t4210769902_RuntimeObject_SByte_t454417549PFvvEPK10MethodInfoPvPS4_
Ioa:__ZN6prcoreL21CreateRemapAnyBlitterE13TextureFormatS0_
HBl:__ZN6il2cpp2os5Event4WaitEjb
dac:__ZN17AnimationCurveTplIfE16StripInvalidKeysEv
BJf:_Array_InternalArray__ICollection_Add_TisKeyValuePair_2_t3716250094_m2381539361_gshared
Cjg:_X509Extension_WriteLine_m2850991173
gte:__ZNK2UI6Canvas17GetSortingLayerIDEv
SZb:__ZL12HashLen0to16PKcj
h4k:_il2cpp_method_has_attribute
X5b:__Z13RegisterClassI17GlobalGameManagerEvv
n6a:__ZN8Renderer24SetupNewRendererForSceneEv
Rhj:__ZL70GridLayoutGroup_t1515633077_CustomAttributesCacheGenerator_m_StartAxisP21CustomAttributesCache
A4k:_il2cpp_type_get_class_or_element_class
QJ:__ZL16FMOD_ErrorString11FMOD_RESULT_599
aEf:_Array_InternalArray__ICollection_Remove_TisInt64_t909078037_m2653583130_gshared
Msg:_List_1_AddCollection_m2628217188_gshared
Bth:_Thread_get_ExecutionContext_m922067206
Rwc:__Z35Transfer_Blittable_FixedBufferFieldI8JSONReadtEvRK29SerializationCommandArgumentsR31RuntimeSerializationCommandInfo
KZg:_RecordProtocol_get_Context_m2688493529
Ima:__ZN4PPtrI7TextureE8TransferI14SafeBinaryReadEEvRT_
GOd:__ZN5physx2Sc8ClothSim16addCollisionMeshEPKNS0_8ShapeSimE
U6b:__ZN14PlayableOutput6HandleEv
Xtb:__ZNK6Sprite22GetTypeVirtualInternalEv
zUj:_ScrollRect_get_viewport_m3177057249
go:FUNCTION_TABLE_iiiiiiiiiiiiii
PPh:__Z100RuntimeInvoker_Void_t1841601450_SByte_t454417549_SByte_t454417549_Int32_t2071877448_SByte_t454417549PFvvEPK10MethodInfoPvPS4_
JTd:__ZN5physx6shdfnd5ArrayIPKNS_10PxsCCDBodyENS0_19ReflectionAllocatorIS4_EEE8recreateEj
L3c:__ZN5physx6shdfnd4sortINS_2Cm19PreallocatingRegionENS0_4LessIS3_EENS0_19ReflectionAllocatorIS3_EEEEvPT_jRKT0_RKT1_j
GAe:__ZN19UnityConnectService18OnPlayerQuitStaticEPS_
$mb:__ZN11Tetrahedron8TransferI24GenerateTypeTreeTransferEEvRT_
Pie:_UNITY_tt_get_cmap_info
LRe:_DecoderExceptionFallback_GetHashCode_m2972426052
P9a:__ZN16ReflectionProbes8ScheduleEN18ReflectionProbeJob7JobTypeEP15ReflectionProbei
LPf:_Array_swap_TisCustomAttributeTypedArgument_t1498197914_m885124357_gshared
hJg:_Collection_1_IsFixedSize_m3675221982_gshared
TOi:__ZL77Convert_t2607082565_CustomAttributesCacheGenerator_Convert_ToSByte_m883113940P21CustomAttributesCache
Eog:_Enumerator_MoveNext_m3293920409_AdjustorThunk
Lea:__Z18IsDirectoryCreatedRKN4core12basic_stringIcNS_20StringStorageDefaultIcEEEE
kmd:__ZN5physx19NpRigidBodyTemplateINS_14PxRigidDynamicEE20setRigidDynamicFlagsENS_7PxFlagsINS_15PxRigidBodyFlag4EnumEhEE
l2h:__Z68RuntimeInvoker_Void_t1841601450_Int32_t2071877448_Double_t4078015681PFvvEPK10MethodInfoPvPS4_
mse:__ZN2UI13CanvasManagerD2Ev
Fhk:_Comparer_1__cctor_m3112251759_gshared
Dgj:__ZL73ScrollRect_t1199013257_CustomAttributesCacheGenerator_m_VerticalScrollbarP21CustomAttributesCache
S8g:_X509KeyUsageExtension_ToString_m1992050580
Zee:_UNITY_FT_GlyphLoader_Done
Vlk:_BalancingGroup__ctor_m2474435406
b1h:__Z49RuntimeInvoker_Int32_t2071877448_Byte_t3683104436PFvvEPK10MethodInfoPvPS4_
g0j:_ConstructionCall__ctor_m1143766850
Xpi:_GUIStyleState_Init_m2434147050
Ghk:_Comparer_1_System_Collections_IComparer_Compare_m3203078743_gshared
Vkd:__ZN5physx22NpParticleBaseTemplateINS_16PxParticleSystemENS_16NpParticleSystemEE20setMaxMotionDistanceEf
Q_g:_Context_get_RandomSC_m1687420621
swi:_PlayableHandle_IsValid_m1005197654_AdjustorThunk
c6i:__ZL67GUISkin_t1436893342_CustomAttributesCacheGenerator_m_verticalSliderP21CustomAttributesCache
SGd:__ZN5physx18ComputeSortedListsEPNS_2Cm10BitMapBaseINS_6shdfnd9AllocatorEEEjjPKjPPNS_8SapBox1DES7_PjSB_jRKNS_2Gu4AxesESB_RjSB_SG_RbSH_
DG:__ZN17AnimationPlayable8OwnAssetEP11NamedObject
Dje:_tt_cmap14_char_var_index
_Jj:_Camera_INTERNAL_CALL_ScreenPointToRay_m2752248646
RRb:__Z35Transfer_Blittable_FixedBufferFieldI18StreamedBinaryReadILb0EEdEvRK29SerializationCommandArgumentsR31RuntimeSerializationCommandInfo
ale:_psh_globals_new
x2f:_FileStream_Seek_m950719389
fXe:_StandaloneInputModule_set_allowActivationOnMobileDevice_m2631121618
Tpf:_Decimal_stripStyles_m294582157
vFj:_AnimatorControllerPlayable_Play_m614561002
Rza:__ZN9GfxDevice20SetMaxBufferedFramesEi
Zug:_List_1_RemoveAll_m4125997475_gshared
e$h:__Z72RuntimeInvoker_Boolean_t3825574718_TypeU26_t1535498077_Int32_t2071877448PFvvEPK10MethodInfoPvPS4_
UHh:__Z98RuntimeInvoker_Void_t1841601450_Int32_t2071877448_Int32_t2071877448_RuntimeObject_SByte_t454417549PFvvEPK10MethodInfoPvPS4_
iO:__ZN24AudioScriptBufferManagerD2Ev
WHl:dynCall_vdd
Lte:__ZN2UIL17UnloadAllCanvasesEv
_cb:__Z23ConvertIntegerToTypePtrIsEbPvR14SafeBinaryRead
ZHi:__ZL54_MethodBase_t1935530873_CustomAttributesCacheGeneratorP21CustomAttributesCache
VIk:_EqualityComparer_1__ctor_m99476293_gshared
__c:__ZNK5physx14NpArticulation17releaseDriveCacheERNS_24PxArticulationDriveCacheE
STg:_BigInteger_Incr2_m505983313
KIj:_PCMReaderCallback_BeginInvoke_m3119095492
fhf:_ArrayList_get_Count_m523955479
zKh:__Z96RuntimeInvoker_Void_t1841601450_SByte_t454417549_RuntimeObject_SByte_t454417549_SByte_t454417549PFvvEPK10MethodInfoPvPS4_
Bif:_FixedSizeArrayListWrapper_Remove_m1359458911
Qoa:__ZN6prcoreL29inner_stretch_rgb565_bilinearEPKNS_9InnerInfoE
cfd:__ZNK5physx2Sc9ClothCore25getSelfCollisionStiffnessEv
B6k:__ZNK15dense_hashtableINSt3__24pairIK10KeyWrapperINS1_IPK14Il2CppAssemblyP11Il2CppClassEEEjEES9_17ReflectionMapHashIS8_EN14dense_hash_mapIS9_jSD_NS9_14EqualsComparerINS0_8equal_toIS8_EEEENS0_9allocatorISB_EEE9SelectKeyESI_SK_E12test_deletedEj
exj:_EqualityComparer_1_System_Collections_IEqualityComparer_Equals_m3724603646_gshared
_ve:__Z33Canvas_Get_Custom_PropWorldCameraP12Il2CppObject
XXj:_Text_get_mainTexture_m813502234
vBl:__ZN6il2cpp8metadata19Il2CppSignatureHash4HashERKNS_5utils13dynamic_arrayIPK10Il2CppTypeLj4EEE
cZk:__ZNK15dense_hashtableINSt3__24pairIK10KeyWrapperIN6il2cpp5utils13dynamic_arrayIPK10Il2CppTypeLj4EEEEPFvvEEESA_NS3_8metadata19Il2CppSignatureHashEN14dense_hash_mapISA_SD_SG_NSA_14EqualsComparerINSF_22Il2CppSignatureCompareEEENS0_9allocatorISE_EEE9SelectKeyESK_SM_E12test_deletedEj
P2a:__ZNK14RenderSettings19GetFlatAmbientColorEv
Yua:__ZN6prcoreL10inner_flipILj4EEEvPhS1_j
mAb:__ZN18StreamedBinaryReadILb0EE21TransferSTLStyleArrayI10vector_mapIPKN5Unity4TypeE7Hash128NSt3__24lessIS6_EENS8_9allocatorINS8_4pairIS6_S7_EEEEEEEvRT_17TransferMetaFlags
jz:__ZNK27StateMachineBehaviourPlayer15IsSenderEnabledEv
FCj:_AnimatorControllerPlayable_SetInteger_m881630854
GDg:_Collection_1_System_Collections_ICollection_get_IsSynchronized_m1924133708_gshared
S5e:_InputField_get_shouldHideMobileInput_m3694613599
fmc:__Z40Register_UnityEngine_Transform_SetParentv
A2g:_SslClientStream_get_HaveRemoteValidation2Callback_m3555576758
IOh:__Z56RuntimeInvoker_TimeSpan_t3430258949_TimeSpan_t3430258949PFvvEPK10MethodInfoPvPS4_
Qvb:__ZN14Texture2DArray17UploadToGfxDeviceEv
oPg:_ReadOnlyCollection_1_System_Collections_Generic_IListU3CTU3E_Insert_m4216310986_gshared
yLg:_ReadOnlyCollection_1_System_Collections_Generic_IListU3CTU3E_set_Item_m1532495847_gshared
fN:__Z14FMODMemoryFreePvjPKc
_5j:_InternalEnumerator_1_System_Collections_IEnumerator_Reset_m3731327620_AdjustorThunk
Uie:_tt_cmap0_validate
Jcj:__ZL104PointerEventData_t1599784723_CustomAttributesCacheGenerator_PointerEventData_get_worldNormal_m1704987468P21CustomAttributesCache
Iyk:_YieldInstruction_t3462875981_marshal_pinvoke_cleanup
t5e:_Image_AddQuad_m1600600902
tme:_cf2_glyphpath_moveTo
dtk:_SharedBetweenAnimatorsAttribute__ctor_m1221241062
Nwd:__ZN5physx3Scb4Body9syncStateEv
sYe:_AnimationTriggers_set_disabledTrigger_m609579531
EEi:__ZL47File_t1930543328_CustomAttributesCacheGeneratorP21CustomAttributesCache
Guf:_DateTimeOffset__ctor_m1796624924
Zli:_GUILayoutUtility_get_spaceStyle_m1918520192
zJd:__ZN5physx20SingleAABBUpdateTaskD0Ev
i3c:__ZN5physx12PxsRigidBody23updatePoseDependenciesVERNS_10PxsContextE
HTe:_BaseRaycaster_OnDisable_m1716508791
Sv:__ZN7mecanim23TransformValueArrayLoopEiiiRKN4math4trsXES3_RNS_10ValueArrayEf
jck:_InternalEnumerator_1_MoveNext_m1741571735_gshared
nXd:__ZN5physx2Gu12TriangleMesh4loadERNS_13PxInputStreamE
hAi:__ZL82Enum_t2459695545_CustomAttributesCacheGenerator_Enum_GetUnderlyingType_m3513899012P21CustomAttributesCache
vxl:_GC_is_heap_ptr
YGg:_Collection_1_IsValidItem_m429993695_gshared
igl:__GLOBAL__sub_I_Assembly_cpp
j0g:_TlsServerSettings_set_CertificateRequest_m3419519893
ora:__Z21PlayerStartFirstSceneb
uC:__ZN7mecanim5human10RetargetToEPKNS0_5HumanEPKNS0_9HumanPoseES6_RKN4math4trsXEPS4_PNS_8skeleton13SkeletonPoseTIS8_EESF_
Lv:__ZN7mecanim9animation8SeekClipERKNS0_12StreamedClipERNS0_18StreamedClipMemoryEf
oyh:_Type_get_IsGenericParameter_m161434704
Xci:_MethodBuilder_get_Attributes_m3678061338
Om:_emscripten_glIsTexture
asi:_Mathf_Clamp_m3542052159
hif:_ArrayListWrapper_CopyTo_m793444109
fPi:__ZL79Convert_t2607082565_CustomAttributesCacheGenerator_Convert_ToUInt16_m3265369225P21CustomAttributesCache
tl:_emscripten_glHint
j4h:__Z33RuntimeInvoker_Color32_t874517518PFvvEPK10MethodInfoPvPS4_
Hpe:_ft_var_readpackeddeltas
Ztf:_DateTime_AddMilliseconds_m1813199744_AdjustorThunk
rnh:_SByte_System_IConvertible_ToSByte_m108774324_AdjustorThunk
$ci:_MethodBuilder_GetParameterCount_m467267889
Kjc:__Z65PlayableOutputHandle_CUSTOM_INTERNAL_CALL_GetPlayableOutputTypeOfR15HPlayableOutput
QOb:__Z35Transfer_Blittable_FixedBufferFieldI18StreamedBinaryReadILb1EEtEvRK29SerializationCommandArgumentsR31RuntimeSerializationCommandInfo
ozj:_AnimationEvent_set_intParameter_m1174062029
mlf:_Hashtable_get_IsSynchronized_m836780937
gch:_X509ChainStatus_t4278378721_marshal_pinvoke
zWg:_RSAManaged__ctor_m1680944437
Rm:_SDL_UpperBlit
qTd:__ZN5physx2Cm12DelegateTaskINS_2Sc5SceneEXadL_ZNS3_13ccdBroadPhaseEPNS_10PxBaseTaskEEEED0Ev
$oi:_GUIStyle_op_Implicit_m781448948
v3a:__Z35GetTextureDecodeValuesWithIntensity16TextureUsageMode17TextureColorSpace10ColorSpacef
lff:_Byte_GetHashCode_m2885528842_AdjustorThunk
Sad:__ZNK5physx7NpShape16getContactOffsetEv
NId:__ZN5physx14PxsAABBManager21processAggregatePairsEPKNS_19AggregateSortedDataE
Bqj:_Dictionary_2_OnDeserialization_m2092139626_gshared
T7d:_PxCreateCooking
FDb:__ZN14SafeBinaryRead20OverrideRootTypeNameEPKc
PTk:__ZNK10KeyWrapperIPK22Il2CppGenericParameterE14EqualsComparerINSt3__28equal_toIS2_EEEclERKS3_SA_
r5:__ZN14FileCacherRead16UnlockCacheBlockEj
oBh:_UIntPtr_get_Size_m537421489
Gig:_X509Certificate_GetUnsignedBigInteger_m3491353542
Sce:__ZNSt3__26vectorIN4core12basic_stringIcNS1_20StringStorageDefaultIcEEEE13stl_allocatorIS5_L18MemLabelIdentifier34ELi16EEE6assignINS_11__wrap_iterIPS5_EEEENS_9enable_ifIXaasr21__is_forward_iteratorIT_EE5valuesr16is_constructibleIS5_NS_15iterator_traitsISF_E9referenceEEE5valueEvE4typeESF_SF_
u5i:__ZL90Event_t3028476042_CustomAttributesCacheGenerator_Event_Internal_GetMousePosition_m38523489P21CustomAttributesCache
e6c:__ZNK5physx12NpBatchQuery23getFilterShaderDataSizeEv
gJb:__Z18Transfer_BlittableI17RemapPPtrTransferLb1E8Vector3fEvRK29SerializationCommandArgumentsR31RuntimeSerializationCommandInfo
AFi:__ZL57StackBehaviour_t1390406961_CustomAttributesCacheGeneratorP21CustomAttributesCache
RHl:dynCall_iifii
rd:_emscripten_glUniform1f
X5d:__ZN5physx7profile11EventBufferINS_24PxDefaultContextProviderENS_6shdfnd6MutexTINS0_26WrapperReflectionAllocatorIhEEEENS0_14ScopedLockImplIS7_EENS_24PxProfileNullEventFilterEE10doAddEventINS0_17RelativeStopEventEEEvhtRKT_
yfe:__Z20ParseImageParametersR11UTF16StringRiRN20TextRenderingPrivate16TextFormatChangeE
wd:_emscripten_glUniform1i
Gak:_InternalEnumerator_1_System_Collections_IEnumerator_Reset_m651165750_AdjustorThunk
xDb:__ZN13MonoBehaviour9CallAwakeEv
$6:__Z33UnregisterDeviceEventCallbackImplPFv23UnityGfxDeviceEventTypeE
rSd:__ZN5physx2Sc19ShapeInstancePairLL23postIslandGenSecondPassEv
TEj:_AnimatorControllerPlayable_CrossFade_m3391147919
y2d:__ZN14PhysicsManager23VirtualRedirectTransferER19StreamedBinaryWriteILb0EE
GVb:__ZN9ShaderLab16SerializedTagMapaSERKS0_
xFf:_SetPropertyUtility_SetStruct_TisFillMethod_t1640962579_m1867757822_gshared
tV:__ZN11UnityEngine15CloudWebService16SessionContainer20RestoreSessionHeaderERKN4core12basic_stringIcNS2_20StringStorageDefaultIcEEEES8_RNS0_13SessionHeaderE
b7d:__ZN5physx26PxPhysicsInsertionCallbackD2Ev
kEe:__ZN22UnityWebRequestManager13BackendRetainEv
cdc:__ZN8Material28ApplyMaterialPropertyDrawersEv
aCd:__ZN5physx2Sq16BucketPrunerCore12updateObjectERKNS_9PxBounds3ERKNS0_13PrunerPayloadE
ERd:__ZN5physx18PxsDynamicsContext23atomIntegrationParallelEfPKPNS_11PxsBodyCoreEPKPNS_12PxsRigidBodyEjPKNS_2Cm13SpatialVectorEPNS_13PxcSolverBodyEPNS_17PxcSolverBodyDataEPSA_RjSI_RNS_10PxBaseTaskE
L4h:__Z63RuntimeInvoker_KeyValuePair_2_t888819835_IntPtr_t_RuntimeObjectPFvvEPK10MethodInfoPvPS4_
CD:__ZN11UnityEngine9Animation27CreateAvatarBindingConstantER9TransformPKN7mecanim9animation14AvatarConstantERNS3_6memory9AllocatorE
kCb:__ZN14SafeBinaryRead21TransferSTLStyleArrayINSt3__26vectorIN30RuntimeInitializeOnLoadManager9ClassInfoE13stl_allocatorIS4_L18MemLabelIdentifier12ELi16EEEEEEvRT_17TransferMetaFlags
ZBh:_UnitySerializationHolder_GetObjectData_m2280028722
zAh:_UInt64_System_IConvertible_ToDateTime_m2412118561
Rcc:__ZN9BlobWriteC2ER13dynamic_arrayIhLj16EE24TransferInstructionFlags19BuildTargetPlatform
I3:__ZN14MessageHandler3GetEv
tni:_GUISkin_set_verticalScrollbarThumb_m2647835739
Kd:_emscripten_glAttachShader
fOg:_ReadOnlyCollection_1__ctor_m1539890895_gshared
Qza:__ZN9GfxDevice13SetActiveTierE12GraphicsTier
ong:_Enumerator_System_Collections_IEnumerator_get_Current_m3079057684_AdjustorThunk
oEf:_Array_InternalArray__ICollection_Remove_TisSingle_t2076509932_m2568053761_gshared
Wyb:__ZNSt3__26vectorIN4core12basic_stringIcNS1_20StringStorageDefaultIcEEEENS_9allocatorIS5_EEE6assignIPS5_EENS_9enable_ifIXaasr21__is_forward_iteratorIT_EE5valuesr16is_constructibleIS5_NS_15iterator_traitsISC_E9referenceEEE5valueEvE4typeESC_SC_
wfg:_KeyPairPersistence_get_UserPath_m3433052783
gLc:__ZN5physx2Gu19GetRaycastFuncTableEv
_be:__Z49Register_UnityEngine_MeshCollider_get_inflateMeshv
q5h:__Z36RuntimeInvoker_Enumerator_t975728254PFvvEPK10MethodInfoPvPS4_
vzi:__ZL58Decimal_t724701077_CustomAttributesCacheGenerator_MinusOneP21CustomAttributesCache
CGf:_Array_InternalArray__IEnumerable_GetEnumerator_TisKeyframe_t1449471340_m3949799719_gshared
_Fb:__Z18Transfer_BlittableI14SafeBinaryReadLb0E11QuaternionfEvRK29SerializationCommandArgumentsR31RuntimeSerializationCommandInfo
ohk:_Comparer_1__ctor_m3855093372_gshared
jSd:__ZN5physx17EdgeChangeManager23cleanupBrokenEdgeEventsEPKNS_4EdgeE
zRb:__Z18Transfer_BlittableI18StreamedBinaryReadILb0EELb1E12PropertyNameEvRK29SerializationCommandArgumentsR31RuntimeSerializationCommandInfo
qYi:__ZL99MonoBehaviour_t1158329972_CustomAttributesCacheGenerator_MonoBehaviour_set_useGUILayout_m2666356651P21CustomAttributesCache
O6e:_InputField_get_inputType_m2187991661
o_:_tlsf_walk_heap
eig:_PKCS12_Decode_m731190390
Rel:__ZNK15dense_hashtableINSt3__24pairIK10KeyWrapperIP11Il2CppClassES4_EES5_N6il2cpp8metadata16SZArrayClassHashEN14dense_hash_mapIS5_S4_SA_NS5_14EqualsComparerINS9_19SZArrayClassCompareEEENS0_9allocatorIS7_EEE9SelectKeyESE_SG_E10test_emptyERK24dense_hashtable_iteratorIS7_S5_SA_SI_SE_SG_E
D2k:__ZN6il2cpp2vm7Runtime6InvokeEPK10MethodInfoPvPS5_PP15Il2CppException
gsi:_Mathf_DeltaAngle_m1024687732
Ulk:_Reference_get_IgnoreCase_m2810892634
kCh:_Version_CheckedSet_m76493673
Bb:invoke_vif
U8i:__ZL99SendMouseEvents_t3505065032_CustomAttributesCacheGenerator_SendMouseEvents_SetMouseMoved_m532965689P21CustomAttributesCache
Cb:invoke_vid
PFl:__ZNSt3__212basic_stringIcNS_11char_traitsIcEENS_9allocatorIcEEE6insertEjPKc
iMi:__ZL67UnverifiableCodeAttribute_t765455733_CustomAttributesCacheGeneratorP21CustomAttributesCache
Eb:invoke_vii
nVi:__ZL86Component_t3819376471_CustomAttributesCacheGenerator_Component_SendMessage_m3615678587P21CustomAttributesCache
evd:__ZN5physx13NpVolumeCacheD2Ev
Ggj:__ZL82ScrollRect_t1199013257_CustomAttributesCacheGenerator_m_HorizontalScrollbarSpacingP21CustomAttributesCache
rYf:_Int16_System_IConvertible_ToUInt32_m883204517_AdjustorThunk
WQk:__ZL25UnresolvedVirtualCall_228P12Il2CppObjecti22UICharInfo_t3056636800PK10MethodInfo
lfb:__ZN12TLSAllocatorI14StackAllocatorE16ThreadInitializeEP13BaseAllocator
Fhf:_ArrayList_Sort_m2778059513
K$e:_FloatTween_TweenValue_m3881535116_AdjustorThunk
g9i:__ZL107StackTraceUtility_t1881293839_CustomAttributesCacheGenerator_StackTraceUtility_SetProjectFolder_m2154926761P21CustomAttributesCache
ePd:__ZThn8_N5physx2Sc35ParticleElementRbElementInteraction12onDeactivateEj
k4e:_LayoutGroup_SetChildAlongAxis_m2732017156
fve:__Z41CanvasRenderer_CUSTOM_DisableRectClippingP12Il2CppObject
qVg:_MD2_Create_m539024737
Lmf:_SortedList_get_SyncRoot_m3299704254
XEd:__ZN5physx16PxsThreadContextC2EPNS_10PxsContextE
lnf:_Slot_t2267560602_marshal_pinvoke
Vul:_GC_allochblk
RQh:__Z112RuntimeInvoker_Void_t1841601450_RuntimeObject_Int32_t2071877448_Int32_t2071877448_RuntimeObject_SByte_t454417549PFvvEPK10MethodInfoPvPS4_
thh:_SoapAttribute_get_XmlNamespace_m1436066016
MQa:__ZN25SingleBlockMemoryFileDataD0Ev
jhb:__ZNSt3__26vectorI14ConstantStringNS_9allocatorIS1_EEE6assignINS_11__wrap_iterIPS1_EEEENS_9enable_ifIXaasr21__is_forward_iteratorIT_EE5valuesr16is_constructibleIS1_NS_15iterator_traitsISA_E9referenceEEE5valueEvE4typeESA_SA_
zBc:__ZN5physx3Cct10Controller4moveERNS0_11SweptVolumeERKNS_6PxVec3EffRKNS_19PxControllerFiltersEPKNS_17PxObstacleContextEb
oV:__ZN11UnityEngine15CloudWebService16SessionContainer21ConvertFromFolderTimeERKN4core12basic_stringIcNS2_20StringStorageDefaultIcEEEEPjPt
xmd:__ZN5physx14NpRigidDynamic17setAngularDampingEf
uHb:__ZNSt3__26vectorI8GUIStyle13stl_allocatorIS1_L18MemLabelIdentifier1ELi16EEE7reserveEj
egl:__ZN6il2cpp6icalls8mscorlib6System9Threading6Thread27GetSerializedCurrentCultureEP12Il2CppThread
odk:_InternalEnumerator_1_Dispose_m3765482968_AdjustorThunk
MIf:_Array_InternalArray__IndexOf_TisUInt32_t2149682021_m3231515987_gshared
O7j:_InternalEnumerator_1_MoveNext_m1667794624_AdjustorThunk
p1b:__Z31CalculateHierarchyTransformType23TransformAccessReadOnly
L$b:__Z13RegisterClassI11TimeManagerEvv
XM:__ZN4FMOD8ChannelI11setPositionEjj
gMh:__Z43RuntimeInvoker_Boolean_t3825574718_IntPtr_tPFvvEPK10MethodInfoPvPS4_
qJh:__Z136RuntimeInvoker_IntPtr_t_RuntimeObject_Int32_t2071877448_Int32_t2071877448_Int32_t2071877448_Int32_t2071877448_MonoIOErrorU26_t1029615899PFvvEPK10MethodInfoPvPS4_
Hng:_Enumerator_VerifyState_m4188527104_gshared
vhj:__ZL75ToggleGroup_t1030026315_CustomAttributesCacheGenerator_U3CU3Ef__amU24cache1P21CustomAttributesCache
IXc:__ZN5physx6shdfnd8PoolBaseINS_2Sc12SimStateDataENS0_19ReflectionAllocatorIS3_EEE17releaseEmptySlabsEv
gba:__ZN17BaseObjectManager13StaticDestroyEPv
ouk:_TextGenerationSettings_CompareVector2_m592645251
h9i:__ZL108StackTraceUtility_t1881293839_CustomAttributesCacheGenerator_StackTraceUtility_ExtractStackTrace_m1593581205P21CustomAttributesCache
hvf:_DBNull_System_IConvertible_ToChar_m3344298044
hXh:__Z65RuntimeInvoker_Boolean_t3825574718_RuntimeObject_Int64_t909078037PFvvEPK10MethodInfoPvPS4_
oFc:__ZN5physx2Gu22closestPtPointTriangleEPNS_6shdfnd3aos5Vec3VES4_S4_Rj
rjg:_X509Certificate_GetObjectData_m3888130484
GBb:__ZNSt3__26vectorIN15ResourceManager10DependencyE13stl_allocatorIS2_L18MemLabelIdentifier51ELi16EEEC2INS_11__wrap_iterIPS2_EEEET_SB_RKS5_PNS_9enable_ifIXaasr21__is_forward_iteratorISB_EE5valuesr16is_constructibleIS2_NS_15iterator_traitsISB_E9referenceEEE5valueEvE4typeE
D5c:__ZN5physx2Cm8PtrTableC2Ev
pOj:_CustomYieldInstruction_Reset_m3409422382
rik:_LinkStack_Push_m2660199875
RL:__ZN4FMOD6Reverb13setPropertiesEPK22FMOD_REVERB_PROPERTIES
qhd:__ZNK5physx22NpParticleBaseTemplateINS_15PxParticleFluidENS_15NpParticleFluidEE14getRestitutionEv
UZa:__ZN9DepthPass13PrepareSubsetEjRK10RenderNodeifRK17ShaderReplaceData
fId:__ZN5physx16PxsBroadPhaseMBP6updateEjjRKNS_23PxcBroadPhaseUpdateDataEPNS_10PxBaseTaskE
r9c:__ZN5physx9NpPhysics18createRigidDynamicERKNS_11PxTransformE
xSc:__ZN5physx6shdfnd5ArrayIPvNS0_19ReflectionAllocatorINS_2Sc18TriggerInteractionEEEE15growAndPushBackERKS2_
Czk:_X509CertificateCollection_Add_m4008705157
Lgh:_MonoMethodMessage_set_Uri_m3218581120
G8b:__Z35SetMeshComponentFromArrayFromScriptR4Mesh30InternalScriptingShaderChannel34InternalScriptingVertexChannelTypei17ScriptingArrayPtri
_Pg:_ReadOnlyCollection_1_System_Collections_IList_Add_m3806843030_gshared
tna:__ZN4PPtrI6ShaderE8TransferI19StreamedBinaryWriteILb0EEEEvRT_
pGg:_Collection_1_IsFixedSize_m1816795498_gshared
IIc:__ZN5physx2Gu17intersectRayAABB2ERKNS_6shdfnd3aos5Vec3VES5_S5_S5_RKNS2_6FloatVERS6_S9_
Gr:__ZN4core20StringStorageDefaultIcE6assignEPKcj
zad:__ZNK5physx7NpShape17getSphereGeometryERNS_16PxSphereGeometryE
KKc:__ZL18intersectAnyVsMeshILi1EEbPKN5physx2Gu6SphereEPKNS1_7CapsuleEPKNS1_3BoxERKNS1_13RTreeMidphaseERKNS0_11PxTransformERKNS0_11PxMeshScaleEP14LimitedResults
Lml:__ZN15dense_hashtableINSt3__24pairIK10KeyWrapperIP12Il2CppObjectEN6il2cpp2gc9CachedCCWEEES5_NS7_5utils11PointerHashIS3_EEN14dense_hash_mapIS5_S9_SD_NS5_14EqualsComparerINS0_8equal_toIS4_EEEENS0_9allocatorISA_EEE9SelectKeyESI_SK_E3endEv
nCb:__Z14resize_trimmedINSt3__26vectorIi13stl_allocatorIiL18MemLabelIdentifier12ELi16EEEEEvRT_j
RWe:_MouseButtonEventData_ReleasedThisFrame_m482758300
wdl:__ZN15dense_hashtableINSt3__24pairIK10KeyWrapperINS1_IP11Il2CppClassjEEES4_EES6_N6il2cpp8metadata14ArrayClassHashEN14dense_hash_mapIS6_S4_SB_NS6_14EqualsComparerINSA_17ArrayClassCompareEEENS0_9allocatorIS8_EEE9SelectKeyESF_SH_E9copy_fromERKSK_j
QVc:__ZN5physx6shdfnd5ArrayIPvNS0_15InlineAllocatorILj256ENS0_19ReflectionAllocatorINS_2Cm5BlockIhLj128EEEEEEEE15growAndPushBackERKS2_
Gif:_ReadOnlyArrayListWrapper_set_Item_m2199017141
D7a:__ZN6Camera6SetFarEf
xzk:_DeriveBytes_DeriveIV_m3343375195
gLe:_X509Certificate_ToString_m1582581274
ZHe:_RNGCryptoServiceProvider_GetBytes_m167497991
ypa:__ZN6prcoreL12RemapGenericI17TexFormatABGR888817TexFormatARGB8888EEvPKNS_9InnerInfoE
Ihb:__ZN11GameManager17MainThreadCleanupEv
wHg:_Collection_1_GetEnumerator_m1417525918_gshared
Mwe:__Z50Register_UnityEngine_UISystemProfilerApi_EndSamplev
_Sh:__Z60RuntimeInvoker_Boolean_t3825574718_PlayableOutput_t988259697PFvvEPK10MethodInfoPvPS4_
wai:_TypeBuilder_get_Assembly_m492491492
jIg:_Collection_1_InsertItem_m1225429801_gshared
QXg:_CipherSuite_set_Context_m4127897124
bdd:__ZNK5physx7NpCloth24getParticleAccelerationsEPNS_6PxVec4E
uoe:_UNITY_tt_slot_init
TTa:__ZZ23InitPlayerLoopCallbacksvEN41PostLateUpdateUpdateResolutionRegistrator7ForwardEv
XFe:_HMACSHA512__cctor_m1167457383
QSb:__Z25scripting_array_class_get17ScriptingClassPtrj
cvc:__ZL22Transfer_ManagedObjectI9JSONWriteLb1EEvRK29SerializationCommandArgumentsR31RuntimeSerializationCommandInfo
kJ:__ZNK10SampleClip22GetTypeVirtualInternalEv
lBa:__ZN9GfxDevice20DestroyRenderSurfaceER12ObjectHandleI17RenderSurface_TagP17RenderSurfaceBaseE
Xba:__ZN18SpriteAtlasManagerC2Ev
BOa:__ZN9GfxDevice22UpdateComputeResourcesEjPK9TextureIDPK16TextureDimensionPKijPKjjPK15ComputeBufferIDS7_PK20ComputeBufferCounterjSC_S2_S5_S9_SF_
F5b:__ZN12_GLOBAL__N_15qAsinEff
hQf:_Dictionary_2_Do_ICollectionCopyTo_TisKeyValuePair_2_t3749587448_m2536766696_gshared
mfb:__ZN12TLSAllocatorI14StackAllocatorE13ThreadCleanupEv
iQ:__Z18GetAudioManagerPtrv
OHf:_Array_IndexOf_TisRuntimeObject_m1815604637_gshared
fqg:_List_1_GetEnumerator_m2837081829_gshared
$sl:__ZThn4_N6il2cpp2vm13ComObjectBase16MarshalInterfaceEP13Il2CppIStreamRK10Il2CppGuidPvjS7_j
Dwb:__ZN4Mesh27SwizzleVertexColorsIfNeededEb
Ufb:__Z27FindActiveTransformWithPathPKc
PKj:_CanvasGroup_get_alpha_m1304564441
Sqd:__ZN5physx16PxsIslandManager14setEdgeRigidCMERKNS_20PxsIslandManagerHookIjLj4294967295EEEPNS_17PxsContactManagerE
Mib:__ZN12BaseRendererD0Ev
Rcb:__Z29StdTemplateConversionFunctionIbyEbPvR14SafeBinaryRead
bia:__ZN7Texture5ResetEv
TGj:_AsyncOperation_Finalize_m67522446
L_c:__ZN5physx14NpArticulation25setStabilizationThresholdEf
Ljg:_SecurityParser_OnEndElement_m2909940377
GWd:__ZN5physx2Gu11HeightField7releaseEv
Q$a:__ZNK6Camera7GetNearEv
qJa:__ZN7ApiGLES11UnmapBufferEjN2gl12BufferTargetE
ktl:__ZN6il2cpp5utilsL24Utf32CharToSurrogatePairEjRA2_Ds
uqb:__Z25GetNextAllowedTextureSizeib13TextureFormat
rea:__ZN20LocalFileSystemWebGL4CopyER13FileEntryDataS1_
Svg:_List_1_CheckIndex_m4231572822_gshared
PX:__ZN19CloudServiceHandler6RetainEv
kBl:__ZN6il2cpp2os9Semaphore4WaitEb
LMe:_StrongName_Equals_m67226644
$ib:__ZN12BaseRenderer20FlattenToRenderQueueER15RenderNodeQueueRK20DeprecatedSourceData
ybi:_FieldBuilder_get_Attributes_m2174064290
HOd:__ZN5physx2Sc8ClothSim23addCollisionHeightfieldEPKNS0_8ShapeSimE
i6f:_UnmanagedMemoryStream_get_Length_m587008850
dsa:__Z34scripting_liveness_calculation_endPv
Pol:__ZN6il2cpp2os6ThreadC2Ev
ANe:_SecurityFrame_InitFromRuntimeFrame_m45195821
ZEi:__ZL53TextReader_t1561828458_CustomAttributesCacheGeneratorP21CustomAttributesCache
WSf:_Component_GetComponentsInChildren_TisRuntimeObject_m1923109161_gshared
gv:__ZN21AnimationClipPlayable22ProcessAnimationNoClipEPK35AnimationPlayableEvaluationConstantPK32AnimationPlayableEvaluationInputP33AnimationPlayableEvaluationOutput
Gol:__ZNK6il2cpp2os10SocketImpl12GetLastErrorEv
XDf:_Array_InternalArray__ICollection_Remove_TisDateTime_t693205669_m1275668216_gshared
Drj:_Dictionary_2__ctor_m871840915_gshared
Dqe:__ZNK19TextRenderingModule8TMGenGetERK11UTF16StringPN13TextRendering4FontE10TextAnchor13TextAlignmentfffbb11ColorRGBA32fii
zwc:__Z18Transfer_BlittableI8JSONReadLb0E8Vector3fEvRK29SerializationCommandArgumentsR31RuntimeSerializationCommandInfo
B0j:_ChannelServices__cctor_m3534779830
Zel:__ZN6il2cpp2vm6Thread6DetachEP12Il2CppThread
kke:_Render_Single_Pass
Lqf:_Convert_ToInt16_m416789348
p2c:__ZNK5physx18NpArticulationLink13isSubordinateEv
PNk:__ZL24UnresolvedVirtualCall_59P12Il2CppObjectS0_aPK10MethodInfo
XJk:_EqualityComparer_1__cctor_m2666196678_gshared
Fsk:_MovedFromAttribute__ctor_m1535041828
Ytk:_StateMachineBehaviour_OnStateIK_m3200380538
o3k:_il2cpp_class_get_name
pkj:_Enumerator_get_CurrentValue_m3147984131_AdjustorThunk
bli:_GUIStyle_Init_m3872198731
ID:__ZN7mecanim8skeleton30SkeletonBuildReverseIndexArrayEPiPKiPKNS0_8SkeletonES6_
Snc:__Z19GetGUIBlendMaterialv
JVh:__Z69RuntimeInvoker_Boolean_t3825574718_TextGenerationSettings_t2543476768PFvvEPK10MethodInfoPvPS4_
Bpl:__ZN6il2cpp2os10ThreadImpl5SleepEjb
Qfk:_InternalEnumerator_1_System_Collections_IEnumerator_Reset_m3669601605_AdjustorThunk
tHd:__ZN5physx14SapPairManager12shrinkMemoryEv
WBk:_X509ExtensionCollection_System_Collections_IEnumerable_GetEnumerator_m2600902401
nvc:__ZN9JSONWrite8TransferI13GUIStyleStateEEvRT_PKc17TransferMetaFlags
U_d:__ZN5physx6shdfnd8internal7median3IjKNS_19SortBoundsPredicateEEEvPT_iiRT0_
Ixj:_EqualityComparer_1_System_Collections_IEqualityComparer_Equals_m2389655864_gshared
fRf:_PlayableExtensions_SetInputCount_TisPlayable_t1896841784_m86933189_gshared
Isj:_Dictionary_2_System_Collections_Generic_IEnumerableU3CSystem_Collections_Generic_KeyValuePairU3CTKeyU2CTValueU3EU3E_GetEnumerator_m3968773920_gshared
O4g:_ListDictionary_FindEntry_m432748847
eOl:_glBindSampler__wrapper
wEk:_UnityAction_1_Invoke_m3523417209_gshared
qg:_emscripten_set_mouseup_callback
PTb:__Z14resize_trimmedINSt3__26vectorIN9ShaderLab14SerializedPassENS0_9allocatorIS3_EEEEEvRT_j
qOa:__ZN9GfxDevice27SetRandomWriteTargetTextureEi9TextureID
pMj:_Collision_get_gameObject_m1370363400
HZh:__Z58RuntimeInvoker_Boolean_t3825574718_SpriteState_t1353336012PFvvEPK10MethodInfoPvPS4_
Etd:__ZN5physx7NpScene22removeBroadPhaseRegionEj
GBa:__ZN9GfxDevice47SwitchColorRenderSurfaceOutOfFastMemoryPlatformEP17RenderSurfaceBaseb
QSc:__ZL34GeomOverlapCallback_CapsuleCapsuleRKN5physx10PxGeometryERKNS_11PxTransformES2_S5_PNS_2Gu12TriggerCacheE
Ada:__ZNK18ScreenManagerWebGL8GetWidthEv
Msd:__ZNK5physx7NpScene23getFilterShaderDataSizeEv
jIl:dynCall_iiifii
x$k:__ZN6il2cpp2vm13MetadataCache33GetFieldDefaultValueDataFromIndexEi
T3e:_GridLayoutGroup_set_startAxis_m1635162426
hJ:__ZN10SampleClipD2Ev
h3j:_SynchronizationAttribute_EnterContext_m2984912761
sAi:__ZL73Enum_t2459695545_CustomAttributesCacheGenerator_Enum_ToObject_m2601523252P21CustomAttributesCache
jCf:_CultureInfo_construct_internal_locale_from_name_m971766383
Apl:__ZN6il2cpp2os10ThreadImpl13SetWaitObjectEPNS0_5posix15PosixWaitObjectE
nff:_Byte_Equals_m368616327_AdjustorThunk
rKf:_Array_InternalArray__ICollection_Add_TisUIVertex_t1204258818_m3869382594_gshared
zX:__ZN11UnityEngine15CloudWebService20WebRequestRestClientC2Ev
Qne:_cff_cmap_unicode_init
bXa:__ZNSt3__224__buffered_inplace_mergeIRN10vector_mapIiN17InstancedPropInfo12PropertyTypeENS_4lessIiEE13stl_allocatorINS_4pairIiS3_EEL18MemLabelIdentifier1ELi16EEE13value_compareENS_11__wrap_iterIPS8_EEEEvT0_SH_SH_T_NS_15iterator_traitsISH_E15difference_typeESL_PNSK_10value_typeE
d8i:__ZL95CustomEventData_t1269126727_CustomAttributesCacheGenerator_CustomEventData_AddInt64_m1803231272P21CustomAttributesCache
Bzf:_Enum_ToObject_m2460371738
odg:_PrimalityTests_Test_m1088386156
u5:__ZN14FileCacherRead13GetFileLengthEv
Rpc:__Z36Event_CUSTOM_Internal_SetNativeEvent13Il2Cpp_IntPtr
pEl:_readlink
Okk:_ExpressionAssertion__ctor_m2408911632
HOf:_Array_Resize_TisVector3_t2243707580_m893658391_gshared
d8j:_InternalEnumerator_1_System_Collections_IEnumerator_get_Current_m4259662004_AdjustorThunk
kSf:_Array_InternalArray__get_Item_TisKeyframe_t1449471340_m1003508933_gshared
izl:__ZN6il2cpp8metadata14Il2CppTypeHash4HashEPK10Il2CppType
EMk:_Seek_And_Flee_Start_m3158482586
IMh:__Z50RuntimeInvoker_Double_t4078015681_Int64_t909078037PFvvEPK10MethodInfoPvPS4_
_hg:_StrongName_get_PublicKeyToken_m1968460885
Myb:__ZNK6Sprite9GetBoundsE8Vector2fbb
JVa:__ZNK19RenderEventsContext21CleanupCommandBuffersEv
sQk:__ZL25UnresolvedVirtualCall_198P12Il2CppObject6Guid_tS1_PK10MethodInfo
xEa:__ZN11ContextGLES6CreateEi
iKc:__ZN5physx6shdfnd5ArrayINS_10PxTriangleENS0_19ReflectionAllocatorIS2_EEE15growAndPushBackERKS2_
O$f:_BinaryReader_Dispose_m4249456877
_Uh:__Z53RuntimeInvoker_AnimatorControllerPlayable_t1744083903PFvvEPK10MethodInfoPvPS4_
Qpf:_Double_ToString_m1085043609
pSb:__Z19TransferField_ArrayI18StreamedBinaryReadILb0EE27Converter_SimpleNativeClassI17AnimationCurveTplIfEEEvRK23StaticTransferFieldInfoR31RuntimeSerializationCommandInfoRT0_
UXg:_CipherSuite_createEncryptionCipher_m1926075645
Zeb:__ZN14StackAllocator16FrameMaintenanceEb
AFc:__ZL11SweepBoxBoxPKN5physx3Cct9SweepTestEPKNS0_11SweptVolumeEPKNS0_11TouchedGeomERKNS_14PxExtendedVec3ERKNS_6PxVec3ERNS0_12SweptContactE
Ahb:__Z18ReadStringFromFilePN4core17string_with_labelILi1EEERKNS_12basic_stringIcNS_20StringStorageDefaultIcEEEE
d0:__ZNK10GameObject20QueryComponentByTypeEPKN5Unity4TypeE
tog:_Enumerator_MoveNext_m1367380970_AdjustorThunk
Mdi:_OpCode_GetHashCode_m2974727122
VXg:_CipherSuite_createDecryptionCipher_m1118350455
wjk:_PatternCompiler_EmitReference_m1381860071
mI:__Z78AnimatorControllerPlayable_CUSTOM_INTERNAL_CALL_IsParameterControlledByCurveIDR9HPlayablei
ryf:_Double_System_IConvertible_ToInt16_m4200640326
Tva:__ZN11TextureData5ResetEv
Tgc:__Z53Register_UnityEngine_GameObject_get_activeInHierarchyv
Aci:_GenericTypeParameterBuilder_get_IsGenericType_m1883522222
YIb:__Z35Transfer_Blittable_FixedBufferFieldI17RemapPPtrTransferiEvRK29SerializationCommandArgumentsR31RuntimeSerializationCommandInfo
B1:__ZL30InitializeCoreScriptingClassesv
fJg:_Collection_1_CheckWritable_m3938993573_gshared
lh:_glBlitFramebuffer
wSa:__ZN17ArchiveFileSystem5TouchER13FileEntryData
Iyd:__ZNK5physx2Sc5Scene17prefetchForRemoveERKNS0_10StaticCoreE
t0g:_SecurityParameters_set_Cipher_m3888132335
wdg:_BigInteger_GeneratePseudoPrime_m2606361440
YUf:_DateTimeFormatInfo_get_ShortTimePattern_m20923983
TIb:__Z35Transfer_Blittable_SingleValueFieldI14SafeBinaryReadhEvRT_R17GeneralMonoObjectRK23StaticTransferFieldInfo
Nfj:__ZL140U3CMouseDragOutsideRectU3Ec__Iterator1_t2599668326_CustomAttributesCacheGenerator_U3CMouseDragOutsideRectU3Ec__Iterator1_Dispose_m2134284531P21CustomAttributesCache
z5i:__ZL90Event_t3028476042_CustomAttributesCacheGenerator_Event_Internal_SetNativeEvent_m1899228752P21CustomAttributesCache
fhd:__ZN5physx22NpParticleBaseTemplateINS_15PxParticleFluidENS_15NpParticleFluidEE13setVelocitiesEjRKNS_16PxStrideIteratorIKjEERKNS4_IKNS_6PxVec3EEE
jCe:__ZN22BaseUnityConnectClientC2ERN11UnityEngine7Connect20BasePersistentValuesE
Ngg:_EncryptedPrivateKeyInfo_get_Algorithm_m2779196942
phh:_RemotingServices_GetRealProxy_m620317996
i_a:__ZN13dynamic_arrayI11CulledLightLj4EE6insertEPS0_PKS0_S4_
C5j:_ArrayReadOnlyList_1_RemoveAt_m2270349795_gshared
Bjc:__Z81Register_UnityEngine_Playables_PlayableHandle_INTERNAL_CALL_SetInputCountInternalv
gpb:__ZNK12CubemapArray22GetTypeVirtualInternalEv
DCk:_Predicate_1_Invoke_m2060780095_gshared
hnb:__ZN11Tetrahedron8TransferI18StreamedBinaryReadILb0EEEEvRT_
Ko:FUNCTION_TABLE_vif
Lo:FUNCTION_TABLE_vid
No:FUNCTION_TABLE_vii
rsa:__Z40scripting_liveness_calculation_from_root18ScriptingObjectPtrPv
Bka:__ZN7Texture23VirtualRedirectTransferER24GenerateTypeTreeTransfer
cee:_UNITY_FT_Set_Transform
o3b:__ZNK32RendererMaterialAnimationBinding12SetPPtrValueERKN11UnityEngine9Animation10BoundCurveEi
S4j:_ArrayReadOnlyList_1_Contains_m1266627404_gshared
ZTh:__Z63RuntimeInvoker_Double_t4078015681_PlayableHandleU26_t4210769902PFvvEPK10MethodInfoPvPS4_
pQh:__Z101RuntimeInvoker_OpFlags_t378191910_SByte_t454417549_SByte_t454417549_SByte_t454417549_SByte_t454417549PFvvEPK10MethodInfoPvPS4_
LNl:_glDeleteFramebuffers__wrapper
L4e:_Image_get_overrideSprite_m706080347
X0h:__Z54RuntimeInvoker_Int32_t2071877448_LabelData_t3712112744PFvvEPK10MethodInfoPvPS4_
hgc:__Z36Register_UnityEngine_RectOffset_Initv
tTg:_BigInteger_ModInverse_m1881894572
B2k:__ZN6il2cpp2vm7Runtime17GetDelegateInvokeEP11Il2CppClass
yij:__ZL79LayoutRebuilder_t2155218138_CustomAttributesCacheGenerator_U3CU3Ef__amU24cache4P21CustomAttributesCache
Ild:__ZNK5physx15NpActorTemplateINS_14PxRigidDynamicEE14getOwnerClientEv
ahj:__ZL59Slider_t297367283_CustomAttributesCacheGenerator_m_FillRectP21CustomAttributesCache
Osg:_List_1_AddEnumerable_m3541747636_gshared
Xbl:__ZN30dense_hashtable_const_iteratorINSt3__24pairIK10KeyWrapperIPK22Il2CppGenericParameterEPK24MonoGenericParameterInfoEES6_N6il2cpp5utils11PointerHashIS4_EEN14dense_hash_mapIS6_SA_SF_NS6_14EqualsComparerINS0_8equal_toIS5_EEEENS0_9allocatorISB_EEE9SelectKeyESK_SM_E30advance_past_empty_and_deletedEv
Grb:__ZN28EnlightenRendererInformation8TransferI14SafeBinaryReadEEvRT_
VOh:__Z88RuntimeInvoker_RuntimeObject_RuntimeObject_Int32_t2071877448_RuntimeObject_RuntimeObjectPFvvEPK10MethodInfoPvPS4_
cHi:__ZL69DefaultDependencyAttribute_t3858269114_CustomAttributesCacheGeneratorP21CustomAttributesCache
h6c:__ZN5physx12NpBatchQuery13getUserMemoryEv
sPa:__ZNK15Lz4Decompressor16DecompressMemoryEPKvPjPvS2_
Gie:_UNITY_tt_face_build_cmaps
gyi:_Ray_ToString_m2019179238
NQg:_ReadOnlyCollection_1_System_Collections_IList_get_Item_m887129009_gshared
aok:_Uri_GetOpaqueWiseSchemeDelimiter_m3686606461
reb:__ZNSt3__26__treeINS_12__value_typeIN4core12basic_stringIcNS2_20StringStorageDefaultIcEEEEPN16MemoryFileSystem4NodeEEENS_19__map_value_compareIS6_SA_NS_4lessIS6_EELb1EEE13stl_allocatorISA_L18MemLabelIdentifier54ELi16EEE4findIS6_EENS_15__tree_iteratorISA_PNS_11__tree_nodeISA_PvEEiEERKT_
Ivf:_Decimal_System_IConvertible_ToType_m3828527724_AdjustorThunk
$6e:_InputField_get_caretPositionInternal_m3011712053
The:_UNITY_tt_face_load_os2
AMd:__ZN5physx2GuL34fullContactsGenerationSphereConvexERKNS0_8CapsuleVERKNS0_11ConvexHullVERKNS_6shdfnd3aos12PsTransformVESB_PNS0_17PersistentContactERjRNS0_13ContactBufferEbRNS0_25PersistentContactManifoldERNS8_5Vec3VERKNS8_6FloatVEb
lmd:__ZN5physx19NpRigidBodyTemplateINS_14PxRigidDynamicEE16setRigidBodyFlagENS_15PxRigidBodyFlag4EnumEb
iVg:_HMAC_get_Key_m2528863640
TJg:_Collection_1_IsSynchronized_m1366278230_gshared
BMi:__ZL93StringBuilder_t1221177846_CustomAttributesCacheGenerator_StringBuilder_AppendLine_m1686706871P21CustomAttributesCache
fH:__Z90Register_UnityEngine_Animations_AnimationOffsetPlayable_INTERNAL_CALL_CreateHandleInternalv
EVc:__ZN5physx6shdfnd8PoolBaseINS_2Sc19ConstraintGroupNodeENS0_19ReflectionAllocatorIS3_EEE17releaseEmptySlabsEv
uIb:__Z29Transfer_Blittable_ArrayFieldI14SafeBinaryRead8Vector4fEvRT_R9ArrayInfoRK23StaticTransferFieldInfo
pCf:_Array_get_swapper_TisInt32_t2071877448_m2837069166_gshared
k8k:__ZN6il2cpp2gc19AppendOnlyGCHashMapINSt3__24pairIPK10MethodInfoP11Il2CppClassEEP22Il2CppReflectionMethod17ReflectionMapHashIS9_ENS2_8equal_toIS9_EEE3AddERKS9_SB_
FIi:__ZL62IDynamicMessageSink_t3056162262_CustomAttributesCacheGeneratorP21CustomAttributesCache
U_h:__Z77RuntimeInvoker_Boolean_t3825574718_AspectModeU26_t218518220_Int32_t2071877448PFvvEPK10MethodInfoPvPS4_
yqk:_RectTransform_INTERNAL_get_rect_m1177342209
kFg:_Collection_1_Clear_m268154422_gshared
jWe:_PointerEventData_IsScrolling_m1971908975
u9d:__ZNSt3__27__sort4IRNS_6__lessI24InterpolationDepthHandleS2_EEPS2_EEjT0_S6_S6_S6_T_
M3h:__Z56RuntimeInvoker_ContentType_t1028629049_Int32_t2071877448PFvvEPK10MethodInfoPvPS4_
ABc:__ZN5physx3Cct8SweptBoxD2Ev
KTa:__ZZ23InitPlayerLoopCallbacksvEN51PostLateUpdateUpdateCustomRenderTexturesRegistrator7ForwardEv
GTh:__Z133RuntimeInvoker_Boolean_t3825574718_Vector3U26_t425862308_Vector3U26_t425862308_Single_t2076509932_Int32_t2071877448_Int32_t2071877448PFvvEPK10MethodInfoPvPS4_
XCd:__ZN5physx2Cm12DelegateTaskINS_13PxsCCDContextEXadL_ZNS2_12postCCDSweepEPNS_10PxBaseTaskEEEED0Ev
Uvf:_Decimal_System_IConvertible_ToInt16_m3159038792
Ev:__ZN7mecanim9animation12EvaluateClipEPKNS0_4ClipEPKNS0_9ClipInputEPNS0_10ClipMemoryEPNS0_10ClipOutputE
MNc:__ZN5physx3Cct9SweepTest15onObstacleAddedEjPKNS_17PxObstacleContextERKNS_6PxVec3ES7_f
oTc:__ZN5physx2Gu10SupportMapD2Ev
Rrb:__ZN4PPtrI11LightProbesE8TransferI18StreamedBinaryReadILb0EEEEvRT_
b$j:_ComVisibleAttribute__ctor_m1789587486
kQk:__ZL25UnresolvedVirtualCall_190P12Il2CppObject6Guid_tS1_PK10MethodInfo
x1c:__ZNK5physx15NpActorTemplateINS_18PxArticulationLinkEE22getClientBehaviorFlagsEv
_gi:_MonoMethodInfo_GetReturnType_m2864247130
yNh:__Z39RuntimeInvoker_DateTimeKind_t2186819611PFvvEPK10MethodInfoPvPS4_
_5a:__ZN13RenderManager29SetCurrentCameraAndStackStateEP6CameraP25CameraStackRenderingState
Lel:__ZN15dense_hashtableINSt3__24pairIK10KeyWrapperINS1_IP11Il2CppClassjEEES4_EES6_N6il2cpp8metadata14ArrayClassHashEN14dense_hash_mapIS6_S4_SB_NS6_14EqualsComparerINSA_17ArrayClassCompareEEENS0_9allocatorIS8_EEE9SelectKeyESF_SH_E12resize_deltaEjj
zi:_JS_WebRequest_Release
$0f:_DirectoryNotFoundException__ctor_m2242202556
kvi:_Physics_Raycast_m2308457076
y1c:__ZNK5physx15NpActorTemplateINS_18PxArticulationLinkEE12getAggregateEv
OV:__ZN11UnityEngine15CloudWebService14DataErrorEventD0Ev
WSh:__Z64RuntimeInvoker_RuntimeObject_PlayableOutputHandleU26_t2649796401PFvvEPK10MethodInfoPvPS4_
WQe:_String_CreateString_m2448464375
Bch:_X509SubjectKeyIdentifierExtension__ctor_m2959112706
qkj:_Enumerator_Reset_m1147555085_AdjustorThunk
Pei:_FieldInfo_get_IsNotSerialized_m2322769148
Jwk:_Vector3_get_zero_m1527993324
ntd:__ZNK5physx7NpScene18getStaticStructureEv
rQi:__ZL68Math_t2022911894_CustomAttributesCacheGenerator_Math_Max_m2671311541P21CustomAttributesCache
_Cd:__ZN5physx13PxsCCDContext12postCCDSweepEPNS_10PxBaseTaskE
Vll:__ZN6il2cpp8metadata15GenericMetadata7InflateEPK19Il2CppGenericMethodPK20Il2CppGenericContext
SUa:__ZN19ShaderPropertySheet16SetArrayPropertyEN9ShaderLab16FastPropertyNameENS_12PropertyTypeEPKvj
Tgi:_MonoGenericCMethod_get_ReflectedType_m2689239043
O_a:__ZN22PerThreadPageAllocatorC2Ev
UJg:_Collection_1_IsFixedSize_m499196375_gshared
b$e:_ColorTween_set_startColor_m3546206870_AdjustorThunk
_Ai:__ZL67RuntimeArray_CustomAttributesCacheGenerator_Array_IndexOf_m77084779P21CustomAttributesCache
q_i:__ZL96Transform_t3275118058_CustomAttributesCacheGenerator_Transform_INTERNAL_set_rotation_m3703763817P21CustomAttributesCache
A$d:__ZN5physx6shdfnd10Foundation19AlignCheckAllocator28deregisterAllocationListenerERNS_20PxAllocationListenerE
Z0c:__ZN5physx2Sc21ArticulationJointCore12setChildPoseERKNS_11PxTransformE
Sak:_InternalEnumerator_1_get_Current_m4083613828_gshared
lgg:_KeyPairPersistence_Save_m471726936
apc:__ZN8GUIState8EndOnGUIEv
ebg:_SimpleCollator_FilterOptions_m4044781893
kil:__ZN6il2cpp6icalls8mscorlib6System2IO6MonoIO16get_ConsoleErrorEv
Boe:_UNITY_TT_Get_VMetrics
A0f:_Path_InsecureGetFullPath_m2635272425
T$i:__ZL92Rigidbody_t4233889191_CustomAttributesCacheGenerator_Rigidbody_AddForce_m3219459786____mode1P21CustomAttributesCache
Dnf:_Enumerator_Clone_m1124749523
Etf:_DateTime_System_IConvertible_ToUInt32_m1363211018
mFd:__ZN5physx33solveContactCoulombBlockWriteBackEPKNS_23PxcSolverConstraintDescEjRNS_16PxcSolverContextEPNS_25PxcThresholdStreamElementEjPi
Hmh:_RuntimeMethodHandle__ctor_m1162528746
hBg:_Enumerator_Dispose_m3300818037_AdjustorThunk
zyg:_List_1_AsReadOnly_m4108578222_gshared
$Md:__ZN5physx9PxTaskMgr17submitUnnamedTaskERNS_6PxTaskENS_10PxTaskType4EnumE
$oh:_DSA__ctor_m613430209
sFf:_SetPropertyUtility_SetStruct_TisSingle_t2076509932_m3849235084_gshared
YGa:__ZN7Texture21GetMasterTextureLimitEv
H8a:__Z12CanAddScriptR10GameObject17ScriptingClassPtrPS1_S2_
fdl:__ZN6il2cpp2vm10Reflection12HasAttributeEP12Il2CppObjectP11Il2CppClass
_Xi:__ZL81Mesh_t1356156583_CustomAttributesCacheGenerator_Mesh_get_subMeshCount_m1945011773P21CustomAttributesCache
Lyc:__ZN8JSONRead21TransferSTLStyleArrayI13dynamic_arrayI4AABBLj4EEEEvRT_18MemLabelIdentifier17TransferMetaFlags
XDk:_InvokableCall_1__ctor_m121193486_gshared
m0:__ZN9ShaderLabL25StaticInitializeShaderLabEPv
Q1d:__ZN12MeshCollider23VirtualRedirectTransferER24GenerateTypeTreeTransfer
TAd:__ZNK5physx2Sq12BucketPruner5sweepERKNS0_9ShapeDataERKNS_6PxVec3ERfRNS0_14PrunerCallbackE
U:Math_max
bKg:_Collection_1_System_Collections_IList_Insert_m1511106741_gshared
uOk:__ZL24UnresolvedVirtualCall_92P12Il2CppObjectPK10MethodInfo
n3k:_il2cpp_class_get_methods
D0f:_Path_CanonicalizePath_m383914732
xjj:_Enumerator_System_Collections_IEnumerator_get_Current_m1631145297_gshared
Khf:_ArrayList_Synchronized_m2395071980
Xol:__ZN6il2cpp2os6Thread16GetCurrentThreadEv
QAi:__ZL81RuntimeArray_CustomAttributesCacheGenerator_Array_SetValue_m169741241____indices1P21CustomAttributesCache
_5b:__ZN10GameObject13ComponentPair15SetComponentPtrEPN5Unity9ComponentE
X7d:__ZN5physx6shdfnd8internal8HashBaseINS0_4PairIKPKNS0_14NamedAllocatorEPKcEES6_NS0_4HashIS6_EENS1_11HashMapBaseIS6_S9_SC_NS0_20NonTrackingAllocatorEE6GetKeyESE_Lb1EE15reserveInternalEj
c6f:_UnexceptionalStreamWriter_Write_m3206913035
x$b:__Z13RegisterClassI10MeshFilterEvv
YF:__ZNK26AnimatorControllerPlayable24GetAnimatorClipInfoCountEib
Gib:__ZN10TagManager8TransferI19StreamedBinaryWriteILb0EEEEvRT_
dFb:__ZN11PreloadData23VirtualRedirectTransferER18StreamedBinaryReadILb0EE
bvb:__ZN13sorted_vectorI4PPtrI11SpriteAtlasENSt3__24lessIS2_EE13stl_allocatorIS2_L18MemLabelIdentifier1ELi16EEE21sort_clear_duplicatesEv
MA:__Z17dynamic_pptr_castIP10MonoScript6ObjectET_RK4PPtrIT0_E
ODj:_AnimatorControllerPlayable_GetAnimatorTransitionInfo_m2080024628_AdjustorThunk
Zoh:_DESTransform_ProcessBlock_m2826669227
uYf:_Int16_CompareTo_m3493496879
Vyk:_GeneralNames_get_IPAddresses_m1712556836
YYi:__ZL56RenderTexture_t2666733923_CustomAttributesCacheGeneratorP21CustomAttributesCache
T8i:__ZL56ColorWriteMask_t926634530_CustomAttributesCacheGeneratorP21CustomAttributesCache
pFj:_AnimatorControllerPlayable_Play_m3296663958_AdjustorThunk
Vtb:__ZN6Sprite17MainThreadCleanupEv
$Si:__ZL56OidCollection_t3790243618_CustomAttributesCacheGeneratorP21CustomAttributesCache
vLi:__ZL61SignatureDescription_t89145500_CustomAttributesCacheGeneratorP21CustomAttributesCache
sak:_InternalEnumerator_1_MoveNext_m3389738333_AdjustorThunk
lO:__ZN10AudioMixer14UpdateMuteSoloEv
yVa:__Z17GetMonoManagerPtrv
Pgl:__ZN6il2cpp2vm9Exception27RaiseNullReferenceExceptionEv
L8c:__ZN5physx6shdfnd5ArrayINS_3Scb13MaterialEventENS0_19ReflectionAllocatorIS3_EEE15growAndPushBackERKS3_
TBg:_Stack_1_System_Collections_ICollection_get_SyncRoot_m3151629354_gshared
vRj:_MaskableGraphic_UnityEngine_UI_IClippable_get_gameObject_m954171032
nla:__ZN9ShaderLab10SubProgram7CompileEv
YFa:__ZN7ApiGLES16SetPatchVerticesEi
tXc:__ZN5physx2Sc5Scene11onBodySleepEPNS0_7BodySimE
SSa:__ZN10MemoryFileC2E18MemLabelIdentifierP14MemoryFileData14FilePermission
pih:_TrackingServices_NotifyUnmarshaledObject_m1794048369
jUk:__ZN6il2cpp2vm5Class20FromGenericParameterEPK22Il2CppGenericParameter
DJi:__ZL59RemotingServices_t2399536837_CustomAttributesCacheGeneratorP21CustomAttributesCache
iCc:__ZL28GeomMTDCallback_PlaneCapsuleRN5physx6PxVec3ERfRKNS_10PxGeometryERKNS_11PxTransformES5_S8_
Iaa:__ZN15GlobalCallbacksC2Ev
eNf:_Array_InternalArray__set_Item_TisLabelFixup_t4090909514_m565370771_gshared
QI:__Z82Register_UnityEngine_Animations_AnimatorControllerPlayable_INTERNAL_CALL_SetBoolIDv
HTk:_FieldWithTarget_set_staticString_m2234360111
Cfe:_UNITY_FT_New_Memory_Face
l8c:__ZNK5physx10NpMaterial18getDynamicFrictionEv
RRi:__ZL74X509Crl_t1699034837_CustomAttributesCacheGenerator_U3CU3Ef__switchU24map13P21CustomAttributesCache
Zlh:_SerializationEntry__ctor_m1619256036_AdjustorThunk
IH:__Z81AnimatorControllerPlayable_CUSTOM_INTERNAL_CALL_GetAnimatorTransitionInfoInternalR9HPlayablei
vde:__ZN20TextRenderingPrivate21TextMeshGeneratorImpl5FlushEv
mza:__ZN26VertexDeclarationCacheGLES24DestroyVertexDeclarationEP17VertexDeclaration
DMe:__Z15CastclassSealedP12Il2CppObjectP11Il2CppClass
R_b:__ZN15ApplicationInfo14GetSandboxTypeEv
g9c:__ZN5physx9NpPhysics16createConvexMeshERNS_13PxInputStreamE
_Ib:__Z18Transfer_BlittableI17RemapPPtrTransferLb1EhEvRK29SerializationCommandArgumentsR31RuntimeSerializationCommandInfo
irl:__ZNSt3__26vectorIjNS_9allocatorIjEEE26__swap_out_circular_bufferERNS_14__split_bufferIjRS2_EE
a7a:__ZN16ReflectionProbes40UpdateRealtimeReflectionProbesTimeslicedEv
gHk:_ListPool_1_Get_m529219189_gshared
all:__ZNSt3__26__treeINS_12__value_typeIP24Il2CppReflectionAssemblyPvEENS_19__map_value_compareIS3_S5_NS_4lessIS3_EELb1EEENS_9allocatorIS5_EEE16__insert_node_atEPNS_16__tree_node_baseIS4_EERSF_SF_
Zci:_MethodBuilder_GetBaseDefinition_m774166361
GWc:__ZN5physx2Sq17SceneQueryManager8addShapeERKNS_7NpShapeERKNS_12PxRigidActorEbPNS_9PxBounds3E
bCb:__ZNK30RuntimeInitializeOnLoadManager22GetTypeVirtualInternalEv
$Yk:__ZN15dense_hashtableINSt3__24pairIK10KeyWrapperIN6il2cpp5utils13dynamic_arrayIPK10Il2CppTypeLj4EEEEPFvvEEESA_NS3_8metadata19Il2CppSignatureHashEN14dense_hash_mapISA_SD_SG_NSA_14EqualsComparerINSF_22Il2CppSignatureCompareEEENS0_9allocatorISE_EEE9SelectKeyESK_SM_E12resize_deltaEjj
V2b:__ZN16ReflectionProbes15InitializeClassEv
yyl:__ZN6il2cpp5utils5MatchENSt3__212basic_stringIcNS1_11char_traitsIcEENS1_9allocatorIcEEEEjRKS7_j
_fe:_UNITY_FT_Destroy_Class_psnames_module_class
o_k:__ZNK15dense_hashtableINSt3__24pairIK10KeyWrapperIPK11Il2CppClassEPKcEES6_N6il2cpp5utils11PointerHashIS3_EEN14dense_hash_mapIS6_S9_SE_NS6_14EqualsComparerINS0_8equal_toIS5_EEEENS0_9allocatorISA_EEE9SelectKeyESJ_SL_E12test_deletedEj
_ik:_MRUList_Evict_m2430323183
NOg:_ReadOnlyCollection_1_System_Collections_Generic_ICollectionU3CTU3E_Remove_m1060547576_gshared
CXh:__Z68RuntimeInvoker_Boolean_t3825574718_Rect_t3681755626_SByte_t454417549PFvvEPK10MethodInfoPvPS4_
ORf:_Array_InternalArray__get_Item_TisRuntimeObject_m371871810_gshared
Kge:_ft_bitmap_glyph_bbox
SA:__ZN8Animator13BatchedFKPassERK13dynamic_arrayIP14PlayableOutputLj4EE
scd:__ZNK5physx15NpActorTemplateINS_7PxClothEE14getOwnerClientEv
VMj:_Component_GetComponent_m4225719715
yjc:__Z75Register_UnityEngine_Playables_PlayableHandle_INTERNAL_CALL_SetTimeInternalv
VEd:__ZNK5physx2Gu29EPASupportMapPairRelativeImplINS0_8CapsuleVES2_E9doSupportERKNS_6shdfnd3aos5Vec3VERS6_S9_S9_
DPf:_Array_Sort_TisVector4_t2243707581_m474199742_gshared
$sg:_List_1_CheckIndex_m2247532995_gshared
L_d:__ZN5physx10SubSortSAH5sort4EPjjRNS_6shdfnd5ArrayINS_11RTreeNodeNQENS2_19ReflectionAllocatorIS4_EEEERjjPS4_
M5f:_TextWriter_Write_m576684782
Pxk:_Vector3_Max_m2105825185
wk:_glIsVertexArray
O3d:__ZN14SphereCollider16TransformChangedEi
GCb:__ZNSt3__26vectorIN4core12basic_stringIcNS1_20StringStorageDefaultIcEEEE13stl_allocatorIS5_L18MemLabelIdentifier12ELi16EEEC2INS_11__wrap_iterIPS5_EEEET_SE_RKS8_PNS_9enable_ifIXaasr21__is_forward_iteratorISE_EE5valuesr16is_constructibleIS5_NS_15iterator_traitsISE_E9referenceEEE5valueEvE4typeE
$Pa:__ZN25SingleBlockMemoryFileDataC2E18MemLabelIdentifierPvjb
ngb:__ZN5Unity9Component8TransferI18StreamedBinaryReadILb0EEEEvRT_
ga:invoke_fff
nYj:_Text_get_fontSize_m3105730761
LKl:b14
s0g:_TlsServerHello_Update_m1740270635
e7d:__ZN5physx2Sc7PhysicsC2ERKNS_17PxTolerancesScaleERKNS_14PxvOffsetTableE
s9d:__ZNSt3__26__sortIRNS_6__lessI24InterpolationDepthHandleS2_EEPS2_EEvT0_S6_T_
mre:__ZN2UI6Canvas17MainThreadCleanupEv
gpa:__ZN6prcoreL12RemapGenericI17TexFormatARGB155517TexFormatRGBA8888EEvPKNS_9InnerInfoE
VUj:_ScrollRect_Rebuild_m3423824761
Dyg:_List_1_Find_m3862454845_gshared
Pik:_MatchCollection_get_Item_m2609281578
SMa:__ZN7ApiGLES13CreateProgramEv
Ckb:__ZN11HaloManager7AddHaloEv
Vsh:_UTF8Encoding__ctor_m100325490
iHa:__ZN4crnd12crn_unpackerD2Ev
SXj:_StencilMaterial_ClearAll_m1372779118
Jk:_emscripten_glTexImage2D
Rgh:_ObjRefSurrogate_SetObjectData_m1873902916
moe:_tt_driver_class_pic_init
r1:__ZN18ScriptingArguments9AddStringEPKc
zwl:_setup_header
oMg:_ReadOnlyCollection_1_System_Collections_IList_get_IsReadOnly_m1367736517_gshared
cVi:__ZL116Component_t3819376471_CustomAttributesCacheGenerator_Component_GetComponentsInParent_m1920178904____includeInactive1P21CustomAttributesCache
QGl:runPostSets
UEd:__ZNK5physx2Gu29EPASupportMapPairRelativeImplINS0_8CapsuleVES2_E18doWarmStartSupportEiiRNS_6shdfnd3aos5Vec3VES7_S7_
Tbj:__ZL93AxisEventData_t1524870173_CustomAttributesCacheGenerator_AxisEventData_set_moveDir_m254243794P21CustomAttributesCache
cva:__ZL23stbir__resize_arbitraryPvPKviiiS_iiiffffPfiij14stbir_datatype12stbir_filterS4_10stbir_edgeS5_16stbir_colorspace
vug:_List_1_System_Collections_IList_Insert_m848656350_gshared
dLb:__Z18Transfer_BlittableI24GenerateTypeTreeTransferLb1E8Vector4fEvRK29SerializationCommandArgumentsR31RuntimeSerializationCommandInfo
UYf:_Int16_ToString_m3971652088_AdjustorThunk
ROk:__ZL25UnresolvedVirtualCall_115P12Il2CppObjecttaaPK10MethodInfo
Uk:_pthread_detach
_$k:__ZN6il2cpp2vm19SocketPollingThread7RunLoopEv
Nlg:_KeyValuePair_2__ctor_m1640124561_AdjustorThunk
fgh:_MethodDictionary_AllocInternalProperties_m3261295876
bAd:__ZN5physx11EdgeManager6resizeEj
A6b:__ZN15DirectorManager20ScheduleGraphDestroyERK14HPlayableGraph
_xa:__ZNSt3__213__stable_sortIRN10vector_mapI17ScriptingClassPtrPKN5Unity4TypeENS_4lessIS2_EENS_9allocatorINS_4pairIS2_S6_EEEEE13value_compareENS_11__wrap_iterIPSB_EEEEvT0_SJ_T_NS_15iterator_traitsISJ_E15difference_typeEPNSM_10value_typeEi
pTi:__ZL77U3CPrivateImplementationDetailsU3E_t1486305139_CustomAttributesCacheGeneratorP21CustomAttributesCache
sWb:__ZN9ShaderLab25SerializedTextureProperty8TransferI24GenerateTypeTreeTransferEEvRT_
BRk:_Comparison_1_Invoke_m2645957248_gshared
OSl:_emscripten_glIsShader__wrapper
Zal:__ZN6il2cpp2gc19AppendOnlyGCHashMapINSt3__24pairIPK14Il2CppAssemblyP11Il2CppClassEEP24Il2CppReflectionAssembly17ReflectionMapHashIS9_ENS2_8equal_toIS9_EEEC2Ev
Cje:_tt_cmap14_char_next
aGi:__ZL69AssemblyTrademarkAttribute_t3740556705_CustomAttributesCacheGeneratorP21CustomAttributesCache
bDa:__ZN13GfxDeviceGLES28GetNativeVertexBufferPointerEP9GfxBuffer
Wmd:__ZN5physx2Sc5Scene12removeStaticERNS0_10StaticCoreERNS_6shdfnd11InlineArrayIPKNS0_9ShapeCoreELj64ENS4_19ReflectionAllocatorIS8_EEEEb
Aja:__ZN11NamedObject8TransferI18StreamedBinaryReadILb0EEEEvRT_
OLa:__ZNK17GPUSkinPoseBuffer12GetBoneCountEv
Yqc:__Z32GUIStyle_Get_Custom_PropFontSizeP12Il2CppObject
Qlh:_DelegatePInvokeWrapper_CallbackHandler_t362827733
NQi:__ZL59ResolveEventArgs_t1859808873_CustomAttributesCacheGeneratorP21CustomAttributesCache
FEk:_UnityAction_1_BeginInvoke_m3462722079_gshared
sjl:__ZNK15dense_hashtableINSt3__24pairIK10KeyWrapperIP14Il2CppIUnknownEjEES5_N6il2cpp5utils11PointerHashIS3_EEN14dense_hash_mapIS5_jSB_NS5_14EqualsComparerINS0_8equal_toIS4_EEEENS0_9allocatorIS7_EEE9SelectKeyESG_SI_E12test_deletedEj
Hei:_EventInfo_get_MemberType_m3337516651
pxc:__Z18Transfer_BlittableI8JSONReadLb1EyEvRK29SerializationCommandArgumentsR31RuntimeSerializationCommandInfo
pl:_emscripten_glMatrixMode
yt:__ZN8Animator23VirtualRedirectTransferER18StreamedBinaryReadILb0EE
FFi:__ZL93TypeBuilder_t3308873219_CustomAttributesCacheGenerator_TypeBuilder_GetConstructors_m774120094P21CustomAttributesCache
BWd:__ZN5physx13GuMeshFactory17createHeightFieldERNS_13PxInputStreamE
dqd:__ZN5physx2Sc10NPhaseCore25createShapeInstancePairLLERNS0_8ShapeSimES3_NS_7PxFlagsINS_10PxPairFlag4EnumEtEE
Bgh:_MethodReturnDictionary__ctor_m756139344
iV:__ZN11UnityEngine15CloudWebService14DataDispatcher16PrepareDataBlockERNS0_16SessionContainerE
hNa:__ZN18GfxFramebufferGLES5ClearE13GfxClearFlagsRK10ColorRGBAffib
O_h:__Z70RuntimeInvoker_Void_t1841601450_Playable_t1896841784_Int32_t2071877448PFvvEPK10MethodInfoPvPS4_
ird:__ZThn8_N5physx2Sc19ShapeInstancePairLL12onDeactivateEj
Czg:_List_1_GetIndex_m2513359832_gshared
n8b:__Z21CalculateClosestPointRK8Vector3fRK4AABBRS_Rf
ERb:__ZL26Transfer_SimpleNativeClassI18StreamedBinaryReadILb0EE10RectOffsetLb0EEvRK29SerializationCommandArgumentsR31RuntimeSerializationCommandInfo
Xfe:_UNITY_ft_destroy_default_module_classes
Ihg:_SymmetricTransform_FinalDecrypt_m3674669784
arg:_List_1_CheckMatch_m1772343151_gshared
DZa:__ZL12DepthPassJobPN21GfxDeviceAsyncCommand10ArgScratchEPKNS_3ArgE
VUb:__ZNSt3__26vectorIN9ShaderLab20SerializedSubProgram16TextureParameterENS_9allocatorIS3_EEE6assignINS_11__wrap_iterIPS3_EEEENS_9enable_ifIXaasr21__is_forward_iteratorIT_EE5valuesr16is_constructibleIS3_NS_15iterator_traitsISC_E9referenceEEE5valueEvE4typeESC_SC_
m$f:_IntPtr_Equals_m1214967011_AdjustorThunk
l0d:__ZN9Rigidbody16ApplyConstraintsEv
vxg:_List_1_Add_m3591975577_gshared
bve:__Z55Register_UnityEngine_CanvasGroup_get_ignoreParentGroupsv
Y$b:__Z13RegisterClassI19LowerResBlitTextureEvv
Zbj:__ZL100PointerEventData_t1599784723_CustomAttributesCacheGenerator_U3CpointerPressRaycastU3Ek__BackingFieldP21CustomAttributesCache
yn:FUNCTION_TABLE_iiiiiiiiiiii
Mid:__ZN5physx2Sc17ParticleSystemSim8setFlagsEj
ekb:__ZN16GraphicsSettingsD0Ev
wcb:__Z29StdTemplateConversionFunctionIshEbPvR14SafeBinaryRead
LPl:_pthread_mutex_init__wrapper
C5a:__ZN15LODGroupManager21CalculateLODDataArrayERK13LODParametersPK6Cameraf
n:cttz_i8
fme:_UNITY_FT_GlyphLoader_Add
DZd:__ZN5physx2Gu15EdgeListBuilder18CreateEdgesToFacesEjPKjPKt
VJc:__ZN5physx11PxMeshQuery5sweepERKNS_6PxVec3EfRKNS_10PxGeometryERKNS_11PxTransformEjPKNS_10PxTriangleERNS_10PxSweepHitENS_7PxFlagsINS_9PxHitFlag4EnumEtEEPKjfb
Xik:_MRUList__ctor_m2726533367
aVf:_DateTimeFormatInfo_get_FullDateTimePattern_m2607507656
S0g:_HttpsClientStream_RaiseServerCertificateValidation_m3356770426
vxf:_DelegateSerializationHolder__ctor_m3915060553
JCb:__ZN15SerializeTraitsINSt3__26vectorIN30RuntimeInitializeOnLoadManager9ClassInfoE13stl_allocatorIS3_L18MemLabelIdentifier12ELi16EEEEE8TransferI24GenerateTypeTreeTransferEEvRS7_RT_
XPf:_Array_swap_TisUIVertex_t1204258818_TisUIVertex_t1204258818_m1163375424_gshared
lm:_emscripten_glViewport
Osl:__ZN6il2cpp6icalls8mscorlib6System15MonoCustomAttrs17IsDefinedInternalEP12Il2CppObjectP20Il2CppReflectionType
nwb:__ZN4Mesh21UnswizzleVertexColorsEb
Nba:__ZN30dense_hashtable_const_iteratorINSt3__24pairIKN4core12basic_stringIcNS2_20StringStorageDefaultIcEEEEP11AssetBundleEES6_20StringHash32FunctionIS6_EN14dense_hash_mapIS6_S9_SC_NS0_8equal_toIS6_EENS0_9allocatorISA_EEE9SelectKeyESF_SH_EppEv
h0g:_TlsServerSettings_set_CertificateTypes_m264196087
C8j:_InternalEnumerator_1__ctor_m4150855019_gshared
xuf:_DateTime_ToString_m2276663647_AdjustorThunk
joe:_cff_parse_font_bbox
O2d:__ZThn28_N14PhysicsManagerD0Ev
Tdc:__Z35Application_Get_Custom_PropIsEditorv
hLc:__Z14raycast_sphereRKN5physx10PxGeometryERKNS_11PxTransformERKNS_6PxVec3ES8_fNS_7PxFlagsINS_9PxHitFlag4EnumEtEEjPNS_12PxRaycastHitEbPFbRSD_PvESG_
dt:__GLOBAL__sub_I_runtime_animation2_lump_cpp
xAb:__ZN14PlayerSettings23VirtualRedirectTransferER18StreamedBinaryReadILb0EE
sCf:_Array_get_swapper_TisCustomAttributeTypedArgument_t1498197914_m2780757375_gshared
$kg:_KeyValuePair_2__ctor_m3201181706_AdjustorThunk
FBl:__ZN6il2cpp2os5Event5ResetEv
Z2a:__Z26CombineDepthNormalsTextureRK17RenderLoopContextR13dynamic_arrayI16RenderObjectDataLj4EE
rIk:_AesManaged__ctor_m2322442838
Hll:__ZN6il2cpp8metadata15GenericMetadata17InflateParametersEPK13ParameterInfohPK20Il2CppGenericContextb
x_f:_Int64_System_IConvertible_ToUInt32_m850395426_AdjustorThunk
u2:__ZN18AwakeFromLoadQueue28InvokePersistentManagerAwakeEPNS_4ItemEj17AwakeFromLoadMode
kbi:_TypeBuilder_GetMethodsByName_m229541072
FIj:_PCMReaderCallback_Invoke_m3610389815
UFe:_HMACSHA512__ctor_m2390736870
Cz:__ZNK17AnimationPlayable27GetNextCompatibleDescendantEi
nSd:__ZNK5physx2Cm12DelegateTaskINS_2Sc5SceneEXadL_ZNS3_23postIslandGenSecondPassEPNS_10PxBaseTaskEEEE7getNameEv
Bzl:__ZNSt3__26__treeINS_12__value_typeIPvxEENS_19__map_value_compareIS2_S3_NS_4lessIS2_EELb1EEENS_9allocatorIS3_EEE16__insert_node_atEPNS_16__tree_node_baseIS2_EERSD_SD_
ahb:__ZN4PPtrI6SpriteE8TransferI18StreamedBinaryReadILb0EEEEvRT_
gbi:_TypeBuilder_GetInterfaces_m1818658502
v2g:_TlsException_get_Alert_m4022765752
hTg:_BigInteger_op_Equality_m2683055762
Tfa:__Z25SetNeedToPerformRenderingb
mhi:_MonoMethod_GetPseudoCustomAttributes_m466965107
slk:__ZN21InterfaceFuncInvoker0IP19LinkRef_t2090853131E6InvokeEjP11Il2CppClassP12Il2CppObject
Joj:_ValueCollection_System_Collections_Generic_IEnumerableU3CTValueU3E_GetEnumerator_m1604400448_gshared
k1a:__ZNSt3__227__insertion_sort_incompleteIR23CompareReflectionProbesP31RuntimeReflectionProbeBlendInfoEEbT0_S5_T_
SZa:__ZN14qsort_internal30FindAndMovePivotToLastPositionIP15RODataDepthPassi17ROSorterDepthPassEEvT_S4_T0_T1_
DDe:__ZN20UnityWebRequestProtoI19TransportJavaScript16AtomicRefCounter14RedirectHelper14ResponseHelper15DownloadHandler13UploadHandler12HeaderHelper14AsyncOperationE35Task_FinalizeAfterDHCompleteContentEPv
bsk:_ResourceRequest_t2560315377_marshal_pinvoke
elj:_Enumerator_System_Collections_IDictionaryEnumerator_get_Value_m3005608231_gshared
iNk:__ZL24UnresolvedVirtualCall_26P12Il2CppObjectS0_iiPK10MethodInfo
MQj:_MaskUtilities_NotifyStencilStateChanged_m1527407683
XDd:__ZN5physxL27PxcSweepAnyShapeHeightfieldERKNS_11PxsCCDShapeES2_PKNS_12PxsRigidBodyES5_RKNS_11PxTransformES8_fRNS_6PxVec3ESA_RNS_10PxcNpCacheERNS_18PxcNpThreadContextE
WIh:__Z94RuntimeInvoker_Void_t1841601450_RuntimeObject_Int32_t2071877448_RuntimeObject_SByte_t454417549PFvvEPK10MethodInfoPvPS4_
O5a:__ZN12CullingGroup10SendEventsEPK17CullingGroupEventj
Yeg:_DSAManaged_GenerateKeyPair_m2711647034
ybb:__ZN13sorted_vectorINSt3__24pairIN4core12basic_stringIcNS2_20StringStorageDefaultIcEEEES6_EEN10vector_mapIS6_S6_27compare_tstring_insensitiveIS6_E13stl_allocatorIS7_L18MemLabelIdentifier37ELi16EEE13value_compareESD_E9erase_oneIS6_EEjRKT_
ZQk:__ZL25UnresolvedVirtualCall_231P12Il2CppObject22UILineInfo_t3621277874PK10MethodInfo
xsb:__ZThn32_NK8Renderer8GetLayerEv
UJf:_Array_InternalArray__ICollection_Add_TisResourceCacheItem_t333236149_m1151081240_gshared
w9b:__ZNK4Mesh17GetPrimitiveCountEv
o4h:__Z39RuntimeInvoker_RaycastHit2D_t4063908774PFvvEPK10MethodInfoPvPS4_
bzd:__ZN5physx3Scb5SceneD2Ev
LP:__ZN17AudioClipPlayable12PrepareFrameERK19DirectorVisitorInfo
$qf:_Convert_ToInt32_m2209788057
Fkl:__ZN30dense_hashtable_const_iteratorINSt3__24pairIK10KeyWrapperINS1_IPKcS4_EEEiEES6_24NamespaceAndNamePairHashN14dense_hash_mapIS6_iS9_NS6_14EqualsComparerI26NamespaceAndNamePairEqualsEENS0_9allocatorIS8_EEE9SelectKeyESD_SF_E30advance_past_empty_and_deletedEv
Cjh:_SoapServices_GetXmlTypeForInteropType_m3821579913
ZJk:_EqualityComparer_1_System_Collections_IEqualityComparer_Equals_m3601790950_gshared
p7i:__ZL117GUIStyle_t1799908754_CustomAttributesCacheGenerator_GUIStyle_INTERNAL_CALL_Internal_GetCursorPixelPosition_m562482816P21CustomAttributesCache
CQl:_emscripten_glTexParameterfv__wrapper
e4k:_il2cpp_method_get_param_count
r_b:__ZN10systeminfo19ISOToSystemLanguageERN4core12basic_stringIcNS0_20StringStorageDefaultIcEEEE
S9k:__ZNK15dense_hashtableINSt3__24pairIK10KeyWrapperINS1_IPK12PropertyInfoP11Il2CppClassEEEjEES9_17ReflectionMapHashIS8_EN14dense_hash_mapIS9_jSD_NS9_14EqualsComparerINS0_8equal_toIS8_EEEENS0_9allocatorISB_EEE9SelectKeyESI_SK_E3endEv
y4e:_HorizontalOrVerticalLayoutGroup_get_childForceExpandWidth_m227100883
u0d:__Z16GetDynamicsScenev
oqd:__ZThn8_N5physx2Sc18TriggerInteraction7destroyEv
Cvk:_TouchScreenKeyboard_get_active_m1442597648
jTi:__ZL68Uri_t19570940_CustomAttributesCacheGenerator_U3CU3Ef__switchU24map15P21CustomAttributesCache
Bke:_ps_dimension_done
FYe:_LayoutRebuilder_MarkLayoutForRebuild_m640589351
cre:__Z46Register_UnityEngine_TextGenerator_Dispose_cppv
lWe:_PointerEventData_get_pressEventCamera_m724559964
RLe:_String_IndexOfUnchecked_m3356721554
lrb:__ZN16LightmapSettings8TransferI14SafeBinaryReadEEvRT_
rIa:__ZN17BufferManagerGLES13ReleaseBufferEP14DataBufferGLES
MTc:__ZN5physx6shdfnd5ArrayIPvNS0_19ReflectionAllocatorINS_16NpConnectorArrayEEEE15growAndPushBackERKS2_
Lsi:_Mesh_CheckCanAccessSubmesh_m1826512193
lpd:__ZN5physx2Sc5Scene15prepareSimulateEv
mxc:__Z18Transfer_BlittableI8JSONReadLb1EjEvRK29SerializationCommandArgumentsR31RuntimeSerializationCommandInfo
qVc:__ZN5physx6shdfnd5ArrayIPNS_2Sc11InteractionENS0_19ReflectionAllocatorIS4_EEE8recreateEj
ygj:__ZL63ScrollRect_t1199013257_CustomAttributesCacheGenerator_m_InertiaP21CustomAttributesCache
rzk:_PKCS12_Decrypt_m1557069392
FYj:_VertexHelper_AddUIVertexQuad_m280792808
Y7g:_WebHeaderCollection_ToString_m1246460752
R8j:_InternalEnumerator_1_System_Collections_IEnumerator_get_Current_m2842514953_AdjustorThunk
oq:stackSave
MBk:_X509CrlEntry_get_Extensions_m79989256
Xke:_ps_dimension_end
uic:__Z41Register_UnityEngine_Mesh_Internal_Createv
neb:__ZN16MemoryFileSystem5TouchER13FileEntryData
Fll:__ZNK15dense_hashtableI10KeyWrapperIP18Il2CppGenericClassES3_N6il2cpp8metadata22Il2CppGenericClassHashEN14dense_hash_setIS3_S6_NS3_14EqualsComparerINS5_25Il2CppGenericClassCompareEEENSt3__29allocatorIS3_EEE8IdentityESA_SD_E12test_deletedERK30dense_hashtable_const_iteratorIS3_S3_S6_SF_SA_SD_E
GHe:_RIPEMD160Managed_JJ_m2933451431
xbe:__Z63Register_UnityEngine_Physics_INTERNAL_CALL_Internal_RaycastTestv
jGe:_MACTripleDES_Initialize_m1318099802
WVg:_MD5SHA1_VerifySignature_m507888141
Aef:_Byte_System_IConvertible_ToChar_m4188836679
KUf:_NumberFormatter_InitDecHexDigits_m2036076025
Jlj:_Enumerator_get_CurrentKey_m3839846791_AdjustorThunk
$xc:__ZN8JSONRead21TransferSTLStyleArrayI13dynamic_arrayIaLj1EEEEvRT_18MemLabelIdentifier17TransferMetaFlags
K7a:__ZN6Camera9SetAspectEf
SDe:__ZN19TransportJavaScript9DoRequestERKN4core12basic_stringIcNS0_20StringStorageDefaultIcEEEEm21UnityWebRequestMethodS6_bbP12HeaderHelperP13UploadHandlerP15DownloadHandlerP14ResponseHelperP15UnityWebRequest
k$e:_ColorTween_get_ignoreTimeScale_m641454126_AdjustorThunk
Ba:invoke_viiffiii
uTg:_Kernel_modInverse_m3230829577
gTf:_Mesh_GetAllocArrayFromChannel_TisVector3_t2243707580_m2367580537_gshared
PLg:_ReadOnlyCollection_1_Contains_m1800950533_gshared
ldj:__ZL79TouchInputModule_t2561058385_CustomAttributesCacheGenerator_m_ForceModuleActiveP21CustomAttributesCache
cSl:_emscripten_glBindVertexArray__wrapper
LZh:__Z52RuntimeInvoker_Vector2_t2243707579_Int32_t2071877448PFvvEPK10MethodInfoPvPS4_
yVg:_MD4__ctor_m2366413460
KOj:_Display__ctor_m563295973
v7i:__ZL97GUIStyle_t1799908754_CustomAttributesCacheGenerator_GUIStyle_Internal_CalcMinMaxWidth_m3660306863P21CustomAttributesCache
Osj:_Dictionary_2_InitArrays_m435313205_gshared
eJ:__ZN10ObjectPoolIN4FMOD3DSPENS0_4DSPIEE7GetFreeEi
A8a:__ZN9Transform37InitializeTransformHierarchyRecursiveER18TransformHierarchyRii
o1b:__Z34DefaultPrepareDispatchBoundsUpdateR13RendererScene18MemLabelIdentifier
y2e:_Graphic_get_useLegacyMeshGeneration_m1366444625
hfj:__ZL65InputField_t1631627530_CustomAttributesCacheGenerator_m_InputTypeP21CustomAttributesCache
gOk:__ZL24UnresolvedVirtualCall_78P12Il2CppObjectPK10MethodInfo
ldg:_ModulusRing_Pow_m1137250399
Cfk:_InternalEnumerator_1_MoveNext_m2410670600_AdjustorThunk
I3d:__ZN14SphereCollider23VirtualRedirectTransferER24GenerateTypeTreeTransfer
YVa:__ZN17MeshRenderingData4InitEP4MeshS1_iP15SharedGfxBufferS3_
EXg:_CipherSuite_get_HashAlgorithmType_m3902365773
oEk:_InvokableCall_2_Find_m1763382885_gshared
yOg:_ReadOnlyCollection_1_System_Collections_ICollection_get_SyncRoot_m2779904122_gshared
yxj:_EqualityComparer_1_System_Collections_IEqualityComparer_Equals_m1682986002_gshared
glf:_Hashtable__cctor_m2952659675
jch:_X509ChainStatus__ctor_m3628359961_AdjustorThunk
aBb:__ZN10VRSettings8TransferI19StreamedBinaryWriteILb0EEEEvRT_
qod:__ZN5physx2Sc9StaticSim21postActor2WorldChangeEv
Jij:__ZL77LayoutUtility_t4076838048_CustomAttributesCacheGenerator_U3CU3Ef__amU24cache4P21CustomAttributesCache
gMe:_Evidence_get_HostEvidenceList_m2095478124
Ylc:__Z57Register_UnityEngine_Transform_INTERNAL_set_localPositionv
$Yg:_Context_Clear_m4000337070
qDa:__ZN13GfxDeviceGLES26SetRandomWriteTargetBufferEi15ComputeBufferID
Veh:_IntervalCollection_Normalize_m538796191
xTa:__ZZ23InitPlayerLoopCallbacksvEN49EarlyUpdateResetFrameStatsAfterPresentRegistrator7ForwardEv
r4c:__ZN5physx6shdfnd4sortIPvNS0_4LessIS2_EENS0_19ReflectionAllocatorINS_2Cm5BlockIhLj256EEEEEEEvPT_jRKT0_RKT1_j
Mvk:_TrackedReference_op_Equality_m3491334086
p2e:_FontUpdateTracker_UntrackText_m3827316510
U8k:__ZN6il2cpp2gc19AppendOnlyGCHashMapINSt3__24pairIPK11Il2CppImageP11Il2CppClassEEP22Il2CppReflectionModule17ReflectionMapHashIS9_ENS2_8equal_toIS9_EEE10CopyValuesEPv
qXd:__ZN5physx20InternalTriangleMesh7releaseEv
CCd:__ZN5physx6shdfnd5ArrayINS_16PxsCCDBlockArrayINS_13PxsCCDOverlapELi128EE9BlockInfoENS0_19ReflectionAllocatorIS5_EEE15growAndPushBackERKS5_
FWc:__ZNK5physx7NpShape8getFlagsEv
Smg:_Enumerator_System_Collections_IEnumerator_Reset_m886102771_AdjustorThunk
Gac:__ZNK11ICallString6ToUTF8Ev
cmk:_CaptureAssertion_get_Alternate_m2729005740
Eul:_GC_number_stack_black_listed
Fjl:__ZN24dense_hashtable_iteratorINSt3__24pairIK10KeyWrapperIP14Il2CppIUnknownEjEES5_N6il2cpp5utils11PointerHashIS3_EEN14dense_hash_mapIS5_jSB_NS5_14EqualsComparerINS0_8equal_toIS4_EEEENS0_9allocatorIS7_EEE9SelectKeyESG_SI_E30advance_past_empty_and_deletedEv
TZa:__ZNSt3__211__sift_downIR17ROSorterDepthPassP15RODataDepthPassEEvT0_S5_T_NS_15iterator_traitsIS5_E15difference_typeES5_
V7h:_Default_SelectMethod_m3081239996
_ld:__ZN5physx19NpRigidBodyTemplateINS_14PxRigidDynamicEE25setMassSpaceInertiaTensorERKNS_6PxVec3E
ded:__ZNK5physx7NpCloth16getContactOffsetEv
Vcc:__ZNSt3__214__split_bufferIPN9BlobWrite11TypeContextENS_9allocatorIS3_EEE10push_frontERKS3_
jB:__ZN8Animator17ApplyOnAnimatorIKEiRNS_11AnimatorJobE
C5:__ZN12FileAccessor4ReadEyyPvPy
kla:__ZN13dynamic_arrayI16ShaderKeywordSetLj4EE6insertEPS0_PKS0_S4_
ISb:__Z29Transfer_Blittable_ArrayFieldI18StreamedBinaryReadILb0EE11QuaternionfEvRT_R9ArrayInfoRK23StaticTransferFieldInfo
ggh:_MethodDictionary_IsOverridenKey_m3922224650
vmf:_SyncHashtable_Contains_m3042906549
Lac:__Z21GetSceneHierarchyPathPK6Object
lAg:_List_1_System_Collections_IList_set_Item_m4016273526_gshared
Ach:_X509KeyUsageExtension_CopyFrom_m931530012
aPg:_ReadOnlyCollection_1_System_Collections_ICollection_get_SyncRoot_m1577944046_gshared
qAj:_AnimationLayerMixerPlayable_IsLayerAdditiveInternal_m3902226808
k7a:__ZN13RenderTexture9SetHeightEi
Ru:__ZN7mecanim9animation17ClearMotionOutputEPNS0_18AnimationNodeStateE
wnb:__ZN16LevelGameManager8TransferI24GenerateTypeTreeTransferEEvRT_
AQj:_LayoutUtility_U3CGetMinHeightU3Em__4_m1769295917
QMj:_Color32__ctor_m1932627809_AdjustorThunk
G3g:_SslStreamBase_Read_m1036897444
aFj:_AnimatorControllerPlayable_INTERNAL_CALL_PlayInFixedTimeInternal_m44271350
ASj:_RectMask2D_PerformClipping_m1232012832
lTf:_Resources_ConvertObjects_TisRuntimeObject_m2571720668_gshared
xmj:_Transform_1_Invoke_m4020530914_gshared
hje:_tt_cmap8_char_index
P1:__Z24scripting_class_get_name17ScriptingClassPtr
M7:__ZN13RuntimeStaticI15GUIEventManagerLb0EE13StaticDestroyEPv
Wli:_GUILayoutGroup_ResetCursor_m3160916532
fpl:__ZN6il2cpp2os6Thread15CurrentThreadIdEv
nyj:_CustomEventData_AddUInt16_m3349298376
FHb:__Z29Transfer_Blittable_ArrayFieldI14SafeBinaryReadjEvRT_R9ArrayInfoRK23StaticTransferFieldInfo
fKj:_Camera_FireOnPostRender_m94860165
IVj:_ScrollRect_get_minWidth_m3151814267
Pe:_emscripten_set_keydown_callback
Slf:_Enumerator_get_Value_m3684748062
Hib:__ZN19StreamedBinaryWriteILb0EE21TransferSTLStyleArrayINSt3__26vectorI17SortingLayerEntryNS2_9allocatorIS4_EEEEEEvRT_17TransferMetaFlags
nzh:_UInt32_Parse_m3371984903
K5:__ZN12FileAccessorC2Ev
WAk:_X509CertificateCollection_Compare_m1014334435
z9a:__ZN9Transform35SetLocalPositionWithoutNotificationERKN4math7_float3E
i$c:__ZN5physx2Sc15ArticulationSim12applyImpulseERNS0_8BodyCoreERKNS_9PxcFsDataERKNS_6PxVec3ES9_
f4h:__Z33RuntimeInvoker_TypeTag_t141209596PFvvEPK10MethodInfoPvPS4_
mld:__ZNK5physx22NpParticleBaseTemplateINS_16PxParticleSystemENS_16NpParticleSystemEE7getTypeEv
Sjk:_PatternLinkStack_GetCurrent_m2994645935
HSg:_Comparison_1__ctor_m2929820459_gshared
qGh:__Z59RuntimeInvoker_RuntimeObject_RuntimeObject_SByte_t454417549PFvvEPK10MethodInfoPvPS4_
v3j:_AsyncResult__ctor_m1183194429
y2k:__ZN6il2cpp2vm7Runtime12GetConfigDirEv
yE:__ZN4PPtrI13MonoBehaviourE8TransferI18StreamedBinaryReadILb0EEEEvRT_
igh:_MethodDictionary_set_Item_m3475146889
V0h:__Z71RuntimeInvoker_Int32_t2071877448_CustomAttributeNamedArgument_t94157543PFvvEPK10MethodInfoPvPS4_
D_c:__ZNK5physx14NpArticulation26getInternalDriveIterationsEv
JJi:__ZL62WellKnownObjectMode_t2630225581_CustomAttributesCacheGeneratorP21CustomAttributesCache
VYj:_Toggle_PlayEffect_m3950629415
NHf:_Array_IndexOf_TisRuntimeObject_m214763038_gshared
r2h:__Z79RuntimeInvoker_Void_t1841601450_Int32_t2071877448_ParameterModifier_t1820634920PFvvEPK10MethodInfoPvPS4_
nEb:__Z39WriteQueueForTransferSignatureIntoCacheRK31TransferFunctionScriptingTraitsRK24TransferRequestSignature17ScriptingClassPtrR23CachedSerializationDataRb
qta:__ZN13RenderManager18UpdateAllRenderersEv
BWh:__Z133RuntimeInvoker_Void_t1841601450_Rect_t3681755626_RuntimeObject_Int32_t2071877448_Int32_t2071877448_Int32_t2071877448_SByte_t454417549PFvvEPK10MethodInfoPvPS4_
Iye:__ZN22BaseUnityConnectClient30OnEnteringStatePausedOrStoppedEv
IIg:_Collection_1_System_Collections_ICollection_get_SyncRoot_m2157752542_gshared
B9k:__ZN15dense_hashtableINSt3__24pairIK10KeyWrapperINS1_IPK12PropertyInfoP11Il2CppClassEEEjEES9_17ReflectionMapHashIS8_EN14dense_hash_mapIS9_jSD_NS9_14EqualsComparerINS0_8equal_toIS8_EEEENS0_9allocatorISB_EEE9SelectKeyESI_SK_E12resize_deltaEjj
cv:__ZN7mecanim5human12HumanPoseAddERNS0_9HumanPoseERKS1_S4_
DEk:_UnityAction_1__ctor_m2836997866_gshared
HFj:_Animator_ResetTrigger_m865269317
YNi:__ZL64AssemblyLoadEventArgs_t4233815743_CustomAttributesCacheGeneratorP21CustomAttributesCache
MHg:_Collection_1_IsFixedSize_m218241296_gshared
v9a:__Z24MergeTransformComponentsR9TransformS0_b
iWc:__ZThn24_N5physx2Sc20ArticulationJointSimD0Ev
nEj:_AnimatorControllerPlayable_IsInTransition_m3708059860
t3d:__ZN14PhysicsManager32AddToTriggerStayStatesIfRequiredEPK9Rigidbody
y3f:_MonoIO_get_PathSeparator_m2635828107
Njh:_TypeInfo_get_TypeName_m1722081275
ofk:_InternalEnumerator_1_get_Current_m889125315_gshared
I8f:_MonoType_get_Name_m865859211
LBf:_CultureInfo__cctor_m2290268677
$4j:_ArrayReadOnlyList_1_System_Collections_IEnumerable_GetEnumerator_m3039869667_gshared
Upf:_Decimal_ThrowAtPos_m3318712794
oQc:__ZN5physx14PxsAABBManager12createBPElemEv
Pih:_RemotingConfiguration__cctor_m2129988840
bGg:_Collection_1_Insert_m44548038_gshared
dbd:__ZThn12_N5physx7NpShape14onRefCountZeroEv
vCc:__ZL26GeomMTDCallback_ConvexMeshRN5physx6PxVec3ERfRKNS_10PxGeometryERKNS_11PxTransformES5_S8_
z7i:__ZL87GUIUtility_t3275770671_CustomAttributesCacheGenerator_U3CguiIsExitingU3Ek__BackingFieldP21CustomAttributesCache
Qsl:__ZN6il2cpp2vm13ComObjectBase19GetRuntimeClassNameEPP15Il2CppHString__
ORb:__Z35Transfer_Blittable_FixedBufferFieldI18StreamedBinaryReadILb0EEyEvRK29SerializationCommandArgumentsR31RuntimeSerializationCommandInfo
J4c:__ZN5physx15NpActorTemplateINS_18PxArticulationLinkEE22setClientBehaviorFlagsENS_7PxFlagsINS_25PxActorClientBehaviorFlag4EnumEhEE
uk:_emscripten_glVertexAttribPointer
yGl:__ZNSt11logic_errorD0Ev
slb:__ZNK20IntermediateRenderer12GetSceneMaskEv
vra:__ZN14PreloadManager26UpdatePreloadingSingleStepENS_21UpdatePreloadingFlagsEi
Bri:_Material__ctor_m1440882780
MJe:_SHA512Managed_Initialize_m891287980
FSd:__ZN18ScBeforeSolverTask11runInternalEv
_mb:__ZN26ProbeSetTetrahedralization8TransferI24GenerateTypeTreeTransferEEvRT_
uMe:_SecurityException__ctor_m1484114982
$0j:_SinkProviderData_get_Children_m100594762
BBk:_X509Crl_GetHashName_m183504634
nbf:_Array_GetValue_m1507415734
akc:__Z57Register_UnityEngine_RectTransform_INTERNAL_set_anchorMinv
yTf:_Object_MemberwiseClone_m2655589444
SSc:__ZL33GeomOverlapCallback_CapsuleConvexRKN5physx10PxGeometryERKNS_11PxTransformES2_S5_PNS_2Gu12TriggerCacheE
TMg:_ReadOnlyCollection_1_System_Collections_IList_get_Item_m375043207_gshared
Poa:__ZN6prcoreL25inner_stretch_i8_bilinearEPKNS_9InnerInfoE
Xra:__ZL30RegisterFilteredObjectCallbackPP12Il2CppObjectiPv
_0f:_DirectoryInfo_ToString_m4208086799
nMj:_Collision_get_transform_m4132935520
vhi:_MonoMethod_get_IsGenericMethod_m4276550811
Wmj:_Transform_1_BeginInvoke_m3826027984_gshared
uzj:_AnimationEvent_set_time_m2162176572
EV:__ZN11UnityEngine15CloudWebService16SessionContainer24GetSessionHeaderJsonDataERKN4core12basic_stringIcNS2_20StringStorageDefaultIcEEEERNS2_13StringBuilderE
bqf:_Decimal_op_Implicit_m2149927308
x7:__ZN13RuntimeStaticI21AssetReferenceStorageLb0EE13StaticDestroyEPv
xXd:__ZN5physx20InternalTriangleMesh9loadRTreeERNS_13PxInputStreamEj
jnd:__ZN5physx19NpRigidBodyTemplateINS_14PxRigidDynamicEE25setCMassLocalPoseInternalERKNS_11PxTransformE
rrg:_List_1_set_Capacity_m895816763_gshared
Znd:__ZNK5physx15NpActorTemplateINS_13PxRigidStaticEE14getOwnerClientEv
Bol:__ZN6il2cpp6icalls8mscorlib6System9AppDomain22InternalGetProcessGuidEP12Il2CppString
H_b:__ZN15dense_hashtableINSt3__24pairIKN4core12basic_stringIcNS2_20StringStorageDefaultIcEEEE10vector_setI4PPtrI11SpriteAtlasENS0_4lessISB_EE13stl_allocatorISB_L18MemLabelIdentifier79ELi16EEEEES6_20StringHash32FunctionIS6_EN14dense_hash_mapIS6_SH_SK_NS0_8equal_toIS6_EESE_ISI_LSF_79ELi16EEE9SelectKeyESN_SO_E15insert_noresizeERKSI_
sjd:__ZN5physx2Sc18ParticleSystemCore16releaseParticlesEv
ufg:_KeyPairPersistence_get_UseMachineKeyStore_m560802076
WDd:__ZNK5physx2Gu29EPASupportMapPairRelativeImplINS0_8CapsuleVENS0_4BoxVEE6getDirEv
uCg:_Collection_1_CopyTo_m1840908033_gshared
XKc:__ZN5physx2Gu20intersectTriangleBoxERKNS_6shdfnd3aos5Vec3VES5_S5_S5_S5_
IQ:__ZN19AudioPlayableOutput19DeallocateResourcesEv
Fjj:_Enumerator_System_Collections_IDictionaryEnumerator_get_Entry_m345330700_AdjustorThunk
v7h:_AssemblyName_get_Name_m1815759940
q1k:__ZNSt3__214__split_bufferIP9FieldInfoRNS_9allocatorIS2_EEEC2EjjS5_
tSe:_AbstractEventData__ctor_m3586111519
yLb:__Z18Transfer_BlittableI24GenerateTypeTreeTransferLb1EjEvRK29SerializationCommandArgumentsR31RuntimeSerializationCommandInfo
tVg:_MD2Managed_Padding_m410163267
o9k:__ZNK15dense_hashtableINSt3__24pairIK10KeyWrapperINS1_IPK11Il2CppImageP11Il2CppClassEEEjEES9_17ReflectionMapHashIS8_EN14dense_hash_mapIS9_jSD_NS9_14EqualsComparerINS0_8equal_toIS8_EEEENS0_9allocatorISB_EEE9SelectKeyESI_SK_E10test_emptyERK30dense_hashtable_const_iteratorISB_S9_SD_SM_SI_SK_E
oZj:_Toggle_UnityEngine_UI_ICanvasElement_get_transform_m4177274032
Mbe:__Z49Register_UnityEngine_Collider_INTERNAL_get_boundsv
llb:__ZN11ColorRGBA328TransferI14SafeBinaryReadEEvRT_
B6d:__ZN5physx6shdfnd5ArrayIPvNS0_19ReflectionAllocatorINS_24NpPtrTableStorageManager8PtrBlockILi4EEEEEE15growAndPushBackERKS2_
_ua:__Z11IsHDRFormat13TextureFormat
kXi:__ZL85Input_t1785128008_CustomAttributesCacheGenerator_Input_get_touchSupported_m3352846145P21CustomAttributesCache
sg:_emscripten_glClearDepth
a5b:__ZNK8GUILayer22GetTypeVirtualInternalEv
mob:__ZN8Playable12SetPlayStateE9PlayState
xtb:__ZN14SafeBinaryRead21TransferSTLStyleArrayINSt3__26vectorIN15QualitySettings14QualitySettingENS1_9allocatorIS4_EEEEEEvRT_17TransferMetaFlags
_Pf:_Array_swap_TisVector2_t2243707579_m3359959735_gshared
W8d:__Z13RegisterClassI12MeshColliderEvv
n1f:_File_OpenText_m4058508963
vMj:_Collision_get_frictionForceSum_m3438602686
iAb:__ZNSt3__26vectorINS_4pairIPKN5Unity4TypeE7Hash128EENS_9allocatorIS7_EEE8__appendEj
Ojh:_WellKnownClientTypeEntry__ctor_m670594074
uej:__ZL61FontData_t2614388407_CustomAttributesCacheGenerator_m_MinSizeP21CustomAttributesCache
Udl:__ZN15dense_hashtableINSt3__24pairIK10KeyWrapperIP11Il2CppClassES4_EES5_N6il2cpp8metadata16SZArrayClassHashEN14dense_hash_mapIS5_S4_SA_NS5_14EqualsComparerINS9_19SZArrayClassCompareEEENS0_9allocatorIS7_EEE9SelectKeyESE_SG_EC2ERKSJ_j
ttf:_DateTime_System_IConvertible_ToSingle_m3927769066_AdjustorThunk
vne:_cff_font_load
wwk:_Enumerator_Reset_m950879083
_0g:_RecordProtocol_SendRecord_m2977889250
Gdc:__Z13IsPathCreatedRKN4core12basic_stringIcNS_20StringStorageDefaultIcEEEE
qGd:__ZN5physx35solveContactPreBlock_ConcludeStaticEPKNS_23PxcSolverConstraintDescEjRNS_16PxcSolverContextE
iva:__ZL22stbir__encode_scanlineP11stbir__infoiPvPfiii
gFh:__Z61RuntimeInvoker_Double_t4078015681_RuntimeObject_RuntimeObjectPFvvEPK10MethodInfoPvPS4_
TKh:__Z136RuntimeInvoker_Void_t1841601450_Byte_t3683104436_RuntimeObject_Int64U26_t763825331_ObjectU26_t597476745_SerializationInfoU26_t4051840202PFvvEPK10MethodInfoPvPS4_
nce:__ZN20QuadTreeNodeRenderer13StaticDestroyEPv
AW:__ZN11UnityEngine15CloudWebService20WebRequestRestClient5AbortEv
sEf:_Array_InternalArray__ICollection_Remove_TisUInt32_t2149682021_m4198326168_gshared
b1b:__ZN9Transform12CleanupClassEv
oFh:__Z50RuntimeInvoker_Void_t1841601450_Double_t4078015681PFvvEPK10MethodInfoPvPS4_
Rxl:__ZN6il2cpp6icalls8mscorlib6System9Threading16NativeEventCalls19CloseEvent_internalE12Il2CppIntPtr
RA:__ZN11UnityEngine9Animation33SetGenericTransformPropertyValuesERKNS0_30AnimatorGenericBindingConstantERKN7mecanim10ValueArrayEP9Transformb
ZYg:_ClientContext_set_ClientHelloProtocol_m2246603449
eVc:__ZN5physx6shdfnd5ArrayIPvNS0_15InlineAllocatorILj256ENS0_19ReflectionAllocatorINS_2Cm5BlockIS2_Lj32EEEEEEEE15growAndPushBackERKS2_
FRd:__ZN5physx18PxsSolverStartTask13setupDescTaskEv
Ffe:_UNITY_FT_Set_Pixel_Sizes
K8e:_U3CMouseDragOutsideRectU3Ec__Iterator1_MoveNext_m2845491958
IVb:__ZNSt3__26vectorIN9ShaderLab19SerializedSubShaderENS_9allocatorIS2_EEE26__swap_out_circular_bufferERNS_14__split_bufferIS2_RS4_EE
MPf:_Array_swap_TisAnimatorClipInfo_t3905751349_TisAnimatorClipInfo_t3905751349_m1375833338_gshared
aHh:__Z116RuntimeInvoker_RuntimeObject_RuntimeObject_Int32_t2071877448_RuntimeObject_RuntimeObject_RuntimeObject_RuntimeObjectPFvvEPK10MethodInfoPvPS4_
jTk:_AnalyticsTracker_TriggerEvent_m1494303835
rIi:__ZL59IChannelReceiver_t2788889625_CustomAttributesCacheGeneratorP21CustomAttributesCache
wXe:_StandaloneInputModule_IsModuleSupported_m623598506
XAc:__ZN5physx3Cct13BoxController6resizeEf
VZj:_ResourceReader_Close_m3256966401
Qnh:_SByte_ToString_m4105923225_AdjustorThunk
Slh:_StreamingContext_t1417235061_marshal_pinvoke_cleanup
PBf:_CultureInfo_ConstructCurrentUICulture_m3363349599
xub:__ZN13dynamic_arrayI7SubMeshLj4EE18resize_initializedEjRKS0_12ResizePolicy
Jhj:__ZL75CanvasScaler_t2574720772_CustomAttributesCacheGenerator_m_FallbackScreenDPIP21CustomAttributesCache
f8f:_MonoType_GetEvent_m4160342003
kSj:_RawImage_set_texture_m2400157626
jTd:__ZN5physx6shdfnd5ArrayINS_2Cm12DelegateTaskINS_2Sc5SceneEXadL_ZNS5_19updateCCDSinglePassEPNS_10PxBaseTaskEEEEENS0_19ReflectionAllocatorIS8_EEE8recreateEj
jLk:_PrimeHelper_ToPrime_m1606935350_gshared
Alb:__Z30ProcessDynamicBatchGeometryJobP25DynamicVBOGeometryJobDataj
vxj:_EqualityComparer_1__ctor_m81618677_gshared
p_a:__ZNSt3__27__sort4IRNS_6__lessI11CulledLightS2_EEPS2_EEjT0_S6_S6_S6_T_
b5k:__ZN6il2cpp2vm14TypeNameParser26ParseArrayModifierOptionalEv
xHj:_AudioClipPlayable_INTERNAL_CALL_GetLoopedInternal_m3082735156
Hag:_MSCompatUnicodeTable_Level3_m260824928
l9e:_LayoutElement_OnEnable_m3478706401
a3:__Z26scripting_object_get_class18ScriptingObjectPtr
ngl:__ZN6il2cpp6icalls8mscorlib6System10Reflection8Assembly13get_code_baseEP24Il2CppReflectionAssemblyb
qSk:_Func_3__ctor_m3917225629_gshared
f5c:__ZN5physx34NpShapeGetScRigidObjectFromScbSLOWERKNS_3Scb5ShapeE
A0b:__ZNK28MonoBehaviourPropertyBinding15GenerateBindingERKN4core12basic_stringIcNS0_20StringStorageDefaultIcEEEEbRN11UnityEngine9Animation14GenericBindingE
tpi:_GUIStyle_CalcMinMaxWidth_m2027503105
OYf:_Int32_FindExponent_m3187554672
Gfg:_KeyPairPersistence_Load_m1355205585
HUj:_ScrollRect_get_horizontalScrollbarVisibility_m4152068235
QZf:_Int32_ToString_m2960866144_AdjustorThunk
dJh:__Z127RuntimeInvoker_Void_t1841601450_IntPtr_t_Int32_t2071877448_SByte_t454417549_Int32_t2071877448_SByte_t454417549_SByte_t454417549PFvvEPK10MethodInfoPvPS4_
CLk:_HashSet_1_Contains_m3626542335_gshared
o0h:__Z104RuntimeInvoker_Int32_t2071877448_AnimatorClipInfo_t3905751349_AnimatorClipInfo_t3905751349_RuntimeObjectPFvvEPK10MethodInfoPvPS4_
YYc:__ZNK5physx21PxsBodyTransformVault12getTransformERKNS_11PxsBodyCoreE
Sql:__ZN6il2cpp6icalls8mscorlib6System11Environment15internalGetHomeEv
eKl:dynCall_iiiiiiffiiiiiiiiiffffiiii
JKd:__ZN5physx2Gu33MultiplePersistentContactManifold10fromBufferEPh
V1k:__ZNSt3__214__split_bufferIN6il2cpp6icalls8mscorlib6System12PropertyPairERNS_9allocatorIS5_EEEC2EjjS8_
mPi:__ZL79Convert_t2607082565_CustomAttributesCacheGenerator_Convert_ToUInt16_m2130758075P21CustomAttributesCache
SCc:__ZN44ConvexVsHeightfieldContactGenerationCallback7onEventEjPj
zlh:__ZN21InterfaceFuncInvoker4IP12Il2CppObjectS1_P28SerializationInfo_t22898743028StreamingContext_t1417235061S1_E6InvokeEjP11Il2CppClassS1_S1_S3_S4_S1_
iQi:__ZL58IFormatProvider_t2849799027_CustomAttributesCacheGeneratorP21CustomAttributesCache
c2h:__Z75RuntimeInvoker_Void_t1841601450_Int32_t2071877448_KeyValuePair_2_t888819835PFvvEPK10MethodInfoPvPS4_
JHk:_ObjectPool_1_Get_m3724675538_gshared
Uab:__ZN13ScreenManagerD0Ev
cC:__ZN7mecanim8skeleton26SkeletonPoseComputeGlobalQEPKNS0_8SkeletonEPKNS0_13SkeletonPoseTIN4math4trsXEEEPS7_ii
_yc:__ZN8JSONRead21TransferSTLStyleArrayI13dynamic_arrayIfLj4EEEEvRT_18MemLabelIdentifier17TransferMetaFlags
wEd:__ZN5physx2Gu19_gjkRelativeRayCastINS0_9TriangleVENS0_8CapsuleVEEEbRT_RT0_RKNS_6shdfnd3aos15PsMatTransformVERKNS9_6FloatVERKNS9_5Vec3VESI_RSD_RSG_SK_f
Sug:_List_1_GetEnumerator_m2672519407_gshared
EB:__ZN9BlobWrite8TransferI22OffsetPtrArrayTransferIiEEEvRT_PKc17TransferMetaFlags
gLh:__Z82RuntimeInvoker_Boolean_t3825574718_SByte_t454417549_RuntimeObject_SByte_t454417549PFvvEPK10MethodInfoPvPS4_
rag:_ContractionComparer_Compare_m314873025
jul:__ZN6il2cpp6icalls8mscorlib6System7Runtime15InteropServices8GCHandle15GetTargetHandleEP12Il2CppObjectii
gEg:_Collection_1_IsFixedSize_m1690655146_gshared
TEf:_PlayableHandle_IsPlayableOfType_TisRuntimeObject_m4111068959_AdjustorThunk
UJb:__Z18Transfer_BlittableI17RemapPPtrTransferLb1EjEvRK29SerializationCommandArgumentsR31RuntimeSerializationCommandInfo
iqi:_GUIUtility_EndGUIFromException_m2091524531
HZc:__ZN5physx6shdfnd5ArrayIPvNS0_15InlineAllocatorILj256ENS0_19ReflectionAllocatorINS_11NpAggregateEEEEEE15growAndPushBackERKS2_
g_f:_Int64_System_IConvertible_ToDouble_m638786774
Amd:__ZNK5physx14NpRigidDynamic21getMaxAngularVelocityEv
vN:__ZN4FMOD6System7releaseEv
wAd:__ZN5physx6shdfnd8PoolBaseINS_2Sc18TriggerInteractionENS0_19ReflectionAllocatorIS3_EEE15disposeElementsEv
Wlf:_HashKeys_get_IsSynchronized_m4207641174
iNb:__Z18Transfer_BlittableI19StreamedBinaryWriteILb0EELb1E8BitFieldEvRK29SerializationCommandArgumentsR31RuntimeSerializationCommandInfo
f5:__Z18PathToAbsolutePathRKN4core12basic_stringIcNS_20StringStorageDefaultIcEEEE
gPh:__Z44RuntimeInvoker_HashAlgorithmType_t1654661965PFvvEPK10MethodInfoPvPS4_
I1i:__ZL135AnimationMixerPlayable_t1343787797_CustomAttributesCacheGenerator_AnimationMixerPlayable_INTERNAL_CALL_CreateHandleInternal_m4073934737P21CustomAttributesCache
emg:_Enumerator_MoveNext_m3078170540_AdjustorThunk
G7d:__ZN5physx28PxcContactCapsuleHeightFieldERKNS_2Gu13GeometryUnionES3_RKNS_11PxTransformES6_RKfRNS_10PxcNpCacheERNS0_13ContactBufferE
oKe:_SymmetricAlgorithm_get_Padding_m718051685
txe:__ZN21UnityAnalyticsManager15ThreadedCleanupEv
Vxl:__ZN6il2cpp6icalls8mscorlib6System10Reflection16MonoPropertyInfo16GetTypeModifiersEPvb
jIk:_Action_Invoke_m3801112262
NCc:__ZL31PointInConvexPolygon2D_OutCodesPKfjffffRh
AFh:__Z79RuntimeInvoker_Decimal_t724701077_RuntimeObject_Int32_t2071877448_RuntimeObjectPFvvEPK10MethodInfoPvPS4_
Lkd:__ZN5physx22NpParticleBaseTemplateINS_16PxParticleSystemENS_16NpParticleSystemEE18setDynamicFrictionEf
Pua:__ZL13BlitImageImplR14ImageReferenceiiRKS_NS_10ColorSpaceENS_8BlitModeEb
fqa:__ZN6prcoreL17RemapGenericFloatI18TexFormatRGBAFloat17TexFormatRGBFloatEEvPKNS_9InnerInfoE
U0c:__ZN5physx2Sc21ArticulationJointCore21setInternalComplianceEf
jOi:__ZL76Convert_t2607082565_CustomAttributesCacheGenerator_Convert_ToChar_m541258017P21CustomAttributesCache
qae:__ZN9Rigidbody12MoveRotationERK11Quaternionf
HPk:__ZL25UnresolvedVirtualCall_159P12Il2CppObject18Color32_t874517518PK10MethodInfo
QEh:__Z64RuntimeInvoker_RuntimeObject_Int16_t4041245914_Int16_t4041245914PFvvEPK10MethodInfoPvPS4_
n$d:__ZNK5physx6shdfnd10Foundation13getErrorLevelEv
Gva:__ZN29SerializeTraitsForStringTypesIN4core12basic_stringIcNS0_20StringStorageDefaultIcEEEEE8TransferI24GenerateTypeTreeTransferEEvRS4_RT_
Zoi:_GUIUtility_Internal_GetHotControl_m2510727642
CL:__ZN12AudioManager29ShutdownReinitializeAndReloadEv
bzk:_NetscapeCertTypeExtension_Decode_m2210025005
SQi:__ZL59StringComparison_t2376310518_CustomAttributesCacheGeneratorP21CustomAttributesCache
tUd:__ZN5physx2Cm12DelegateTaskINS_2Sc5SceneEXadL_ZNS3_15postNarrowPhaseEPNS_10PxBaseTaskEEEE11runInternalEv
Z8d:__Z20ConvertContactToMonoP9Collision
Xqk:_RectTransform_GetLocalCorners_m1836626405
Xjh:_BaseFixupRecord_DoFixup_m1821597450
mUk:__ZN15dense_hashtableINSt3__24pairIK10KeyWrapperIPK22Il2CppGenericParameterEP11Il2CppClassEES6_N6il2cpp5utils11PointerHashIS4_EEN14dense_hash_mapIS6_S9_SE_NS6_14EqualsComparerINS0_8equal_toIS5_EEEENS0_9allocatorISA_EEE9SelectKeyESJ_SL_E6insertERKSA_
r1f:_FileLoadException__ctor_m1356374414
cYg:_TlsStream_Reset_m1504601050
$og:__ZN23InterfaceActionInvoker2IP23Int32U5BU5D_t3030399641iE6InvokeEjP11Il2CppClassP12Il2CppObjectS1_i
EFa:__ZN14DataBufferGLES16RecreateWithDataEjPKv
_cc:__Z29GetGlobalAllowNameConversionsv
MCc:__ZL17transformVerticesRfS_S_S_PfjPKN5physx6PxVec3EPKhRKNS1_7PxMat33E
L7d:__ZNK5physx2Gu15HeightFieldUtil31getFaceIndexAtShapePointNoTest2Ejff
nab:__ZN8Material8SetColorEN9ShaderLab16FastPropertyNameERK10ColorRGBAf
QNd:__ZN5physx6shdfnd5ArrayIPNS_14PxLightCpuTaskENS0_13TempAllocatorEE6resizeEjRKS3_
Ffi:_Module_GetCustomAttributes_m3581287913
QBi:__ZL67Type_t_CustomAttributesCacheGenerator_Type_IsSubclassOf_m2450899481P21CustomAttributesCache
xBd:__ZNK5physx2Sq10AABBPruner5sweepERKNS0_9ShapeDataERKNS_6PxVec3ERfRNS0_14PrunerCallbackE
PNb:__ZN10RectOffset8TransferI19StreamedBinaryWriteILb0EEEEvRT_
$Lk:_Client_Start_m2062884450
_mg:_Enumerator__ctor_m2054046066_AdjustorThunk
T1:__ZL41AssemblyNameMatchesWithOrWithoutExtensionPKcS0_
$$h:__Z53RuntimeInvoker_Boolean_t3825574718_Color32_t874517518PFvvEPK10MethodInfoPvPS4_
vwd:__ZN5physx2Sc5Scene21fireCallBacksPostSyncEv
EGj:_AssemblyIsEditorAssembly__ctor_m2639706522
WJa:__ZN14GfxContextGLES43AddRenderSurfaceToDeferredFBOInvalidateListEPK17RenderSurfaceGLES
bDd:__ZN5physx17PxsCCDAdvanceTask11runInternalEv
uka:__ZN11NamedObject23VirtualRedirectTransferER14SafeBinaryRead
RAi:__ZL74RuntimeArray_CustomAttributesCacheGenerator_Array_BinarySearch_m3522310993P21CustomAttributesCache
vfe:__ZNSt3__26vectorIN20TextRenderingPrivate8FontImpl13CharacterInfoE13stl_allocatorIS3_L18MemLabelIdentifier1ELi16EEE6insertENS_11__wrap_iterIPKS3_EERS9_
Fra:__ZN23PreloadManagerOperation6IsDoneEv
OYi:__ZL102DataUtility_t4181890362_CustomAttributesCacheGenerator_DataUtility_INTERNAL_CALL_GetOuterUV_m121019172P21CustomAttributesCache
H2k:__ZN6il2cpp2vm7Runtime15InvokeWithThrowEPK10MethodInfoPvPS5_
ljg:_X509Certificate_get_RawData_m3000055075
SUk:__ZNSt3__26vectorIPK10Il2CppTypeNS_9allocatorIS3_EEE21__push_back_slow_pathIRKS3_EEvOT_
J7b:__Z33GetHasChangedDeprecatedSystemMaskv
ssl:__ZN6il2cpp5utils11StringUtils11Utf16ToUtf8ERKNSt3__212basic_stringIDsNS2_11char_traitsIDsEENS2_9allocatorIDsEEEE
U3h:__Z30RuntimeInvoker_Link_t865133271PFvvEPK10MethodInfoPvPS4_
dNc:__ZN5physx3Cct26CharacterControllerManagerD2Ev
Qkj:_Enumerator_VerifyState_m1165543189_AdjustorThunk
$tf:_DateTime_AddSeconds_m722082155_AdjustorThunk
hjf:_SynchronizedArrayListWrapper_CopyTo_m956887031
g_k:__ZNSt3__213__lower_boundIRN6il2cpp5utils11collections13ArrayValueMapIPK10Il2CppType17Il2CppInteropData26InteropDataToTypeConverterNS1_8metadata14Il2CppTypeLessENSA_26Il2CppTypeEqualityComparerEE22LowerBoundFindComparerEPKS8_S7_EET0_SI_SI_RKT1_T_
khk:_Comparer_1__ctor_m1202126643_gshared
v_i:__ZL92Transform_t3275118058_CustomAttributesCacheGenerator_Transform_get_parentInternal_m927919099P21CustomAttributesCache
fwa:__ZN21LightProbeProxyVolume18HasHardwareSupportEv
Koa:__ZN6prcoreL31inner_stretch_argb8888_bilinearEPKNS_9InnerInfoE
_Ob:__Z18Transfer_BlittableI18StreamedBinaryReadILb1EELb1E8BitFieldEvRK29SerializationCommandArgumentsR31RuntimeSerializationCommandInfo
xhe:_UNITY_FT_Outline_Decompose
SMk:__ZL23UnresolvedVirtualCall_8P12Il2CppObjectS0_S0_PK10MethodInfo
j$g:_TlsClientCertificate_get_ClientCertificate_m3062440489
kUe:_EventTrigger_set_triggers_m644949167
H9i:__ZL80UnityEvent_t408735097_CustomAttributesCacheGenerator_UnityEvent__ctor_m588741179P21CustomAttributesCache
h8j:_InternalEnumerator_1_get_Current_m198513457_AdjustorThunk
d1i:__ZL116AudioClipPlayable_t192218916_CustomAttributesCacheGenerator_AudioClipPlayable_INTERNAL_CALL_ValidateType_m1977251214P21CustomAttributesCache
ECd:__ZN5physx6shdfnd8internal8HashBaseINS0_4PairIKNS3_IPKNS_12PxsRigidCoreEPKNS_12PxsShapeCoreEEEPNS_11PxsCCDShapeEEESA_NS0_4HashISA_EENS1_11HashMapBaseISA_SD_SG_NS0_9AllocatorEE6GetKeyESI_Lb1EE15reserveInternalEj
dck:_InternalEnumerator_1__ctor_m1240086835_AdjustorThunk
pYa:__Z20scripting_object_new17ScriptingClassPtr
LWf:_TextInfo__ctor_m2782608694
Qfc:__Z31Display_CUSTOM_GetSystemExtImpl13Il2Cpp_IntPtrPiS0_
nBg:_Queue_1_System_Collections_ICollection_CopyTo_m772787461_gshared
Imc:__Z58Register_UnityEngine_Object_Internal_CloneSingleWithParentv
B7k:__ZN24dense_hashtable_iteratorINSt3__24pairIK10KeyWrapperINS1_IPK9FieldInfoP11Il2CppClassEEEjEES9_17ReflectionMapHashIS8_EN14dense_hash_mapIS9_jSD_NS9_14EqualsComparerINS0_8equal_toIS8_EEEENS0_9allocatorISB_EEE9SelectKeyESI_SK_E30advance_past_empty_and_deletedEv
UWf:_TextInfo_ToUpper_m299550697
lxd:__ZN5physx2Sc5Scene21setDominanceGroupPairEhhRKNS_20PxDominanceGroupPairE
mSg:_ReadOnlyCollection_1_System_Collections_IList_Contains_m4073811941_gshared
H2a:__ZN18ShadowMapJobHeaderD0Ev
E2e:_Graphic_OnRectTransformDimensionsChange_m1610753363
_rf:_Convert_ToUInt16_m3265369225
P:Math_exp
M7f:_MonoEnumInfo_get_Cache_m3551569711
Qp:FUNCTION_TABLE_iiifi
pol:__ZN6il2cpp2os5posix13PosixAutoLockD2Ev
GDf:_Array_InternalArray__ICollection_Contains_TisVector3_t2243707580_m3625701788_gshared
Gya:__ZNSt3__26vectorINS_4pairIyP17VertexDeclarationEENS_9allocatorIS4_EEE6insertENS_11__wrap_iterIPKS4_EERS9_
Q2j:__ZN21InterfaceFuncInvoker0IP6Type_tE6InvokeEjP11Il2CppClassP12Il2CppObject
lFg:_Collection_1_ClearItems_m3021709828_gshared
pBi:__ZL66RuntimeArray_CustomAttributesCacheGenerator_Array_Sort_m1999601238P21CustomAttributesCache
bBg:_Enumerator__ctor_m1424070651_AdjustorThunk
Fle:_cff_get_advances
k8a:__ZN13MonoBehaviour9SetScriptERK4PPtrI10MonoScriptE18ScriptingObjectPtr
wDf:_Array_InternalArray__ICollection_Contains_TisPlayableBinding_t2498078091_m4267109606_gshared
dhe:_UNITY_FT_Create_Class_sfnt_module_class
GYj:_Text_CalculateLayoutInputHorizontal_m1578553982
yZi:__ZL87Object_t1021602117_CustomAttributesCacheGenerator_Object_DestroyObject_m282495858____t1P21CustomAttributesCache
kjl:__ZNSt3__218uninitialized_copyIPNS_4pairIK10KeyWrapperIP14Il2CppIUnknownEjEES8_EET0_T_SA_S9_
Mod:__ZN5physx7NpScene12loadFromDescERKNS_11PxSceneDescE
twf:_Decimal_IsZero_m3557909184_AdjustorThunk
Ogf:_Char_ToString_m1401375624
rGe:_MD5CryptoServiceProvider__cctor_m3309191799
Qea:__ZNK10FileSystem16LastErrorMessageEv
Fnc:__ZN13ProduceHelperI18CrashReportManagerLb0EE7ProduceE18MemLabelIdentifier18ObjectCreationMode
rxi:_ScriptPlayableOutput__ctor_m3107656159
reh:_InterpreterFactory_get_NamesMapping_m3186583301
GXh:__Z74RuntimeInvoker_Vector2_t2243707579_Vector2_t2243707579_Vector2_t2243707579PFvvEPK10MethodInfoPvPS4_
nXi:__ZL87Input_t1785128008_CustomAttributesCacheGenerator_Input_get_compositionString_m636835668P21CustomAttributesCache
S9b:__ZN11TimeManager16HasFixedTimeStepEv
Rng:_Enumerator_System_Collections_IEnumerator_Reset_m3052395060_gshared
dFg:_Collection_1_System_Collections_ICollection_get_SyncRoot_m1997144145_gshared
CTg:_Kernel_DwordDivMod_m3728402123
YCb:__ZN13MonoBehaviour13AwakeFromLoadE17AwakeFromLoadMode
NJb:__ZL26Transfer_SimpleNativeClassI17RemapPPtrTransfer8GradientLb1EEvRK29SerializationCommandArgumentsR31RuntimeSerializationCommandInfo
X7b:__ZN12CachedWriter9InitWriteER15CacheWriterBase
v6b:__Z21UnsignedInt64ToStringy
Osh:_UTF7Decoder__ctor_m549434986
jxd:__ZN5physx14PxsAABBManager15createAggregateEPvb
Rek:_InternalEnumerator_1_get_Current_m1025321669_AdjustorThunk
fui:_Object_t1021602117_marshal_pinvoke
Mic:__Z36MonoBehaviour_CUSTOM_InvokeRepeatingP12Il2CppObjectP12Il2CppStringff
Eyk:_WaitForSecondsRealtime_get_keepWaiting_m741039114
jmc:__Z66Register_UnityEngine_Transform_INTERNAL_CALL_InverseTransformPointv
eaa:__ZZN15DirectorManager15InitializeClassEvEN41FixedUpdateDirectorFixedUpdateRegistrator7ForwardEv
F9j:_InternalEnumerator_1_MoveNext_m2720582493_gshared
LBk:_X509CrlEntry_get_RevocationDate_m1257876856
asg:_List_1_IndexOf_m1434084853_gshared
mb:invoke_iiiiifiiiif
KBk:_X509Crl_VerifySignature_m1390212587
ldh:_Group__ctor_m4103922028
DUa:__ZN6Camera26ClearIntermediateRenderersEj
D0k:__ZNSt3__214__split_bufferI6pollfdRNS_9allocatorIS1_EEEC2EjjS4_
rtk:_SphereCollider_INTERNAL_set_center_m3085859499
NRl:_glLinkProgram__wrapper
spa:__ZN6prcoreL12RemapGenericI17TexFormatARGB888815TexFormatBGR888EEvPKNS_9InnerInfoE
xGe:_MD5CryptoServiceProvider_ProcessFinalBlock_m1052610785
MH:__Z79AnimatorControllerPlayable_CUSTOM_INTERNAL_CALL_GetNextAnimatorClipInfoInternalR9HPlayablei
xjf:_BitArray_Set_m2878881714
aJg:_Collection_1_get_Item_m4215988522_gshared
wXf:_Guid_CompareTo_m2203922782_AdjustorThunk
_ad:__ZN5physx7NpShape8requiresERNS_23PxProcessPxBaseCallbackE
Tjl:__ZN6il2cpp6icalls8mscorlib6System13Globalization11CultureInfo35construct_internal_locale_from_nameEP17Il2CppCultureInfoP12Il2CppString
NLb:__ZL22Transfer_ManagedObjectI24GenerateTypeTreeTransferLb1EEvRK29SerializationCommandArgumentsR31RuntimeSerializationCommandInfo
e_i:__ZL72SceneManager_t90660965_CustomAttributesCacheGenerator_activeSceneChangedP21CustomAttributesCache
iGc:__ZN24ConvexVsHeightfieldSweepC2ERN5physx2Gu15HeightFieldUtilERKNS1_14ConvexHullDataERKNS0_11PxMeshScaleERKNS0_11PxTransformESC_RKNS0_6PxVec3EfNS0_7PxFlagsINS0_9PxHitFlag4EnumEtEEfbb
kHi:__ZL55COMException_t1790481504_CustomAttributesCacheGeneratorP21CustomAttributesCache
beg:_ASN1_get_Count_m404940548
L2j:_ContextAttribute_Equals_m53324298
QYd:__ZN5physx7Cooking14cookConvexMeshERKNS_16PxConvexMeshDescERNS_14PxOutputStreamEPNS_25PxConvexMeshCookingResult4EnumE
Ck:_emscripten_set_main_loop_timing
Rfc:__Z34Display_CUSTOM_GetRenderingExtImpl13Il2Cpp_IntPtrPiS0_
GCh:_WeakReference_AllocateHandle_m1783929473
R0c:__ZN5physx2Sc21ArticulationJointCore22setTangentialStiffnessEf
TOf:_Array_Sort_TisRuntimeObject_m3674422195_gshared
tbe:__Z40CapsuleCollider_Set_Custom_PropDirectionP12Il2CppObjecti
I8d:__ZN14CompletionTask22ProcessAllPhysicsTasksEv
M9a:__ZN14ImageReference10FlipImageYEv
yjb:__Z32TransferEnumWithNameForceIntSizeI14SafeBinaryRead13TargetEyeMaskEvRT_RT0_PKc17TransferMetaFlags
spc:__Z14GetDefaultSkini
SBf:_CultureInfo_get_Name_m3316229893
Rtf:_DateTime_get_Ticks_m310281298_AdjustorThunk
bJ:__ZN4FMOD3DSP9setBypassEb
hKg:_Collection_1_System_Collections_IList_get_Item_m287847793_gshared
Deb:__Z19NormalizeWheelInputf
Zch:_CaptureCollection_CopyTo_m1982767892
xcb:__Z29StdTemplateConversionFunctionIsaEbPvR14SafeBinaryRead
ODf:_Array_InternalArray__ICollection_Remove_TisLink_t865133271_m1984184141_gshared
bzc:__Z29Transfer_Blittable_ArrayFieldI8JSONReadhEvRT_R9ArrayInfoRK23StaticTransferFieldInfo
U9e:_LayoutRebuilder_IsDestroyed_m3442208294
Iac:__ZN11MonoManager25GetImageFromAssemblyIndexEi
rkj:_Enumerator_VerifyState_m1547102902_AdjustorThunk
zfd:__ZN5physx2Sc9ClothCore17addCollisionPlaneERKNS_21PxClothCollisionPlaneE
PVa:__ZN22RenderingCommandBuffer20CleanupCommandBufferEv
wLh:__Z165RuntimeInvoker_Void_t1841601450_UInt32U26_t2197289955_Int32_t2071877448_UInt32U26_t2197289955_Int32_t2071877448_Int32_t2071877448_Int32_t2071877448_Int32_t2071877448PFvvEPK10MethodInfoPvPS4_
N2h:__Z99RuntimeInvoker_Void_t1841601450_CustomAttributeTypedArgumentU5BU5DU26_t4216645529_Int32_t2071877448PFvvEPK10MethodInfoPvPS4_
ruc:__Z18Transfer_BlittableI9JSONWriteLb1EtEvRK29SerializationCommandArgumentsR31RuntimeSerializationCommandInfo
Nbj:__ZL110ExecuteEvents_t1693084770_CustomAttributesCacheGenerator_ExecuteEvents_U3Cs_HandlerListPoolU3Em__0_m2903690915P21CustomAttributesCache
gbe:__Z34MeshCollider_Get_Custom_PropConvexP12Il2CppObject
s1f:_FileLoadException__ctor_m918124939
Wk:___syscall85
KWd:__ZNK5physx13PxHeightField8isKindOfEPKc
Wwi:_PlayableHandle_GetHashCode_m1983839661_AdjustorThunk
EXa:__ZNSt3__26__sortIRPFbP10GUIElementS2_EPS2_EEvT0_S7_T_
jUg:_SequentialSearchPrimeGeneratorBase_GenerateSearchBase_m2930465198
zfe:__Z14ValidateFormatR13dynamic_arrayIN20TextRenderingPrivate16TextFormatChangeELj4EE
hNk:__ZL24UnresolvedVirtualCall_25P12Il2CppObjectS0_aPK10MethodInfo
gpl:__ZN6il2cpp2os6Thread19DetachCurrentThreadEv
HUk:__ZN6il2cpp2vmL21SetupInterfacesLockedEP11Il2CppClassRKNS_2os12FastAutoLockE
qFb:__ZN11MonoManager23VirtualRedirectTransferER24GenerateTypeTreeTransfer
lUd:__ZNK5physx2Sc18ParticleSystemCore16getInternalFlagsEv
rnb:__ZN19StreamedBinaryWriteILb0EE8TransferI13dynamic_arrayI8Vector3fLj4EEEEvRT_PKc17TransferMetaFlags
Oz:__ZN23AnimationPlayableOutput17SetSourcePlayableEP8Playable
Nch:_Capture__ctor_m885749277
w4h:__Z114RuntimeInvoker_Int32_t2071877448_CustomAttributeTypedArgument_t1498197914_CustomAttributeTypedArgument_t1498197914PFvvEPK10MethodInfoPvPS4_
woi:_GUIStyle_set_clipOffset_m3871613343
L5e:_SubmitEvent__ctor_m222860306
KLc:__ZN16ControllerFilter9preFilterERKN5physx12PxFilterDataEPKNS0_7PxShapeEPKNS0_12PxRigidActorERNS0_7PxFlagsINS0_9PxHitFlag4EnumEtEE
AV:__ZN11UnityEngine15CloudWebService14DataDispatcher15SetupWebRequestEv
D5f:_TextWriter__cctor_m4047845042
v1g:_ReceiveRecordAsyncResult_get_Record_m1336421357
Bze:__ZN11UnityEngine15PlatformWrapper13GetShaderCapsEv
wId:__ZN16MBPOS_TmpBuffers16allocateSleepingEjj
Yzj:_AnimationClipPlayable_SetApplyFootIK_m4007156901_AdjustorThunk
gOi:__ZL76Convert_t2607082565_CustomAttributesCacheGenerator_Convert_ToByte_m509311047P21CustomAttributesCache
$qj:_Dictionary_2_System_Collections_Generic_IEnumerableU3CSystem_Collections_Generic_KeyValuePairU3CTKeyU2CTValueU3EU3E_GetEnumerator_m1742521661_gshared
EXh:__Z87RuntimeInvoker_Void_t1841601450_RuntimeObject_StringU26_t638738783_StringU26_t638738783PFvvEPK10MethodInfoPvPS4_
d6e:_InputField_CaretBlink_m3960486606
egg:_SmallXmlParser_ReadCharacters_m1966365555
e3g:_InternalAsyncResult_get_CompletedWithError_m3993955322
Q5b:__ZN21FixedBehaviourManager6UpdateEv
ndc:__ZN9Transform9SetParentEPS_NS_15SetParentOptionE
R3e:_GridLayoutGroup_set_startCorner_m1660251450
VJk:_EqualityComparer_1_get_Default_m3437633110_gshared
O$:__ZN19ShaderPropertySheet8SetFloatEN9ShaderLab16FastPropertyNameEfNS_8SetFlagsE
ifj:__ZL68InputField_t1631627530_CustomAttributesCacheGenerator_m_AsteriskCharP21CustomAttributesCache
Tsa:__ZN19RuntimeSceneManager24BeginIntegrateMainThreadEP10UnityScene
E_c:__ZN5physx14NpArticulation26setExternalDriveIterationsEj
oDc:__ZN16RayRTreeCallbackILi0ELb0EED0Ev
$qk:_Transform_TransformPoint_m3272254198
UNd:__ZN5physx20PxsParticleSystemSim23scheduleCollisionUpdateERNS_10PxBaseTaskE
$pl:__ZNSt3__2plIcNS_11char_traitsIcEENS_9allocatorIcEEEENS_12basic_stringIT_T0_T1_EERKS9_S6_
u6f:_LocalDataStoreSlot__cctor_m1192669356
nVb:__ZN9ShaderLab20SerializedSubProgramaSERKS0_
hHl:_roundf
YQe:_String_CreateString_m2556700934
Fib:__ZN18StreamedBinaryReadILb0EE21TransferSTLStyleArrayINSt3__26vectorI17SortingLayerEntryNS2_9allocatorIS4_EEEEEEvRT_17TransferMetaFlags
M$i:__ZL80Physics_t634932869_CustomAttributesCacheGenerator_Physics_RaycastAll_m3650851272P21CustomAttributesCache
AOc:__ZN5physx15PxBoxControllerD0Ev
Gt:__ZN8Animator15SetPrepareStageEv
rXj:_Slider_get_axis_m162140813
ugi:_MonoEventInfo_t2190036573_marshal_pinvoke
IUk:__ZN6il2cpp2vmL24SetupTypeHierarchyLockedEP11Il2CppClassRKNS_2os12FastAutoLockE
Keb:__ZL11TextHandleriPK23EmscriptenKeyboardEventPv
W0a:__Z20CalculateLightMatrixRK15SharedLightDataP10Matrix4x4f
PVj:_ScrollRect_SetLayoutHorizontal_m3486408020
Vee:_destroy_face
TKk:_GenericEqualityComparer_1_GetHashCode_m116190842_gshared
_jj:_Enumerator_VerifyState_m1547102902_gshared
JNl:_glBlendEquationSeparate__wrapper
YOc:__ZN5physx19PxAllocatorCallbackD2Ev
ZSa:__ZN24dense_hashtable_iteratorINSt3__24pairIKN4core12basic_stringIcNS2_20StringStorageDefaultIcEEEEP20ArchiveStorageReaderEES6_20StringHash32FunctionIS6_EN14dense_hash_mapIS6_S9_SC_NS0_8equal_toIS6_EE13stl_allocatorISA_L18MemLabelIdentifier54ELi16EEE9SelectKeyESF_SI_EC2EPK15dense_hashtableISA_S6_SC_SK_SF_SI_EPSA_SQ_b
oyl:__ZN6il2cpp6icalls8mscorlib6System8Security12Cryptography24RNGCryptoServiceProvider13RngInitializeEP11Il2CppArray
myg:_List_1_System_Collections_ICollection_get_IsSynchronized_m227393674_gshared
P6g:_IPAddress__cctor_m3624830012
lkd:__ZNK5physx15NpActorTemplateINS_16PxParticleSystemEE17getDominanceGroupEv
jXj:_Slider_Rebuild_m3442875945
Ynb:__ZN4PPtrI5LightE8TransferI19StreamedBinaryWriteILb0EEEEvRT_
YMc:__ZN5physx3Cct26CharacterControllerManager21createObstacleContextEv
I3i:__ZL115AnimatorStateInfo_t2577870592_CustomAttributesCacheGenerator_AnimatorStateInfo_t2577870592____nameHash_PropertyInfoP21CustomAttributesCache
MQk:__ZL25UnresolvedVirtualCall_218P12Il2CppObject40CustomAttributeTypedArgument_t1498197914PK10MethodInfo
H8g:_AsnEncodedData_EnhancedKeyUsageExtension_m1452131166
kgj:__ZL69Scrollbar_t3248359358_CustomAttributesCacheGenerator_m_OnValueChangedP21CustomAttributesCache
ZPb:__Z19TransferField_ArrayI18StreamedBinaryReadILb1EE27Converter_SimpleNativeClassI17AnimationCurveTplIfEEEvRK23StaticTransferFieldInfoR31RuntimeSerializationCommandInfoRT0_
_kg:_KeyValuePair_2__ctor_m3201181706_gshared
Gjd:__ZN5physx15NpActorTemplateINS_15PxParticleFluidEE7releaseEv
sdh:_GroupCollection_get_IsSynchronized_m1100663675
dGa:__ZN18GfxFramebufferGLES22MakeCurrentFramebufferENS_7BuiltinE
ayl:__ZN6il2cpp2vm12MarshalAlloc4FreeEPv
Tdh:_Interpreter_Close_m1500459069
YOk:__ZL25UnresolvedVirtualCall_122P12Il2CppObject32ScriptableRenderContext_t4271526S0_PK10MethodInfo
Yqd:__ZN5physx6shdfnd5ArrayIPNS_2Sc19ShapeInstancePairLLENS0_19ReflectionAllocatorIS4_EEE15growAndPushBackERKS4_
Bva:__ZN12CachedReader4ReadEPvj
HHd:__ZN5physx21MBPPostUpdateWorkTaskD0Ev
$le:_cf2_blues_init
S2c:__ZN5physx2Sc8BodyCore24clearSpatialAccelerationEbb
tyj:_CustomEventData_Add_m881214524
l8j:_InternalEnumerator_1_System_Collections_IEnumerator_get_Current_m3600601141_gshared
aJe:_SHA1Internal_HashFinal_m3188468925
_xk:_Vector3_op_Inequality_m799191452
m0a:__Z24CalculateLightShadowFadeRK6CamerafffR8Vector4f
Y1:__ZN19RuntimeSceneManagerD2Ev
iRi:__ZL55HeaderHandler_t324204131_CustomAttributesCacheGeneratorP21CustomAttributesCache
w0j:_ChannelData_get_CustomProperties_m1470957369
h7j:_InternalEnumerator_1_System_Collections_IEnumerator_get_Current_m1313308902_AdjustorThunk
iQf:_Dictionary_2_Do_ICollectionCopyTo_TisRuntimeObject_m545661084_gshared
QW:__ZN11UnityEngine15CloudWebService25WebRequestDownloadHandler17OnCompleteContentEv
Joa:__ZN6prcore17GetIntegerBlitterE13TextureFormatS0_N14ImageReference8BlitModeE
Rqd:__ZN5physx10PxsContext20createContactManagerERKNS_24PxvManagerDescRigidRigidEPNS_18PxsMaterialManagerE
Q8k:__ZN6il2cpp2gc19AppendOnlyGCHashMapINSt3__24pairIPK11Il2CppImageP11Il2CppClassEEP22Il2CppReflectionModule17ReflectionMapHashIS9_ENS2_8equal_toIS9_EEE11TryGetValueERKS9_PSB_
nlj:_Enumerator_VerifyState_m3173176371_AdjustorThunk
cpd:__ZN5physx2Cm12DelegateTaskINS_7NpSceneEXadL_ZNS2_12executeSolveEPNS_10PxBaseTaskEEEED0Ev
XDc:__ZN5physx2GuL18gPCMHullPrefetchCBEjPKNS_6PxVec3E
NUc:__ZN5physx2Sc5Scene31removeActiveBreakableConstraintEPNS0_13ConstraintSimE
xcj:__ZL109PointerEventData_t1599784723_CustomAttributesCacheGenerator_PointerEventData_get_eligibleForClick_m2497780621P21CustomAttributesCache
T5g:_TypeConverterAttribute__cctor_m506796812
Wph:_Encoding_get_IsReadOnly_m3729101432
Zcc:__ZN9BlobWrite14ReduceCopyImplERK14ReduceCopyDataj
aCh:_ValueType_t3507792607_marshal_pinvoke_back
qhk:_Comparer_1_System_Collections_IComparer_Compare_m1790257529_gshared
Z0h:__Z55RuntimeInvoker_Int32_t2071877448_ILTokenInfo_t149559338PFvvEPK10MethodInfoPvPS4_
yfi:_MethodInfo_get_ContainsGenericParameters_m572340060
mvd:__ZN5physx6shdfnd5ArrayINS_12PxActorShapeENS0_19ReflectionAllocatorIS2_EEE15growAndPushBackERKS2_
xQa:__ZN25MultiBlocksMemoryFileData17AdjustBlocksCountEj
Agl:__ZNSt3__214__split_bufferIN6il2cpp2vm22EmbeddedResourceRecordERNS_9allocatorIS3_EEED2Ev
eZg:_TlsClientHello__ctor_m1699671541
O3b:__ZZN12MeshRenderer15InitializeClassEvEN29FunctorImpl_134kDidModifyMesh4CallEPviR11MessageData
bde:__ZN13TextRendering4Font8TransferI24GenerateTypeTreeTransferEEvRT_
iBj:_AnimationOffsetPlayable_GetRotation_m3608800497_AdjustorThunk
Efc:__Z27CullingGroup_CUSTOM_DisposeP12Il2CppObject
Wxi:_Random_Range_m2884721203
Pfl:__ZN6il2cpp6icalls8mscorlib6SystemL23CheckWideningConversionEjjj
oXh:__Z69RuntimeInvoker_Color_t2020392075_Color_t2020392075_Single_t2076509932PFvvEPK10MethodInfoPvPS4_
gWa:__ZN13ComputeShader15SetTextureParamEjRKN9ShaderLab16FastPropertyNameE9TextureID16TextureDimension
IWj:_Shadow_set_effectDistance_m1951993364
Kli:_GUILayoutEntry_ApplyStyleSettings_m371609721
A7c:__ZN5physx2Sc14ConstraintCore8setFlagsENS_7PxFlagsINS_16PxConstraintFlag4EnumEtEE
BHg:_Collection_1_Remove_m1798559666_gshared
en:_glStencilMask
KLh:__Z70RuntimeInvoker_Boolean_t3825574718_Int16_t4041245914_Int32_t2071877448PFvvEPK10MethodInfoPvPS4_
Dpl:__ZN6il2cpp2os10ThreadImpl16GetCurrentThreadEv
EVd:__ZNK5physx2Sc15ClothFabricCore20getNbParticleIndicesEv
Feb:__ZN15GUIEventManager10QueueEventERK10InputEvent
Ukj:_Enumerator_System_Collections_IEnumerator_get_Current_m2010873149_gshared
z0e:_Resources_t2975512894_marshal_pinvoke_cleanup
vzj:_AnimationEvent_get_messageOptions_m3547411650
VBi:__ZL88Type_t_CustomAttributesCacheGenerator_Type_MakeGenericType_m2765875033____typeArguments0P21CustomAttributesCache
ihj:__ZL74SpriteState_t1353336012_CustomAttributesCacheGenerator_m_HighlightedSpriteP21CustomAttributesCache
wih:_RealProxy__ctor_m2505535530
Rvl:_GC_push_conditional_with_exclusions
Zzh:_UInt32_System_IConvertible_ToUInt16_m2798641702_AdjustorThunk
skh:_BinaryFormatter_get_DefaultSurrogateSelector_m219714691
$v:__ZN21AnimationPosePlayableD0Ev
DC:__ZN12_GLOBAL__N_121ProcessAnimationBeginER35AnimationPlayableEvaluationConstantR32AnimationPlayableEvaluationInputR33AnimationPlayableEvaluationOutput
HEj:_AnimatorControllerPlayable_CrossFadeInFixedTime_m3016214003
RHh:__Z136RuntimeInvoker_Void_t1841601450_Int32_t2071877448_RuntimeObject_RuntimeObject_RuntimeObject_RuntimeObject_RuntimeObject_SByte_t454417549PFvvEPK10MethodInfoPvPS4_
t8:__ZN15dense_hashtableINSt3__24pairIKiiEEi21InstanceIDHashFunctorN14dense_hash_mapIiiS4_NS0_8equal_toIiEE13stl_allocatorIS3_L18MemLabelIdentifier65ELi16EEE9SelectKeyES7_SA_E9copy_fromERKSD_j
fKg:_Collection_1_System_Collections_IList_get_IsFixedSize_m3252091801_gshared
G$e:_FloatTween_get_ignoreTimeScale_m4161298485_AdjustorThunk
_hi:_MonoProperty_GetOptionalCustomModifiers_m3827844355
mEl:_strrchr
dUc:__ZN5physx2Sc7BodySim6wakeUpEv
iDj:_AnimatorControllerPlayable_IsParameterControlledByCurve_m3990583163_AdjustorThunk
nbg:_SimpleCollator_GetSortKey_m2188419329
Hqd:__ZN5physx6shdfnd8PoolBaseINS_2Gu30LargePersistentContactManifoldENS0_19ReflectionAllocatorIS3_EEE17releaseEmptySlabsEv
AUc:__ZN5physx2Sc21ConstraintInteraction7destroyEv
L3d:__ZN14SphereCollider6CreateEPK9Rigidbody
aij:__ZL56LayoutElement_t2808691390_CustomAttributesCacheGeneratorP21CustomAttributesCache
gTj:_Scrollbar_Set_m244028386
Ojc:__Z33Register_UnityEngine_Random_Rangev
Cmc:__Z27Object_CUSTOM_DestroyObjectP12Il2CppObjectf
cFd:__ZN5physx13PxsSolverCoreD2Ev
bob:__ZN14RenderSettings27UpdateIndirectSpecularColorEv
S5h:__Z102RuntimeInvoker_RuntimeObject_UILineInfo_t3621277874_UILineInfo_t3621277874_RuntimeObject_RuntimeObjectPFvvEPK10MethodInfoPvPS4_
UAb:__ZN14PlayerSettings8TransferI18StreamedBinaryReadILb0EEEEvRT_
I_j:_FixedBufferAttribute__ctor_m2048050068
B1k:__ZN6il2cpp6icalls8mscorlib6System8MonoType16GetMethodsByNameEP20Il2CppReflectionTypeP12Il2CppStringibS5_
lsd:__ZNK5physx7NpScene16getNbConstraintsEv
lRf:_LayoutGroup_SetProperty_TisAxis_t1431825778_m2174054513_gshared
ied:__ZN5physx7NpCloth14setWakeCounterEf
Lsb:__ZN4PPtrI10GameObjectE8TransferI14SafeBinaryReadEEvRT_
QQj:_Mask_IsRaycastLocationValid_m62488857
o$i:__ZL105Physics_t634932869_CustomAttributesCacheGenerator_Physics_Raycast_m2036777053____queryTriggerInteraction5P21CustomAttributesCache
Lya:__ZNSt3__27__sort3IRNS_4lessIN22BuiltinResourceManager8ResourceEEEPS3_EEjT0_S7_S7_T_
Egk:_DefaultComparer_Compare_m3472472212_gshared
Z3h:__Z31RuntimeInvoker_Slot_t2022531261PFvvEPK10MethodInfoPvPS4_
S1f:_MonoIO_GetLength_m2812344043
Jke:_ps_hints_t2mask
Kaj:__ZL68UsedByNativeCodeAttribute_t3212052468_CustomAttributesCacheGeneratorP21CustomAttributesCache
ywk:_RequestAtlasCallback_Invoke_m2414509569
Bxb:__ZN10BlendShape8TransferI19StreamedBinaryWriteILb0EEEEvRT_
VWd:__ZNK5physx2Gu11HeightField17getReferenceCountEv
rwk:_Transform_IsChildOf_m10844547
HJ:__Z32TransferEnumWithNameForceIntSizeI14SafeBinaryReadN10SampleClip8LoadTypeEEvRT_RT0_PKc17TransferMetaFlags
j$f:__Z21il2cpp_codegen_sizeofP11Il2CppClass
tga:__Z19GetTimeSinceStartupv
Aka:__ZN7Texture23VirtualRedirectTransferER17RemapPPtrTransfer
GNe:_SecurityFrame_get_Assembly_m2816566490
Wei:_FieldInfo_GetPseudoCustomAttributes_m2500972355
NPc:__ZN5physx3Scb5Scene10getPxSceneEv
_pe:_TT_Load_Composite_Glyph
_Vk:_NetFxCoreExtensions_CreateDelegate_m2492743074
mBi:__ZL66RuntimeArray_CustomAttributesCacheGenerator_Array_Sort_m2323017822P21CustomAttributesCache
Obf:_Array_Sort_m2994254654
Xzg:_List_1__ctor_m593058937_gshared
yGf:_Array_InternalArray__IEnumerable_GetEnumerator_TisColor32_t874517518_m2198639025_gshared
G_a:__ZN29RenderNodeQueuePrepareContextC2Ev
pR:__ZN10SampleClipC2E18MemLabelIdentifier18ObjectCreationMode
nWb:__ZN9ShaderLab20SerializedSubProgram16TextureParameter8TransferI24GenerateTypeTreeTransferEEvRT_
eJl:dynCall_viiiiiiiiiiiii
Luh:_Thread_set_Name_m1343706609
Szl:__ZN6il2cpp2os11MutexHandle4WaitEj
_bc:__ZL34GetComponentsImplementationRecurseILb1ELi1ELi1EEbR10GameObjectbRK17CompareParametersRK39GetComponentsImplementation_ReturnValue
wUh:__Z75RuntimeInvoker_Playable_t1896841784_AnimationLayerMixerPlayable_t3057952312PFvvEPK10MethodInfoPvPS4_
Rzl:__ZN6il2cpp2os11MutexHandle4WaitEv
hhf:_ArrayList_set_Capacity_m592558035
Cqa:__ZN6prcoreL17RemapGenericFloatI15TexFormatRGHalf18TexFormatARGBFloatEEvPKNS_9InnerInfoE
gnc:__ZN18CrashReportManager23VirtualRedirectTransferER14SafeBinaryRead
ria:__ZNK13RenderTexture13GetDataHeightEv
lga:__Z18SimulateMouseInputi
f_f:_Int64_System_IConvertible_ToDecimal_m3390697048_AdjustorThunk
dVa:__ZN13RenderManager23AddRemoveCamerasDelayedEv
vvc:__ZN9JSONWrite8TransferI13dynamic_arrayIdLj8EEEEvRT_PKc17TransferMetaFlags
Hra:__ZN23PreloadManagerOperation11GetPriorityEv
pAf:_Exception_get_InnerException_m3722561235
hEf:_Array_InternalArray__ICollection_Remove_TisILTokenInfo_t149559338_m1523907845_gshared
yxe:__ZN11UnityEngine9Analytics15AnalyticsConfigC2Ev
e7j:_InternalEnumerator_1_System_Collections_IEnumerator_Reset_m138745466_AdjustorThunk
ZVh:__Z105RuntimeInvoker_Void_t1841601450_Vector2U26_t3911752445_RuntimeObject_RuntimeObject_Vector2U26_t3911752445PFvvEPK10MethodInfoPvPS4_
Mwg:_List_1_GetEnumerator_m4053501645_gshared
N8d:__ZNK5Unity5Joint16GetCurrentForcesER8Vector3fS2_
h0k:__ZN6il2cpp2gc9AllocatorIP17Il2CppAsyncResultE10deallocateEPvj
XKk:_Enumerator_CheckState_m1761755727_gshared
vlf:_Hashtable_Rehash_m2877670513
T5h:__Z98RuntimeInvoker_RuntimeObject_UIVertex_t1204258818_UIVertex_t1204258818_RuntimeObject_RuntimeObjectPFvvEPK10MethodInfoPvPS4_
j7a:__ZN13RenderTexture8SetWidthEi
b8e:_InputField_Insert_m1593238693
Q0b:__ZNK28RectTransformPropertyBinding12SetPPtrValueERKN11UnityEngine9Animation10BoundCurveEi
SQb:__Z18Transfer_BlittableI18StreamedBinaryReadILb0EELb0EfEvRK29SerializationCommandArgumentsR31RuntimeSerializationCommandInfo
Pxb:__ZN10MeshFilterD0Ev
aqe:_UNITY_FT_GlyphLoader_CheckSubGlyphs
enb:__ZN18StreamedBinaryReadILb0EE21TransferSTLStyleArrayI10vector_mapI7Hash128iNSt3__24lessIS3_EE13stl_allocatorINS4_4pairIS3_iEEL18MemLabelIdentifier80ELi16EEEEEvRT_17TransferMetaFlags
j0k:__ZN6il2cpp2vm21ThreadPoolCompartment20SpawnNewWorkerThreadEv
PJf:_Array_InternalArray__ICollection_Add_TisCustomAttributeTypedArgument_t1498197914_m3260005285_gshared
Q0a:__Z25SetupObjectBakedOcclusionbRK15SharedLightDataRK26SharedLightmapSettingsDataRK15LightmapIndicesR17ShaderPassContext
kmf:_SyncHashtable_GetObjectData_m3774367030
Hik:__ZN21InterfaceFuncInvoker4IP17Match_t3164245899P17Regex_t1803876613P8String_tiiE6InvokeEjP11Il2CppClassP12Il2CppObjectS3_S5_ii
zXf:_Guid_GetHashCode_m1401300871
Vzj:_AnimationClipPlayable_GetApplyFootIK_m3962677322_AdjustorThunk
vHk:_ListPool_1_U3Cs_ListPoolU3Em__0_m1243609651_gshared
csc:__Z42Register_UnityEngine_GUIStyle_set_fontSizev
eGi:__ZL61CallingConventions_t1097349142_CustomAttributesCacheGeneratorP21CustomAttributesCache
had:__ZNK5physx9NpFactory11getNbShapesEv
SI:__Z82Register_UnityEngine_Animations_AnimatorControllerPlayable_INTERNAL_CALL_GetBoolIDv
PMk:__ZL23UnresolvedVirtualCall_5P12Il2CppObjectsPK10MethodInfo
hE:__ZN4PPtrI6AvatarE8TransferI19StreamedBinaryWriteILb0EEEEvRT_
VA:__ZN8Animator9BuildJobsERK13dynamic_arrayIP14PlayableOutputLj4EERS0_INS_11AnimatorJobELj4EEPS7_bb
jti:_MeshCollider_set_convex_m2548365563
Grj:_Dictionary_2_System_Collections_IDictionary_set_Item_m115188189_gshared
c$:__ZN9ShaderLab16FastPropertyName4InitEPKc
ERi:__ZL79ModulusRing_t80355992_CustomAttributesCacheGenerator_ModulusRing_Pow_m661630322P21CustomAttributesCache
U$b:__Z13RegisterClassIN2UI13RectTransformEEvv
Lag:_MSCompatUnicodeTable_ToWidthCompat_m2299599532
bo:FUNCTION_TABLE_iiiii
k0d:__ZN5physx14PxRigidBodyExt23setMassAndUpdateInertiaERNS_11PxRigidBodyEfPKNS_6PxVec3Eb
w9f:_NumberFormatter_get_IsFloatingSource_m2830957202
Hub:__ZN10VertexData8TransferI17RemapPPtrTransferEEvRT_
Wha:__ZN13RenderTexture9SetMipMapEb
NWk:__ZN15dense_hashtableINSt3__24pairIK10KeyWrapperIPK11Il2CppClassEPKcEES6_N6il2cpp5utils11PointerHashIS3_EEN14dense_hash_mapIS6_S9_SE_NS6_14EqualsComparerINS0_8equal_toIS5_EEEENS0_9allocatorISA_EEE9SelectKeyESJ_SL_E13set_empty_keyERKSA_
PUj:_ScrollRect_set_verticalScrollbarSpacing_m2356851539
gOd:__ZN5physx2Sc10ClothShape21updateBoundsInAABBMgrEv
Mwi:_PlayableHandle_INTERNAL_CALL_SetTimeInternal_m3873000891
dag:_OperatingSystem_GetObjectData_m2276196875
OGj:_AssetBundleRequest_get_allAssets_m3314852268
csk:_ResourceRequest_t2560315377_marshal_pinvoke_back
Xbj:__ZL92PointerEventData_t1599784723_CustomAttributesCacheGenerator_U3CpointerDragU3Ek__BackingFieldP21CustomAttributesCache
Elc:__Z38Transform_CUSTOM_INTERNAL_get_rotationP12Il2CppObjectP11Quaternionf
L5k:__ZNSt3__26vectorIN6il2cpp2vm17TypeNameParseInfoENS_9allocatorIS3_EEE8allocateEj
fHi:__ZL66CriticalFinalizerObject_t1920899984_CustomAttributesCacheGeneratorP21CustomAttributesCache
F8k:__ZNK15dense_hashtableINSt3__24pairIK10KeyWrapperINS1_IPK10MethodInfoP11Il2CppClassEEEjEES9_17ReflectionMapHashIS8_EN14dense_hash_mapIS9_jSD_NS9_14EqualsComparerINS0_8equal_toIS8_EEEENS0_9allocatorISB_EEE9SelectKeyESI_SK_E5beginEv
qIa:__ZN7ApiGLES19UploadBufferSubDataEjN2gl12BufferTargetEllPKv
nCd:__ZN5physx2Sc5Scene17createClothSolverEv
pca:__ZNSt3__216__rotate_forwardINS_11__wrap_iterIPN4core12basic_stringIcNS2_20StringStorageDefaultIcEEEEEEEET_S9_S9_S9_
dPe:_String_System_IConvertible_ToInt32_m1927223638
S7:__ZdaPv
oid:__ZNK5physx15PxsParticleData16getMaxParticlesVEv
voh:_CryptographicException__ctor_m406825529
Lmj:_Transform_1_EndInvoke_m4121732147_gshared
zKj:_Canvas_set_sortingOrder_m2922819993
Eji:_FailedToLoadScriptObject_t3605283378_marshal_pinvoke_back
o5d:__ZThn116_N5physx7profile8ZoneImplINS_28PxProfileNameProviderForwardEE12removeClientERNS_19PxProfileZoneClientE
LMj:_Color_get_red_m2410286591
LHd:__ZN15MBP_PairManager17removeMarkedPairsEPK10MBP_ObjectPN5physx16PxsBroadPhaseMBPERK8BitArrayS8_
cIj:_AudioMixerPlayable_Create_m3525453973
lRe:_ASCIIEncoding__ctor_m4127831672
lHb:__Z19TransferField_ArrayI14SafeBinaryRead27Converter_SimpleNativeClassI8GUIStyleEEvRK23StaticTransferFieldInfoR31RuntimeSerializationCommandInfoRT0_
VEb:__ZN9TextAsset23VirtualRedirectTransferER19StreamedBinaryWriteILb0EE
Nqh:_UTF8Encoding__ctor_m3336862259
Ril:__ZN15dense_hashtableINSt3__24pairIK10KeyWrapperIP14Il2CppIUnknownEjEES5_N6il2cpp5utils11PointerHashIS3_EEN14dense_hash_mapIS5_jSB_NS5_14EqualsComparerINS0_8equal_toIS4_EEEENS0_9allocatorIS7_EEE9SelectKeyESG_SI_ED2Ev
vyl:__ZN6il2cpp5utils10MemoryPoolC2Ej
abh:_X509Chain_GetAuthorityKeyIdentifier_m2607407678
ryl:__ZN6il2cpp5utils10MemoryPoolC2Ev
Gnb:__ZN14RenderSettings5ResetEv
E_b:__ZN6Sprite9BindAtlasERK4PPtrI11SpriteAtlasE
G9c:__ZN5physx9NpPhysics33unregisterDeletionListenerObjectsERNS_18PxDeletionListenerEPKPKNS_6PxBaseEj
ggd:__ZNK5physx2Sc9ClothCore22getAngularInertiaScaleEv
ZE:__ZZN8Animator15InitializeClassEvEN37FunctorImpl_421kDidModifyOverrideClip4CallEPviR11MessageData
ZWe:_RaycastResult_set_gameObject_m1138581891_AdjustorThunk
nJj:_Bounds_get_extents_m4077324178_AdjustorThunk
p1c:__ZN5physx20NpRigidActorTemplateINS_18PxArticulationLinkEE12setActorFlagENS_11PxActorFlag4EnumEb
rdk:_InternalEnumerator_1_get_Current_m3724267862_AdjustorThunk
BQf:_Dictionary_2_Do_ICollectionCopyTo_TisKeyValuePair_2_t3716250094_m1740410536_gshared
nuj:_DefaultComparer__ctor_m580747638_gshared
Mki:_GUI_CallWindowDelegate_m2039577415
E2i:__ZL137AnimatorControllerPlayable_t1744083903_CustomAttributesCacheGenerator_AnimatorControllerPlayable_CrossFade_m3391147919____normalizedTime3P21CustomAttributesCache
khg:_RSAManaged_Dispose_m3018788098
ctc:__ZN8Gradient8TransferI9JSONWriteEEvRT_
Zth:_Monitor_Monitor_pulse_m2135582245
A_g:_Context_get_ReceivedConnectionEnd_m3369356276
p5g:_NameObjectCollectionBase_get_Count_m2353593692
Hdj:__ZL73U3COnFinishSubmitU3Ec__Iterator0_t99135383_CustomAttributesCacheGeneratorP21CustomAttributesCache
ifb:__ZNK12TLSAllocatorI14StackAllocatorE22GetAllocatedMemorySizeEv
YFi:__ZL54AssemblyName_t894705941_CustomAttributesCacheGeneratorP21CustomAttributesCache
lsf:_Convert_ToUInt32_m3394039268
Mac:__Z32GetSceneHierarchyPathDescriptivePK6Object
vP:__ZNK7WeakPtrI20SoundChannelInstanceE10SharedData9GetRawPtrEv
mRa:__ZN12HandlerChain4NameEv
rn:FUNCTION_TABLE_fiiiiiifiiiiiif
uzb:__ZNSt3__26vectorI9InputAxisNS_9allocatorIS1_EEE10deallocateEv
_Qd:__ZN5physx37setupFinalizeSolverConstraintsCoulombERNS_13PxcNpWorkUnitERKNS_2Gu13ContactBufferERKNS_27PxcCorrelationBufferCoulombERKNS_11PxTransformESB_bPhRKNS_13PxcSolverBodyESF_RKNS_17PxcSolverBodyDataESI_ffjffff
xYf:_Int16_Equals_m3925135434_AdjustorThunk
Ove:__Z44Register_UnityEngine_CanvasRenderer_get_cullv
KTk:__ZN15dense_hashtableINSt3__24pairIK10KeyWrapperIPK22Il2CppGenericParameterEP11Il2CppClassEES6_N6il2cpp5utils11PointerHashIS4_EEN14dense_hash_mapIS6_S9_SE_NS6_14EqualsComparerINS0_8equal_toIS5_EEEENS0_9allocatorISA_EEE9SelectKeyESJ_SL_ED2Ev
HDi:__ZL60IHashCodeProvider_t1980576455_CustomAttributesCacheGeneratorP21CustomAttributesCache
p0b:__ZN13ProduceHelperI13MonoBehaviourLb0EE7ProduceE18MemLabelIdentifier18ObjectCreationMode
fng:_Enumerator_VerifyState_m1677639504_AdjustorThunk
Zcb:__Z29StdTemplateConversionFunctionIbbEbPvR14SafeBinaryRead
Rrl:__ZNK15dense_hashtableINSt3__24pairIK10KeyWrapperIPK19Il2CppGenericMethodEP10MethodInfoEES6_N6il2cpp8metadata23Il2CppGenericMethodHashEN14dense_hash_mapIS6_S9_SD_NS6_14EqualsComparerINSC_26Il2CppGenericMethodCompareEEENS0_9allocatorISA_EEE9SelectKeyESH_SJ_E12test_deletedEj
oYg:_CipherSuiteCollection_get_Item_m280627160
JFb:__Z44InitializeTransferFunctionScriptingTraitsForI17RemapPPtrTransferEvR31TransferFunctionScriptingTraits
Ffh:_SerializationInfoEnumerator_MoveNext_m1876990879
qwh:_TimeSpan_Duration_m4205681645
Gab:__ZN14UnityWebStream24UpdateAllUnityWebStreamsEv
zMk:_Seek_And_Flee_GetSteering_m3198197608
uEg:_Collection_1_System_Collections_IList_get_IsReadOnly_m2329986891_gshared
hCi:__ZL60ObsoleteAttribute_t3878847927_CustomAttributesCacheGeneratorP21CustomAttributesCache
QSh:__Z79RuntimeInvoker_Playable_t1896841784_PlayableGraph_t1041204988_Int32_t2071877448PFvvEPK10MethodInfoPvPS4_
NZg:_Context_get_HandshakeState_m3443153737
ffh:_CostDelegate_BeginInvoke_m1628968398
rLf:_Array_InternalArray__ICollection_CopyTo_TisRaycastHit2D_t4063908774_m3837098618_gshared
MGd:__ZN5physx31ComputeCreatedDeletedPairsListsEPKjS1_jRPNS_17PxcBroadPhasePairERjS5_S4_S5_S5_RNS_14SapPairManagerE
Rsa:__ZN18LoadSceneOperation21MustCompleteNextFrameEv
Bgi:_MonoField_get_FieldType_m598011426
tEg:_Collection_1_System_Collections_IList_get_IsFixedSize_m1624702704_gshared
vUe:_EventTrigger_OnScroll_m626934407
vUi:__ZL48Camera_t189460977_CustomAttributesCacheGeneratorP21CustomAttributesCache
gMk:_CollisionAvoidance__ctor_m214831029
J6a:__ZNSt3__26vectorI11CameraStackNS_9allocatorIS1_EEE8__appendEj
ugl:__ZNSt3__212basic_stringIcNS_11char_traitsIcEENS_9allocatorIcEEE6__initINS_11__wrap_iterIPcEEEENS_9enable_ifIXsr21__is_forward_iteratorIT_EE5valueEvE4typeESB_SB_
OLd:__ZN5physx2Gu16pcmContactBoxBoxERKNS0_13GeometryUnionES3_RKNS_11PxTransformES6_RKfRNS0_5CacheERNS0_13ContactBufferE
k7e:_InputField_OnDisable_m1865339380
Wzh:_UInt32_System_IConvertible_ToType_m747769316
Xu:__ZN7mecanim9animation12GetHumanPoseERKNS0_18ClipMuscleConstantEPKNS0_10ValueDeltaERNS_5human9HumanPoseE
ixe:__ZN11UnityEngine9Analytics15UserCustomEvent12CustomParams6InsertEPKcRNS1_11CustomValueE
Cw:__ZN22AnimationMixerPlayable17ProcessRootMotionEP35AnimationPlayableEvaluationConstantP32AnimationPlayableEvaluationInputP33AnimationPlayableEvaluationOutput
UNb:__Z29Transfer_Blittable_ArrayFieldI19StreamedBinaryWriteILb0EEjEvRT_R9ArrayInfoRK23StaticTransferFieldInfo
l5:__Z13GetFileSystemv
L4b:__ZZL23RegisterLightPropertiesR22GenericPropertyBindingEN29Wrapper_LightColorTemperature13SetFloatValueEPvf
C6:__ZNK5Unity4Type21FindAllDerivedClassesER13dynamic_arrayIPKS0_Lj4EENS0_17TypeFilterOptionsE
L7:__ZN13RuntimeStaticI15GUIEventManagerLb0EE16StaticInitializeEPv
Fqj:_Dictionary_2_ToTKey_m2900575080_gshared
URb:__ZL12InvokeMethodI18StreamedBinaryReadILb0EEEvRK29SerializationCommandArgumentsR31RuntimeSerializationCommandInfo
tVf:_DaylightTime_get_Delta_m2316831491
r4d:__ZN15RaycastCallback14processTouchesEPKN5physx12PxRaycastHitEj
CDf:_Array_InternalArray__ICollection_Contains_TisUILineInfo_t3621277874_m1175659630_gshared
Sui:_Physics_INTERNAL_get_gravity_m3802008392
Gvh:_WaitHandle_WaitOne_m370363697
ucj:__ZL114PointerEventData_t1599784723_CustomAttributesCacheGenerator_PointerEventData_set_pointerCurrentRaycast_m2431897513P21CustomAttributesCache
gdh:_FactoryCache_Lookup_m1681894361
tuf:_DateTime_Subtract_m698282245_AdjustorThunk
_gk:_DefaultComparer__ctor_m2470932885_gshared
gYd:__ZN5physx2Gu5RTree15exportExtraDataERNS_22PxSerializationContextE
vEi:__ZL55BinaryReader_t2491843768_CustomAttributesCacheGeneratorP21CustomAttributesCache
kQb:__Z29Transfer_Blittable_ArrayFieldI18StreamedBinaryReadILb1EE5RectTIfEEvRT_R9ArrayInfoRK23StaticTransferFieldInfo
QPi:__ZL79Convert_t2607082565_CustomAttributesCacheGenerator_Convert_ToUInt64_m1896191125P21CustomAttributesCache
uWa:__ZN19ShaderPropertySheet9SetMatrixEN9ShaderLab16FastPropertyNameERK10Matrix4x4fNS_8SetFlagsE
vHe:_RIPEMD160Managed_Initialize_m3365407578
A8b:__Z29GetTextureSizeAllowedMultiple13TextureFormat
O6g:_IPAddress_HostToNetworkOrder_m1092199707
wBd:__ZNK5physx2Sq10AABBPruner7overlapERKNS0_9ShapeDataERNS0_14PrunerCallbackE
HFf:_SetPropertyUtility_SetStruct_TisSpriteState_t1353336012_m2898060836_gshared
x3i:__ZL141AnimatorControllerPlayable_t1744083903_CustomAttributesCacheGenerator_AnimatorControllerPlayable_INTERNAL_CALL_ResetTriggerString_m2112584758P21CustomAttributesCache
qTa:__ZZ23InitPlayerLoopCallbacksvEN52InitializationAsyncUploadTimeSlicedUpdateRegistrator7ForwardEv
KLe:_SecurityAttribute__ctor_m3425755778
n6b:__ZN21IntermediateRenderers3AddEP20IntermediateRenderer
b3k:_il2cpp_array_element_size
SPj:_InvokableCall__ctor_m738302370
Iqd:__ZN5physx6shdfnd5ArrayIPvNS0_19ReflectionAllocatorINS_2Gu30LargePersistentContactManifoldEEEE4copyINS0_15InlineAllocatorILj256ES6_EEEEvRKNS1_IS2_T_EE
Fg:_glCheckFramebufferStatus
LLk:_Arrival__ctor_m2398571552
V3i:__ZL55TextGenerator_t647235000_CustomAttributesCacheGeneratorP21CustomAttributesCache
ZGf:_Array_compare_TisInt32_t2071877448_m840310202_gshared
bgk:_InternalEnumerator_1_System_Collections_IEnumerator_get_Current_m442726479_AdjustorThunk
_X:__ZN19CloudServiceHandler20StartEventDispatcherERKN11UnityEngine15CloudWebService18CloudServiceConfigERNS1_23WebRequestRestHeaderMapE
jek:_InternalEnumerator_1_System_Collections_IEnumerator_get_Current_m790514740_AdjustorThunk
yTd:__ZN5physx2Cm12DelegateTaskINS_2Sc5SceneEXadL_ZNS3_19updateCCDSinglePassEPNS_10PxBaseTaskEEEE11runInternalEv
OOc:__ZN5physx6string9sprintf_sEPcjPKcz
TAi:__ZL74RuntimeArray_CustomAttributesCacheGenerator_Array_BinarySearch_m2287427837P21CustomAttributesCache
a$d:__ZThn8_N5physx19TriangleMeshBuilderD1Ev
q$h:__Z78RuntimeInvoker_Boolean_t3825574718_TransitionU26_t3012618447_Int32_t2071877448PFvvEPK10MethodInfoPvPS4_
zag:__Z37il2cpp_codegen_get_executing_assemblyPK10MethodInfo
THc:__ZN5physx2Gu16intersectRayAABBERKNS_6PxVec3ES3_S3_S3_RfS4_
LZb:__ZN9Transform23VirtualRedirectTransferER17RemapPPtrTransfer
uid:__ZNK5physx2Sc18ParticleSystemCore23getRestParticleDistanceEv
iSh:__Z72RuntimeInvoker_Boolean_t3825574718_Bounds_t3033363703_Bounds_t3033363703PFvvEPK10MethodInfoPvPS4_
hu:__ZN21AnimationClipPlayable7SetTimeEd
Qpi:_GUIStyle_Internal_DrawPrefixLabel_m1693575069
dIf:_Array_InternalArray__IndexOf_TisByte_t3683104436_m3605266236_gshared
Npi:_GUIStyle_set_richText_m1853532836
OKg:_Collection_1_System_Collections_IList_Insert_m435904526_gshared
w4b:__ZZL23RegisterLightPropertiesR22GenericPropertyBindingEN22Wrapper_LightIntensity13GetFloatValueEPv
kni:_GUISkin_get_horizontalScrollbarThumb_m4062590908
TSj:_RaycastAllCallback_Invoke_m981876639
zqh:_UnicodeEncoding__ctor_m72484327
gRd:__ZN5physx30setupFinalizeSolverConstraintsERNS_13PxcNpWorkUnitERKNS_2Gu13ContactBufferERKNS_20PxcCorrelationBufferERKNS_11PxTransformESB_bPhRKNS_13PxcSolverBodyESF_RKNS_17PxcSolverBodyDataESI_ffffff
Uil:__ZN14dense_hash_mapI10KeyWrapperIP14Il2CppIUnknownEjN6il2cpp5utils11PointerHashIS1_EENS3_14EqualsComparerINSt3__28equal_toIS2_EEEENS9_9allocatorINS9_4pairIKS3_jEEEEE15set_deleted_keyERSF_
t7:__ZN22BuiltinResourceManager16StaticInitializeEPv
v6c:__ZN5physx7NpScene17releaseBatchQueryEPNS_12PxBatchQueryE
bfl:__ZN6il2cpp2gc9AllocatorIP12Il2CppThreadE10deallocateEPvj
eod:__ZN5physx20NpRigidActorTemplateINS_13PxRigidStaticEE11attachShapeERNS_7PxShapeE
gbl:__ZN13Il2CppHashMapIPK14Il2CppAssemblyPK22Il2CppMonoAssemblyNameN6il2cpp5utils11PointerHashIS1_EENSt3__28equal_toIS2_EENSA_9allocatorINSA_4pairIK10KeyWrapperIS2_ES5_EEEEEC2EjRKS9_RKSC_
VFk:_UnityEvent_1_GetDelegate_m2720691419_gshared
zQd:__ZN5physx26solveVBlockDefaultFrictionEPNS_13PxsSolverCoreEfjjPNS_13PxcSolverBodyEPNS_17PxcSolverBodyDataEjjPNS_25PxcArticulationSolverDescEjPNS_23PxcSolverConstraintDescEjS9_jRNS_6shdfnd5ArrayINS_24PxsConstraintBatchHeaderENSA_19ReflectionAllocatorISC_EEEESG_PNS_2Cm13SpatialVectorEPNS_25PxcThresholdStreamElementEjRj
Pbk:_InternalEnumerator_1_System_Collections_IEnumerator_get_Current_m3576641073_AdjustorThunk
j_g:_ClientSessionInfo_SetContext_m2649357891
oZf:_Int32_System_IConvertible_ToInt64_m3790029067_AdjustorThunk
L4c:__ZN5physx15NpActorTemplateINS_18PxArticulationLinkEE17resolveReferencesERNS_24PxDeserializationContextE
ZTe:_RaycasterManager_GetRaycasters_m1154876874
w3g:_SslStreamBase_InternalReadCallback_m2524917586
g6:__ZN8Remapper6RemoveEi
esg:_List_1_CheckCollection_m2608305187_gshared
byd:__ZN5physx19NpRigidBodyTemplateINS_18PxArticulationLinkEE9visualizeERNS_2Cm12RenderOutputEPNS_7NpSceneE
HFd:__ZN5physx11writeBack1DERKNS_23PxcSolverConstraintDescERNS_16PxcSolverContextERNS_17PxcSolverBodyDataES6_
gyh:_Type_get_ContainsGenericParameters_m505913180
Bfe:__ZL36CleanupTextRenderingScriptingClassesv
OFh:__Z52RuntimeInvoker_UInt32_t2149682021_Decimal_t724701077PFvvEPK10MethodInfoPvPS4_
tDc:__ZThn4_N16RayRTreeCallbackILi0ELb0EED0Ev
f7a:__ZN15ReflectionProbe17UseRendererResultEP13ProbeRenderer
ubf:_Array_BinarySearch_m3270245097
mic:__Z34Mesh_CUSTOM_SetArrayForChannelImplP12Il2CppObject30InternalScriptingShaderChannel34InternalScriptingVertexChannelTypeiP11Il2CppArrayi
e1f:_MonoIO_DeleteFile_m3273821223
Wck:_InternalEnumerator_1_Dispose_m3642485841_AdjustorThunk
vcg:_BigInteger_GenerateRandom_m2507308768
jtf:_DateTime_System_IConvertible_ToDouble_m1431748426_AdjustorThunk
mDf:_Array_InternalArray__ICollection_Contains_TisUInt16_t986882611_m510319131_gshared
Vwd:__ZNK5physx2Sc5Scene20getNbParticleSystemsEv
Jwf:_Decimal_ToString_m541380585
Vdh:_RepeatContext_get_Previous_m808449037
_Yh:__Z46RuntimeInvoker_CharacterValidation_t3437478890PFvvEPK10MethodInfoPvPS4_
Xei:_MemberFilter__ctor_m1775909550
mBj:_AnimationOffsetPlayable_SetRotation_m1448934280_AdjustorThunk
t3k:_il2cpp_class_is_valuetype
JE:__ZN11UnityEngine9Animation28GenericAnimationBindingCache25RegisterIAnimationBindingEPKN5Unity4TypeEiP17IAnimationBinding
CAd:__ZN5physx2Gu17GetGeomSweepFuncsEv
sWc:__ZN5physx6shdfnd8PoolBaseINS_15PxsArticulationENS0_16AlignedAllocatorILj64ENS0_9AllocatorEEEE17releaseEmptySlabsEv
Nzf:_Enum_ToObject_m2601523252
X2g:_InternalAsyncResult_get_FromWrite_m2893408424
zUk:__ZN6il2cpp2vm5Class15GetElementClassEP11Il2CppClass
L9e:_U3CDelayedSetDirtyU3Ec__Iterator0_System_Collections_IEnumerator_get_Current_m851854792
exf:_Delegate_CreateDelegate_m1706525923
K2i:__ZL124AnimatorControllerPlayable_t1744083903_CustomAttributesCacheGenerator_AnimatorControllerPlayable_PlayInFixedTime_m3726932292P21CustomAttributesCache
Lhd:__ZN5physx22NpParticleBaseTemplateINS_15PxParticleFluidENS_15NpParticleFluidEE23setParticleReadDataFlagENS_22PxParticleReadDataFlag4EnumEb
A_h:__Z37RuntimeInvoker_Enumerator_t1593300101PFvvEPK10MethodInfoPvPS4_
Swe:__ZN14UnityAnalytics25UnregisterGlobalCallbacksEv
h5a:__Z40ProcessCameraIndexListIsNodeVisibleInOutRK22SceneCullingParametersPK9SceneNodePK4AABBR9IndexList
Rsh:_UTF7Encoding_GetBytes_m3015176946
Zkb:__ZN16GraphicsSettings8TransferI17RemapPPtrTransferEEvRT_
cUg:_BigInteger_op_LessThanOrEqual_m3528380540
m4f:_StreamReader__ctor_m2654332332
qte:__ZN2UI6Canvas13UpdateBatchesEb
Lz:__ZNK23AnimationPlayableOutput11DerivesFromE17ScriptingClassPtr
mcj:__ZL105PointerEventData_t1599784723_CustomAttributesCacheGenerator_PointerEventData_set_pointerEnter_m1440587006P21CustomAttributesCache
Jpb:__ZN7Texture19SupportsAsyncUploadI19StreamedBinaryWriteILb0EEEEbRT_
uMl:_glGetShaderInfoLog__wrapper
kqg:_List_1_CheckCollection_m3968030679_gshared
wCk:_Predicate_1_BeginInvoke_m3556950370_gshared
nbd:__ZN5physx2Gu5Debug9visualizeERKNS_13PxBoxGeometryERNS_2Cm12RenderOutputERKNS5_8Matrix34ERKNS_9PxBounds3Eyfj
urh:_StringBuilder_ToString_m617673931
jAa:__ZNK13GfxDeviceGLES12GetWireframeEv
QBc:__ZN5physx6shdfnd5ArrayIPKvNS0_19ReflectionAllocatorIS3_EEE6resizeEjRKS3_
DPg:_ReadOnlyCollection_1_System_Collections_ICollection_get_IsSynchronized_m3127987432_gshared
_ze:__ZN11UnityEngine7Connect13ConfigHandler12GetListenersERKN4core12basic_stringIcNS2_20StringStorageDefaultIcEEEE
CBa:__ZN9GfxDevice18AllocRenderSurfaceEb
mRd:__ZN5physx31setupFinalizeSolverConstraints4EPNS_21PxcSolverContact4DescERNS_18PxcNpThreadContextEPhffRKNS_6shdfnd3aos5Vec4VES9_S9_S9_
Wsd:__ZN5physx7NpScene5flushEb
y_b:__ZN10TagManager32GetSortingLayerUniqueIDFromValueEi
Dlk:_AnchorInfo_get_IsComplete_m1247624133
f1e:_Dropdown_Show_m324374589
C1:__ZL27CleanupCoreScriptingClassesv
mVi:__ZL85Component_t3819376471_CustomAttributesCacheGenerator_Component_SendMessage_m913946877P21CustomAttributesCache
gIh:__Z68RuntimeInvoker_RuntimeObject_RuntimeObject_DSAParameters_t1872138834PFvvEPK10MethodInfoPvPS4_
eIj:_AudioMixerPlayable_INTERNAL_CALL_CreateAudioMixerPlayableInternal_m3355685531
KYk:__ZNSt3__27__sort3IRN6il2cpp5utils11collections13ArrayValueMapIPK10Il2CppType17Il2CppInteropData26InteropDataToTypeConverterNS1_8metadata14Il2CppTypeLessENSA_26Il2CppTypeEqualityComparerEE12SortComparerEPS8_EEjT0_SH_SH_T_
xCc:__ZN5physx2Gu13GeometryUnion3setERKNS_10PxGeometryE
_Zh:__Z101RuntimeInvoker_Void_t1841601450_RuntimeObject_Int32_t2071877448_Single_t2076509932_Single_t2076509932PFvvEPK10MethodInfoPvPS4_
IMc:__ZThn8_N5physx3Cct17CapsuleController15getPxControllerEv
jFj:_AnimatorControllerPlayable_PlayInFixedTime_m1932606764_AdjustorThunk
qWe:_RaycastResult_get_isValid_m2482925612
$hc:__Z26AnimationCurve_CUSTOM_InitP12Il2CppObjectP11Il2CppArray
iQl:_glUniform1uiv__wrapper
Tal:__ZN6il2cpp2vm10Reflection7IsEventEP12Il2CppObject
cBl:__ZNSt3__26__treeINS_12__value_typeIPFvvEPK10MethodInfoEENS_19__map_value_compareIS3_S7_NS_4lessIS3_EELb1EEENS_9allocatorIS7_EEE16__insert_node_atEPNS_16__tree_node_baseIPvEERSI_SI_
I2:__ZN17PersistentManager26GetStreamNameSpaceInternalEi
PJ:__ZN4FMOD6System11createSoundEPKcjP22FMOD_CREATESOUNDEXINFOPPNS_5SoundE
C4h:__Z72RuntimeInvoker_Int32_t2071877448_Vector2_t2243707579_Vector2_t2243707579PFvvEPK10MethodInfoPvPS4_
rLj:_CanvasRenderer_get_cull_m3577089379
AHg:__ZN23InterfaceActionInvoker2Ii22UICharInfo_t3056636800E6InvokeEjP11Il2CppClassP12Il2CppObjectiS0_
_o:FUNCTION_TABLE_iiifiiii
rui:_Object_Destroy_m4145850038
k6k:__ZN6il2cpp2vm4Type14IsSystemDBNullEPK10Il2CppType
I5d:__ZThn128_N5physx7profile8ZoneImplINS_28PxProfileNameProviderForwardEED1Ev
j0:__ZN9ShaderLab19CommonPropertyNames13StaticCleanupEPv
hBj:_AnimationOffsetPlayable_INTERNAL_CALL_GetRotationInternal_m3411582030
P3:__Z31scripting_method_get_returntype18ScriptingMethodPtr
dDh:__Z45RuntimeInvoker_Int64_t909078037_RuntimeObjectPFvvEPK10MethodInfoPvPS4_
XUj:_ScrollRect_UpdateBounds_m3266596336
SBd:__ZN5physx2Sq17AABBTreeUpdateMap10invalidateEjjRNS0_8AABBTreeE
Jrb:__ZN15SerializeTraitsI12LightmapDataE8TransferI24GenerateTypeTreeTransferEEvRS0_RT_
tQj:_LayoutUtility_GetFlexibleWidth_m1731978987
BQd:__ZN5physx28solveParallelDefaultFrictionERNS_18PxsDynamicsContextEjjPNS_13PxcSolverBodyEPNS_17PxcSolverBodyDataEjjPNS_25PxcArticulationSolverDescEjPNS_23PxcSolverConstraintDescEjS9_jPiSA_SA_SA_SA_SA_PNS_25PxcThresholdStreamElementEjSA_PNS_2Cm13SpatialVectorEPKPNS_11PxsBodyCoreERNSD_10BitMapBaseINS_6shdfnd9AllocatorEEEPKPNS_15PxsArticulationEjPViRNSL_5ArrayINS_24PxsConstraintBatchHeaderENSL_19ReflectionAllocatorISW_EEEES10_RNSV_IjNSX_IjEEEES13_PPNS_12PxsRigidBodyEj
AMl:_glStencilOpSeparate__wrapper
K8b:__ZN4Mesh5SetUvEiPKfjj
tta:__ZN7Texture13SetAnisoLimitENS_20AnisotropicFilteringE
Nta:__ZN28LightProbeProxyVolumeManager25UpdateSHCoeffsTextureDataER21LightProbeProxyVolume
oPa:__Z18CreateDecompressor15CompressionType18MemLabelIdentifier
lS:__ZN11AudioModule16SetListenerPauseEb
wi:_emscripten_glCompressedTexSubImage2D
KJa:__ZN13GfxDeviceGLES22MemoryBarrierImmediateEyN2gl17MemoryBarrierTypeE
aca:__ZZN18SpriteAtlasManagerC1EvEN46EarlyUpdateSpriteAtlasManagerUpdateRegistrator7ForwardEv
sm:_abort
Ghl:__ZN6il2cpp6icalls8mscorlib6System4Type18internal_from_nameEP12Il2CppStringbb
Qqa:__ZN6prcoreL26RemapGenericFloatToIntegerI18TexFormatARGBFloat17TexFormatARGB8888EEvPKNS_9InnerInfoE
yFg:_Collection_1_set_Item_m3013463288_gshared
Yrl:__ZN6il2cpp6icalls8mscorlib6System10Reflection9MonoField16GetValueInternalEP21Il2CppReflectionFieldP12Il2CppObject
v8b:__Z46GetShaderModelNumericValueFromRequirementsMask18ShaderRequirements
$_b:__ZN6Object27GetOffsetOfInstanceIdMemberEv
hoe:_cff_ps_has_glyph_names
gEk:_InvokableCall_1__ctor_m2837611051_gshared
f$d:__ZN5physx15writeWordBufferEPKtjbRNS_14PxOutputStreamE
IWh:__Z89RuntimeInvoker_Void_t1841601450_RuntimeObject_SingleU26_t4173844468_SingleU26_t4173844468PFvvEPK10MethodInfoPvPS4_
fwj:_EqualityComparer_1__ctor_m1389939323_gshared
lnj:_Transform_1_EndInvoke_m1025924012_gshared
zQg:_ReadOnlyCollection_1_System_Collections_Generic_ICollectionU3CTU3E_get_IsReadOnly_m2873538493_gshared
pjk:_PatternCompiler_EmitPosition_m3013268572
Ech:_X509SubjectKeyIdentifierExtension__ctor_m1109455121
cJg:_Collection_1_SetItem_m2707773254_gshared
BNk:__ZL24UnresolvedVirtualCall_45P12Il2CppObject19DateTime_t693205669PK10MethodInfo
r3e:_Graphic_CreateColorFromAlpha_m2614574534
gsh:_UnicodeEncoding_GetHashCode_m2443440683
osc:__Z44Register_UnityEngine_GUIStyle_SetDefaultFontv
Zbi:_GenericTypeParameterBuilder_GetPropertyImpl_m3566422383
kpl:__GLOBAL__sub_I_ThreadImpl_cpp
oOb:__Z18Transfer_BlittableI18StreamedBinaryReadILb1EELb1EiEvRK29SerializationCommandArgumentsR31RuntimeSerializationCommandInfo
CB:__ZN9BlobWrite8TransferI22OffsetPtrArrayTransferIKN4math7_float3EEEEvRT_PKc17TransferMetaFlags
FKe:_TripleDES_IsWeakKey_m483013953
T9g:_X509Certificate2_get_PrivateKey_m2662162956
uoj:_Enumerator__ctor_m3819430617_AdjustorThunk
I9k:__ZN15dense_hashtableINSt3__24pairIK10KeyWrapperINS1_IPK12PropertyInfoP11Il2CppClassEEEjEES9_17ReflectionMapHashIS8_EN14dense_hash_mapIS9_jSD_NS9_14EqualsComparerINS0_8equal_toIS8_EEEENS0_9allocatorISB_EEE9SelectKeyESI_SK_E12maybe_shrinkEv
yOh:__Z75RuntimeInvoker_RuntimeObject_RuntimeObject_Single_t2076509932_RuntimeObjectPFvvEPK10MethodInfoPvPS4_
fUc:__ZN5physx2Sc7BodySim37checkSleepReadinessBesidesWakeCounterEv
JOb:__Z18Transfer_BlittableI18StreamedBinaryReadILb1EELb1EsEvRK29SerializationCommandArgumentsR31RuntimeSerializationCommandInfo
ly:__ZN26AnimatorControllerPlayable17IsMultithreadableEv
yZh:__Z54RuntimeInvoker_Void_t1841601450_ColorBlock_t2652774230PFvvEPK10MethodInfoPvPS4_
iOe:_Single_System_IConvertible_ToSByte_m3757385387
e2f:_StreamAsyncResult_SetComplete_m2141125667
zta:__ZL21SetAnisoLimitEnumImplN7Texture20AnisotropicFilteringEb
Fye:__ZN22BaseUnityConnectClient17OnEnterStateReadyEv
Tkd:__ZNK5physx22NpParticleBaseTemplateINS_16PxParticleSystemENS_16NpParticleSystemEE15getMaxParticlesEv
L5c:__ZN5physx2Sc16ArticulationCore14setWakeCounterEf
eqd:__ZN5physx2Sc10NPhaseCore24createTriggerInteractionERNS0_8ShapeSimES3_NS_7PxFlagsINS_10PxPairFlag4EnumEtEE
V$:__Z21GetManagerFromContexti
mtg:_List_1_get_Count_m634584594_gshared
rwa:__ZN14GrowableBufferD2Ev
iri:_Keyframe_get_tangentMode_m1869200796_AdjustorThunk
rhc:__Z29Input_CUSTOM_GetMouseButtonUpi
wEc:__ZN5physx2Gu12selectNormalEhff
$1k:__ZN6il2cpp6icalls8mscorlib6System8MonoType16InternalGetEventEP20Il2CppReflectionTypeP12Il2CppStringi
Gxi:_Quaternion_INTERNAL_CALL_Internal_ToEulerRad_m1077217777
_zh:_UInt32_System_IConvertible_ToUInt32_m1257480358_AdjustorThunk
R3h:__Z55RuntimeInvoker_CustomAttributeTypedArgument_t1498197914PFvvEPK10MethodInfoPvPS4_
Wth:_Interlocked_CompareExchange_m3339239614
She:_UNITY_tt_face_load_maxp
Chc:__Z46Input_CUSTOM_INTERNAL_set_compositionCursorPosRK13Vector2fIcall
bu:__ZN7mecanim5human12FullBodyMaskEv
tjd:__ZN5physx3Scb14ParticleSystem16releaseParticlesEjRKNS_16PxStrideIteratorIKjEE
INi:__ZL98Activator_t1850728717_CustomAttributesCacheGenerator_Activator_CreateInstance_m1465989661____args1P21CustomAttributesCache
J$:__ZN19ShaderPropertySheet11ComputeHashEv
uYk:__ZN30dense_hashtable_const_iteratorI10KeyWrapperIPK19Il2CppGenericMethodES4_N6il2cpp8metadata23Il2CppGenericMethodHashEN14dense_hash_setIS4_S7_NS4_14EqualsComparerINS6_26Il2CppGenericMethodCompareEEENSt3__29allocatorIS4_EEE8IdentityESB_SE_EppEv
dwd:__ZN5physx2Sc5Scene21processLostTouchPairsEv
DPb:__ZN4PPtrI6ObjectE8TransferI18StreamedBinaryReadILb1EEEEvRT_
zW:__ZN11UnityEngine15CloudWebService20WebRequestRestClient6IsDoneEv
e$e:_ColorTween_get_tweenMode_m2919867230_AdjustorThunk
rj:_llvm_fabs_f32
OZe:_CanvasScaler_HandleScaleWithScreenSize_m80056230
cW:__ZN11UnityEngine15CloudWebService16SessionContainer16GetJsonDataBlockEjRKN4core12basic_stringIcNS2_20StringStorageDefaultIcEEEERS6_PjSA_
Bnh:_SByte_System_IConvertible_ToUInt64_m2174352876_AdjustorThunk
K2d:__ZThn28_N14PhysicsManager7onSleepEPPN5physx7PxActorEj
c3i:__ZL132AnimatorControllerPlayable_t1744083903_CustomAttributesCacheGenerator_AnimatorControllerPlayable_Play_m2828212586____normalizedTime2P21CustomAttributesCache
kci:_GenericTypeParameterBuilder_get_AssemblyQualifiedName_m902593295
Ebl:__ZN15dense_hashtableINSt3__24pairIK10KeyWrapperIPK14Il2CppAssemblyEPK22Il2CppMonoAssemblyNameEES6_N6il2cpp5utils11PointerHashIS4_EEN14dense_hash_mapIS6_SA_SF_NS6_14EqualsComparerINS0_8equal_toIS5_EEEENS0_9allocatorISB_EEE9SelectKeyESK_SM_E13set_empty_keyERKSB_
uKd:__ZN5physx22PxcContactConvexConvexERKNS_2Gu13GeometryUnionES3_RKNS_11PxTransformES6_RKfRNS_10PxcNpCacheERNS0_13ContactBufferE
Fsh:_UTF7Encoding_InternalGetBytes_m2772055844
Pxj:_EqualityComparer_1__ctor_m831468288_gshared
ODc:__ZNK5physx2Gu11ConvexHullV12HillClimbingERKNS_6shdfnd3aos5Vec3VE
Pqj:_Dictionary_2_System_Collections_IDictionary_set_Item_m2290664072_gshared
Zpd:__ZNK5physx2Sc17ParticleSystemSim7getCoreEv
nKh:__Z76RuntimeInvoker_Void_t1841601450_Int64_t909078037_ResourceInfoU26_t3126209420PFvvEPK10MethodInfoPvPS4_
Xag:_SimpleCollator__cctor_m2693747668
Cwf:_Decimal_CompareTo_m2454501434_AdjustorThunk
W2:__ZN14SafeBinaryReadD2Ev
Hyh:_UInt16_System_IConvertible_ToChar_m4055364664
hjd:__ZN5physx2Sc18ParticleSystemCore10setDampingEf
N$b:__Z13RegisterClassI7TextureEvv
Hmk:_ExpressionCollection_OnValidate_m1703610065
zSf:_Component_GetComponentInChildren_TisRuntimeObject_m2461586036_gshared
XPb:__ZN8Gradient8TransferI18StreamedBinaryReadILb1EEEEvRT_
Jnj:_Enumerator_Dispose_m2369319718_AdjustorThunk
kPi:__ZL79Convert_t2607082565_CustomAttributesCacheGenerator_Convert_ToUInt16_m3991499696P21CustomAttributesCache
W2g:_InternalAsyncResult_get_ProceedAfterHandshake_m552962842
RQc:__ZN5physx2Sc10NPhaseCore16deleteFilterPairEPNS0_10FilterPairE
_rc:__Z45Register_UnityEngine_GUIStyle_SetFontInternalv
NBg:_Enumerator_Dispose_m1520016780_AdjustorThunk
Jhl:__ZN6il2cpp6icalls8mscorlib6System4Type15MakeGenericTypeEP20Il2CppReflectionTypeP11Il2CppArray
gTb:__ZN6ShaderD2Ev
Sj:_SDL_PauseAudio
y3k:_il2cpp_class_from_type
acf:_Array_Sort_m2323017822
zTj:_Scrollbar_UpdateDrag_m3839695926
mmi:_GUILayoutUtility__cctor_m2957755459
VIj:_AudioConfigurationChangeHandler_EndInvoke_m2237100787
RUc:__ZN5physx2Sc5Scene28addActiveBreakableConstraintEPNS0_13ConstraintSimE
i0:__ZN9ShaderLab19CommonPropertyNames16StaticInitializeEPv
P7c:__ZN5physx6shdfnd8PoolBaseINS_16NpParticleSystemENS0_19ReflectionAllocatorIS2_EEE15disposeElementsEv
T6f:_MissingMemberException__ctor_m3710131950
$ra:__ZN13MemoryManager31DisallowAllocationsOnThisThreadEv
Ixi:_Quaternion_Euler_m3586339259
BD:__ZN7mecanim9animation18CreateAvatarOutputEPKNS0_14AvatarConstantEbbRNS_6memory9AllocatorE
c6d:__ZN5physx7profile11EventBufferINS_24PxDefaultContextProviderENS_6shdfnd6MutexTINS0_26WrapperReflectionAllocatorIhEEEENS0_14ScopedLockImplIS7_EENS_24PxProfileNullEventFilterEE10eventValueEtyx
ysc:__Z45GUIUtility_CUSTOM_Internal_GetKeyboardControlv
oPh:__Z91RuntimeInvoker_Void_t1841601450_RuntimeObject_Int32_t2071877448_RuntimeObject_RuntimeObjectPFvvEPK10MethodInfoPvPS4_
Aoh:_CspParameters__ctor_m2546931874
PHc:__ZN5physx2Gu11getBoxEdgesEv
Exe:__ZN14UnityAnalytics15SendCustomEventERN11UnityEngine9Analytics15UserCustomEventE
Hvb:__ZN14Texture2DArray23VirtualRedirectTransferER14SafeBinaryRead
h0a:__ZNK6Camera21CalculateCanDoShadowsEv
Eud:__ZNK5physx2Sc5Scene17getBroadPhaseCapsERNS_16PxBroadPhaseCapsE
Ftj:_Dictionary_2_make_pair_m2631942124_gshared
D4c:__ZN5physx9NpFactory14onActorReleaseEPNS_7PxActorE
v3e:_Graphic__cctor_m1643894470
$ol:__ZN6il2cpp2os6Thread12SetStackSizeEj
yEh:__Z99RuntimeInvoker_Void_t1841601450_Int32_t2071877448_RuntimeObject_Int32_t2071877448_Int32_t2071877448PFvvEPK10MethodInfoPvPS4_
nah:_X509ChainElementEnumerator_get_Current_m2232618221
TWc:__ZN5physx2Sc5Actor15onElementAttachERNS0_7ElementE
fKh:__Z54RuntimeInvoker_CallingConventions_t1097349142_IntPtr_tPFvvEPK10MethodInfoPvPS4_
ODg:_Collection_1_Clear_m3860339101_gshared
kZe:_U3COnFinishSubmitU3Ec__Iterator0_Reset_m2080388334
d9b:__ZNK8Renderer16IsVisibleInSceneEv
_Ij:_Behaviour_get_isActiveAndEnabled_m3838334305
RUj:_ScrollRect_set_onValueChanged_m3957749575
X_:__Z13VFormatBufferPciPKcz
Uid:__ZN5physx2Sc18ParticleSystemCore23setSimulationFilterDataERKNS_12PxFilterDataE
QQb:__Z18Transfer_BlittableI18StreamedBinaryReadILb0EELb1EhEvRK29SerializationCommandArgumentsR31RuntimeSerializationCommandInfo
ASk:_U3CCreateWhereIteratorU3Ec__Iterator1D_1_Dispose_m1879652802_gshared
JHi:__ZL90SafeHandle_t2733794115_CustomAttributesCacheGenerator_SafeHandle_get_IsInvalid_m3910183075P21CustomAttributesCache
o5e:_Image_GenerateSimpleSprite_m4275440988
QOj:_Display_get_systemHeight_m3377672024
wzh:_UInt16_ToString_m3280699191
OFk:_UnityEvent_1_GetDelegate_m2566156550_gshared
Uqa:__ZN6prcoreL27StretchGenericFloatBilinearI15TexFormatRFloatEEvPKNS_9InnerInfoE
MAd:__ZN5physx6shdfnd8internal8HashBaseINS0_4PairIKNS_2Sq13PrunerPayloadEjEES5_NS0_4HashIS5_EENS1_11HashMapBaseIS5_jS9_NS0_9AllocatorEE6GetKeyESB_Lb1EE15reserveInternalEj
eIi:__ZL56_PropertyInfo_t1567586598_CustomAttributesCacheGeneratorP21CustomAttributesCache
MFf:_Array_InternalArray__IEnumerable_GetEnumerator_TisBoolean_t3825574718_m798244337_gshared
Fxg:_List_1_CopyTo_m158925060_gshared
Hw:__Z24ProcessAnimationMixBeginP35AnimationPlayableEvaluationConstantP32AnimationPlayableEvaluationInputP33AnimationPlayableEvaluationOutput
Vpk:_Rect_Overlaps_m4145874649
PHf:_Array_IndexOf_TisCustomAttributeNamedArgument_t94157543_m745056346_gshared
UHa:__Z14PadImageBorderR14ImageReferenceii
TRi:__ZL92ExtendedKeyUsageExtension_t3816993686_CustomAttributesCacheGenerator_U3CU3Ef__switchU24map14P21CustomAttributesCache
l8k:__ZN15dense_hashtableINSt3__24pairIK10KeyWrapperINS1_IPK10MethodInfoP11Il2CppClassEEEjEES9_17ReflectionMapHashIS8_EN14dense_hash_mapIS9_jSD_NS9_14EqualsComparerINS0_8equal_toIS8_EEEENS0_9allocatorISB_EEE9SelectKeyESI_SK_E4findERSA_
vWh:__Z116RuntimeInvoker_Void_t1841601450_Rect_t3681755626_SByte_t454417549_SByte_t454417549_SByte_t454417549_SByte_t454417549PFvvEPK10MethodInfoPvPS4_
Z4j:_ArrayReadOnlyList_1_ReadOnlyError_m2289309720_gshared
ix:__ZN27AnimationLayerMixerPlayableD2Ev
n2k:__ZN6il2cpp2vm8basepathEPKc
xEd:__ZN5physx2Gu22gjkRelativePenetrationINS0_9TriangleVENS0_8CapsuleVEEEjRKT_RKT0_RKNS_6shdfnd3aos15PsMatTransformVERKNSB_6FloatVERNSB_5Vec3VESJ_SJ_RSF_PhSL_Rh
w0d:__ZN9Rigidbody14SetIsKinematicEb
uvj:_DefaultComparer_GetHashCode_m320514092_gshared
fWg:_PKCS1_Verify_v15_m478274703
HL:__ZN12AudioManager39HandlePendingAudioConfigurationCallbackEv
myi:__ZL79RuntimeObject_CustomAttributesCacheGenerator_Object_ReferenceEquals_m3900584722P21CustomAttributesCache
Pk:_emscripten_glIsFramebuffer
E5b:__ZN12_GLOBAL__N_16qAtan2Eff
sae:__Z13RegisterClassI9RigidbodyEvv
vrf:_Convert_ToInt64_m954367741
Tk:_JS_Sound_SetLoopPoints
$gf:_ArrayList__ctor_m1467563650
CP:__ZN12AudioManager17ShouldSourcePauseEb
Myl:__ZN6il2cpp2vm26MetadataAllocGenericMethodEv
jMa:__ZN19ConstantBuffersGLES12RecordRenderEv
oAd:__ZN5physx13ActorAABBTaskD2Ev
Xvk:_Transform_INTERNAL_set_rotation_m3703763817
ovc:__ZN9JSONWrite8TransferI10RectOffsetEEvRT_PKc17TransferMetaFlags
AHa:__ZN4crnd12symbol_codec11decode_bitsEj
zBk:_X509Crl_get_Extensions_m1795830276
Bme:_cf2_doFlex
hPf:_Array_Sort_TisRaycastResult_t21186376_TisRaycastResult_t21186376_m38820193_gshared
IFj:_Animator_ResetTriggerString_m1445965342
P5b:__ZN21FixedBehaviourManagerD0Ev
O0i:__ZL55RaycastHit2D_t4063908774_CustomAttributesCacheGeneratorP21CustomAttributesCache
anb:__ZN10Matrix3x4f8TransferI24GenerateTypeTreeTransferEEvRT_
o1f:_StreamReader__ctor_m3454466728
LL:__ZN4FMOD6System12createReverbEPPNS_6ReverbE
tbl:__ZN15dense_hashtableINSt3__24pairIK10KeyWrapperIPK14Il2CppAssemblyEPK22Il2CppMonoAssemblyNameEES6_N6il2cpp5utils11PointerHashIS4_EEN14dense_hash_mapIS6_SA_SF_NS6_14EqualsComparerINS0_8equal_toIS5_EEEENS0_9allocatorISB_EEE9SelectKeyESK_SM_E8min_sizeEjj
irk:_Vector2_get_Item_m2792130561
ax:__ZN7mecanim19ValueArrayBlendNodeILb1EEEvRKNS_10ValueArrayERKNS_14ValueArrayMaskERS1_RS4_RNS_16ValueArrayWeightEf
bsa:__Z16MarkDependenciesR27GarbageCollectorThreadStatej
fch:_X509ChainElementEnumerator_Reset_m3832280427
qCj:_AnimatorControllerPlayable_SetBoolString_m4011560969
pbj:__ZL75EventSystem_t3466835263_CustomAttributesCacheGenerator_U3CU3Ef__mgU24cache0P21CustomAttributesCache
$8f:_MulticastDelegate_RemoveImpl_m2024746777
YZe:_CanvasUpdateRegistry_ParentCount_m2367607495
V8f:_MulticastDelegate_Equals_m3064081489
gkg:_Activator_CreateInstance_m1465989661
e0:__ZNK9Transform11GetPositionEv
u7c:__ZN5physx12NpConstraint8requiresERNS_23PxProcessPxBaseCallbackE
Jwi:_PlayableHandle_SetPlayStateInternal_m3829195293
xaj:__ZL111PlayerConnection_t3517219175_CustomAttributesCacheGenerator_PlayerConnection_MessageCallbackInternal_m267902474P21CustomAttributesCache
lXa:__ZN23SharedMeshRenderingData18UnloadVertexStreamEi
fyk:_Vector4_set_Item_m3077071044
INc:__ZN5physx3Cct13HandleManager3AddEPv
m6b:__ZN31CanvasBatchIntermediateRenderer11AddSubBatchERK16DrawBuffersRangePK19ShaderPropertySheet
DGh:__Z99RuntimeInvoker_Void_t1841601450_RuntimeObject_Int32_t2071877448_Int32_t2071877448_Int32_t2071877448PFvvEPK10MethodInfoPvPS4_
O4b:__ZN19RenderEventsContextC2Ei
lU:__Z6simd4fRKf
rEk:_InvokableCall_3_Find_m3470456112_gshared
kLf:_Array_InternalArray__ICollection_CopyTo_TisColor32_t874517518_m379086718_gshared
pXj:_Slider_ClampValue_m2851810895
ul:_emscripten_glEnable
Mmi:_GUISkin_set_font_m4009958323
NFk:_UnityEvent_1_FindMethod_Impl_m3813546_gshared
Jml:__ZN6il2cpp2gc16GarbageCollector29RegisterFinalizerForNewObjectEP12Il2CppObject
Hgk:_DefaultComparer_Compare_m3319119721_gshared
iib:__ZN10TagManager23VirtualRedirectTransferER14SafeBinaryRead
FVd:__ZNK5physx2Sc15ClothFabricCore9getNbSetsEv
D$j:_MarshalAsAttribute__ctor_m1892084128
mhe:_UNITY_FT_Init_Class_ft_grays_raster
$2a:__Z15InitLightMeshesv
DNi:__ZL97WaitHandle_t677569169_CustomAttributesCacheGenerator_WaitHandle_t677569169____Handle_PropertyInfoP21CustomAttributesCache
Ltd:__ZNK5physx7NpScene26getNbContactDataBlocksUsedEv
hlg:_KeyValuePair_2_ToString_m1391611625_AdjustorThunk
to:FUNCTION_TABLE_iifiii
sJc:__ZN5physx2Gu29computeCapsule_HeightFieldMTDERKNS_21PxHeightFieldGeometryERKNS_11PxTransformERNS0_8CapsuleVEffbjRNS_10PxSweepHitE
Zvg:_List_1_Sort_m4156683373_gshared
ipd:__ZNK5physx2Cm12DelegateTaskINS_7NpSceneEXadL_ZNS2_14executeCollideEPNS_10PxBaseTaskEEEE7getNameEv
BYi:__ZL108Material_t193706927_CustomAttributesCacheGenerator_Material_Internal_CreateWithMaterial_m2907597451____mono0P21CustomAttributesCache
YWd:__ZN5physx2Gu11HeightField15exportExtraDataERNS_22PxSerializationContextE
nnb:__Z13TransferArrayILi4Ei19StreamedBinaryWriteILb0EEEjRAT__T0_PKcRT1_
SVa:__ZN22RenderingCommandBuffer36AcquireAndRegisterSharedMaterialDataEP8Material
yrg:_List_1_System_Collections_Generic_IEnumerableU3CTU3E_GetEnumerator_m1503548298_gshared
LMb:__Z18Transfer_BlittableI19StreamedBinaryWriteILb0EELb1E8Vector2fEvRK29SerializationCommandArgumentsR31RuntimeSerializationCommandInfo
hme:_cf2_arrstack_init
nHi:__ZL65ClassInterfaceAttribute_t910653559_CustomAttributesCacheGeneratorP21CustomAttributesCache
z6k:__ZN15dense_hashtableINSt3__24pairIK10KeyWrapperINS1_IPK14Il2CppAssemblyP11Il2CppClassEEEjEES9_17ReflectionMapHashIS8_EN14dense_hash_mapIS9_jSD_NS9_14EqualsComparerINS0_8equal_toIS8_EEEENS0_9allocatorISB_EEE9SelectKeyESI_SK_E15insert_noresizeERKSB_
J_:__Z15CleanLogHandler7LogTypePKcz
QWb:__ZN9ShaderLab19SerializedSubShader8TransferI19StreamedBinaryWriteILb0EEEEvRT_
Q9c:__ZN5physx10NpMaterialC2ERKNS_2Sc12MaterialCoreE
Xgf:_CharEnumerator_Reset_m2412204068
pNd:__ZN5physx9PxTaskMgr10resolveRowEjb
ksh:_UTF32Encoding_GetBytes_m2290150495
tDb:__ZN6Camera17RemoveImageFilterERK11ImageFilter
gJa:__ZNSt3__218__insertion_sort_3IR25ValueParameterArraySorterPN20GpuProgramParameters14ValueParameterEEEvT0_S6_T_
Qjf:_CaseInsensitiveHashCodeProvider_AreEqual_m2456617355
vXh:__Z74RuntimeInvoker_Boolean_t3825574718_HitInfo_t1761367055_HitInfo_t1761367055PFvvEPK10MethodInfoPvPS4_
iue:__ZZN2UI11CanvasGroup15InitializeClassEvEN38FunctorImpl_117kTransformParentChanged4CallEPviR11MessageData
nQj:_LayoutUtility_GetLayoutProperty_m4052007472
kEk:_InvokableCall_1_Invoke_m3239892614_gshared
UWa:__ZNSt3__214__split_bufferI20ComputeShaderVariantRNS_9allocatorIS1_EEED2Ev
Y$d:__ZN8Collider12GetIsTriggerEv
rJk:_EqualityComparer_1_get_Default_m1806515335_gshared
Rce:__ZNSt3__26vectorIN4core12basic_stringIcNS1_20StringStorageDefaultIcEEEE13stl_allocatorIS5_L18MemLabelIdentifier34ELi16EEE7reserveEj
lal:__ZNK10KeyWrapperINSt3__24pairIPK9EventInfoP11Il2CppClassEEE14EqualsComparerINS0_8equal_toIS7_EEEclERKS8_SE_
H_g:_Context_set_WriteSequenceNumber_m3356252710
Yte:__ZN2UI26InitializeDeviceForOverlayEi
$Ud:__ZNK5physx13NpClothFabric13getRestvaluesEPfj
z0:__Z27LogRepeatingStringWithFlagsRKN4core12basic_stringIcNS_20StringStorageDefaultIcEEEE15LogMessageFlagsi
JGc:__ZN5physx2Gu16_gjkLocalRayCastINS0_9TriangleVENS0_11ConvexHullVEEEbRT_RT0_RKNS_6shdfnd3aos6FloatVERKNS9_5Vec3VESF_RSA_RSD_SH_f
hog:_Enumerator_MoveNext_m3483405135_gshared
Cu:__ZN17AnimationPlayable28ComputeNeedsBindingRebuildedEv
aVc:__ZN5physx6shdfnd8PoolBaseINS_2Cm5BlockIPvLj32EEENS0_19ReflectionAllocatorIS5_EEE17releaseEmptySlabsEv
Jgk:_DefaultComparer__ctor_m2859550749_gshared
CGd:__ZN5physx23PxsBroadPhaseContextSap21batchUpdateFewUpdatesEjRPNS_17PxcBroadPhasePairERjS4_
ZZi:__ZL62PlayableOutputHandle_t551742311_CustomAttributesCacheGeneratorP21CustomAttributesCache
ZJc:__ZN5physx3Cct17getSceneTimestampEPKNS0_30InternalCBData_FindTouchedGeomE
fBb:__ZN15ResourceManagerD0Ev
P9g:_X509ExtensionCollection__ctor_m1324282194
Tui:_Physics_Raycast_m2874007225
ZAe:__ZN18UnityConnectClient33OnPlayerSessionStateChangedStaticEPS_jyy
lDi:__ZL74CaseInsensitiveHashCodeProvider_t2307530285_CustomAttributesCacheGeneratorP21CustomAttributesCache
qBh:_UIntPtr__ctor_m3900568171_AdjustorThunk
hX:__ZNK11UnityEngine15CloudWebService23WebRequestUploadHandler11GetProgressEv
a6j:_InternalEnumerator_1_get_Current_m1943362081_gshared
TEa:__ZN7ApiGLES4LoadE16GfxDeviceLevelGL
Wrb:__ZN18StreamedBinaryReadILb0EE21TransferSTLStyleArrayI13dynamic_arrayI31EnlightenSystemAtlasInformationLj8EEEEvRT_17TransferMetaFlags
Z8c:__ZN5physx9NpPhysics15createAggregateEjb
tHa:__ZN4crnd12crn_unpacker22decode_color_endpointsEv
Qll:__ZN15dense_hashtableI10KeyWrapperIP18Il2CppGenericClassES3_N6il2cpp8metadata22Il2CppGenericClassHashEN14dense_hash_setIS3_S6_NS3_14EqualsComparerINS5_25Il2CppGenericClassCompareEEENSt3__29allocatorIS3_EEE8IdentityESA_SD_E15insert_noresizeERKS3_
lNg:_ReadOnlyCollection_1_System_Collections_IList_Clear_m3006875897_gshared
k3b:__ZZL31RegisterOtherRendererPropertiesR22GenericPropertyBindingEN30Wrapper_RendererReceiveShadows13GetFloatValueEPv
wQk:__ZL25UnresolvedVirtualCall_202P12Il2CppObject22Navigation_t1571958496PK10MethodInfo
j3d:__ZN9Rigidbody5ResetEv
uIh:__Z130RuntimeInvoker_Void_t1841601450_RuntimeObject_Int32U26_t455636984_ByteU26_t1147306860_Int32U26_t455636984_ByteU5BU5DU26_t790777611PFvvEPK10MethodInfoPvPS4_
zog:_Enumerator_System_Collections_IEnumerator_get_Current_m3866069145_gshared
avi:_Physics_Raycast_m2994111303
icg:_PreviousInfo_t581002487_marshal_pinvoke_cleanup
VQk:__ZL25UnresolvedVirtualCall_227P12Il2CppObjectiPK10MethodInfo
Pga:__ZN8Material11SetPassFastEPN9ShaderLab4PassER17ShaderPassContextP6Shaderib
kcd:__ZNK5physx15NpActorTemplateINS_7PxClothEE7getNameEv
Zab:__ZNK13ScreenManager13GetLockCursorEv
XAe:__ZN11UnityEngine7Connect20BasePersistentValues10SaveValuesER9JSONWrite
vpk:_Rect_get_max_m96665935_AdjustorThunk
S6i:__ZL87GUIStyle_t1799908754_CustomAttributesCacheGenerator_GUIStyle_set_fixedWidth_m2562018757P21CustomAttributesCache
ZUe:_ExecuteEvents_get_pointerDownHandler_m1172742772
uFg:_Collection_1_RemoveAt_m560005219_gshared
gNd:__ZN5physx9PxTaskMgr12addReferenceEj
Cbh:_X509CertificateEnumerator_System_Collections_IEnumerator_MoveNext_m3708362145
dZa:__Z12SetupLODFadeR9GfxDeviceR17ShaderPassContextf
Fob:__ZNK14PlayableOutput7GetTypeEv
NHh:__Z203RuntimeInvoker_Boolean_t3825574718_RuntimeObject_Int32U26_t455636984_Int32_t2071877448_Int32_t2071877448_RuntimeObject_SByte_t454417549_Int32_t2071877448_ContractionU26_t2019974048_ContextU26_t3131521781PFvvEPK10MethodInfoPvPS4_
nAk:_X501_ToString_m3328169518
O2a:__ZL24CollectForwardObjectsJobP27CollectForwardObjectsHeader
Ejj:_Enumerator_System_Collections_IDictionaryEnumerator_get_Entry_m345330700_gshared
R_k:__ZNK15dense_hashtableINSt3__24pairIK10KeyWrapperIPK11Il2CppClassEPKcEES6_N6il2cpp5utils11PointerHashIS3_EEN14dense_hash_mapIS6_S9_SE_NS6_14EqualsComparerINS0_8equal_toIS5_EEEENS0_9allocatorISA_EEE9SelectKeyESJ_SL_E12test_deletedERK24dense_hashtable_iteratorISA_S6_SE_SN_SJ_SL_E
PKi:__ZL53HMACSHA256_t2622794722_CustomAttributesCacheGeneratorP21CustomAttributesCache
C6a:__ZNK25CameraStackRenderingState24ResolveTempToEyeTexturesEv
F4a:__Z13IsNodeVisibleRK9SceneNodeRK4AABBRK22SceneCullingParameters
Eei:_EventInfo__ctor_m1190141300
R6j:_InternalEnumerator_1_MoveNext_m3585886944_gshared
Uve:__Z57RectTransformUtility_CUSTOM_INTERNAL_CALL_PixelAdjustRectP12Il2CppObjectS0_R5RectTIfE
R1i:__ZL133AnimationPlayableOutput_t260357453_CustomAttributesCacheGenerator_AnimationPlayableOutput_INTERNAL_CALL_InternalSetTarget_m2733556181P21CustomAttributesCache
$jh:_DelayedFixupRecord_FixupImpl_m4249966635
pSl:_emscripten_glStencilMask__wrapper
kYk:__ZN15dense_hashtableI10KeyWrapperIPK19Il2CppGenericMethodES4_N6il2cpp8metadata23Il2CppGenericMethodHashEN14dense_hash_setIS4_S7_NS4_14EqualsComparerINS6_26Il2CppGenericMethodCompareEEENSt3__29allocatorIS4_EEE8IdentityESB_SE_EC2ERKSH_j
KZk:__ZN15dense_hashtableINSt3__24pairIK10KeyWrapperIN6il2cpp5utils13dynamic_arrayIPK10Il2CppTypeLj4EEEEPFvvEEESA_NS3_8metadata19Il2CppSignatureHashEN14dense_hash_mapISA_SD_SG_NSA_14EqualsComparerINSF_22Il2CppSignatureCompareEEENS0_9allocatorISE_EEE9SelectKeyESK_SM_EC2EjRKSG_RKSK_RKSO_
Hcg:_BigInteger_ToString_m3837784224
tVa:__ZN15RenderNodeQueue7CleanupEv
VRa:__ZNK17ArchiveFileSystem8PositionERK13FileEntryData
_Oc:__ZN16NovodexAllocator8allocateEjPKcS1_i
cyf:_DllNotFoundException__ctor_m267198482
m2a:__Z17PrepareShadowMapsRK11CullResultsRK11ActiveLightRK10MinMaxAABB
P$h:__Z75RuntimeInvoker_Boolean_t3825574718_CustomAttributeTypedArgument_t1498197914PFvvEPK10MethodInfoPvPS4_
Ith:_NativeEventCalls_CreateEvent_internal_m1605829321
eqg:_List_1_GetIndex_m3409004147_gshared
J8i:__ZL73RuntimePlatform_t1869584967_CustomAttributesCacheGenerator_MetroPlayerX64P21CustomAttributesCache
XMk:__ZL24UnresolvedVirtualCall_13P12Il2CppObjectaPK10MethodInfo
Jak:_InternalEnumerator_1_System_Collections_IEnumerator_get_Current_m3239681450_AdjustorThunk
IUb:__ZNSt3__26vectorIN9ShaderLab20SerializedSubProgram15VectorParameterENS_9allocatorIS3_EEEC2ERKS6_
L2a:__ZN9ShaderLab10GrabPassesD2Ev
Mti:_MonoBehaviour_set_useGUILayout_m2666356651
Svb:__ZN14Texture2DArray13UploadTextureEv
wNe:_SecurityFrame_t1002202659_marshal_pinvoke
Aje:_tt_cmap14_done
Usa:__ZN18AwakeFromLoadQueue25RegisterObjectInstanceIDsEv
C$d:__ZN5physx21PxProfileNameProviderD2Ev
sef:_Buffer_BlockCopy_m1586717258
nKi:__ZL93X509Certificate_t283079845_CustomAttributesCacheGenerator_X509Certificate_GetName_m2354987368P21CustomAttributesCache
vbd:__ZNK5physx2Gu10ConvexMesh14debugVisualizeERNS_2Cm12RenderOutputERKNS2_8Matrix34ERKNS_9PxBounds3Eyfj
nx:__ZNK27AnimationLayerMixerPlayable11DerivesFromE17ScriptingClassPtr
Lde:__ZN20TextRenderingPrivate19NativeTextGenerator15InsertCharacterEiPj
wud:__ZN5physx2Sc5Scene22removeBroadPhaseRegionEj
N8j:_InternalEnumerator_1__ctor_m3589241961_AdjustorThunk
SR:__ZN13ProduceHelperI13AudioListenerLb0EE7ProduceE18MemLabelIdentifier18ObjectCreationMode
_Nc:__ZN5physx2Cm12RenderBuffer5clearEv
wgl:__ZNSt3__26vectorIN6il2cpp2vm22EmbeddedResourceRecordENS_9allocatorIS3_EEE21__push_back_slow_pathIS3_EEvOT_
wBf:_CompareInfo_GetSortKey_m3691382873
igd:__ZNK5physx2Sc9ClothCore21getStiffnessFrequencyEv
wvf:_DBNull_ToString_m3228904745
U7g:_WebHeaderCollection_AddWithoutValidate_m1479880592
gJe:_SHA1Managed_HashCore_m2658295635
NCd:__ZN5physx13PxsCCDContext14postCCDAdvanceEPNS_10PxBaseTaskE
Tx:__ZN17AnimationPlayableD0Ev
wWg:_RC4_get_IV_m506011366
wBk:_X509Crl__ctor_m2469408229
xNb:__Z18Transfer_BlittableI19StreamedBinaryWriteILb0EELb0EyEvRK29SerializationCommandArgumentsR31RuntimeSerializationCommandInfo
BHi:__ZL82SafeHandle_t2733794115_CustomAttributesCacheGenerator_SafeHandle_Close_m1146946803P21CustomAttributesCache
Rjj:_Enumerator_get_CurrentValue_m3562053380_AdjustorThunk
Kch:_X509SubjectKeyIdentifierExtension_CopyFrom_m136762226
dBj:_AnimationOffsetPlayable_INTERNAL_CALL_SetPositionInternal_m3711322547
wmg:_Enumerator_System_Collections_IEnumerator_Reset_m610822832_AdjustorThunk
Dil:__ZN6il2cpp6icalls8mscorlib6System2IO6MonoIO20GetFileSystemEntriesEP12Il2CppStringS6_iiPi
OUj:_ScrollRect_get_verticalScrollbarSpacing_m793718754
Wic:__Z41MonoBehaviour_Set_Custom_PropUseGUILayoutP12Il2CppObjecth
Qol:__ZN6il2cpp5utils13dynamic_arrayIPNS_2os6ThreadELj4EE9push_backEv
Fee:_UNITY_FT_Open_Face
QNl:_glGenRenderbuffers__wrapper
zJj:_Bounds_ToString_m1966597703
Cdg:_BigInteger_op_Division_m1581119694
VSb:__ZN16ScriptingManagerD0Ev
Hzi:__ZL81Decimal_t724701077_CustomAttributesCacheGenerator_Decimal_op_Implicit_m2135798419P21CustomAttributesCache
yyj:_UnityAnalyticsHandler_CustomEvent_m2884790978
mlh:_CallbackHandler_Invoke_m1498072969
fph:_DSACryptoServiceProvider__ctor_m701823690
bJd:__ZNK5physx10BPWorkTask7getNameEv
t2h:__Z74RuntimeInvoker_Void_t1841601450_Int32_t2071877448_ResourceInfo_t3933049236PFvvEPK10MethodInfoPvPS4_
fmi:_Mathf_Clamp_m2354025655
q8h:_CustomAttributeData_GetCustomAttributes_m2421330738
j5c:__ZN5physx2Sc8ShapeSim16onResetFilteringEv
QPk:__ZL25UnresolvedVirtualCall_168P12Il2CppObject19Vector2_t2243707579S1_PK10MethodInfo
mxh:_Type_get_IsEnum_m313908919
wfc:__Z44Register_UnityEngine_Component_get_transformv
Sxg:_List_1_Reverse_m3395936565_gshared
HFg:_Collection_1_System_Collections_ICollection_CopyTo_m1335644572_gshared
GC:__ZN12_GLOBAL__N_120ProcessPlayableGraphERN8Animator11AnimatorJobER35AnimationPlayableEvaluationConstantR32AnimationPlayableEvaluationInputR33AnimationPlayableEvaluationOutputPFvS4_R17AnimationPlayableEPFvS4_S6_S8_EPFvS8_S4_S6_S8_fESE_MS9_FvPS3_PS5_PS7_E
Nvg:_List_1_CheckMatch_m2830747427_gshared
MUc:__ZN5physx2Sc16ActorInteractionD2Ev
hPa:__ZN17ArchiveFileSystem12MountArchiveEPKcS1_
ZGh:__Z58RuntimeInvoker_RuntimeTypeHandle_t2330101084_RuntimeObjectPFvvEPK10MethodInfoPvPS4_
Nxf:_StackFrame_GetMethod_m72881026
uuc:__Z18Transfer_BlittableI9JSONWriteLb1E8Vector4fEvRK29SerializationCommandArgumentsR31RuntimeSerializationCommandInfo
xAj:_AnimationLayerMixerPlayable_SetLayerMaskFromAvatarMask_m2582039992
no:FUNCTION_TABLE_viififiii
nse:__ZN2UI13CanvasManagerD0Ev
zkj:_Enumerator_System_Collections_IEnumerator_Reset_m70453843_gshared
Asb:__ZThn32_NK8Renderer14GetSubsetIndexEi
sKh:__Z58RuntimeInvoker_Byte_t3683104436_IntPtr_t_Int32_t2071877448PFvvEPK10MethodInfoPvPS4_
R5c:__ZN5physx2Sc16ArticulationCore26setExternalDriveIterationsEj
tQf:_Dictionary_2_Do_CopyTo_TisKeyValuePair_2_t1174980068_TisRuntimeObject_m3279061992_gshared
sxk:_Vector3_get_Item_m3616014016
dhj:__ZL59Slider_t297367283_CustomAttributesCacheGenerator_m_MinValueP21CustomAttributesCache
W1b:__ZN13ProduceHelperI15ResourceManagerLb0EE7ProduceE18MemLabelIdentifier18ObjectCreationMode
vCa:__ZN9GfxDevice15ImmediateVertexEfff
v$b:__Z13RegisterClassI8MaterialEvv
HLi:__ZL51Evidence_t1407710183_CustomAttributesCacheGeneratorP21CustomAttributesCache
frb:__ZNK16LightmapSettings22GetTypeVirtualInternalEv
fkb:__ZN16GraphicsSettings13AwakeFromLoadE17AwakeFromLoadMode
CAf:_FieldAccessException__ctor_m3893881490
Sq:__ZN6Object13AwakeFromLoadE17AwakeFromLoadMode
cAa:__ZN13GfxDeviceGLES15SetStencilStateEPK18DeviceStencilStatei
WRh:__Z107RuntimeInvoker_Void_t1841601450_Single_t2076509932_Single_t2076509932_Single_t2076509932_Single_t2076509932PFvvEPK10MethodInfoPvPS4_
pDl:_cycle
Quk:_TextGenerator_Populate_m4139823822
GRi:__ZL72PKCS12_t1362584795_CustomAttributesCacheGenerator_U3CU3Ef__switchU24map5P21CustomAttributesCache
ne:_emscripten_glUniform1iv
MYj:_Text_get_preferredHeight_m452532789
bPe:_String_System_IConvertible_ToDouble_m3860911722
Ddb:__ZN16MemoryFileSystemD2Ev
jfk:_InternalEnumerator_1_get_Current_m3732458101_AdjustorThunk
Nrj:_Dictionary_2_System_Collections_Generic_ICollectionU3CSystem_Collections_Generic_KeyValuePairU3CTKeyU2CTValueU3EU3E_Contains_m842343255_gshared
QUg:_ARC4Managed__ctor_m2922048522
Wde:__Z17dynamic_pptr_castIP9Texture2D7TextureET_RK4PPtrIT0_E
COg:_ReadOnlyCollection_1_System_Collections_IList_set_Item_m1272038804_gshared
b6j:_InternalEnumerator_1_System_Collections_IEnumerator_get_Current_m1931522460_AdjustorThunk
GLe:_SecurityPermission_IsEmpty_m1869313067
vbh:_X509CertificateCollection__ctor_m3709509050
afc:__Z37Register_UnityEngine_Camera_get_depthv
Pgg:_EncryptedPrivateKeyInfo_get_Salt_m2734354394
vJj:_Bounds_SetMinMax_m1523110422
yQg:_ReadOnlyCollection_1_System_Collections_Generic_IListU3CTU3E_set_Item_m1918537449_gshared
jEg:_Collection_1_System_Collections_ICollection_CopyTo_m3896480607_gshared
DVe:_PointerEventData_set_position_m794507622
iId:__ZNK5physx16PxsBroadPhaseMBP18getNumDeletedPairsEv
e5d:__ZN5physx7profile8ZoneImplINS_28PxProfileNameProviderForwardEE10startEventEty
sba:__ZN15dense_hashtableINSt3__24pairIKPKcPK4RTTIEES3_N11TypeManager23ConstCharPtrHashFunctorEN14dense_hash_mapIS3_S7_SA_NS9_19ConstCharPtrEqualToE13stl_allocatorIS8_L18MemLabelIdentifier6ELi16EEE9SelectKeyESC_SF_E12resize_deltaEjj
fDd:__ZN5physx10PxsCCDPair17sweepAdvanceToToiEfb
P_b:__ZN15ApplicationInfo16GetInstallerNameEv
$cb:__Z23ConvertIntegerToTypePtrItEbPvR14SafeBinaryRead
hD:__ZN7mecanim5human29HumanGetGoalOrientationOffsetENS0_4GoalE
mFb:__ZNK11MonoManager22GetTypeVirtualInternalEv
l4c:__ZN5physx6shdfnd8PoolBaseINS_2Cm5BlockIhLj384EEENS0_19ReflectionAllocatorIS4_EEE17releaseEmptySlabsEv
gTd:__ZN5physx16PxsIslandManager11freeBuffersEv
QMk:__ZL23UnresolvedVirtualCall_6P12Il2CppObjectiPK10MethodInfo
ruj:_DefaultComparer_GetHashCode_m3315096533_gshared
shi:_MonoMethod_MakeGenericMethod_impl_m2063853616
WYc:__ZN5physx2Cm12DelegateTaskINS_2Sc17ParticleSystemSimEXadL_ZNS3_21prepareCollisionInputEPNS_10PxBaseTaskEEEE11runInternalEv
xNe:__Z46il2cpp_codegen_get_marshal_directive_exceptionPKc
UXb:__ZN9ShaderLab20SerializedSubProgram14AddMatrixParamEPKcii15ShaderParamTypei
Ke:_glGetActiveUniformBlockName
rw:__ZN7mecanim13CopyValueMaskILb0EEEvPKNS_14ValueArrayMaskEPS1_
i2e:_FontData_set_verticalOverflow_m4211463083
FG:__ZN26AnimatorControllerPlayable23ValidateParameterStringE17GetSetValueResultRKN4core12basic_stringIcNS1_20StringStorageDefaultIcEEEE
Zxi:_RangeInt__ctor_m2462675305_AdjustorThunk
FXf:_Guid_AppendByte_m2890893073
adi:_MethodBuilder_Invoke_m1874904900
Eff:_Char_System_IConvertible_ToType_m3106771703_AdjustorThunk
Neh:_Interval_Intersects_m3480157390_AdjustorThunk
Uhc:__Z39Quaternion_CUSTOM_INTERNAL_CALL_InverseRK11QuaternionfRS_
n$j:_GCHandle_Alloc_m1063472408
DM:__ZN4FMOD7Channel20set3DConeOrientationEP11FMOD_VECTOR
ddj:__ZL86StandaloneInputModule_t70867863_CustomAttributesCacheGenerator_m_InputActionsPerSecondP21CustomAttributesCache
eo:FUNCTION_TABLE_iiifii
sjj:_Comparer_1__ctor_m4052560291_gshared
Q3i:__ZL54SkeletonBone_t345082847_CustomAttributesCacheGeneratorP21CustomAttributesCache
noh:_CryptoConfig_CreateFromName_m391442950
Unl:__ZN6il2cpp2vm12GenericClass11SetupEventsEP11Il2CppClass
Ipe:_tt_delta_interpolate
tje:_tt_cmap12_get_info
Dmf:_SortedList__ctor_m3698381356
$Ej:_AnimatorControllerPlayable_PlayInFixedTimeInternal_m3876843019
vjl:__ZN6il2cpp2vm15ReboxIReferenceEP14Il2CppIUnknownP11Il2CppClass
R4f:_StreamWriter_LowLevelWrite_m4205372900
NSk:__ZN6il2cpp6icalls8mscorlib6System7Decimal14decimalCompareEP19il2cpp_decimal_reprS5_
Ztl:__ZThn4_N6il2cpp2vm13CachedCCWBaseINS0_13ManagedObjectEE7ReleaseEv
t$c:__ZN5physx26PxcFsComputeJointLoadsSimdERKNS_9PxcFsDataEPKNS_12PxcFsInertiaEPNS_6shdfnd3aos6Mat33VEPKfjjNS_21PxcFsScratchAllocatorE
Cfi:_Module__ctor_m3853650010
hkf:_CollectionBase_System_Collections_IList_get_Item_m2370387510
$od:__ZN5physx6shdfnd8SyncImpl7getSizeEv
CJi:__ZL59RemotingException_t109604560_CustomAttributesCacheGeneratorP21CustomAttributesCache
ioa:__ZNSt3__26__treeINS_12__value_typeIN9ShaderLab16FastPropertyNameE10ColorRGBAfEENS_19__map_value_compareIS3_S5_NS_4lessIS3_EELb1EEENS_9allocatorIS5_EEE12__find_equalIS3_EERPNS_16__tree_node_baseIPvEENS_21__tree_const_iteratorIS5_PNS_11__tree_nodeIS5_SF_EEiEESI_RKT_
gPl:_glCopyTexImage2D__wrapper
esk:_ResourceRequest__ctor_m3340010930
T8e:_LayoutElement__ctor_m789941073
Fbj:__ZL77ExecuteEvents_t1693084770_CustomAttributesCacheGenerator_U3CU3Ef__mgU24cache9P21CustomAttributesCache
cKj:_Camera_FireOnPreCull_m1679634170
SGi:__ZL68TargetInvocationException_t4098620458_CustomAttributesCacheGeneratorP21CustomAttributesCache
MQi:__ZL56RankException_t1539875949_CustomAttributesCacheGeneratorP21CustomAttributesCache
JLc:__ZN5physx11PxHitBufferINS_12PxRaycastHitEED0Ev
sUf:_NumberFormatter_CountTrailingZeros_m2398864634
soa:__Z18ClearByDrawingQuad13GfxClearFlagsRK10ColorRGBAffjR17ShaderPassContext
_1j:_DynamicPropertyCollection_FindProperty_m1233265924
rqa:__ZN6prcoreL17RemapGenericFloatI14TexFormatRHalf15TexFormatRFloatEEvPKNS_9InnerInfoE
TYa:__Z16ShouldUseShadowsb
P9:__ZN15DirectorManager21RebuildStageCallbacksEv
c4g:_TlsStream_SetLength_m1460039587
sra:__ZN19RuntimeSceneManager9LoadSceneERKN4core12basic_stringIcNS0_20StringStorageDefaultIcEEEES6_S6_RK9UnityGUIDiNS_11LoadingModeE
nNk:__ZL24UnresolvedVirtualCall_31P12Il2CppObjectiS0_S0_PK10MethodInfo
jIa:__ZN7ApiGLES10DrawArraysE16GfxPrimitiveTypejjj
CPj:_Event_PopEvent_m1952528237
GCj:_AnimatorControllerPlayable_SetIntegerString_m3665225671
gBc:__ZN5physx3Cct13BoxController15getPxControllerEv
qK:__ZN10SampleClip13LoadBaseSoundEv
rHc:__ZN5physx2Gu22gjkRelativePenetrationINS0_17ShrunkConvexHullVES2_EEjRKT_RKT0_RKNS_6shdfnd3aos15PsMatTransformVERKNSA_6FloatVERNSA_5Vec3VESI_SI_RSE_PhSK_Rh
GKh:__Z49RuntimeInvoker_TimeSpan_t3430258949_RuntimeObjectPFvvEPK10MethodInfoPvPS4_
Xml:__ZN15dense_hashtableINSt3__24pairIK10KeyWrapperIP12Il2CppObjectEN6il2cpp2gc9CachedCCWEEES5_NS7_5utils11PointerHashIS3_EEN14dense_hash_mapIS5_S9_SD_NS5_14EqualsComparerINS0_8equal_toIS4_EEEENS0_9allocatorISA_EEE9SelectKeyESI_SK_E15insert_noresizeERKSA_
RIg:_Collection_1_Contains_m643401393_gshared
eUd:__ZN5physx2Sc19ParticlePacketShapeC2ERNS0_17ParticleSystemSimEjPNS_16PxvParticleShapeE
roa:__ZN22DeviceMVPMatricesStateC2ER9GfxDevice
hlk:_Regex_IsMatch_m1286520424
$8c:__ZN5physx9NpPhysics18createTriangleMeshERNS_13PxInputStreamE
vo:FUNCTION_TABLE_iiiiifiiiif
VOe:_String__ctor_m372528291
Ln:FUNCTION_TABLE_iifii
eH:__Z64AnimationOffsetPlayable_CUSTOM_INTERNAL_CALL_SetRotationInternalR9HPlayableRK11Quaternionf
iub:__ZNSt3__26vectorI13dynamic_arrayI8Vector2fLj4EENS_9allocatorIS3_EEE6assignINS_11__wrap_iterIPS3_EEEENS_9enable_ifIXaasr21__is_forward_iteratorIT_EE5valuesr16is_constructibleIS3_NS_15iterator_traitsISC_E9referenceEEE5valueEvE4typeESC_SC_
$Pd:__ZN5physx2Cm12DelegateTaskINS_2Sc5SceneEXadL_ZNS3_14updateDynamicsEPNS_10PxBaseTaskEEEED0Ev
cQk:__ZL25UnresolvedVirtualCall_182P12Il2CppObject19Vector2_t2243707579S1_PK10MethodInfo
WBj:_AnimatorControllerPlayable_GetFloat_m1229536053_AdjustorThunk
Dsa:__ZNSt3__26__treeIiNS_4lessIiEE13stl_allocatorIiL18MemLabelIdentifier1ELi16EEE7destroyEPNS_11__tree_nodeIiPvEE
Qc:invoke_viiifi
rcj:__ZL104PointerEventData_t1599784723_CustomAttributesCacheGenerator_PointerEventData_get_pointerDrag_m2740415629P21CustomAttributesCache
B$i:__ZL79Physics_t634932869_CustomAttributesCacheGenerator_Physics_RaycastAll_m233036521P21CustomAttributesCache
Q7f:_LongComparer_Compare_m3981323622
x4i:__ZL82Canvas_t209405766_CustomAttributesCacheGenerator_Canvas_set_scaleFactor_m298557412P21CustomAttributesCache
j2k:__ZNSt3__214__split_bufferIP11Il2CppClassRNS_9allocatorIS2_EEEC2EjjS5_
N_e:_ContentSizeFitter_get_horizontalFit_m892469688
Uij:__ZL109LayoutUtility_t4076838048_CustomAttributesCacheGenerator_LayoutUtility_U3CGetFlexibleHeightU3Em__7_m947156537P21CustomAttributesCache
dgg:__ZN23InterfaceActionInvoker2IP8String_tP12Il2CppObjectE6InvokeEjP11Il2CppClassS3_S1_S3_
Awj:_EqualityComparer_1__cctor_m3033994022_gshared
Mxa:__ZNK11AssetBundle14GetPreloadDataEiR13dynamic_arrayIiLj4EE
Xhg:_EncryptedData_get_EncryptedContent_m2732115576
Uf:_JS_Sound_SetPosition
Fkk:_Assertion_set_FalseExpression_m1781616372
Gch:_X509SubjectKeyIdentifierExtension_FromHexChars_m2515150420
rha:__ZN19RenderBufferManager13GetTempBufferEii17DepthBufferFormat19RenderTextureFormatj22RenderTextureReadWrite14VRTextureUsagei23RenderTextureMemoryless
__k:__ZL13GetSharedInstPK17Il2CppGenericInst
ZBi:__ZL51IReflect_t3412036974_CustomAttributesCacheGeneratorP21CustomAttributesCache
DXe:_StandaloneInputModule_SendSubmitEventToSelectedObject_m3421155293
yji:_RenderPipelineManager_CleanupRenderPipeline_m2242901458
i0j:_AppDomainLevelActivator__ctor_m230071814
cXk:__ZNK15dense_hashtableINSt3__24pairIK10KeyWrapperIPKcEP11Il2CppClassEES5_N6il2cpp5utils11StringUtils12StringHasherIS4_EEN14dense_hash_mapIS5_S8_SE_NS5_14EqualsComparerINSB_13VmStringUtils21CaseSensitiveComparerEEENS0_9allocatorIS9_EEE9SelectKeyESJ_SL_E3endEv
$Mj:_Component_GetComponentsInChildren_m908027537
Nye:__ZN22BaseUnityConnectClient17SaveSessionValuesEv
N3j:_CallContextRemotingData_Clone_m2226242476
w2:__Z63ThreadAndSerializationSafeCheckSetMonoBehaviourBeingTransferredP13MonoBehaviour
xcd:__ZNK5physx7NpCloth14getNbParticlesEv
XQc:__ZN5physx2Sc10NPhaseCore24releaseShapeInstancePairEPNS0_19ShapeInstancePairLLEjj
R2a:__Z24SetupActiveLightsContextR21ActiveLightingContextRK12ActiveLightsRK11CullResultsP14ShadowMapCacheRK10MinMaxAABB
Dsj:_Dictionary_2_System_Collections_Generic_ICollectionU3CSystem_Collections_Generic_KeyValuePairU3CTKeyU2CTValueU3EU3E_Contains_m3400497673_gshared
Mkc:__Z38Sprite_CUSTOM_INTERNAL_get_textureRectP12Il2CppObjectP5RectTIfE
svf:_DBNull_System_IConvertible_ToUInt32_m2681284284
Ubl:__ZNK15dense_hashtableINSt3__24pairIK10KeyWrapperIPK22Il2CppGenericParameterEPK24MonoGenericParameterInfoEES6_N6il2cpp5utils11PointerHashIS4_EEN14dense_hash_mapIS6_SA_SF_NS6_14EqualsComparerINS0_8equal_toIS5_EEEENS0_9allocatorISB_EEE9SelectKeyESK_SM_E3endEv
i7b:__ZN9TextAsset7SetTextERKN4core12basic_stringIcNS0_20StringStorageDefaultIcEEEE
zjb:__ZN6Camera8TransferI24GenerateTypeTreeTransferEEvRT_
rxj:_EqualityComparer_1__cctor_m416314417_gshared
Sa:invoke_iiiiiiif
La:invoke_iiiiiiii
FGd:__ZN5physx21SapPostUpdateWorkTaskD0Ev
M0i:__ZL99CapsuleCollider_t720607407_CustomAttributesCacheGenerator_CapsuleCollider_set_direction_m3094899039P21CustomAttributesCache
Psi:_Mesh_GetUVChannel_m364477864
Zah:_X509ChainElementCollection_Contains_m3599995067
m6a:__ZN8Renderer17PendingAddToSceneEv
U4c:__ZN5physx7NpActor18releaseConstraintsERNS_12PxRigidActorE
eOc:__ZN5physx6shdfnd5ArrayINS_11PxDebugLineENS0_19ReflectionAllocatorIS2_EEE8recreateEj
qDj:_AnimatorControllerPlayable_GetLayerName_m1429074517_AdjustorThunk
uRl:b124
uSl:b127
tSl:b126
wSl:b129
_jc:__Z52Register_UnityEngine_RectTransform_INTERNAL_get_rectv
Ukd:__ZNK5physx22NpParticleBaseTemplateINS_16PxParticleSystemENS_16NpParticleSystemEE20getMaxMotionDistanceEv
X3e:_GridLayoutGroup_set_spacing_m118889422
Ywg:_List_1_ToArray_m2390522926_gshared
KHi:__ZL70TypeLibImportClassAttribute_t2390314680_CustomAttributesCacheGeneratorP21CustomAttributesCache
YAb:__ZN18StreamedBinaryReadILb0EE21TransferSTLStyleArrayI13dynamic_arrayI16SplashScreenLogoLj4EEEEvRT_17TransferMetaFlags
Mmd:__ZNK5physx14NpRigidDynamic25getContactReportThresholdEv
uOe:_Single_CompareTo_m2081476257
nEf:_Array_InternalArray__ICollection_Remove_TisX509ChainStatus_t4278378721_m4127982424_gshared
kfc:__Z47Register_UnityEngine_Camera_get_allCamerasCountv
dhd:__ZN5physx22NpParticleBaseTemplateINS_15PxParticleFluidENS_15NpParticleFluidEE16releaseParticlesEv
iwf:_Decimal_GetBits_m3520401316
Qye:__ZN22BaseUnityConnectClient20StartEventDispatcherEv
T8b:__ZNSt3__26vectorIj13stl_allocatorIjL18MemLabelIdentifier1ELi16EEE6assignIPKtEENS_9enable_ifIXaasr21__is_forward_iteratorIT_EE5valuesr16is_constructibleIjNS_15iterator_traitsIS9_E9referenceEEE5valueEvE4typeES9_S9_
YB:__ZN7mecanim9animation16EvaluateAvatarIKEPKNS0_14AvatarConstantEPKNS0_11AvatarInputEPNS0_12AvatarOutputEPNS0_12AvatarMemoryEPNS0_15AvatarWorkspaceEb
MIa:__ZL25ProgramUniformMatrix4x3fvPK7ApiGLESjiihPKv
scb:__Z29StdTemplateConversionFunctionIsiEbPvR14SafeBinaryRead
IPd:__Z22updateIslandsToProcessRKN5physx2Cm10BitMapBaseINS_6shdfnd9AllocatorEEEPKjRKNS_11NodeManagerERS4_
xwj:_EqualityComparer_1_System_Collections_IEqualityComparer_Equals_m3376587337_gshared
mwi:_PlayableGraph_INTERNAL_CALL_CreateScriptOutputInternal_m348659249
zUa:__ZN12InputManager13InputEndFrameEv
imf:_SyncHashtable__ctor_m2029869827
w1k:__ZNSt3__26__treeIP11Il2CppClassNS_4lessIS2_EENS_9allocatorIS2_EEE25__emplace_unique_key_argsIS2_JRKS2_EEENS_4pairINS_15__tree_iteratorIS2_PNS_11__tree_nodeIS2_PvEEiEEbEERKT_DpOT0_
efl:__ZN6il2cpp2vm6Thread5SetupEP12Il2CppThread
i0d:__ZN8Collider30GetRelativePositionAndRotationERK9TransformR10Matrix4x4f
lDd:__ZN5physx35PxcSweepEstimateAnyShapeHeightfieldERKNS_11PxsCCDShapeES2_PKNS_12PxsRigidBodyES5_RKNS_11PxTransformES8_f
NRg:_ReadOnlyCollection_1_System_Collections_IList_Remove_m2200089035_gshared
zOc:__ZN5physx3Cct13BoxControllerC2ERKNS_16PxControllerDescERNS_9PxPhysicsEPNS_7PxSceneE
eEg:_Collection_1_CheckWritable_m2756357359_gshared
uEl:___munmap
m6e:_InputField_get_characterLimit_m2386380888
Qdj:__ZL68ColorBlock_t2652774230_CustomAttributesCacheGenerator_m_PressedColorP21CustomAttributesCache
hrf:_Convert_ToInt64_m1722087499
Lg:_localtime_r
fWa:__ZN22RenderingCommandBuffer13GetAndCheckRTE24BuiltinRenderTextureTypeRKN9ShaderLab16FastPropertyNameEPKcPP13RenderTexture
LNi:__ZL81AppDomain_t2719102437_CustomAttributesCacheGenerator_assembly_resolve_in_progressP21CustomAttributesCache
vwi:_PlayableHandle_GetInputCount_m3249715311
hQ:__ZN4FMOD5Sound11getDefaultsEPfS1_S1_Pi
wHi:__ZL65InterfaceTypeAttribute_t4113096249_CustomAttributesCacheGeneratorP21CustomAttributesCache
Ng:_strftime
Bha:__ZN7Texture33SetStoredColorSpaceNoDirtyNoApplyE17TextureColorSpace
L5:__ZN12FileAccessorD2Ev
nna:__ZN10ColorRGBAf8TransferI18StreamedBinaryReadILb0EEEEvRT_
vwb:__ZN14VertexDataInfoC2Ev
xAf:_Exception_GetObjectData_m2653827630
SXi:__ZL75Mesh_t1356156583_CustomAttributesCacheGenerator_Mesh_HasChannel_m3616583481P21CustomAttributesCache
zxk:_Vector3_Equals_m2692262876_AdjustorThunk
s9j:_InternalEnumerator_1_get_Current_m2415979394_gshared
uPb:__ZL17Transfer_GUIStyleI18StreamedBinaryReadILb1EELb1EEvRK29SerializationCommandArgumentsR31RuntimeSerializationCommandInfo
BUj:_ScrollRect_SetDirtyCaching_m1491302821
zwi:_PlayableHandle_SetInputCount_m2001045454
R1k:__ZN6il2cpp6icalls8mscorlib6SystemL9IsPrivateEPK12PropertyInfo
rDd:__ZNK5physx18PxcConvexTriangles16getPolygonNormalEj
DNh:__Z72RuntimeInvoker_DateTime_t693205669_DateTime_t693205669_Int32_t2071877448PFvvEPK10MethodInfoPvPS4_
s8h:_CustomAttributeData_GetCustomAttributes_m3258419955
u0:__ZN9shadertag10InitializeEv
fZa:__ZN13BatchRenderer20RenderSingleWithPassER17ShaderPassContextPK18SharedMaterialDataP6ShaderPN9ShaderLab4PassEiPKNS7_10GrabPassesEjib15BatchBreakCause
v6d:__ZN5physx24NpPtrTableStorageManager8canReuseEjj
gSe:_EncoderFallback__ctor_m1639180960
xgk:_InternalEnumerator_1_MoveNext_m1441038493_gshared
Itb:__ZN15QualitySettings14QualitySetting8TransferI24GenerateTypeTreeTransferEEvRT_
YKf:_Array_InternalArray__ICollection_CopyTo_TisParameterModifier_t1820634920_m4127516211_gshared
DRe:_DecoderReplacementFallback__ctor_m2344783488
v6h:_OutOfMemoryException__ctor_m239206850
Crd:__ZN5physx2Sc27ConstraintProjectionManager33processConstraintForGroupBuildingEPNS0_13ConstraintSimERNS0_20ScratchAllocatorListIS3_Lj64EEE
H2e:_GraphicRegistry_UnregisterGraphicForCanvas_m820096873
Mqe:__Z28Font_Get_Custom_PropMaterialP12Il2CppObject
Jxl:__ZN6il2cpp6icalls8mscorlib6System9Threading16NativeEventCalls19ResetEvent_internalE12Il2CppIntPtr
mPh:__Z88RuntimeInvoker_RuntimeObject_RuntimeObject_RuntimeObject_RuntimeObject_Int32_t2071877448PFvvEPK10MethodInfoPvPS4_
wAc:__ZL34CleanupModule_PerformanceReportingv
eGg:_Collection_1_Remove_m4136193368_gshared
sXd:__ZN5physx20InternalTriangleMesh17allocateTrianglesEjb
rUe:_EventTrigger_OnPointerUp_m2791622548
h3h:__Z60RuntimeInvoker_DictionaryEntry_t3048875398_Int32_t2071877448PFvvEPK10MethodInfoPvPS4_
KWj:_Shadow_set_useGraphicAlpha_m141905402
d8b:__ZN22BlockMemoryCacheWriter14LockCacheBlockEjPPhS1_
haj:__ZL106PlayableExtensions_t2358977238_CustomAttributesCacheGenerator_PlayableExtensions_SetInputCount_m3394969154P21CustomAttributesCache
Noc:__ZNSt3__218__insertion_sort_3IRPFbPKN5IMGUI9GUIWindowES4_EPPS2_EEvT0_SA_T_
OKk:_GenericEqualityComparer_1_Equals_m1109000020_gshared
Sjd:__ZN5physx22NpParticleBaseTemplateINS_15PxParticleFluidENS_15NpParticleFluidEED2Ev
_5i:__ZL61GUISkin_t1436893342_CustomAttributesCacheGenerator_m_textAreaP21CustomAttributesCache
Hpd:__ZN5physx2Cm29ConstraintImmediateVisualizer19visualizeDoubleConeERKNS_11PxTransformEfb
Rxc:__Z22TransferField_NonArrayI8JSONRead27Converter_SimpleNativeClassI8GUIStyleEEvRK23StaticTransferFieldInfoR31RuntimeSerializationCommandInfoRT0_
TBc:__ZN5physx6shdfnd5ArrayINS_13PxExtendedBoxENS0_19ReflectionAllocatorIS2_EEE8recreateEj
VId:__ZN5physx20ProcessBPResultsTask11runInternalEv
fVc:__ZN5physx6shdfnd5ArrayIPvNS0_19ReflectionAllocatorINS_2Cm5BlockIS2_Lj16EEEEEE4copyINS0_15InlineAllocatorILj256ES7_EEEEvRKNS1_IS2_T_EE
rh:_llvm_eh_typeid_for
V5b:__Z13RegisterClassI10GameObjectEvv
rZk:__ZNK15dense_hashtableINSt3__24pairIK10KeyWrapperIN6il2cpp5utils13dynamic_arrayIPK10Il2CppTypeLj4EEEEPFvvEEESA_NS3_8metadata19Il2CppSignatureHashEN14dense_hash_mapISA_SD_SG_NSA_14EqualsComparerINSF_22Il2CppSignatureCompareEEENS0_9allocatorISE_EEE9SelectKeyESK_SM_E5beginEv
BDi:__ZL53HashValues_t2390200547_CustomAttributesCacheGeneratorP21CustomAttributesCache
J9g:_X509BasicConstraintsExtension_get_PathLengthConstraint_m3004531343
XCj:_AnimatorControllerPlayable_INTERNAL_CALL_ResetTriggerString_m2112584758
Kz:__ZNK23AnimationPlayableOutput7GetTypeEv
jFi:__ZL125GenericTypeParameterBuilder_t1370236603_CustomAttributesCacheGenerator_GenericTypeParameterBuilder_GetConstructors_m103067670P21CustomAttributesCache
isd:__ZN5physx7NpScene19getActiveTransformsERjh
spk:_Rect_get_max_m96665935
YQc:__ZN5physx2Sc10NPhaseCore39pool_deleteParticleElementRbElementPairEPNS0_35ParticleElementRbElementInteractionEjj
Z6f:_MissingMemberException__ctor_m4277447068
fCd:__ZN5physx6shdfnd8internal8HashBaseIjjNS0_4HashIjEENS1_11HashSetBaseIjS4_NS0_9AllocatorELb0EE6GetKeyES6_Lb0EE6createERKjRb
Jii:_StrongNameKeyPair_System_Runtime_Serialization_ISerializable_GetObjectData_m1693082120
G5g:_NameValueCollection__ctor_m1767369537
pRb:__Z18Transfer_BlittableI18StreamedBinaryReadILb0EELb1E8Vector4fEvRK29SerializationCommandArgumentsR31RuntimeSerializationCommandInfo
WJk:_EqualityComparer_1__ctor_m3155445483_gshared
Ppl:__ZN6il2cpp2vm6Method8GetParamEPK10MethodInfoj
A_f:_Int64_CompareTo_m1953686218
jKk:_GenericComparer_1__ctor_m221205314_gshared
QQf:_BaseInvokableCall_ThrowOnInvalidArg_TisSingle_t2076509932_m3470174535_gshared
oZh:__Z31RuntimeInvoker_Axis_t2427050347PFvvEPK10MethodInfoPvPS4_
yil:__ZN6il2cpp6icalls8mscorlib6System2IO6MonoIO4ReadE12Il2CppIntPtrP11Il2CppArrayiiPi
RRl:_glBindVertexArray__wrapper
Q_d:__ZN5physx6shdfnd5ArrayINS_11RTreeNodeNQENS0_19ReflectionAllocatorIS2_EEE19resizeUninitializedEj
TRc:__ZNK5physx2Sc16InteractionScene18getLLIslandManagerEv
bph:_DSA_Create_m3450041777
kma:__ZN8Material8TransferI14SafeBinaryReadEEvRT_
QCd:__ZN5physx17PxcNpMemBlockPool34acquireExceptionalConstraintMemoryEj
vpb:__ZN12CubemapArray17UploadToGfxDeviceEv
bVj:_ScrollRect_AdjustBounds_m1033723448
Eqa:__ZN6prcoreL17RemapGenericFloatI15TexFormatRGHalf17TexFormatRGBAHalfEEvPKNS_9InnerInfoE
vng:_Enumerator_System_Collections_IEnumerator_Reset_m2200349770_gshared
NJg:_Collection_1_get_Item_m3791221403_gshared
ZKi:__ZL54PaddingMode_t3032142640_CustomAttributesCacheGeneratorP21CustomAttributesCache
Qel:__ZN24dense_hashtable_iteratorINSt3__24pairIK10KeyWrapperIP11Il2CppClassES4_EES5_N6il2cpp8metadata16SZArrayClassHashEN14dense_hash_mapIS5_S4_SA_NS5_14EqualsComparerINS9_19SZArrayClassCompareEEENS0_9allocatorIS7_EEE9SelectKeyESE_SG_E30advance_past_empty_and_deletedEv
q6h:_OrdinalComparer__ctor_m2952942058
aEd:__ZN5physxL23PxcSweepConvexTrianglesERKNS_11PxsCCDShapeES2_RKNS_11PxTransformES5_S5_S5_fRNS_6PxVec3ES7_RNS_10PxcNpCacheERNS_18PxcNpThreadContextERKNS_2Cm23FastVertex2ShapeScalingERNS_2Gu9TriangleVEf
Bad:__ZNK5physx7NpShape16getPlaneGeometryERNS_15PxPlaneGeometryE
vah:_X509Chain_CheckRevocationOnChain_m2441901351
Stl:__ZN6il2cpp2vm13ManagedObject14QueryInterfaceERK10Il2CppGuidPPv
__d:__ZN5physx27InternalTriangleMeshBuilder14fillRemapTableEv
MK:__ZN11AudioSource4StopEb
sZc:__ZN5physx6shdfnd8PoolBaseINS_13NpRigidStaticENS0_19ReflectionAllocatorIS2_EEE17releaseEmptySlabsEv
oIb:__ZN14SafeBinaryRead21TransferSTLStyleArrayI13dynamic_arrayI10Matrix4x4fLj4EEEEvRT_17TransferMetaFlags
SJg:_Collection_1_CheckWritable_m732350052_gshared
Fef:_Byte_System_IConvertible_ToDecimal_m1036493607
BNi:__ZL47Timer_t791717973_CustomAttributesCacheGeneratorP21CustomAttributesCache
vga:__Z25GetSplashScreenBackgroundRK5RectTIfE
rba:__ZN14dense_hash_mapIPKcPK4RTTIN11TypeManager23ConstCharPtrHashFunctorENS5_19ConstCharPtrEqualToE13stl_allocatorINSt3__24pairIKS1_S4_EEL18MemLabelIdentifier6ELi16EEEixERSB_
Xej:__ZL65Image_t2042527209_CustomAttributesCacheGenerator_m_PreserveAspectP21CustomAttributesCache
VBe:__ZN13RuntimeStaticI19UnityConnectServiceLb0EE16StaticInitializeEPv
Xgk:_DefaultComparer_Compare_m1247109616_gshared
Yii:_ResourceManager__ctor_m498829021
TMa:__ZN18GlslGpuProgramGLESD2Ev
tab:__ZN13RenderTexture14SetVolumeDepthEi
p5d:__ZThn116_NK5physx7profile8ZoneImplINS_28PxProfileNameProviderForwardEE10hasClientsEv
jMd:__ZN5physx2Gu20pcmContactCapsuleBoxERKNS0_13GeometryUnionES3_RKNS_11PxTransformES6_RKfRNS0_5CacheERNS0_13ContactBufferE
t0h:__Z88RuntimeInvoker_Int32_t2071877448_UIVertex_t1204258818_UIVertex_t1204258818_RuntimeObjectPFvvEPK10MethodInfoPvPS4_
nlh:_SerializationCallbacks__ctor_m722356782
vyc:__ZN10Matrix4x4f8TransferI8JSONReadEEvRT_
Uxf:_StackTrace__ctor_m772333217
k2:__ZN17PersistentManager18ReadObjectThreadedEi
gEa:__ZN25TransformFeedbackSkinning31CleanupTransformFeedbackShadersEv
lul:__ZN6il2cpp6icalls8mscorlib6System7Runtime16CompilerServices14RuntimeHelpers15InitializeArrayEP11Il2CppArray12Il2CppIntPtr
iYa:__Z22scripting_object_unbox18ScriptingObjectPtr
Nde:__ZNK20TextRenderingPrivate8FontImpl19GetCharacterAdvanceEjijfPj
_zl:__ZN6il2cpp6icalls8mscorlib4Mono8Security12Cryptography18KeyPairPersistence16_IsUserProtectedEP12Il2CppString
pHj:_AudioClipPlayable_Equals_m2497502457
JPg:_ReadOnlyCollection_1_Contains_m3936562733_gshared
X5g:_DefaultUriParser__ctor_m4218024811
S9h:_DerivedType_GetField_m3960169619
Vvf:_Decimal_System_IConvertible_ToInt16_m3159038792_AdjustorThunk
HDh:__Z59RuntimeInvoker_Int64_t909078037_RuntimeObject_RuntimeObjectPFvvEPK10MethodInfoPvPS4_
X3h:__Z41RuntimeInvoker_KeyValuePair_2_t3716250094PFvvEPK10MethodInfoPvPS4_
Nub:__ZN10VertexData8TransferI18StreamedBinaryReadILb0EEEEvRT_
gZc:__ZN5physx2Sc5Scene9addStaticERNS0_10StaticCoreEPKPvjj
LXh:__Z73RuntimeInvoker_Single_t2076509932_Vector4_t2243707581_Vector4_t2243707581PFvvEPK10MethodInfoPvPS4_
Aig:_PKCS12_GetExistingParameters_m2413397265
fCk:_Nullable_1_get_Value_m1743067844_gshared
dIg:_Collection_1_ClearItems_m4268731177_gshared
Fab:__ZN14PreloadManager16UpdatePreloadingEv
Lib:__ZN12BaseRendererD2Ev
Fmb:__ZN14SafeBinaryRead21TransferSTLStyleArrayI19StaticArrayTransferIiLi4EEEEvRT_17TransferMetaFlags
kzk:_X509CertificateCollection__ctor_m858704242
vog:_Enumerator__ctor_m425576865_AdjustorThunk
Qyd:__ZN5physx2Sc5Scene9addShapesEPKPvjjRNS0_8RigidSimEPNS_12PxsRigidBodyERPNS0_8ShapeSimEPNS_9PxBounds3E
nkl:__ZNK15dense_hashtableINSt3__24pairIK10KeyWrapperINS1_IPKcS4_EEEiEES6_24NamespaceAndNamePairHashN14dense_hash_mapIS6_iS9_NS6_14EqualsComparerI26NamespaceAndNamePairEqualsEENS0_9allocatorIS8_EEE9SelectKeyESD_SF_E10test_emptyEj
KRg:_ReadOnlyCollection_1_System_Collections_IList_Contains_m1545447998_gshared
nrl:__ZN14dense_hash_mapI10KeyWrapperIPK19Il2CppGenericMethodEP10MethodInfoN6il2cpp8metadata23Il2CppGenericMethodHashENS4_14EqualsComparerINS8_26Il2CppGenericMethodCompareEEENSt3__29allocatorINSD_4pairIKS4_S6_EEEEEC2EjRKS9_RKSC_
tij:__ZL79LayoutRebuilder_t2155218138_CustomAttributesCacheGenerator_U3CU3Ef__mgU24cache0P21CustomAttributesCache
$Kd:__ZN5physx23PxcPCMContactConvexMeshERKNS_2Gu13GeometryUnionES3_RKNS_11PxTransformES6_RKfRNS_10PxcNpCacheERNS0_13ContactBufferE
Kfb:__ZNK21UnityDefaultAllocatorI17LowLevelAllocatorE8ContainsEPKv
g0k:__ZNSt3__213__vector_baseI6pollfdNS_9allocatorIS1_EEED2Ev
c_g:_ClientSessionInfo_get_Id_m3046630969
yPi:__ZL78Convert_t2607082565_CustomAttributesCacheGenerator_Convert_ToUInt32_m759656532P21CustomAttributesCache
Ai:_emscripten_get_main_loop_timing
W0f:_DirectoryInfo__ctor_m3750996792
WYe:_BaseMeshEffect_ModifyMesh_m2134816219
fOf:_Array_qsort_TisVector2_t2243707579_m3527759534_gshared
Htb:__ZN24GenerateTypeTreeTransfer21TransferSTLStyleArrayINSt3__26vectorIN15QualitySettings14QualitySettingENS1_9allocatorIS4_EEEEEEvRT_17TransferMetaFlags
dsk:_ResourceRequest_t2560315377_marshal_pinvoke_cleanup
fSf:_Array_InternalArray__get_Item_TisAnimatorClipInfo_t3905751349_m2163447872_gshared
gxg:_List_1_System_Collections_Generic_IEnumerableU3CTU3E_GetEnumerator_m166627113_gshared
qzb:__ZNSt3__26vectorI9InputAxisNS_9allocatorIS1_EEE6resizeEj
xHf:__ZN21InterfaceFuncInvoker2Ii19Vector2_t2243707579S0_E6InvokeEjP11Il2CppClassP12Il2CppObjectS0_S0_
mZa:__ZN13BatchRendererC2ER15RenderLoopStatsRK15RenderNodeQueuebbb
NLe:_SecurityElement_IsValidAttributeValue_m483287146
_Yb:__ZNK2UI13RectTransform22GetTypeVirtualInternalEv
PNi:__ZL56AppDomainSetup_t611332832_CustomAttributesCacheGeneratorP21CustomAttributesCache
tq:getTempRet0
jLd:__ZN5physx2Gu33MultiplePersistentContactManifold24addManifoldContactPointsEPNS0_21MeshPersistentContactEjPPNS0_15PCMContactPatchEjRKNS_6shdfnd3aos6FloatVESB_h
h$h:__Z79RuntimeInvoker_Boolean_t3825574718_ContentTypeU26_t1802785839_Int32_t2071877448PFvvEPK10MethodInfoPvPS4_
rFg:_Collection_1_InsertItem_m383205760_gshared
K7h:_AssemblyTitleAttribute__ctor_m1696431446
w5e:_Image_AddQuad_m1603575622
Trl:__ZN24dense_hashtable_iteratorINSt3__24pairIK10KeyWrapperIPK19Il2CppGenericMethodEP10MethodInfoEES6_N6il2cpp8metadata23Il2CppGenericMethodHashEN14dense_hash_mapIS6_S9_SD_NS6_14EqualsComparerINSC_26Il2CppGenericMethodCompareEEENS0_9allocatorISA_EEE9SelectKeyESH_SJ_E30advance_past_empty_and_deletedEv
rWg:_PrivateKeyInfo_RemoveLeadingZero_m3396807048
zLg:_ReadOnlyCollection_1_System_Collections_Generic_ICollectionU3CTU3E_get_IsReadOnly_m1251192075_gshared
Vpg:_List_1_GrowIfNeeded_m185971996_gshared
$fl:__ZN6il2cpp6icalls8mscorlib6System9ThreadingL21lookup_cached_cultureEP12Il2CppThreadi
O3a:__ZN18DeferredRenderLoopD2Ev
Xbi:_GenericTypeParameterBuilder_GetMethods_m1243855818
Wia:__ZNK16TypeTreeIterator4NameEv
_9i:__ZL90PlayableBinding_t2498078091_CustomAttributesCacheGenerator_U3CstreamTypeU3Ek__BackingFieldP21CustomAttributesCache
Xzi:__ZL40UIntPtr_t_CustomAttributesCacheGeneratorP21CustomAttributesCache
j5:__ZN15FileSystemEntry3SetEPKc
cSd:__ZN5physx6shdfnd5ArrayIPNS_13PxcNpMemBlockENS0_19ReflectionAllocatorIS3_EEE6resizeEjRKS3_
Yfk:_InternalEnumerator_1__ctor_m2808001655_gshared
dGe:_MACTripleDES__ctor_m884945242
Qmd:__ZN5physx14NpRigidDynamic8requiresERNS_23PxProcessPxBaseCallbackE
mM:__ZN20SoundChannelInstance15ParameterBuffer5ApplyEPN4FMOD7ChannelE
IAj:_AnimationMixerPlayable_GetHandle_m277863172_AdjustorThunk
gYe:_UIBehaviour_OnDidApplyAnimationProperties_m833087645
Kde:__ZN20TextRenderingPrivate19NativeTextGenerator9InsertTabEv
lAi:__ZL73Enum_t2459695545_CustomAttributesCacheGenerator_Enum_ToObject_m1688724857P21CustomAttributesCache
hpk:_Rect_set_y_m4294916608
X4d:__ZN5physx7profile8ZoneImplINS_28PxProfileNameProviderForwardEE21setProfileZoneManagerEPNS_20PxProfileZoneManagerE
bze:__ZN11UnityEngine15PlatformWrapper24GetRuntimePlatformStringEv
jj:_glIsEnabled
dTb:__ZN15CacheWriterBaseD2Ev
$Lc:__ZN5physx3Cct17CapsuleController15setFootPositionERKNS_14PxExtendedVec3E
xJc:__ZN5physx2Gu33PCMCapsuleVsMeshContactGeneration13generateEEMTDERKNS_6shdfnd3aos5Vec3VES6_RKNS3_6FloatVES6_jS6_S6_PNS0_21MeshPersistentContactERj
_Db:__Z25scripting_class_get_image17ScriptingClassPtr
O6c:__ZN18MultiQueryCallbackIN5physx10PxSweepHitEED0Ev
nj:_emscripten_glDrawElementsInstanced
By:__ZN26AnimatorControllerPlayable27SetupStateMachineBehavioursEv
TUg:_ARC4Managed_Dispose_m4102232694
lVg:_HMAC_Initialize_m3052649104
Ool:__GLOBAL__sub_I_Thread_cpp_38978
Iwa:__ZN18JobBatchDispatcherD2Ev
VYb:__ZN9Transform17MainThreadCleanupEv
vwl:_GC_clear_hdr_marks
xMl:_glScissor__wrapper
NSl:_emscripten_glCreateShader__wrapper
_5e:_InputField_get_caretSelectPositionInternal_m3523572533
Lle:_cff_fd_select_get
bHi:__ZL73CompilationRelaxationsAttribute_t238494011_CustomAttributesCacheGeneratorP21CustomAttributesCache
a5i:__ZL95CanvasRenderer_t261436805_CustomAttributesCacheGenerator_CanvasRenderer_SetMaterial_m1462355522P21CustomAttributesCache
Vlh:_CallbackHandler_EndInvoke_m2406225629
tCe:__ZN11UnityEngine15PlatformWrapper23GetApplicationBuildGUIDEv
LYj:_Text_get_minHeight_m1562513104
QJe:_SHA512Managed_processBlock_m3220567420
k5g:_NameObjectCollectionBase_get_Keys_m446053925
xj:_emscripten_glGetShaderiv
enj:_Transform_1__ctor_m353209818_gshared
GZh:__Z30RuntimeInvoker_Axis_t375128448PFvvEPK10MethodInfoPvPS4_
oN:__ZN4FMOD6System10getVersionEPj
ZSd:__ZN5physx2Sc7BodySim10sleepCheckEffb
l8i:__ZL96RemoteSettings_t392466225_CustomAttributesCacheGenerator_RemoteSettings_CallOnUpdate_m1624968574P21CustomAttributesCache
GIf:_Array_InternalArray__IndexOf_TisSByte_t454417549_m1427585061_gshared
tre:__ZN2UI6Canvas23VirtualRedirectTransferER24GenerateTypeTreeTransfer
oof:_Decimal_u64_m3991988111
Gyk:_YieldInstruction_t3462875981_marshal_pinvoke
MCk:_Predicate_1_BeginInvoke_m2959352225_gshared
Etj:_Dictionary_2_CopyToCheck_m2147716750_gshared
Ezk:_X509Certificate_Parse_m1764345628
sce:__ZN13TextRendering4Font13AwakeFromLoadE17AwakeFromLoadMode
lSl:_emscripten_glCullFace__wrapper
$Xh:__Z70RuntimeInvoker_Void_t1841601450_Guid_t_RuntimeObject_Int32_t2071877448PFvvEPK10MethodInfoPvPS4_
cBa:__ZN9GfxDevice21ReleaseSharedMeshDataEP14SharedMeshData
Pjg:_SmallXmlParser_Peek_m2814840810
fAb:__ZNSt3__27__sort5IRNS_6__lessINS_4pairIPKN5Unity4TypeE7Hash128EES8_EEPS8_EEjT0_SC_SC_SC_SC_T_
Imf:_Enumerator_Reset_m466659019
GEk:_UnityAction_1_EndInvoke_m2822290096_gshared
Cvl:_GC_unreachable_finalize_mark_proc
Wlk:_BalancingGroup_set_Balance_m3452171919
xIj:_AudioPlayableOutput_op_Implicit_m530962771
Jg:___syscall192
YZh:__Z70RuntimeInvoker_Single_t2076509932_Int32_t2071877448_Single_t2076509932PFvvEPK10MethodInfoPvPS4_
j$h:__Z77RuntimeInvoker_Boolean_t3825574718_InputTypeU26_t4050577942_Int32_t2071877448PFvvEPK10MethodInfoPvPS4_
Fk:_emscripten_glGetProgramiv
X3j:_ConstructionCall_GetObjectData_m3974358557
Sjc:__Z43RectTransform_CUSTOM_INTERNAL_get_anchorMaxP12Il2CppObjectP13Vector2fIcall
nFh:__Z50RuntimeInvoker_Void_t1841601450_Single_t2076509932PFvvEPK10MethodInfoPvPS4_
C5c:__ZN5physx14NpShapeManagerC2Ev
Zla:__ZN8Material28UpdateHashesOnPropertyChangeEN9ShaderLab16FastPropertyNameE
Ekc:__Z53Register_UnityEngine_SortingLayer_GetLayerValueFromIDv
Fcb:__Z29StdTemplateConversionFunctionIhhEbPvR14SafeBinaryRead
YIk:_EqualityComparer_1_System_Collections_IEqualityComparer_Equals_m349194518_gshared
Njf:_CaseInsensitiveComparer_Compare_m1192858479
oGb:__Z18Transfer_BlittableI14SafeBinaryReadLb1E8Vector4fEvRK29SerializationCommandArgumentsR31RuntimeSerializationCommandInfo
e4f:_StreamAsyncResult_set_Done_m4272090534
R9e:_LayoutRebuilder_Clear_m2390054824
jHg:_Collection_1_System_Collections_IList_Insert_m2968289909_gshared
lDa:__ZN13GfxDeviceGLES20SetComputeBufferDataE15ComputeBufferIDPKvjj
c8h:_Default_SelectMethod_m622251293
xt:__ZN8Animator23VirtualRedirectTransferER19StreamedBinaryWriteILb0EE
D3j:_AsyncResult_get_NextSink_m1172723924
fA:__ZN11UnityEngine9Animation32CreateAnimatorGenericBindingsOptERKNS0_20AnimationSetBindingsER9TransformPKN7mecanim9animation14AvatarConstantEPKNS0_21AvatarBindingConstantEbRNS6_6memory9AllocatorER8Animator
bkl:__ZN6il2cpp2vm5Image13ClassFromNameEPK11Il2CppImagePKcS6_
aIl:dynCall_vdddddd
bWb:__ZN24GenerateTypeTreeTransfer21TransferSTLStyleArrayINSt3__26vectorIN9ShaderLab14SerializedPassENS1_9allocatorIS4_EEEEEEvRT_17TransferMetaFlags
yVc:__ZN5physx6shdfnd8internal8HashBaseIPNS_2Sc13ConstraintSimES5_NS0_4HashIS5_EENS1_11HashSetBaseIS5_S7_NS0_9AllocatorELb1EE6GetKeyES9_Lb1EE6createERKS5_Rb
e1:__ZL32MarkLevelGameManagerDependenciesR27GarbageCollectorThreadState
sDa:__ZNK13GfxDeviceGLES26HasActiveRandomWriteTargetEv
n1c:__ZNK5physx15NpActorTemplateINS_18PxArticulationLinkEE7getNameEv
bEe:__ZN20UnityWebRequestProtoI19TransportJavaScript16AtomicRefCounter14RedirectHelper14ResponseHelper15DownloadHandler13UploadHandler12HeaderHelper14AsyncOperationE5BeginEv
oNl:_glGetActiveUniformsiv__wrapper
Bkc:__Z43Register_UnityEngine_Material_EnableKeywordv
vBc:__ZNK5physx3Cct10Controller16getInternalStateERNS_17PxControllerStateE
o3:__ZN13MonoBehaviour19SetupScriptingCacheE17ScriptingClassPtrP10MonoScript
HSk:__ZL9rshift128PyS_
z0k:__ZNSt3__214__split_bufferIP12Il2CppThreadRNS_9allocatorIS2_EEED2Ev
As:__Z20AnimationEventToMonoRK14AnimationEventR18MonoAnimationEvent
TXi:__ZL85Mesh_t1356156583_CustomAttributesCacheGenerator_Mesh_ExtractArrayFromList_m1349408169P21CustomAttributesCache
X1:__ZNK15dense_hashtableINSt3__24pairIKiiEEi21InstanceIDHashFunctorN14dense_hash_mapIiiS4_NS0_8equal_toIiEE13stl_allocatorIS3_L18MemLabelIdentifier1ELi16EEE9SelectKeyES7_SA_E13find_positionERS2_
MRj:_Navigation_get_selectOnLeft_m3980387574_AdjustorThunk
$lj:_ShimEnumerator_get_Current_m3610131784_gshared
Qxd:__ZN5physx10PxsContext15setScratchBlockEPvj
qRh:__Z132RuntimeInvoker_Void_t1841601450_Vector3U26_t425862308_Vector3U26_t425862308_ColorU26_t3402129837_Single_t2076509932_SByte_t454417549PFvvEPK10MethodInfoPvPS4_
F9i:__ZL74UnityEventBase_t828812576_CustomAttributesCacheGenerator_m_PersistentCallsP21CustomAttributesCache
kaa:__ZZN15DirectorManager15InitializeClassEvEN52PreLateUpdateDirectorUpdateAnimationBeginRegistrator7ForwardEv
kuj:_DefaultComparer__ctor_m2265472997_gshared
ail:__ZN6il2cpp2vm13LivenessState18ShouldProcessValueEP12Il2CppObjectP11Il2CppClass
Vgb:__ZN4PPtrI6SpriteE8TransferI14SafeBinaryReadEEvRT_
Zai:_EnumBuilder_GetElementType_m1228393631
AKh:__Z52RuntimeInvoker_Void_t1841601450_TimeSpan_t3430258949PFvvEPK10MethodInfoPvPS4_
Wdl:__ZN15dense_hashtableINSt3__24pairIK10KeyWrapperIP11Il2CppClassES4_EES5_N6il2cpp8metadata16SZArrayClassHashEN14dense_hash_mapIS5_S4_SA_NS5_14EqualsComparerINS9_19SZArrayClassCompareEEENS0_9allocatorIS7_EEE9SelectKeyESE_SG_E16reset_thresholdsEv
vQc:__ZN5physx2Cm27getDynamicGlobalPoseAlignedERKNS_11PxTransformES3_S3_RS1_
Xqj:_Dictionary_2_System_Collections_Generic_ICollectionU3CSystem_Collections_Generic_KeyValuePairU3CTKeyU2CTValueU3EU3E_CopyTo_m3494157322_gshared
xwi:_PlayableHandle_GetInputCountInternal_m2692879798
zVb:__ZNSt3__26vectorIN9ShaderLab14SerializedPassENS_9allocatorIS2_EEE8__appendEj
HYd:__ZN5physx6shdfnd5ArrayIPvNS0_19ReflectionAllocatorIN17PxcPoolMallocData10PoolData32EEEE15growAndPushBackERKS2_
RUb:__ZNSt3__26vectorIN9ShaderLab20SerializedSubProgram13BufferBindingENS_9allocatorIS3_EEEC2INS_11__wrap_iterIPS3_EEEET_SB_RKS5_PNS_9enable_ifIXaasr21__is_forward_iteratorISB_EE5valuesr16is_constructibleIS3_NS_15iterator_traitsISB_E9referenceEEE5valueEvE4typeE
E_g:_Context_get_SupportedCiphers_m2172827298
o4b:__ZZL23RegisterLightPropertiesR22GenericPropertyBindingEN20Wrapper_LightColorb213GetFloatValueEPv
Gda:__ZNK13ScreenManager21IsMultiDisplayEnabledEv
e_h:__Z133RuntimeInvoker_RuntimeObject_Vector2_t2243707579_Vector2_t2243707579_Single_t2076509932_Int32_t2071877448_RuntimeObject_RuntimeObjectPFvvEPK10MethodInfoPvPS4_
Pqb:__ZN9Texture2D23VirtualRedirectTransferER18StreamedBinaryReadILb0EE
Cyf:_Double_System_IConvertible_ToUInt16_m286326038_AdjustorThunk
xjh:_TypeInfo__ctor_m1475908211
gXk:__ZN30dense_hashtable_const_iteratorINSt3__24pairIK10KeyWrapperIPKcEP11Il2CppClassEES5_N6il2cpp5utils11StringUtils12StringHasherIS4_EEN14dense_hash_mapIS5_S8_SE_NS5_14EqualsComparerINSB_13VmStringUtils21CaseSensitiveComparerEEENS0_9allocatorIS9_EEE9SelectKeyESJ_SL_E30advance_past_empty_and_deletedEv
xib:__ZNSt3__26__treeINS_12__value_typeIN4core12basic_stringIcNS2_20StringStorageDefaultIcEEEEjEENS_19__map_value_compareIS6_S7_NS_4lessIS6_EELb1EEE13stl_allocatorIS7_L18MemLabelIdentifier6ELi16EEE7destroyEPNS_11__tree_nodeIS7_PvEE
W3:__ZN16ScriptingManager27NativeTypeForScriptingClassE17ScriptingClassPtr
wah:_X509Chain_WrapUp_m1072032285
_Ak:_X509CertificateEnumerator_System_Collections_IEnumerator_MoveNext_m1448966539
Nie:_get_sfnt_table
SEg:_Collection_1_IsSynchronized_m3261594010_gshared
gpi:_GUIStyle_GetNumCharactersThatFitWithinWidth_m3760066083
ONe:_SecuritySafeCriticalAttribute__ctor_m2508714287
s$b:__Z13RegisterClassI5LightEvv
FVe:_PointerEventData_set_pressPosition_m2094137883
osb:__ZN8Renderer20RendererAddedToSceneEv
Loh:_DES_get_Key_m2584608215
a5a:__ZL22ScheduleSceneNodesJobsP25ScheduleSceneNodesJobDataj
tGd:__ZN5physx22concludeContactCoulombERKNS_23PxcSolverConstraintDescERNS_16PxcSolverContextE
ml:_emscripten_set_canvas_size
u8g:_AsnEncodedData__ctor_m1611830939
Ohd:__ZNK5physx15NpParticleFluid12getStiffnessEv
flf:_Hashtable__ctor_m741952536
nik:_Comparer_1__cctor_m2253684996_gshared
hVb:__ZNSt3__26vectorIN9ShaderLab20SerializedSubProgramENS_9allocatorIS2_EEE8__appendEj
UZ:__ZN20DynamicHeapAllocatorI17LowLevelAllocatorE8AllocateEji
exe:__ZN11UnityEngine9Analytics15UserCustomEvent12ToJsonStringER9JSONWrite
OZa:__ZN20DynamicPropertySheet15SetVectorQueuedERKN9ShaderLab16FastPropertyNameERK8Vector4fN19ShaderPropertySheet8SetFlagsE
R2i:__ZL138AnimatorControllerPlayable_t1744083903_CustomAttributesCacheGenerator_AnimatorControllerPlayable_PlayInFixedTime_m1932606764____fixedTime2P21CustomAttributesCache
BQe:_String_Format_m1263743648
eBi:__ZL69RuntimeArray_CustomAttributesCacheGenerator_Array_Reverse_m3883292526P21CustomAttributesCache
vPg:_ReadOnlyCollection_1_System_Collections_IEnumerable_GetEnumerator_m4248982967_gshared
gB:__ZN7mecanim9animation22EvaluateAvatarRetargetEPKNS0_14AvatarConstantEPKNS0_11AvatarInputEPNS0_12AvatarOutputEPNS0_12AvatarMemoryEPNS0_15AvatarWorkspaceEb
$9e:_LayoutRebuilder_GetHashCode_m2745108660
Inb:__ZN14RenderSettings23VirtualRedirectTransferER19StreamedBinaryWriteILb0EE
Juc:__ZL26Transfer_SimpleNativeClassI9JSONWrite10RectOffsetLb0EEvRK29SerializationCommandArgumentsR31RuntimeSerializationCommandInfo
vxi:_ScriptPlayableOutput_GetHandle_m849642920_AdjustorThunk
rxe:__ZN21UnityAnalyticsManager23VirtualRedirectTransferER24GenerateTypeTreeTransfer
FGa:__ZN17GenericDynamicVBO10AllocateVBEjR21DynamicVBOChunkHandle
trg:_List_1_get_Item_m1547593893_gshared
Fsl:__ZN4utf88internal14get_sequence_4IPKcEENS0_9utf_errorERT_S5_Rj
H0f:_Path_GetPathRoot_m1269357080
zKd:__ZL27PxcTestFacesSepAxesBackfaceRKN5physx2Gu13PolygonalDataES3_RKNS_2Cm8Matrix34ES7_RKNS4_23FastVertex2ShapeScalingESA_S7_RKNS_6PxVec3ERfRSB_RjPjSG_fSD_
Cll:__ZN30dense_hashtable_const_iteratorI10KeyWrapperIP18Il2CppGenericClassES3_N6il2cpp8metadata22Il2CppGenericClassHashEN14dense_hash_setIS3_S6_NS3_14EqualsComparerINS5_25Il2CppGenericClassCompareEEENSt3__29allocatorIS3_EEE8IdentityESA_SD_EppEv
Nkf:_KeyNotFoundException__ctor_m264393096
WTe:_EventSystem_SetSelectedGameObject_m2211816110
qnj:_Transform_1__ctor_m4161450529_gshared
z_k:__ZNK15dense_hashtableI10KeyWrapperIPK17Il2CppGenericInstES4_N6il2cpp8metadata21Il2CppGenericInstHashEN14dense_hash_setIS4_S7_NS4_14EqualsComparerINS6_24Il2CppGenericInstCompareEEENSt3__29allocatorIS4_EEE8IdentityESB_SE_E4findERKS4_
Kl:_glMapBufferRange
Hqb:__ZN9Texture2D8TransferI18StreamedBinaryReadILb0EEEEvRT_
qhc:__Z31Input_CUSTOM_GetMouseButtonDowni
sPh:__Z41RuntimeInvoker_HandshakeState_t1820731088PFvvEPK10MethodInfoPvPS4_
ujc:__Z75Register_UnityEngine_Playables_PlayableHandle_INTERNAL_CALL_IsValidInternalv
K6b:__ZN13PlayableGraph4PlayEv
$cd:__ZNK5physx7NpCloth23getExternalAccelerationEv
IXa:__ZNK9Transform16GetLocalPositionEv
lXi:__ZL89Input_t1785128008_CustomAttributesCacheGenerator_Input_get_imeCompositionMode_m4250689464P21CustomAttributesCache
Caf:_Array_System_Collections_ICollection_get_Count_m2897196527
Rxa:__ZN13LoadOperation19IntegrateTimeSlicedEi
M4j:_ArrayReadOnlyList_1_get_Item_m176001975_gshared
keh:_InterpreterFactory__ctor_m3331468903
THd:__ZN5physx16PxsBroadPhaseMBP9updatePPUEPNS_10PxBaseTaskE
fjg:_X501__cctor_m3795360380
DDa:__ZN13GfxDeviceGLES22DispatchComputeProgramE12ObjectHandleI18ComputeProgram_TagPvE15ComputeBufferIDj
Epi:_GUIStyle_set_contentOffset_m2138084868
WEg:_Collection_1_System_Collections_ICollection_CopyTo_m4193844941_gshared
jLh:__Z60RuntimeInvoker_Void_t1841601450_StreamingContext_t1417235061PFvvEPK10MethodInfoPvPS4_
arf:_Convert_ToInt32_m2297793940
Zva:__Z17TransformAABBSlowRK4AABBRK10Matrix4x4fRS_
Crb:__ZN15SerializeTraitsI13dynamic_arrayI7Hash128Lj8EEE19ResizeSTLStyleArrayERS2_i18MemLabelIdentifier
Qcl:__ZN13Il2CppHashMapINSt3__24pairIPK9FieldInfoP11Il2CppClassEEj17ReflectionMapHashIS7_ENS0_8equal_toIS7_EENS0_9allocatorINS1_IK10KeyWrapperIS7_EjEEEEEC2EjRKS9_RKSB_
TTb:__ZN9ShaderLab21SerializedShaderState8TransferI14SafeBinaryReadEEvRT_
$El:_ftruncate
PIe:_RSAPKCS1SignatureFormatter_SetKey_m2365816458
yYf:_Int16_GetHashCode_m304503362_AdjustorThunk
Ime:_cf2_stack_pushInt
qE:__ZN7mecanim9animation20DestroyLayerConstantEPNS0_13LayerConstantERNS_6memory9AllocatorE
Xjd:__ZN5physx6shdfnd8PoolBaseINS_16NpParticleSystemENS0_19ReflectionAllocatorIS2_EEE12allocateSlabEv
bGf:_Array_InternalArray__IEnumerable_GetEnumerator_TisInt32_t2071877448_m372781915_gshared
wth:_CompressedStack__ctor_m276924800
jVe:_ExecuteEvents_get_cancelHandler_m1964324668
fna:__ZN15SerializeTraitsINSt3__24pairIN4core12basic_stringIcNS2_20StringStorageDefaultIcEEEES6_EEE8TransferI24GenerateTypeTreeTransferEEvRS7_RT_
Ywi:_PlayableOutput__ctor_m3826671654_AdjustorThunk
isi:_Matrix4x4__ctor_m2771358574_AdjustorThunk
R5i:__ZL70GUISettings_t622856320_CustomAttributesCacheGenerator_m_SelectionColorP21CustomAttributesCache
yNl:b81
xNl:b80
KKa:__ZN7ApiGLES19CreateSparseTextureEjj14GraphicsFormatiiiiRiS1_S1_
A4:__ZN18ResourceImageGroup7CleanupEv
MOl:b85
jTc:__ZN5physx2Gu36closestPtPointTetrahedronTesselationEPNS_6shdfnd3aos5Vec3VES4_S4_RjRS3_S6_
OOl:b87
NOl:b86
qr:__ZN11Quaternionf8TransferI24GenerateTypeTreeTransferEEvRT_
OKd:__ZN5physx25PxcPCMContactSphereConvexERKNS_2Gu13GeometryUnionES3_RKNS_11PxTransformES6_RKfRNS_10PxcNpCacheERNS0_13ContactBufferE
sci:_GenericTypeParameterBuilder_get_DeclaringType_m1652924692
W3b:__ZN13ProduceHelperI4MeshLb0EE7ProduceE18MemLabelIdentifier18ObjectCreationMode
pWg:_PrivateKeyInfo_Decode_m1053025782
ach:_X509ChainElementCollection_System_Collections_ICollection_CopyTo_m1467895312
pUd:__ZN5physx2Cm18DelegateFanoutTaskINS_2Sc5SceneEXadL_ZNS3_20particlePostShapeGenEPNS_10PxBaseTaskEEEED0Ev
iig:_PKCS12_Decrypt_m2457743414
N3i:__ZL87Animator_t69676727_CustomAttributesCacheGenerator_Animator_SetTriggerString_m2002790359P21CustomAttributesCache
uob:__ZN8Playable19SetOutputConnectionEPS_i
xWk:__ZN15dense_hashtableINSt3__24pairIK10KeyWrapperIPK11Il2CppClassEPKcEES6_N6il2cpp5utils11PointerHashIS3_EEN14dense_hash_mapIS6_S9_SE_NS6_14EqualsComparerINS0_8equal_toIS5_EEEENS0_9allocatorISA_EEE9SelectKeyESJ_SL_EC2ERKSO_j
ym:_glDeleteShader
jM:__ZN11SoundHandle8Instance15UpdateLoadStateEv
sAf:_Exception_GetType_m3898489832
zqa:__ZN6prcoreL17RemapGenericFloatI15TexFormatRGHalf16TexFormatRGFloatEEvPKNS_9InnerInfoE
T7c:__ZN5physx6shdfnd8PoolBaseINS_10NpMaterialENS0_19ReflectionAllocatorIS2_EEE15disposeElementsEv
XBg:_Stack_1_Peek_m1548778538_gshared
Umg:_Enumerator_System_Collections_IEnumerator_get_Current_m2408426667_AdjustorThunk
UKg:_Collection_1_System_Collections_IList_get_Item_m1995028750_gshared
lyk:_Vector4_Dot_m2285943745
HWj:_Shadow_set_effectColor_m3110056844
Occ:__Z27scripting_add_internal_callPKcPKv
nMf:_Array_InternalArray__Insert_TisUriScheme_t1876590943_m2728325409_gshared
d6i:__ZL72GUISkin_t1436893342_CustomAttributesCacheGenerator_m_verticalSliderThumbP21CustomAttributesCache
Acl:__ZN13Il2CppHashMapINSt3__24pairIPK9EventInfoP11Il2CppClassEEj17ReflectionMapHashIS7_ENS0_8equal_toIS7_EENS0_9allocatorINS1_IK10KeyWrapperIS7_EjEEEEEC2EjRKS9_RKSB_
gml:__GLOBAL__sub_I_GarbageCollector_cpp
T$:__Z17GetPlayerSettingsv
OCc:__ZL21ContactReductionAllInRN5physx2Gu13ContactBufferEjjRKNS_7PxMat33EPKNS_6PxVec3EPKh
HB:__ZN34BlobWriteTransferSTLStyleArrayImplI22OffsetPtrArrayTransferIiEEclERS1_17TransferMetaFlagsR9BlobWrite
lBk:_X509Store_CheckStore_m1027496478
xGi:__ZL82MethodBase_t904190842_CustomAttributesCacheGenerator_MethodBase_Invoke_m1075809207P21CustomAttributesCache
Ot:__ZN26AnimatorControllerPlayable18SetLayerAutoWeightEv
gc:invoke_vffff
BFl:__ZNSt3__212basic_stringIcNS_11char_traitsIcEENS_9allocatorIcEEEC2ERKS5_jjRKS4_
kQe:_String_Contains_m4017059963
IPf:_Array_swap_TisCustomAttributeNamedArgument_t94157543_TisCustomAttributeNamedArgument_t94157543_m3600072996_gshared
Bgk:_DefaultComparer_Compare_m1606207039_gshared
Gte:__ZN2UI14CanvasRenderer12SyncMaterialENS0_8SyncFlagE
A2i:__ZL137AnimatorControllerPlayable_t1744083903_CustomAttributesCacheGenerator_AnimatorControllerPlayable_CrossFade_m3794224188____normalizedTime3P21CustomAttributesCache
Nzl:__ZN6il2cpp2vm9Parameter30GetDefaultParameterValueObjectEPK10MethodInfoPK13ParameterInfoPb
lIk:_Action_EndInvoke_m4281032350
I_b:__ZN15dense_hashtableINSt3__24pairIKN4core12basic_stringIcNS2_20StringStorageDefaultIcEEEE10vector_setI4PPtrI11SpriteAtlasENS0_4lessISB_EE13stl_allocatorISB_L18MemLabelIdentifier79ELi16EEEEES6_20StringHash32FunctionIS6_EN14dense_hash_mapIS6_SH_SK_NS0_8equal_toIS6_EESE_ISI_LSF_79ELi16EEE9SelectKeyESN_SO_E12maybe_shrinkEv
dNf:_Array_InternalArray__set_Item_TisLabelData_t3712112744_m2253365137_gshared
Wfi:_MonoCMethod_get_Attributes_m3914742834
jdk:_InternalEnumerator_1__ctor_m142220063_AdjustorThunk
tti:_MonoBehaviour_Invoke_m666563676
v9h:_ConstructorBuilder_get_DeclaringType_m4264602248
zwf:_Decimal_decimalDiv_m900036616
Y4f:_StringReader__ctor_m643998729
S6g:_IPv6Address_TryParse_m2220524278
_1c:__ZN5physx19NpRigidBodyTemplateINS_18PxArticulationLinkEE16setRigidBodyFlagENS_15PxRigidBodyFlag4EnumEb
K9e:_U3CDelayedSetDirtyU3Ec__Iterator0_System_Collections_Generic_IEnumeratorU3CobjectU3E_get_Current_m2210283424
cZi:__ZL86Time_t31991979_CustomAttributesCacheGenerator_Time_get_realtimeSinceStartup_m357614587P21CustomAttributesCache
Eie:_UNITY_tt_face_done_kern
R1j:_Context_get_DefaultContext_m2211922324
o8h:_CustomAttributeData_get_NamedArguments_m708818174
mrc:__Z59GUIStyle_CUSTOM_Internal_GetNumCharactersThatFitWithinWidth13Il2Cpp_IntPtrP12Il2CppStringf
Ywb:__ZN12BoneWeights48TransferI24GenerateTypeTreeTransferEEvRT_
GWg:_RSAManaged_GetPaddedValue_m2972141669
nH:__Z62AnimationPlayableOutput_CUSTOM_INTERNAL_CALL_InternalSetTargetR15HPlayableOutputP12Il2CppObject
Y$g:_TlsServerCertificate_ProcessAsSsl3_m277089231
tGf:_Array_InternalArray__IEnumerable_GetEnumerator_TisUInt16_t986882611_m3665860884_gshared
Ifa:__Z19scripting_gc_enablev
JDe:__ZN20UnityWebRequestProtoI19TransportJavaScript16AtomicRefCounter14RedirectHelper14ResponseHelper15DownloadHandler13UploadHandler12HeaderHelper14AsyncOperationE9DoRequestEv
rTa:__ZZ23InitPlayerLoopCallbacksvEN41InitializationPlayerUpdateTimeRegistrator7ForwardEv
ylk:_AnchorInfo__ctor_m617409099
e6d:__ZN5physx7profile11EventBufferINS_24PxDefaultContextProviderENS_6shdfnd6MutexTINS0_26WrapperReflectionAllocatorIhEEEENS0_14ScopedLockImplIS7_EENS_24PxProfileNullEventFilterEE9stopEventEty
Xbb:__Z29StdTemplateConversionFunctionIihEbPvR14SafeBinaryRead
Ybi:_GenericTypeParameterBuilder_GetMethodImpl_m528545634
Ave:__Z55Register_UnityEngine_CanvasRenderer_DisableRectClippingv
Reh:_Interval_CompareTo_m2909556284_AdjustorThunk
rwb:__ZN14SafeBinaryRead21TransferSTLStyleArrayI13dynamic_arrayI11ColorRGBA32Lj4EEEEvRT_17TransferMetaFlags
faj:__ZL61PlayableExtensions_t2358977238_CustomAttributesCacheGeneratorP21CustomAttributesCache
RNa:__ZN9GfxDevice22UploadTextureCubeArrayE9TextureIDPKhjii14GraphicsFormati18TextureUploadFlags
MAi:__ZL87RuntimeArray_CustomAttributesCacheGenerator_Array_CreateInstance_m679102425____lengths1P21CustomAttributesCache
oaj:__ZL83Logger_t3328995178_CustomAttributesCacheGenerator_Logger_get_logHandler_m4190583509P21CustomAttributesCache
iHj:_AudioClip_get_length_m3881628918
ARj:_Navigation_t1571958496_marshal_pinvoke
Idh:_Interpreter_GetLastDefined_m2450713313
Pkk:_Parser_ParseAssertionType_m3316669790
DXb:__ZN9ShaderLab7Program27CreateFromSerializedProgramERKNS_17SerializedProgramE10ShaderTypeiP16PropertyNamesSetPK6Shader
iWj:_Selectable_get_isPointerDown_m774209881
pAi:__ZL73Enum_t2459695545_CustomAttributesCacheGenerator_Enum_ToObject_m2460371738P21CustomAttributesCache
PYb:__ZNSt3__27__sort4IRNS_6__lessIN4core12basic_stringIcNS2_20StringStorageDefaultIcEEEES6_EEPS6_EEjT0_SA_SA_SA_T_
HIl:dynCall_viiiifii
cbl:__ZN6il2cpp2gc19AppendOnlyGCHashMapINSt3__24pairIPK11Il2CppImageP11Il2CppClassEEP22Il2CppReflectionModule17ReflectionMapHashIS9_ENS2_8equal_toIS9_EEEC2Ev
h2:__Z20GetPersistentManagerv
Vpe:_UNITY_TT_Set_Var_Design
Q1j:_Context_Finalize_m1386439645
_ca:__ZN21SystemInfoStringCache16StaticInitializeEPv
bYg:_TlsStream__ctor_m4117943603
R7k:__ZN15dense_hashtableINSt3__24pairIK10KeyWrapperIPK10Il2CppTypeEjEES6_N6il2cpp8metadata14Il2CppTypeHashEN14dense_hash_mapIS6_jSB_NS6_14EqualsComparerINSA_26Il2CppTypeEqualityComparerEEENS0_9allocatorIS8_EEE9SelectKeyESF_SH_E12maybe_shrinkEv
gNf:_Array_InternalArray__set_Item_TisParameterModifier_t1820634920_m3126548327_gshared
QRc:__ZN5physx2Sc7BodySim18internalWakeUpBaseEf
Gql:__ZN6il2cpp2gc16GarbageCollector23MakeDescriptorForObjectEPji
nml:__ZNK10KeyWrapperIP12Il2CppObjectE14EqualsComparerINSt3__28equal_toIS1_EEEclERKS2_S9_
xii:_ParameterModifier_t1820634920_marshal_pinvoke
aDb:__ZNK13MonoBehaviour7GetNameEv
hsa:__ZN19ScriptingInvocation28AdjustArgumentsToMatchMethodEv
Oll:__ZN15dense_hashtableI10KeyWrapperIP18Il2CppGenericClassES3_N6il2cpp8metadata22Il2CppGenericClassHashEN14dense_hash_setIS3_S6_NS3_14EqualsComparerINS5_25Il2CppGenericClassCompareEEENSt3__29allocatorIS3_EEE8IdentityESA_SD_E6insertERKS3_
$P:__Z15_CheckFMODError11FMOD_RESULTPKciS1_
vSe:_AbstractEventData_Use_m1797212290
tlb:__Z20RenderMultipleMeshesRK15RenderNodeQueueRK18RenderMultipleData17ShaderChannelMask
pej:__ZL150U3CDelayedDestroyDropdownListU3Ec__Iterator0_t3461999471_CustomAttributesCacheGenerator_U3CDelayedDestroyDropdownListU3Ec__Iterator0_Reset_m3485957852P21CustomAttributesCache
oEh:__Z199RuntimeInvoker_Void_t1841601450_ByteU2AU26_t3544685828_ByteU2AU26_t3544685828_DoubleU2AU26_t3349029_UInt16U2AU26_t1636670495_UInt16U2AU26_t1636670495_UInt16U2AU26_t1636670495_UInt16U2AU26_t1636670495PFvvEPK10MethodInfoPvPS4_
w3i:__ZL135AnimatorControllerPlayable_t1744083903_CustomAttributesCacheGenerator_AnimatorControllerPlayable_INTERNAL_CALL_SetTriggerID_m1169129620P21CustomAttributesCache
Z5k:__ZN6il2cpp2vm4Type19GetGenericParameterEPK10Il2CppType
R7j:_InternalEnumerator_1__ctor_m439810834_AdjustorThunk
ave:__Z51Register_UnityEngine_CanvasGroup_get_blocksRaycastsv
Wek:_InternalEnumerator_1_get_Current_m2826780083_gshared
kod:__ZN5physx20NpRigidActorTemplateINS_13PxRigidStaticEE15exportExtraDataERNS_22PxSerializationContextE
cRl:b119
c2j:_Context_UnregisterDynamicProperty_m4064851633
syc:__ZN8JSONRead21TransferSTLStyleArrayI13dynamic_arrayI11ColorRGBA32Lj4EEEEvRT_18MemLabelIdentifier17TransferMetaFlags
Rij:__ZL105LayoutUtility_t4076838048_CustomAttributesCacheGenerator_LayoutUtility_U3CGetMinHeightU3Em__4_m1769295917P21CustomAttributesCache
YVd:__ZN5physx13BigConvexData5VLoadERNS_13PxInputStreamE
l9k:__ZNK15dense_hashtableINSt3__24pairIK10KeyWrapperINS1_IPK11Il2CppImageP11Il2CppClassEEEjEES9_17ReflectionMapHashIS8_EN14dense_hash_mapIS9_jSD_NS9_14EqualsComparerINS0_8equal_toIS8_EEEENS0_9allocatorISB_EEE9SelectKeyESI_SK_E3endEv
hgk:_InternalEnumerator_1__ctor_m2782443954_AdjustorThunk
be:_glBeginQuery
S6h:_Assembly_GetCustomAttributes_m95309865
_ki:_GUILayoutUtility_INTERNAL_CALL_Internal_GetWindowRect_m3236664463
_zd:__ZN5physx11NodeManager6resizeEj
kVa:__ZN6Camera12RenderStereoENS_10RenderFlagE8CullFlagPNS_24PerformEyeRenderFunctionE
RUg:_RC4__ctor_m1585026462
Zda:__ZN20LocalFileSystemPosix10ToAbsoluteEPKc
jlb:__ZN20TierGraphicsSettings8TransferI19StreamedBinaryWriteILb0EEEEvRT_
zbk:_InternalEnumerator_1_get_Current_m2286118957_AdjustorThunk
HIf:_Array_InternalArray__IndexOf_TisX509ChainStatus_t4278378721_m1338369069_gshared
dof:_Convert_ToBoolean_m48997236
ytd:__ZNK5physx7NpScene28getSceneQueryStaticTimestampEv
gn:f0
uq:__ZN6Object17MainThreadCleanupEv
Thf:_ArrayListWrapper_set_Capacity_m2792463350
Kkb:__Z32TransferEnumWithNameForceIntSizeI14SafeBinaryRead7HDRModeEvRT_RT0_PKc17TransferMetaFlags
SDl:_getcwd
Q2d:__ZNSt3__26vectorI9CollisionNS_9allocatorIS1_EEE21__push_back_slow_pathIKS1_EEvRT_
zlk:_AnchorInfo_get_Offset_m142119297
hCj:_AnimatorControllerPlayable_GetBool_m3606320557
tfb:__ZN25ThreadsafeLinearAllocatorD2Ev
zBd:__ZN5physx2Sq10AABBPruner11preallocateEj
fga:__Z21SendMessageToEveryoneRK17MessageIdentifier11MessageData
XPl:b116
Cni:_GUISkin_get_settings_m626844463
h8:__ZN21BillboardBatchManager16StaticInitializeEPv
Gni:_Object_get_name_m2079638459
b$:__ZN12_GLOBAL__N_138ArchiveRedirectFileSystemStaticDestroyEPv
GDk:_InvokableCall_1_add_Delegate_m3048312905_gshared
jAf:_EventHandler_Invoke_m1137722757
spb:__ZN12CubemapArray34UpdateFileTextureUploadInstructionEP26FileAssetUploadInstructionj
Zqd:__ZN5physx2Sc19ShapeInstancePairLLC2ERNS0_8ShapeSimES3_RNS0_9ActorPairENS_7PxFlagsINS_10PxPairFlag4EnumEtEE
u8f:_MonoType_IsSubclassOf_m2211166238
Ffl:__ZN6il2cpp6icalls8mscorlib6System5Array9GetLengthEP11Il2CppArrayi
re:_emscripten_glUniform3iv
sGg:_Collection_1_System_Collections_ICollection_CopyTo_m2859266050_gshared
JKa:__Z23CreateSparseTextureGLES9TextureIDii14GraphicsFormati
NPk:__ZL25UnresolvedVirtualCall_165P12Il2CppObject22UILineInfo_t3621277874PK10MethodInfo
shk:_Comparer_1__ctor_m2876014041_gshared
Fwl:_GC_continue_reclaim
Rhf:_ArrayListWrapper_get_Count_m2207944952
bch:_X509ChainElementCollection_System_Collections_IEnumerable_GetEnumerator_m2559704689
ARi:__ZL86BigInteger_t925946153_CustomAttributesCacheGenerator_BigInteger_op_Implicit_m622924526P21CustomAttributesCache
_dj:__ZL59Dropdown_t1985816271_CustomAttributesCacheGenerator_m_ValueP21CustomAttributesCache
oeh:_InterpreterFactory_set_Gap_m2761943153
r9g:_PublicKey_get_Key_m126090744
Dee:__ZNSt3__23mapIN20TextRenderingPrivate7FontRefEP11FT_FaceRec_NS_4lessIS2_EENS_9allocatorINS_4pairIKS2_S4_EEEEEixERS9_
mPa:__ZN17ArchiveFileSystem10AddStorageEP20ArchiveStorageReader
e2c:__ZN5physx19NpRigidBodyTemplateINS_18PxArticulationLinkEE27setMaxDepenetrationVelocityEf
GOk:__ZL25UnresolvedVirtualCall_104P12Il2CppObjectS0_S0_S0_iPK10MethodInfo
Kfd:__ZN5physx2Sc9ClothCore16setStretchConfigENS_22PxClothFabricPhaseType4EnumERKNS_20PxClothStretchConfigE
GMj:_Color_Equals_m661618137
nLj:_CanvasRenderer_SplitIndicesStreamsInternal_m817541557
_7d:_PxCreateFoundation
A$k:__ZN6il2cpp2vm13MetadataCache37GetParameterDefaultValueDataFromIndexEi
mwj:_EqualityComparer_1_System_Collections_IEqualityComparer_GetHashCode_m1203798961_gshared
E6i:__ZL89GUIStyle_t1799908754_CustomAttributesCacheGenerator_GUIStyle_AssignRectOffset_m2998103580P21CustomAttributesCache
AUk:__ZN6il2cpp2vm5Class15GetEnumBaseTypeEP11Il2CppClass
T0f:_DirectoryNotFoundException__ctor_m3713860966
ivi:_Physics_Raycast_m2009151399
$pb:__ZNK9Texture2D16GetNpotTexelSizeEv
s8j:_InternalEnumerator_1__ctor_m245588437_gshared
Tch:_Capture_get_Text_m3472127896
FQj:_Mask_get_rectTransform_m3304369086
nvk:_TooltipAttribute__ctor_m2640804852
L8d:__ZN13dynamic_arrayItLj2EE6insertEPtPKtS3_
iuj:_DefaultComparer_GetHashCode_m4073394827_gshared
edf:__ZN21InterfaceFuncInvoker1ItP12Il2CppObjectE6InvokeEjP11Il2CppClassS1_S1_
KGa:__ZN9GfxDevice22GetDefaultVertexBufferE26GfxDefaultVertexBufferTypej
UEg:_Collection_1__ctor_m3903788797_gshared
SOg:_ReadOnlyCollection_1_System_Collections_ICollection_CopyTo_m1129689124_gshared
iEl:___fseeko_unlocked
qPl:_glGetActiveUniform__wrapper
aEl:_sscanf
CJg:_Collection_1_Contains_m1999290510_gshared
iOc:__ZN5physx3Cct17CapsuleControllerC2ERKNS_16PxControllerDescERNS_9PxPhysicsEPNS_7PxSceneE
Lwb:__ZN14SafeBinaryRead21TransferSTLStyleArrayINSt3__26vectorI17BlendShapeChannelNS1_9allocatorIS3_EEEEEEvRT_17TransferMetaFlags
voa:__Z17BeginSplashScreenv
JNj:_ControllerColliderHit_get_moveDirection_m3053186297
OWb:__ZN9ShaderLab16SerializedShader8TransferI19StreamedBinaryWriteILb0EEEEvRT_
ozh:_UInt32_Parse_m2400360707
yD:__ZN7mecanim9animation18CreateAvatarMemoryEPKNS0_14AvatarConstantERNS_6memory9AllocatorE
Bnf:_Stack_Pop_m3788808882
Ujj:_Enumerator_VerifyCurrent_m4246196125_AdjustorThunk
Rsj:_Dictionary_2_pick_value_m3484897877_gshared
Auf:_DateTime_op_Equality_m1867073872
qC:__ZN7mecanim8skeleton16SkeletonPoseCopyIN4math4trsXENS2_7affineXEEEvPKNS0_13SkeletonPoseTIT_EEPNS5_IT0_EE
Usg:_List_1_CopyTo_m1916701891_gshared
rNb:__Z18Transfer_BlittableI19StreamedBinaryWriteILb0EELb0EaEvRK29SerializationCommandArgumentsR31RuntimeSerializationCommandInfo
pGa:__ZN18GfxFramebufferGLES18GetFramebufferNameERK20GfxRenderTargetSetup
m5k:__ZN6il2cpp2vm14TypeNameParser12ParseVersionERKNSt3__212basic_stringIcNS2_11char_traitsIcEENS2_9allocatorIcEEEERtSB_SB_SB_
uil:__ZN6il2cpp6icalls8mscorlib6System2IO6MonoIO11GetFileTypeE12Il2CppIntPtrPi
Opc:__Z30Event_Get_Custom_PropCharacterP12Il2CppObject
L9:__ZN13PlayableGraph27SchedulePlayableDestructionERK9HPlayable
tKc:__ZN5physx6shdfnd5ArrayINS_12PxDebugPointENS0_19ReflectionAllocatorIS2_EEE15growAndPushBackERKS2_
rMl:_glGetFramebufferAttachmentParameteriv__wrapper
g2i:__ZL145AnimatorControllerPlayable_t1744083903_CustomAttributesCacheGenerator_AnimatorControllerPlayable_INTERNAL_CALL_IsInTransitionInternal_m3428375524P21CustomAttributesCache
JCe:__Z13RegisterClassI20UnityConnectSettingsEvv
kHb:__Z22scripting_array_length17ScriptingArrayPtr
JLe:_SecurityElement_GetAttribute_m4288291176
dfk:_InternalEnumerator_1_System_Collections_IEnumerator_get_Current_m2389982234_gshared
U0d:__ZN8Collider13AwakeFromLoadE17AwakeFromLoadMode
zGk:_IndexedSet_1_get_Count_m2839545138_gshared
yva:__ZN14SafeBinaryRead20TransferTypelessDataEjPvi
wji:_RenderPipelineManager_get_currentPipeline_m679160301
bpd:__ZN5physx6shdfnd13ReadWriteLockC2Ev
Btc:__ZN9rapidjson13GenericReaderINS_4UTF8IcEES2_13JSONAllocatorE10ParseFalseILj1ENS_25GenericInsituStringStreamIS2_EENS_15GenericDocumentIS2_S3_S3_EEEEvRT0_RT1_
Wzj:_AnimationClipPlayable_INTERNAL_CALL_SetApplyFootIKInternal_m4116451205
Awg:_List_1_AddCollection_m3284813601_gshared
lke:_Horizontal_Sweep_Init
xhj:__ZL102ToggleGroup_t1030026315_CustomAttributesCacheGenerator_ToggleGroup_U3CActiveTogglesU3Em__1_m4052653494P21CustomAttributesCache
GP:__ZN13dynamic_arrayI12SoundChannelLj4EE9push_backERKS0_
R$:__Z19GetActiveColorSpacev
Fwj:_EqualityComparer_1__cctor_m1672307556_gshared
Shh:_SoapTypeAttribute_get_IsInteropXmlElement_m2941294827
Uyb:__ZN14SpriteRenderer18UpdateCachedSpriteEv
dog:_Enumerator_System_Collections_IEnumerator_get_Current_m3542273247_gshared
igf:_Char_System_IConvertible_ToUInt32_m1557991717_AdjustorThunk
Eqh:_Encoding_get_UTF8Unmarked_m628720656
oUf:_NumberFormatter_RoundBits_m1545255255
y0:__Z6StrCmpPKcS0_
VKh:__Z119RuntimeInvoker_Void_t1841601450_RuntimeObject_Int64U26_t763825331_ObjectU26_t597476745_SerializationInfoU26_t4051840202PFvvEPK10MethodInfoPvPS4_
lYb:__Z21CheckGpuProgramUsable20ShaderGpuProgramType
N7h:_Binder__cctor_m3736115807
Ypl:__ZN6il2cpp2os9Directory20GetFileSystemEntriesERKNSt3__212basic_stringIcNS2_11char_traitsIcEENS2_9allocatorIcEEEESA_iiPi
p0h:__Z84RuntimeInvoker_Int32_t2071877448_Color32_t874517518_Color32_t874517518_RuntimeObjectPFvvEPK10MethodInfoPvPS4_
s4c:__ZN5physx6shdfnd5ArrayIPvNS0_19ReflectionAllocatorINS_2Cm5BlockIhLj128EEEEEE4copyINS0_15InlineAllocatorILj256ES7_EEEEvRKNS1_IS2_T_EE
Dcf:_Attribute_GetHashCode_m2653962112
Cde:__ZN20TextRenderingPrivate19NativeTextGenerator5SetupEv
F3j:_AsyncResult_GetReplyMessage_m262842621
tmg:_Enumerator__ctor_m3021143890_AdjustorThunk
Z7c:__ZN5physx6shdfnd8PoolBaseINS_16NpConnectorArrayENS0_19ReflectionAllocatorIS2_EEE15disposeElementsEv
WAb:__ZN12AspectRatios8TransferI18StreamedBinaryReadILb0EEEEvRT_
h9d:__ZN14PhysicsManager19CreatePvdConnectionEv
UCi:__ZL66X509ExtensionCollection_t1640144839_CustomAttributesCacheGeneratorP21CustomAttributesCache
d6b:__ZN10GameObject14CopyPropertiesERS_
Rrc:__Z44Register_UnityEngine_GUIStyle_get_fixedWidthv
iIe:_RSACryptoServiceProvider_Common_m2581564813
Mzk:_X509CertificateEnumerator_MoveNext_m4060814498
QDj:_AnimatorControllerPlayable_INTERNAL_CALL_GetCurrentAnimatorClipInfoInternal_m3360626147
Y2f:_MemoryStream_CheckIfClosedThrowDisposed_m2253054610
i5j:_ArrayReadOnlyList_1_GetEnumerator_m634288642_gshared
abb:__ZNK13ScreenManager12IsFullScreenEv
DEl:_rand
UMl:_emscripten_glFramebufferRenderbuffer__wrapper
V$d:__ZNK8Collider16SupportsMaterialEv
P7j:_InternalEnumerator_1_get_Current_m2345377791_AdjustorThunk
g7c:__ZNK5physx12NpConstraint9getActorsERPNS_12PxRigidActorES3_
wXh:__Z72RuntimeInvoker_Boolean_t3825574718_Ray_t2469606224_SingleU26_t4173844468PFvvEPK10MethodInfoPvPS4_
Uql:__ZN6il2cpp5utils9PathUtils7CombineIcEENSt3__212basic_stringIT_NS3_11char_traitsIS5_EENS3_9allocatorIS5_EEEERKNS0_10StringViewIS5_EERKSA_
XRg:_ReadOnlyCollection_1_GetEnumerator_m2481390116_gshared
nIh:__Z77RuntimeInvoker_Void_t1841601450_RuntimeObject_Int32_t2071877448_RuntimeObjectPFvvEPK10MethodInfoPvPS4_
_Hb:__ZN14SafeBinaryRead21TransferSTLStyleArrayINSt3__26vectorI17AnimationCurveTplIfE13stl_allocatorIS4_L18MemLabelIdentifier1ELi16EEEEEEvRT_17TransferMetaFlags
sec:__Z60Register_UnityEngine_AsyncOperation_set_allowSceneActivationv
BYd:__ZN5physx6shdfnd8PoolBaseIN17PxcPoolMallocData10PoolData16ENS0_19ReflectionAllocatorIS3_EEE15disposeElementsEv
z0d:__ZN9Rigidbody23UpdateInterpolationNodeEv
oti:_MeshCollider_get_smoothSphereCollisions_m1467358939
j9k:__ZN15dense_hashtableINSt3__24pairIK10KeyWrapperINS1_IPK11Il2CppImageP11Il2CppClassEEEjEES9_17ReflectionMapHashIS8_EN14dense_hash_mapIS9_jSD_NS9_14EqualsComparerINS0_8equal_toIS8_EEEENS0_9allocatorISB_EEE9SelectKeyESI_SK_E12expand_arrayEjN21dense_hash_map_traits17integral_constantIbLb0EEE
Jkh:_ObjectManager_RegisterObject_m872610295
I4a:__Z22PrepareOptimizedPlanesPK5PlaneiPKN4math7_float4E
eqk:_RectOffset_t3387826427_marshal_pinvoke
C2e:_Graphic_SetVerticesDirty_m1607014370
vY:__ZN11UnityEngine15CloudWebService17WebFileDownloaderINS0_20WebRequestRestClientENS0_23WebRequestRestHeaderMapEE10InitializeERKN4core12basic_stringIcNS5_20StringStorageDefaultIcEEEE
f8:__ZN17UniqueIDGenerator15CreatePureIndexEv
lsc:__Z59Register_UnityEngine_GUIStyle_Internal_GetCursorFlashOffsetv
it:__ZN11UnityEngine9Animation28GenericAnimationBindingCache15DidReloadDomainEv
tkg:_AppDomain_InternalGetProcessGuid_m1278588156
R7e:_InputField_MoveRight_m386206014
Wvk:_Transform_set_eulerAngles_m2881310872
_lf:_HashValues_get_Count_m234926373
vGh:__Z116RuntimeInvoker_Boolean_t3825574718_RuntimeObject_Int32_t2071877448_RuntimeObject_Int32_t2071877448_Int32_t2071877448PFvvEPK10MethodInfoPvPS4_
Z$f:_BinaryReader_ReadBoolean_m2892291883
QTk:__ZN15dense_hashtableINSt3__24pairIK10KeyWrapperIPK22Il2CppGenericParameterEP11Il2CppClassEES6_N6il2cpp5utils11PointerHashIS4_EEN14dense_hash_mapIS6_S9_SE_NS6_14EqualsComparerINS0_8equal_toIS5_EEEENS0_9allocatorISA_EEE9SelectKeyESJ_SL_E14squash_deletedEv
IBb:__ZNSt3__26__treeINS_12__value_typeIN4core12basic_stringIcNS2_20StringStorageDefaultIcEEEE4PPtrI6ObjectEEENS_19__map_value_compareIS6_SA_NS_4lessIS6_EELb1EEE13stl_allocatorISA_L18MemLabelIdentifier51ELi16EEE7destroyEPNS_11__tree_nodeISA_PvEE
uWh:__Z139RuntimeInvoker_Void_t1841601450_IntPtr_t_Rect_t3681755626_RuntimeObject_SByte_t454417549_SByte_t454417549_SByte_t454417549_SByte_t454417549PFvvEPK10MethodInfoPvPS4_
JKi:__ZL66DSASignatureDeformatter_t2187578719_CustomAttributesCacheGeneratorP21CustomAttributesCache
FQd:__ZN21PxsParallelSolverTaskD0Ev
z4b:__ZZL23RegisterLightPropertiesR22GenericPropertyBindingEN18Wrapper_LightRange13SetFloatValueEPvf
Q6j:_InternalEnumerator_1_Dispose_m1064404287_AdjustorThunk
SIa:__ZNSt3__26vectorI27ComputeShaderBuiltinSamplerNS_9allocatorIS1_EEE21__push_back_slow_pathIKS1_EEvRT_
$$g:_TlsServerCertificate_validateCertificates_m1988583701
BVh:__Z78RuntimeInvoker_Boolean_t3825574718_PlayableHandleU26_t4210769902_RuntimeObjectPFvvEPK10MethodInfoPvPS4_
pnk:_Uri__ctor_m3927533881
iCi:__ZL61DllImportAttribute_t3000813225_CustomAttributesCacheGeneratorP21CustomAttributesCache
XEh:__Z66RuntimeInvoker_Int32_t2071877448_RuntimeObject_Int32U26_t455636984PFvvEPK10MethodInfoPvPS4_
f0:__ZNK9Transform18TransformDirectionERK8Vector3f
uUd:__ZN5physx21PxsBodyTransformVault6updateEv
tSa:__ZNK17ArchiveFileSystem12GetAssetGUIDERK13FileEntryData
cYb:__ZNSt3__26vectorIN9ShaderLab20SerializedSubProgram15MatrixParameterENS_9allocatorIS3_EEE21__push_back_slow_pathIKS3_EEvRT_
Ili:_GUILayoutEntry_SetHorizontal_m1828181654
nSl:_emscripten_glClearStencil__wrapper
nCc:__ZL29GeomMTDCallback_CapsuleConvexRN5physx6PxVec3ERfRKNS_10PxGeometryERKNS_11PxTransformES5_S8_
L1h:__Z60RuntimeInvoker_Void_t1841601450_ResourceCacheItem_t333236149PFvvEPK10MethodInfoPvPS4_
axj:_EqualityComparer_1_get_Default_m1852501307_gshared
l_k:__ZN15dense_hashtableINSt3__24pairIK10KeyWrapperIPK11Il2CppClassEPKcEES6_N6il2cpp5utils11PointerHashIS3_EEN14dense_hash_mapIS6_S9_SE_NS6_14EqualsComparerINS0_8equal_toIS5_EEEENS0_9allocatorISA_EEE9SelectKeyESJ_SL_E12resize_deltaEjj
mGl:__ZNK10__cxxabiv120__si_class_type_info27has_unambiguous_public_baseEPNS_19__dynamic_cast_infoEPvi
_Vf:_NumberFormatInfo_get_PercentNegativePattern_m1162448153
CDi:__ZL56SyncHashtable_t1343674558_CustomAttributesCacheGeneratorP21CustomAttributesCache
yKl:_glTexSubImage3D__wrapper
ddh:_FactoryCache_Add_m2602974721
JGa:__Z30AddDefaultStreamsToMeshBuffersR9GfxDeviceR11MeshBuffersj17ShaderChannelMaskS3_
d7:__ZL16GetInterfaceImpl18UnityInterfaceGUID
jWf:_RegionInfo_construct_internal_region_from_name_m3316088619
TUk:__ZN6il2cpp2vmL17SetupFieldOffsetsENS0_15FieldLayoutKindEP11Il2CppClassjRKNSt3__26vectorIjNS4_9allocatorIjEEEE
oFg:_Collection_1_GetEnumerator_m2816357893_gshared
K_i:__ZL105RectTransform_t3349966182_CustomAttributesCacheGenerator_RectTransform_INTERNAL_get_anchorMin_m3180545469P21CustomAttributesCache
LXj:_SpriteState_get_pressedSprite_m1768273732_AdjustorThunk
Spg:_List_1_System_Collections_IList_get_Item_m936612973_gshared
Nsl:__ZN6il2cpp6icalls8mscorlib6System15MonoCustomAttrs27GetCustomAttributesInternalEP12Il2CppObjectP20Il2CppReflectionTypeb
Wyc:__ZN8JSONRead21TransferSTLStyleArrayI13dynamic_arrayI8Vector3fLj4EEEEvRT_18MemLabelIdentifier17TransferMetaFlags
EEa:__Z24PluginsSetGraphicsDevicePvi18GfxDeviceEventType
Tkh:_ObjectReader_ReadAssembly_m869834280
DAc:__ZNK5physx3Cct13BoxController11getPositionEv
ura:__ZN14PreloadManager35WaitForAllAsyncOperationsToCompleteEv
rld:__ZN5physx14NpRigidDynamicC2ERKNS_11PxTransformE
pRg:_ReadOnlyCollection_1_System_Collections_IList_get_Item_m1831743662_gshared
EKg:_Collection_1_IsSynchronized_m971497175_gshared
aGc:__Z27sweepCCTBox_HeightFieldGeomRKN5physx10PxGeometryERKNS_11PxTransformERKNS_2Gu3BoxERKNS_6PxVec3EfRNS_10PxSweepHitENS_7PxFlagsINS_9PxHitFlag4EnumEtEEf
VUe:_ExecuteEvents_Execute_m1617536317
WXj:_Text_get_cachedTextGeneratorForLayout_m1357670532
JL:__ZL31InitializeAudioScriptingClassesv
DXa:__Z14SortGUIByDepthP10GUIElementS0_
XYf:_NumberFormatter_NumberToString_m126384393
wOl:_emscripten_glVertexAttrib4fv__wrapper
j7:__ZN13RuntimeStaticI13dynamic_arrayIPK31TransferFunctionScriptingTraitsLj4EELb0EE16StaticInitializeEPv
k4j:_LogicalCallContext__ctor_m3173272863
ZC:__ZN12_GLOBAL__N_120ProcessRootMotionMixER33AnimationPlayableEvaluationOutputR35AnimationPlayableEvaluationConstantR32AnimationPlayableEvaluationInputS1_f
XBc:__ZN5physx3Cct9SweepTest18updateTouchedGeomsEPKNS0_30InternalCBData_FindTouchedGeomERKNS0_13UserObstaclesERKNS_17PxExtendedBounds3ERKNS_19PxControllerFiltersERKNS_6PxVec3E
g7f:_MonoCustomAttrs__cctor_m2608447972
KYf:_Int32_FindSign_m3803672540
Bkj:_Enumerator_System_Collections_IEnumerator_Reset_m70453843_AdjustorThunk
yni:_GUISkin_get_scrollView_m2941173958
l6d:_PxCloseExtensions
q_h:__Z95RuntimeInvoker_Void_t1841601450_ObjectU5BU5DU26_t3223402458_Int32_t2071877448_Int32_t2071877448PFvvEPK10MethodInfoPvPS4_
Jea:__ZNK20LocalFileSystemPosix21GetAvailableDiskSpaceEPKcRy
bda:__ZNSt3__26__treeIiNS_4lessIiEENS_9allocatorIiEEE7destroyEPNS_11__tree_nodeIiPvEE
kDk:_Predicate_1__ctor_m2995226103_gshared
TXg:_CipherSuite_InitializeCipher_m229247572
M9g:_X509Certificate2__ctor_m1095336775
qAa:__ZNK9GfxDevice14GetWorldMatrixEv
Ohi:_MonoProperty_GetGetMethod_m1100580870
ssj:_Dictionary_2__ctor_m1950568359_gshared
Irl:__ZN15dense_hashtableINSt3__24pairIK10KeyWrapperIPK19Il2CppGenericMethodEP10MethodInfoEES6_N6il2cpp8metadata23Il2CppGenericMethodHashEN14dense_hash_mapIS6_S9_SD_NS6_14EqualsComparerINSC_26Il2CppGenericMethodCompareEEENS0_9allocatorISA_EEE9SelectKeyESH_SJ_E13set_empty_keyERKSA_
W6a:__Z19scripting_array_new17ScriptingClassPtrjj
zP:__ZN11SoundHandle13CreateChannelEb
qKh:__Z90RuntimeInvoker_Void_t1841601450_IntPtr_t_Int32_t2071877448_RuntimeObject_Int32_t2071877448PFvvEPK10MethodInfoPvPS4_
orb:__ZN14SafeBinaryRead21TransferSTLStyleArrayI13dynamic_arrayI12LightmapDataLj4EEEEvRT_17TransferMetaFlags
Nkg:_ArgumentException__ctor_m3312963299
oVb:__ZNSt3__26vectorIN9ShaderLab20SerializedSubProgram16TextureParameterENS_9allocatorIS3_EEE6assignIPS3_EENS_9enable_ifIXaasr21__is_forward_iteratorIT_EE5valuesr16is_constructibleIS3_NS_15iterator_traitsISA_E9referenceEEE5valueEvE4typeESA_SA_
qQg:_ReadOnlyCollection_1_get_Item_m1696267180_gshared
RYk:__ZN13Il2CppHashMapIN6il2cpp5utils13dynamic_arrayIPK10Il2CppTypeLj4EEEPFvvENS0_8metadata19Il2CppSignatureHashENS9_22Il2CppSignatureCompareENSt3__29allocatorINSC_4pairIK10KeyWrapperIS6_ES8_EEEEEC2EjRKSA_RKSB_
Vhc:__Z51Quaternion_CUSTOM_INTERNAL_CALL_Internal_ToEulerRadRK11QuaternionfR8Vector3f
Kbl:__ZN15dense_hashtableINSt3__24pairIK10KeyWrapperIPK22Il2CppGenericParameterEPK24MonoGenericParameterInfoEES6_N6il2cpp5utils11PointerHashIS4_EEN14dense_hash_mapIS6_SA_SF_NS6_14EqualsComparerINS0_8equal_toIS5_EEEENS0_9allocatorISB_EEE9SelectKeyESK_SM_E15set_deleted_keyERKSB_
$2i:__ZL113AnimatorControllerPlayable_t1744083903_CustomAttributesCacheGenerator_AnimatorControllerPlayable_Play_m1490151611P21CustomAttributesCache
g9j:_InternalEnumerator_1_System_Collections_IEnumerator_Reset_m2726857860_AdjustorThunk
VZb:__ZN6prcoreL11inner_clearILj2EEEvPhjjj
L5i:__ZL124GUILayoutUtility_t996096873_CustomAttributesCacheGenerator_GUILayoutUtility_INTERNAL_CALL_Internal_GetWindowRect_m3236664463P21CustomAttributesCache
aek:_InternalEnumerator_1_Dispose_m1772105083_AdjustorThunk
Ich:_X509SubjectKeyIdentifierExtension__ctor_m3887138480
lmg:_Enumerator_System_Collections_IEnumerator_get_Current_m2853089017_AdjustorThunk
wfd:__ZNK5physx2Sc9ClothCore20getNbCollisionPlanesEv
ph:_emscripten_exit_fullscreen
Ryd:__ZN5physx6shdfnd5ArrayINS_9PxBounds3ENS0_15InlineAllocatorILj192ENS0_19ReflectionAllocatorIS2_EEEEE8recreateEj
kHd:__ZNK5physx23PxsBroadPhaseContextSap7getTypeEv
AWd:__ZNK5physx13GuMeshFactory17getNbHeightFieldsEv
P5e:_InputField_get_mesh_m3276583786
q$j:_GCHandle_Free_m1639542352_AdjustorThunk
L_g:_Context_set_ClientRandom_m631392719
H$j:_OutAttribute__ctor_m1447235100
Kol:__ZN6il2cpp6icalls8mscorlib6System6String19InternalAllocateStrEi
Qyc:__Z29Transfer_Blittable_ArrayFieldI8JSONRead11QuaternionfEvRT_R9ArrayInfoRK23StaticTransferFieldInfo
hJi:__ZL65SoapParameterAttribute_t2780084514_CustomAttributesCacheGeneratorP21CustomAttributesCache
NBd:__ZNK5physx2Gu12OBBAABBTestsILb1EEclENS_6shdfnd3aos5Vec3VES5_
gfc:__Z45Register_UnityEngine_Camera_get_targetDisplayv
C3b:__ZNK24RendererAnimationBinding15GenerateBindingERKN4core12basic_stringIcNS0_20StringStorageDefaultIcEEEEbRN11UnityEngine9Animation14GenericBindingE
ykb:__Z15GetFlareManagerv
N_b:__ZN15ApplicationInfo24GetApplicationIdentifierEv
qBc:__ZN5physx3Cct9SweepTestD2Ev
mgb:__ZN9Behaviour8TransferI18StreamedBinaryReadILb0EEEEvRT_
dA:__ZN8Animator13GetAvatarRootEv
GNj:_ControllerColliderHit_get_transform_m3183428555
EKc:__ZN26IntersectAnyVsMeshCallbackILi0ELb0EED2Ev
CCl:___toread
gY:__ZN19CloudServiceHandler10QueueEventEPN11UnityEngine15CloudWebService14CloudEventInfoE
PGl:___cxa_is_pointer_type
CQe:_String_Concat_m56707527
$C:__ZN7mecanim9animation16EvaluateAvatarDXEPKNS0_14AvatarConstantEPKNS0_11AvatarInputEPNS0_12AvatarMemoryEPNS0_15AvatarWorkspaceEPNS0_12AvatarOutputE
YJa:__ZN4gles20DestroyRenderSurfaceEP7ApiGLESP17RenderSurfaceGLES
kmg:_Enumerator_System_Collections_IEnumerator_get_Current_m2853089017_gshared
Slc:__Z34Transform_CUSTOM_SetAsFirstSiblingP12Il2CppObject
E6k:__ZNK15dense_hashtableINSt3__24pairIK10KeyWrapperINS1_IPK14Il2CppAssemblyP11Il2CppClassEEEjEES9_17ReflectionMapHashIS8_EN14dense_hash_mapIS9_jSD_NS9_14EqualsComparerINS0_8equal_toIS8_EEEENS0_9allocatorISB_EEE9SelectKeyESI_SK_E10test_emptyEj
iFc:__ZN12_GLOBAL__N_141SphereMeshContactGenerationCallback_ScaleD0Ev
hMc:__ZN5physx3Cct17CapsuleController16setContactOffsetEf
uog:_Enumerator_get_Current_m827571811_AdjustorThunk
d4i:__ZL62Font_t4239498691_CustomAttributesCacheGenerator_textureRebuiltP21CustomAttributesCache
Una:__ZN17PersistentManager40GlobalToLocalSerializedFileIndexInternalERK26SerializedObjectIdentifier
wV:__ZN11UnityEngine15CloudWebService17SessionEventQueue14ParseEventDataERKN4core12basic_stringIcNS2_20StringStorageDefaultIcEEEE
FSe:_BaseEventData_get_selectedObject_m3551206992
zbg:_SimpleCollator_CompareOrdinal_m2176988387
a9i:__ZL47Rect_t3681755626_CustomAttributesCacheGeneratorP21CustomAttributesCache
YAf:_CCGregorianCalendar_GetYear_m1289900195
I6c:__ZN12GeomQueryAnyIN5physx10PxSweepHitEE7geomHitERKNS0_2Sq17SceneQueryManagerERKNS0_15MultiQueryInputERKNS3_9ShapeDataERKNS0_10PxGeometryERKNS0_11PxTransformENS0_7PxFlagsINS0_9PxHitFlag4EnumEtEEjPS1_fbPNS0_9PxBounds3E
VYf:_Int16_ToString_m2592645088
VEa:__ZN13TranslateGLES4InitERK12GraphicsCaps16GfxDeviceLevelGL
HSb:__Z29Transfer_Blittable_ArrayFieldI18StreamedBinaryReadILb0EE10ColorRGBAfEvRT_R9ArrayInfoRK23StaticTransferFieldInfo
sEc:__ZN43CapsuleHeightfieldContactGenerationCallback7onEventEjPj
kT:__Z60AudioClipPlayable_CUSTOM_INTERNAL_CALL_GetPauseDelayInternalR9HPlayable
c4d:__ZThn4_N12MemoryStream4readEPvj
qmh:_SerializationInfoEnumerator_Reset_m2206466680
jnc:__ZN18CrashReportManager12CloseServiceEv
SMl:_emscripten_glGetShaderPrecisionFormat__wrapper
$xe:__Z32CustomEventData_CUSTOM_AddUInt32P12Il2CppObjectP12Il2CppStringj
y5i:__ZL78Event_t3028476042_CustomAttributesCacheGenerator_Event_get_keyCode_m3364681288P21CustomAttributesCache
UKk:_GenericEqualityComparer_1_Equals_m1934771410_gshared
NDi:__ZL57DebuggingModes_t2073970606_CustomAttributesCacheGeneratorP21CustomAttributesCache
Vzl:__ZN6il2cpp5utils9Exception26FormatInvalidCastExceptionEPK11Il2CppClassS4_
nHg:_Collection_1_System_Collections_IList_get_IsFixedSize_m993584401_gshared
uCb:__ZNSt3__26vectorIN30RuntimeInitializeOnLoadManager15ClassMethodInfoE13stl_allocatorIS2_L18MemLabelIdentifier12ELi16EEE8__appendEj
H1b:__ZN13ProduceHelperI10TagManagerLb0EE7ProduceE18MemLabelIdentifier18ObjectCreationMode
_od:__ZN5physx6shdfnd8internal8HashBaseIPNS_13NpVolumeCacheES4_NS0_4HashIS4_EENS1_11HashSetBaseIS4_S6_NS0_9AllocatorELb0EE6GetKeyES8_Lb0EE15reserveInternalEj
wAl:__ZN6il2cpp2os6Memory12AlignedAllocEjj
K9c:__ZN5physx6shdfnd8internal8HashBaseIPKNS_6PxBaseES5_NS0_4HashIS5_EENS1_11HashSetBaseIS5_S7_NS0_9AllocatorELb0EE6GetKeyES9_Lb0EE6createERKS5_Rb
RFd:__ZN5physx28solveFrictionCoulombPreBlockEPKNS_23PxcSolverConstraintDescEjRNS_16PxcSolverContextE
nul:__ZN6il2cpp8metadataL7CompareEPK10Il2CppTypeS3_
EJb:__Z18Transfer_BlittableI17RemapPPtrTransferLb0E11ColorRGBA32EvRK29SerializationCommandArgumentsR31RuntimeSerializationCommandInfo
n9h:_TypeBuilder_get_is_created_m736553860
hki:_GameObject_set_layer_m2712461877
yWg:_RSAManaged__ctor_m1370411656
cRb:__Z18Transfer_BlittableI18StreamedBinaryReadILb0EELb1E10ColorRGBAfEvRK29SerializationCommandArgumentsR31RuntimeSerializationCommandInfo
kpb:__ZN12CubemapArray23VirtualRedirectTransferER17RemapPPtrTransfer
ccc:__ZL27GetComponentsImplementationILb0ELi0EEbR10GameObjectbRK17CompareParametersRK39GetComponentsImplementation_ReturnValue
Z7g:_WebHeaderCollection_GetObjectData_m3940120977
JDb:__ZN9Scripting36IsSystemCollectionsGenericDictionaryE17ScriptingClassPtr
RSj:_Raycast3DCallback_EndInvoke_m3234280377
lWh:__Z34RuntimeInvoker_KeyCode_t2283395152PFvvEPK10MethodInfoPvPS4_
s5c:__ZN5physx12NpConstraint12actorDeletedEPNS_12PxRigidActorE
q$e:_ColorTweenCallback__ctor_m3619686788
d5:__ZL16ReadTypeTreeImplILb0EEbR8TypeTreeRK16TypeTreeIteratorRPKhS6_i
Gjc:__Z28PlayableOutputValidityChecksRK15HPlayableOutput
Uy:__ZN27AnimationLayerMixerPlayable16SetLayerMaskCopyEjRKN7mecanim6bitsetILj70EEEPKNS0_8skeleton12SkeletonMaskE
APk:__ZL25UnresolvedVirtualCall_152P12Il2CppObject38CustomAttributeNamedArgument_t94157543S1_PK10MethodInfo
cQc:__ZN5physx2Sc8ShapeSim18reinsertBroadPhaseEv
Znb:__ZNK22BuiltinResourceManager21GetResourceInstanceIDEPKN5Unity4TypeERKN4core12basic_stringIcNS4_20StringStorageDefaultIcEEEE
LCa:__ZN9GfxDevice15BeginFrameStatsEv
qgc:__Z42Register_UnityEngine_RectOffset_set_bottomv
bif:_ArrayListWrapper_IndexOf_m3574835167
nqc:__Z28GUIStyleState_CUSTOM_CleanupP12Il2CppObject
NG:__Z92Register_UnityEngine_Animations_AnimationClipPlayable_INTERNAL_CALL_GetAnimationClipInternalv
c_a:__ZN28LightProbeProxyVolumeContext8CopyFromERKS_
ctg:_List_1_Remove_m2660527978_gshared
hZe:_U3COnFinishSubmitU3Ec__Iterator0_System_Collections_Generic_IEnumeratorU3CobjectU3E_get_Current_m1823105495
bqi:_GUIUtility_TakeCapture_m3115231813
z6a:__ZN23TransformChangeDispatch32QueueTransformChangeIfHasChangedER18TransformHierarchy
gKe:_SymmetricAlgorithm_get_FeedbackSize_m544664262
Y2a:__ZN18DeferredRenderLoop15RenderFinalPassEP13RenderTextureS1_
ZJa:__ZN7ApiGLES18DeleteRenderbufferERj
OTc:__ZN5physx6shdfnd5ArrayIPvNS0_15InlineAllocatorILj256ENS0_19ReflectionAllocatorINS_16NpConnectorArrayEEEEEE15growAndPushBackERKS2_
NIa:__ZL23ProgramUniformMatrix4fvPK7ApiGLESjiihPKv
yza:__ZN7ApiGLES13CreateTextureEjj14GraphicsFormatiiiii
d4b:__ZN13ProduceHelperI11LightProbesLb0EE7ProduceE18MemLabelIdentifier18ObjectCreationMode
BZh:__Z41RuntimeInvoker_SelectionState_t3187567897PFvvEPK10MethodInfoPvPS4_
yJd:__ZN5physx14SingleAABBTaskC2Ev
fdk:_InternalEnumerator_1_MoveNext_m3629145604_gshared
YUb:__ZN9ShaderLab20SerializedSubProgram15MatrixParameter8TransferI14SafeBinaryReadEEvRT_
bFh:__Z51RuntimeInvoker_Int32_t2071877448_Single_t2076509932PFvvEPK10MethodInfoPvPS4_
Qcf:_BitConverter_AmILittleEndian_m2716658112
ecc:__ZL27GetComponentsImplementationILb0ELi1EEbR10GameObjectbRK17CompareParametersRK39GetComponentsImplementation_ReturnValue
dpe:_Round_Down_To_Grid
oth:_UTF8Decoder__ctor_m1460357288
Mja:__ZN13RenderTexture7ReleaseEv
Wxb:__ZN10MeshFilter23VirtualRedirectTransferER14SafeBinaryRead
Ojk:_PatternCompiler_EmitBranchEnd_m3390109636
uof:_Convert_ToByte_m1201588964
eyb:__ZN12MeshRenderer17MainThreadCleanupEv
gec:__Z36AsyncOperation_Get_Custom_PropIsDoneP12Il2CppObject
FMa:__ZN22CreateGpuProgramOutput12CreateParamsEv
Rmh:_RuntimeMethodHandle_GetHashCode_m2682236001_AdjustorThunk
j2c:__ZNK5physx18NpArticulationLink11getChildrenEPPNS_18PxArticulationLinkEj
Y1h:__Z54RuntimeInvoker_Void_t1841601450_UILineInfo_t3621277874PFvvEPK10MethodInfoPvPS4_
n5k:__ZNSt3__26vectorIiNS_9allocatorIiEEE21__push_back_slow_pathIiEEvOT_
FYh:__Z45RuntimeInvoker_HorizontalWrapMode_t2027154177PFvvEPK10MethodInfoPvPS4_
NEa:__ZNK14GfxContextGLES13GetDefaultFBOEv
mEf:_Array_InternalArray__ICollection_Remove_TisSByte_t454417549_m2474211570_gshared
eMe:_Evidence_get_IsSynchronized_m1427392003
TRd:__Z15atomIntegrationfPKPN5physx11PxsBodyCoreEPKPNS_12PxsRigidBodyEjPKNS_2Cm13SpatialVectorEPNS_13PxcSolverBodyEPNS_17PxcSolverBodyDataEPS9_RjSH_
rga:__ZN14GraphicsHelper5ClearE13GfxClearFlagsRK10ColorRGBAffjR17ShaderPassContext
dod:__ZN5physx13NpRigidStatic11createShapeERKNS_10PxGeometryEPKPNS_10PxMaterialEtNS_7PxFlagsINS_11PxShapeFlag4EnumEhEE
B8b:__Z13GetImagePixelI10ColorRGBAfET_PKhii13TextureFormat15TextureWrapModeS5_ii
B3k:_il2cpp_class_is_enum
kfl:__ZN6il2cpp2vm6Thread49CheckCurrentThreadForInterruptAndThrowIfNecessaryEv
Vla:__ZNSt3__23mapIN9ShaderLab16FastPropertyNameEN18UnityPropertySheet11UnityTexEnvENS_4lessIS2_EENS_9allocatorINS_4pairIKS2_S4_EEEEEixERS9_
zza:__ZNK13TranslateGLES25GetTextureTargetDimensionEj
fag:_Locale_GetText_m1954433032
QXc:__ZN5physx11NpAggregate22removeActorAndReinsertERNS_7PxActorEb
Q6e:_InputField_SetToCustom_m250029371
tZd:__ZZL19ExtractHullPolygonsRjRN5physx2Gu9ContainerERKNS0_17ConvexHullBuilderEPS2_S3_EN5Local9FloodFillES3_PKNS0_11AdjTriangleEjPb
SHg:_Collection_1_System_Collections_IList_Contains_m1897568526_gshared
Cbi:_FieldBuilder_get_FieldType_m2267463269
lcf:_SimpleEnumerator_Clone_m3032847657
Ijk:_PatternCompiler_EmitInfo_m597931026
PTg:_ModulusRing_Multiply_m3113924743
hlc:__Z47Texture2D_CUSTOM_INTERNAL_CALL_GetPixelBilinearP12Il2CppObjectffR10ColorRGBAf
Jte:__ZZN2UI6Canvas15InitializeClassEvEN39FunctorImpl_1413kCanvasHierarchyChanged4CallEPviR11MessageData
y_g:_Context_get_ServerSettings_m225713600
oj:_emscripten_glVertexAttrib4f
zng:_Enumerator_System_Collections_IEnumerator_get_Current_m3461301268_AdjustorThunk
ZSh:__Z40RuntimeInvoker_PlayableOutput_t988259697PFvvEPK10MethodInfoPvPS4_
dEk:_InvokableCall_1_remove_Delegate_m3576859071_gshared
dMg:_ReadOnlyCollection_1_System_Collections_IEnumerable_GetEnumerator_m531171980_gshared
vae:__ZL28RegisterModuleICalls_Physicsv
MXb:__ZNSt3__26vectorIN20GpuProgramParameters14ConstantBufferENS_9allocatorIS2_EEE8__appendEj
rPf:_Array_Sort_TisUILineInfo_t3621277874_m3105833015_gshared
To:FUNCTION_TABLE_vf
Q8f:_MonoType_GetGenericArguments_m2708198481
JYa:__ZN11HaloManager21ReleaseGeometryJobMemEP25DynamicVBOGeometryJobData
Ypg:_List_1_AddEnumerable_m2489692396_gshared
y_c:__ZN5physx14NpArticulation26setMaxProjectionIterationsEj
zNc:__ZN5physx3Cct15ObstacleContext14removeObstacleEj
X3i:__ZL93TextGenerator_t647235000_CustomAttributesCacheGenerator_TextGenerator_Dispose_cpp_m1755131202P21CustomAttributesCache
Dyk:_WaitForSecondsRealtime__ctor_m1734539010
Hth:_WaitHandle__ctor_m1256161634
ey:__ZN7mecanim12statemachine24CreateStateMachineMemoryEPKNS0_20StateMachineConstantERNS_6memory9AllocatorE
Ynj:_Enumerator_get_Current_m419581838_AdjustorThunk
QCa:__ZN9GfxDevice18SetGlobalDepthBiasEff
k3j:_Identity_get_ChannelSink_m3989446673
Q0k:__ZN6il2cpp6icalls8mscorlib6System8MonoType12get_AssemblyEP20Il2CppReflectionType
eYg:_TlsStream_Write_m3425460533
MIk:_EqualityComparer_1__cctor_m3664711181_gshared
h8d:__ZN15CapsuleCollider9SetCenterERK8Vector3f
d2e:_FontData_get_richText_m2013560754
pNe:_SecurityException_get_PermissionType_m3543350822
Bj:_emscripten_glGetPointerv
Eld:__ZNK5physx15NpActorTemplateINS_14PxRigidDynamicEE13getActorFlagsEv
QC:__ZN8Animator22ApplyBuiltinRootMotionEv
wll:__ZN15dense_hashtableI10KeyWrapperIP18Il2CppGenericClassES3_N6il2cpp8metadata22Il2CppGenericClassHashEN14dense_hash_setIS3_S6_NS3_14EqualsComparerINS5_25Il2CppGenericClassCompareEEENSt3__29allocatorIS3_EEE8IdentityESA_SD_E5clearEv
S4d:__ZN5physx7profile8ZoneImplINS_28PxProfileNameProviderForwardEE17handleBufferFlushEPKhj
NXc:__ZN5physx2Sc5ActorC2ERNS0_16InteractionSceneEhNS0_14IslandNodeInfo4TypeE
r$c:__ZN5physx21PxcArticulationHelper16prepareDataBlockERNS_9PxcFsDataEPKNS_19PxsArticulationLinkEtPNS_11PxTransformEPNS_12PxcFsInertiaEPNS_30PxcArticulationJointTransformsEj
gjl:__ZN30dense_hashtable_const_iteratorINSt3__24pairIK10KeyWrapperIP14Il2CppIUnknownEjEES5_N6il2cpp5utils11PointerHashIS3_EEN14dense_hash_mapIS5_jSB_NS5_14EqualsComparerINS0_8equal_toIS4_EEEENS0_9allocatorIS7_EEE9SelectKeyESG_SI_EppEv
vgd:__ZN5physx15NpActorTemplateINS_7PxClothEED2Ev
WEi:__ZL55StreamReader_t2360341767_CustomAttributesCacheGeneratorP21CustomAttributesCache
rai:_DerivedType_get_UnderlyingSystemType_m3904230233
OVe:_PointerEventData_get_rawPointerPress_m448871540
_ed:__ZN5physx2Sc9ClothCore16setRestPositionsEPKNS_6PxVec4E
kXa:__Z27ConvertSubMeshesToTrianglesR13dynamic_arrayI7SubMeshLj4EERS_ItLj2EE
Uoc:__ZN5IMGUI14GUIWindowStateD2Ev
Beb:__ZL13MotionHandleriPK27EmscriptenDeviceMotionEventPv
kbh:_X509Certificate2Collection__ctor_m819526826
qL:__ZN12AudioManager5ResetEv
i6h:__Z75RuntimeInvoker_RuntimeObject_Single_t2076509932_RuntimeObject_RuntimeObjectPFvvEPK10MethodInfoPvPS4_
aVg:_KeyBuilder_Key_m3814433741
Okg:_ArgumentException__ctor_m158205422
OLe:_SecurityElement_Unescape_m1089723634
zHf:_Array_compare_TisVector3_t2243707580_m3709184876_gshared
s4e:_HorizontalLayoutGroup_SetLayoutHorizontal_m3237355818
Lqa:__ZN6prcoreL17RemapGenericFloatI17TexFormatRGBAHalf15TexFormatRGHalfEEvPKNS_9InnerInfoE
VMg:_ReadOnlyCollection_1_Contains_m2306259645_gshared
xbl:__ZNK15dense_hashtableINSt3__24pairIK10KeyWrapperIPK14Il2CppAssemblyEPK22Il2CppMonoAssemblyNameEES6_N6il2cpp5utils11PointerHashIS4_EEN14dense_hash_mapIS6_SA_SF_NS6_14EqualsComparerINS0_8equal_toIS5_EEEENS0_9allocatorISB_EEE9SelectKeyESK_SM_E10test_emptyEj
Rql:__ZN6il2cpp6icalls8mscorlib6System11Environment20GetWindowsFolderPathEi
yhj:__ZL60AspectRatioFitter_t3114550109_CustomAttributesCacheGeneratorP21CustomAttributesCache
Qw:__ZN7mecanim5human18HumanPoseBlendNodeERNS0_9HumanPoseEPS1_f
Vke:_UNITY_FT_RoundFix
VXb:__ZN9ShaderLab20SerializedSubProgram15AddTextureParamEPKcii16TextureDimension
IU:__ZN23CloudWebServicesManager23VirtualRedirectTransferER17RemapPPtrTransfer
Tfj:__ZL78MaskableGraphic_t540192618_CustomAttributesCacheGenerator_m_OnCullStateChangedP21CustomAttributesCache
nEg:__ZN21InterfaceFuncInvoker1Ib40CustomAttributeTypedArgument_t1498197914E6InvokeEjP11Il2CppClassP12Il2CppObjectS0_
jGc:__ZNK5physx2Gu15HeightFieldUtil12traceSegmentI24ConvexVsHeightfieldSweepLb0ELb0ELb1EEEvRKNS_6PxVec3ES6_PT_PS5_
zQ:__ZNK18AudioMixerPlayable11DerivesFromE17ScriptingClassPtr
cWd:__ZNK5physx12PxConvexMesh19getConcreteTypeNameEv
gyb:__ZNK12MeshRenderer22GetTypeVirtualInternalEv
KGc:__ZN5physx2Gu19gjkLocalPenetrationINS0_9TriangleVENS0_17ShrunkConvexHullVEEEjRKT_RKT0_RKNS_6shdfnd3aos6FloatVERNSB_5Vec3VESG_SG_RSC_PhSI_Rhb
TNk:__ZL24UnresolvedVirtualCall_63P12Il2CppObjectS0_S0_S0_PK10MethodInfo
DSh:__Z36RuntimeInvoker_HideFlags_t1434274199PFvvEPK10MethodInfoPvPS4_
VN:__ZN4FMOD6System17setSoftwareFormatEi17FMOD_SOUND_FORMATii18FMOD_DSP_RESAMPLER
qIc:__ZN5physx2Gu15GJKLocalRayCastERNS0_9TriangleVERNS0_4BoxVERKNS_6shdfnd3aos6FloatVERKNS6_5Vec3VESC_RS7_RSA_SE_fb
GZd:__ZN5physx18AdjacenciesBuilderC2Ev
otj:_Dictionary_2_System_Collections_ICollection_get_IsSynchronized_m960517203_gshared
aQc:__ZN5physx2Sc13ShapeIterator4initERKNS0_8ActorSimE
mma:__ZN14SafeBinaryRead19TransferSTLStyleMapINSt3__23mapIN4core12basic_stringIcNS3_20StringStorageDefaultIcEEEES7_NS1_4lessIS7_EE13stl_allocatorINS1_4pairIKS7_S7_EEL18MemLabelIdentifier1ELi16EEEEEEvRT_17TransferMetaFlags
ryh:_Type_MakeByRefType_m1323101575
nte:__ZN2UI6Canvas27UpdateEventIndexesRecursiveERi
CV:__ZN11UnityEngine15CloudWebService16SessionContainer21PrepareDataErrorEventERN4core12basic_stringIcNS2_20StringStorageDefaultIcEEEE
Wge:_UNITY_FT_Outline_New
Grl:__ZNSt3__218uninitialized_copyIPNS_4pairIK10KeyWrapperIPK19Il2CppGenericMethodEP10MethodInfoEESB_EET0_T_SD_SC_
E5i:__ZL85GUI_t4082743951_CustomAttributesCacheGenerator_GUI_set_nextScrollStepTime_m2724006954P21CustomAttributesCache
fDe:__ZN16UploadHandlerRaw13TransmitBytesEPvjj
NNb:__Z19TransferField_ArrayI19StreamedBinaryWriteILb0EE27Converter_SimpleNativeClassI8GUIStyleEEvRK23StaticTransferFieldInfoR31RuntimeSerializationCommandInfoRT0_
XTi:__ZL101AssetBundleRequest_t2674559435_CustomAttributesCacheGenerator_AssetBundleRequest_get_asset_m624603186P21CustomAttributesCache
_9c:__ZN5physx14NpArticulationC2Ev
wda:__ZNK13ScreenManager12GetIsFocusedEv
PEj:_AnimatorControllerPlayable_CrossFade_m1077061813_AdjustorThunk
mjh:_RemotingServices_RegisterInternalChannels_m1827304423
coi:_GUIStyle_get_onNormal_m1675201777
Es:__ZL32CleanupAnimationScriptingClassesv
qwc:__Z35Transfer_Blittable_FixedBufferFieldI8JSONReadiEvRK29SerializationCommandArgumentsR31RuntimeSerializationCommandInfo
V$k:__ZNSt3__213__vector_baseIN6il2cpp2os19SocketHandleWrapperENS_9allocatorIS3_EEED2Ev
KQ:__ZNK19AudioPlayableOutput11DerivesFromE17ScriptingClassPtr
sni:_GUISkin_get_verticalScrollbarThumb_m649633186
oSh:__Z66RuntimeInvoker_InternalShaderChannel_t3331827198_Int32_t2071877448PFvvEPK10MethodInfoPvPS4_
_pi:_GUIStyleState_Cleanup_m705006206
RPh:__Z77RuntimeInvoker_RuntimeObject_Int32_t2071877448_RuntimeObject_SByte_t454417549PFvvEPK10MethodInfoPvPS4_
Lc:invoke_viiffi
hWf:_RegionInfo_GetByTerritory_m3452395101
jbb:__ZN13sorted_vectorINSt3__24pairIN4core12basic_stringIcNS2_20StringStorageDefaultIcEEEEPK17MessageIdentifierEEN10vector_mapIS6_S9_NS0_4lessIS6_EENS0_9allocatorISA_EEE13value_compareESF_E10insert_oneERKSA_
PC:__ZNSt3__227__insertion_sort_incompleteIRPFbPKN8Animator11AnimatorJobES4_EPS4_EEbT0_S9_T_
Cuh:_Thread_GetCachedCurrentUICulture_m5590127
fTh:__Z36RuntimeInvoker_Matrix4x4_t2933234003PFvvEPK10MethodInfoPvPS4_
hpb:__ZNK12CubemapArray20GetRuntimeMemorySizeEv
Hxk:_Vector3_Dot_m3161182818
ZNa:__ZN9GfxDevice5FlushEv
u_e:_ColorBlock_set_pressedColor_m587704489_AdjustorThunk
Bzg:_List_1_CheckMatch_m4018158235_gshared
mrd:__ZN5physx6shdfnd8PoolBaseINS_2Sc9ActorPairENS0_19ReflectionAllocatorIS3_EEE12allocateSlabEv
VZk:__ZN6il2cpp2vm13MetadataCache38GetMethodInfoFromMethodDefinitionIndexEi
Def:_Byte_System_IConvertible_ToDateTime_m1583041031
Xic:__Z39MonoBehaviour_CUSTOM_GetScriptClassNameP12Il2CppObject
YNk:__ZL24UnresolvedVirtualCall_68P12Il2CppObjectS0_iS0_S0_S0_S0_S0_S0_PK10MethodInfo
Eub:__ZN10VertexData8TransferI24GenerateTypeTreeTransferEEvRT_
m5i:__ZL98CanvasRenderer_t261436805_CustomAttributesCacheGenerator_CanvasRenderer_get_absoluteDepth_m4243141P21CustomAttributesCache
lrl:__ZN13Il2CppHashMapIPK19Il2CppGenericMethodP10MethodInfoN6il2cpp8metadata23Il2CppGenericMethodHashENS6_26Il2CppGenericMethodCompareENSt3__29allocatorINS9_4pairIK10KeyWrapperIS2_ES4_EEEEEC2EjRKS7_RKS8_
Whg:_EncryptedData_get_EncryptionAlgorithm_m1301274243
oxj:_EqualityComparer_1_System_Collections_IEqualityComparer_Equals_m1089835085_gshared
k4a:__ZL10CullLightsRK22SceneCullingParametersR11CullResults
B1e:_Dropdown__cctor_m264401557
Ebf:_Array_IndexOf_m2819632474
fik:_Comparer_1__cctor_m3996541505_gshared
$x:__ZN7mecanim12statemachine20GetBlendTreeConstantERKNS0_13StateConstantEi
psd:__ZN5physx7NpScene21setDominanceGroupPairEhhRKNS_20PxDominanceGroupPairE
n7b:__Z40GetTemporaryCachePathApplicationSpecificv
ZAa:__ZN9GfxDevice16EndAsyncJobFrameEv
A5e:_Image_get_minWidth_m1809071077
V9k:__ZNK15dense_hashtableINSt3__24pairIK10KeyWrapperINS1_IPK12PropertyInfoP11Il2CppClassEEEjEES9_17ReflectionMapHashIS8_EN14dense_hash_mapIS9_jSD_NS9_14EqualsComparerINS0_8equal_toIS8_EEEENS0_9allocatorISB_EEE9SelectKeyESI_SK_E10test_emptyERK30dense_hashtable_const_iteratorISB_S9_SD_SM_SI_SK_E
Qhe:_UNITY_tt_face_load_hhea
R2j:_ContextAttribute_IsNewContextOK_m2186905629
aQj:_PersistentCall__ctor_m2079279187
Unf:_Convert_ToBase64String_m1936815455
vl:___syscall3
fkd:__ZNK5physx15NpActorTemplateINS_16PxParticleSystemEE7getNameEv
yl:___syscall6
rCa:__ZN9GfxDevice15GetNextCPUFenceEv
Al:___syscall4
BW:__ZN11UnityEngine15CloudWebService20WebRequestRestClient17GetResponseStatusEv
JIg:_Collection_1_System_Collections_IList_get_IsFixedSize_m2204750039_gshared
gZe:_ColorBlock_get_fadeDuration_m987725262
Lfj:__ZL195U3CMouseDragOutsideRectU3Ec__Iterator1_t2599668326_CustomAttributesCacheGenerator_U3CMouseDragOutsideRectU3Ec__Iterator1_System_Collections_Generic_IEnumeratorU3CobjectU3E_get_Current_m2602955272P21CustomAttributesCache
hRh:__Z86RuntimeInvoker_Void_t1841601450_RuntimeObject_Vector3U26_t425862308_RayU26_t3651946800PFvvEPK10MethodInfoPvPS4_
eoh:_CryptographicException__ctor_m2415891459
Uzc:__ZN27PerformanceReportingManager23VirtualRedirectTransferER14SafeBinaryRead
Jtg:_List_1_AddCollection_m3266731889_gshared
qcc:__ZN9Scripting25BroadcastScriptingMessageER10GameObjectPKc18ScriptingObjectPtr
Pl:_emscripten_glShaderBinary
iFg:_Collection_1_System_Collections_IList_set_Item_m150887383_gshared
eOf:_Array_qsort_TisVector2_t2243707579_TisVector2_t2243707579_m3308480721_gshared
Gaf:_Array_InternalArray__RemoveAt_m1126483634
hKj:_Camera_INTERNAL_CALL_RaycastTry_m1030092423
xea:__ZNK20LocalFileSystemPosix6ExistsERK13FileEntryData
gak:_InternalEnumerator_1_Dispose_m4038440306_AdjustorThunk
iOh:__Z21RuntimeInvoker_Guid_tPFvvEPK10MethodInfoPvPS4_
TVc:__ZN5physx35NpArticulationJointGetBodiesFromScbERNS_3Scb17ArticulationJointERPNS0_4BodyES5_
dv:__ZN7mecanim5human19MaskHasLeftFootGoalERKNS_6bitsetILj70EEE
xVd:__ZNK5physx2Sc15ClothFabricCore16getTetherLengthsEPfj
C0h:__Z101RuntimeInvoker_Int32_t2071877448_RuntimeObject_Color32_t874517518_Int32_t2071877448_Int32_t2071877448PFvvEPK10MethodInfoPvPS4_
Zsi:_Mesh_get_colors32_m4153271224
Kwe:__Z58Register_UnityEngine_Canvas_GetETC1SupportedCanvasMaterialv
_Pb:__ZN17AnimationCurveTplIfE8TransferI18StreamedBinaryReadILb1EEEEvRT_
Vuf:_DateTimeOffset_GetHashCode_m3312197462_AdjustorThunk
pAe:__ZN18UnityConnectClientD2Ev
F7g:_ServicePoint_set_UseNagleAlgorithm_m2618011464
T2k:_il2cpp_set_data_dir
exd:__ZN5physx2Sc13ConstraintSim8getForceERNS_6PxVec3ES3_
HMh:__Z51RuntimeInvoker_Double_t4078015681_Int32_t2071877448PFvvEPK10MethodInfoPvPS4_
Enk:_Uri_get_IsUnc_m2111738174
JPi:__ZL79Convert_t2607082565_CustomAttributesCacheGenerator_Convert_ToUInt64_m1691869628P21CustomAttributesCache
Khb:__ZN16LevelGameManager23VirtualRedirectTransferER19StreamedBinaryWriteILb0EE
zub:__Z32TransferEnumWithNameForceIntSizeI14SafeBinaryRead16GfxPrimitiveTypeEvRT_RT0_PKc17TransferMetaFlags
Pgk:_DefaultComparer__ctor_m1961329658_gshared
Ydi:_ParameterBuilder_get_Attributes_m2421099277
J_h:__Z66RuntimeInvoker_Void_t1841601450_ObjectU26_t597476745_RuntimeObjectPFvvEPK10MethodInfoPvPS4_
Evk:_TouchScreenKeyboard_get_done_m406461410
Jtk:_DataUtility_INTERNAL_CALL_GetPadding_m1621366113
i9k:__ZN15dense_hashtableINSt3__24pairIK10KeyWrapperINS1_IPK11Il2CppImageP11Il2CppClassEEEjEES9_17ReflectionMapHashIS8_EN14dense_hash_mapIS9_jSD_NS9_14EqualsComparerINS0_8equal_toIS8_EEEENS0_9allocatorISB_EEE9SelectKeyESI_SK_E5clearEv
ZBc:__ZN5physx15PxGeometryQuery18computePenetrationERNS_6PxVec3ERfRKNS_10PxGeometryERKNS_11PxTransformES6_S9_
qei:_TypeBuilder_IsValueTypeImpl_m1499671481
Aze:__ZN11UnityEngine15PlatformWrapper30GetGraphicsDriverLibraryStringEv
n4i:__ZL51UIVertex_t1204258818_CustomAttributesCacheGeneratorP21CustomAttributesCache
F9d:__ZN5Unity12PhysicsQueryC2Ev
jug:_List_1_get_Count_m1752597149_gshared
iWg:_EncryptedPrivateKeyInfo_Decode_m1706190306
dRb:__Z18Transfer_BlittableI18StreamedBinaryReadILb0EELb0E4AABBEvRK29SerializationCommandArgumentsR31RuntimeSerializationCommandInfo
EE:__ZN16MecanimAnimation24DeleteAnimatedPropertiesERP26IAnimatedPropertyEvaluator
qLh:__Z42RuntimeInvoker_CspProviderFlags_t105264000PFvvEPK10MethodInfoPvPS4_
yNj:_ControllerColliderHit_t4070855101_marshal_pinvoke
asf:_Convert_ToUInt16_m1665900934
_Rk:_Converter_2_BeginInvoke_m898151494_gshared
gWf:_RegionInfo__ctor_m2058831971
LUa:__Z14DrawGUITextureRK5RectTIfEP7Texture11ColorRGBA32P8Materiali
bYj:_Text_get_supportRichText_m3291105891
krk:_RectTransform_GetParentSize_m1571597933
DB:__ZN9BlobWrite8TransferI22OffsetPtrArrayTransferIKN4math7_float4EEEEvRT_PKc17TransferMetaFlags
V8e:_LayoutElement_set_ignoreLayout_m1530090081
hja:__ZN15TextureSettings8TransferI24GenerateTypeTreeTransferEEvRT_
Sik:_MatchCollection_GetEnumerator_m3516985966
cwc:__ZN9JSONWrite8TransferI4AABBEEvRT_PKc17TransferMetaFlags
Cqh:_UTF7Encoding__ctor_m2365939916
uQa:__ZN25MultiBlocksMemoryFileData9SetLengthEy
ruk:_TextGenerationSettings_Equals_m3944651893_AdjustorThunk
hOj:_DelegatePInvokeWrapper_StateChanged_t2480912210
WQj:_MatEntry__ctor_m3650167335
ESd:__ZNK18ScBeforeSolverTask7getNameEv
ACb:__ZNSt3__26vectorIN30RuntimeInitializeOnLoadManager9ClassInfoE13stl_allocatorIS2_L18MemLabelIdentifier12ELi16EEE8__appendEj
Rpb:__ZNK9Texture2D20GetRuntimeMemorySizeEv
xyh:_TypeInitializationException__ctor_m2993591639
OFd:__ZN5physx14solve1D4_BlockEPKNS_23PxcSolverConstraintDescEjRNS_16PxcSolverContextE
Twj:_EqualityComparer_1__ctor_m3788663378_gshared
Ym:_emscripten_glUniform2iv
DKi:__ZL46DES_t1353513560_CustomAttributesCacheGeneratorP21CustomAttributesCache
wCc:__ZL33GeomMTDCallback_ConvexHeightFieldRN5physx6PxVec3ERfRKNS_10PxGeometryERKNS_11PxTransformES5_S8_
ssi:_Matrix4x4_ToString_m1982554457_AdjustorThunk
oee:_UNITY_FT_Outline_Transform
Kni:_SkinChangedDelegate_BeginInvoke_m4259161711
blc:__Z60Register_UnityEngine_Sprites_DataUtility_Internal_GetMinSizev
fVk:__ZN6il2cpp2vm5Class10GetMethodsEP11Il2CppClassPPv
qDe:__ZNK25UnityWebRequestJavaScript17GetUploadProgressEv
X$a:__Z30AddDefaultStreamsToMeshBuffersR9GfxDeviceR11MeshBuffersRK16DrawBuffersRange17ShaderChannelMaskS6_
u0h:__Z86RuntimeInvoker_Int32_t2071877448_Vector2_t2243707579_Vector2_t2243707579_RuntimeObjectPFvvEPK10MethodInfoPvPS4_
sMe:_Hash_GetObjectData_m315532943
CJa:__ZN7ApiGLES17DeleteFramebufferERN2gl6HandleILNS0_10ObjectTypeE9EEES3_
JLa:__ZN15UniformTFMethod13MapBoneBufferEj
vZg:_RecordProtocol_SendAlert_m2816808523
pse:__ZN2UI14CanvasRendererD2Ev
VKd:__ZN5physx26PxcPCMContactCapsuleConvexERKNS_2Gu13GeometryUnionES3_RKNS_11PxTransformES6_RKfRNS_10PxcNpCacheERNS0_13ContactBufferE
Kfl:__ZN6il2cpp6icalls8mscorlib6System5Array8SetValueEP11Il2CppArrayP12Il2CppObjectS5_
j5f:_SynchronizedReader_Read_m1399666181
ogi:_MonoEvent_get_Name_m2796714646
Ecl:__ZN15dense_hashtableINSt3__24pairIK10KeyWrapperINS1_IPK9EventInfoP11Il2CppClassEEEjEES9_17ReflectionMapHashIS8_EN14dense_hash_mapIS9_jSD_NS9_14EqualsComparerINS0_8equal_toIS8_EEEENS0_9allocatorISB_EEE9SelectKeyESI_SK_E15set_deleted_keyERKSB_
rfa:__Z9SetupArgviPPKc
H1h:__Z53RuntimeInvoker_Void_t1841601450_LabelData_t3712112744PFvvEPK10MethodInfoPvPS4_
GGf:_Array_InternalArray__IEnumerable_GetEnumerator_TisHitInfo_t1761367055_m2486283755_gshared
bWe:_PointerEventData_set_worldNormal_m2025727441
xef:_Convert_ToBoolean_m2032547942
vtl:__ZN6il2cpp2vm4Enum21GetEnumValuesAndNamesEP11Il2CppClassPP11Il2CppArrayS6_
C_g:_Context_get_SentConnectionEnd_m3114190867
RYc:__ZN5physx10PxsContext17addParticleSystemEPNS_15PxsParticleDataERKNS_26PxvParticleSystemParameterEb
NWc:__ZN5physx3Scb5Scene13addRigidNoSimINS0_4BodyELb1ELb1EEEvRT_RNS0_13ObjectTrackerE
rgb:__ZN12ImmediatePtrI10GameObjectE8TransferI19StreamedBinaryWriteILb0EEEEvRT_
lpb:__ZN12CubemapArray23VirtualRedirectTransferER24GenerateTypeTreeTransfer
eNk:__ZL24UnresolvedVirtualCall_22P12Il2CppObjectS0_iS0_S0_S0_PK10MethodInfo
J5:__ZN12FileAccessor4OpenER15FileSystemEntry14FilePermission16FileAutoBehavior
DNg:_ReadOnlyCollection_1__ctor_m2364452928_gshared
Xpl:__ZN6il2cpp2os9Directory6CreateERKNSt3__212basic_stringIcNS2_11char_traitsIcEENS2_9allocatorIcEEEEPi
uFj:_AnimatorControllerPlayable_Play_m1490151611_AdjustorThunk
ina:__ZN4PPtrI6ShaderE8TransferI18StreamedBinaryReadILb0EEEEvRT_
IHc:__ZL19sweepBoxVsTrianglesjPKN5physx10PxTriangleERKNS_2Gu3BoxERKNS_6PxVec3EfRNS_10PxSweepHitENS_7PxFlagsINS_9PxHitFlag4EnumEtEEbPKj
y6a:__ZN23TransformChangeDispatch32QueueTransformChangeIfHasChangedERK15TransformAccess
GVe:_PointerEventData_set_clickTime_m3931922487
kX:__ZNSt3__24listIP19CloudServiceHandler13stl_allocatorIS2_L18MemLabelIdentifier86ELi16EEE6removeERKS2_
hli:_WindowFunction__ctor_m977095815
gUf:_NumberFormatter_AppendNonNegativeNumber_m629862866
y4d:__ZN9Rigidbody18AddForceAtPositionERK8Vector3fS2_i
ISa:__ZN15ArchiveReadFile5WriteEyPKvPy
k_j:_ResourceInfo__ctor_m2401359321_AdjustorThunk
qql:__ZN6il2cpp2os26LibraryNamePrefixAndSuffixC2EPKcS3_
_kf:_Hashtable__ctor_m392789568
euh:_Mutex_CreateMutex_internal_m2352956576
Ash:_UTF7Encoding__cctor_m4192443836
Vqc:__Z31GUIStyle_CUSTOM_SetFontInternalP12Il2CppObjectS0_
B:tempValue
Kcb:__Z29StdTemplateConversionFunctionIaiEbPvR14SafeBinaryRead
kYf:_Int16_System_IConvertible_ToSingle_m3277935657
N1:__Z29scripting_class_from_fullnamePKcS0_S0_
ZVi:__ZL97GameObject_t1756533147_CustomAttributesCacheGenerator_GameObject_GetComponentInParent_m1235194528P21CustomAttributesCache
PSj:_Raycast3DCallback_Invoke_m2271859924
zy:__ZN26AnimatorControllerPlayable18DeallocateBindingsEv
FCc:__ZN5physx2Gu29ConvexVsMeshContactGeneration20generateLastContactsEv
zTc:__ZNK5physx2Gu22SupportMapRelativeImplINS0_4BoxVEE14doSupportSweepERKNS_6shdfnd3aos5Vec3VE
AFj:_AnimatorControllerPlayable_HasState_m3003093532
A5i:__ZL83Event_t3028476042_CustomAttributesCacheGenerator_Event_set_displayIndex_m3631666901P21CustomAttributesCache
Die:_UNITY_FT_Stream_ReadAt
pZi:__ZL111Object_t1021602117_CustomAttributesCacheGenerator_Object_DestroyImmediate_m3563317232____allowDestroyingAssets1P21CustomAttributesCache
$hd:__ZN5physx2Sc17ParticleSystemSim16getParticleStateEv
KRd:__ZN5physx6shdfnd5ArrayINS_25PxsCompoundContactManagerENS0_19ReflectionAllocatorIS2_EEE8recreateEj
okj:_Enumerator_get_CurrentKey_m2387752419_AdjustorThunk
Doi:_GUIStyle_get_lineHeight_m2132859383
NI:__Z87Register_UnityEngine_Animations_AnimatorControllerPlayable_INTERNAL_CALL_GetFloatStringv
eZk:__ZN15dense_hashtableINSt3__24pairIK10KeyWrapperIN6il2cpp5utils13dynamic_arrayIPK10Il2CppTypeLj4EEEEPFvvEEESA_NS3_8metadata19Il2CppSignatureHashEN14dense_hash_mapISA_SD_SG_NSA_14EqualsComparerINSF_22Il2CppSignatureCompareEEENS0_9allocatorISE_EEE9SelectKeyESK_SM_E9set_valueEPSE_RKSE_
kOg:_ReadOnlyCollection_1_System_Collections_Generic_IListU3CTU3E_RemoveAt_m2137782652_gshared
iWf:_RegionInfo__ctor_m997788172
iji:_UnityEvent_FindMethod_Impl_m3303953986
vj:_glReadBuffer
Dyh:_UInt16_System_IConvertible_ToBoolean_m887616848
GId:__ZN5physx14PxsAABBManagerC2ERNS_2Cm13EventProfilerERNS_19PxcScratchAllocatorE
mUi:__ZL120ScriptableObject_t1975622470_CustomAttributesCacheGenerator_ScriptableObject_Internal_CreateScriptableObject_m1778903390P21CustomAttributesCache
xS:__ZN11AudioModule22CreateAudioClipFromWWWEP10IWWWStreamPKcbbi
qrh:_StringBuilder_set_Length_m3039225444
OZh:__Z37RuntimeInvoker_AspectMode_t1166448724PFvvEPK10MethodInfoPvPS4_
CIg:_Collection_1_System_Collections_IList_Contains_m3870109702_gshared
tDf:_Array_InternalArray__ICollection_Contains_TisRaycastResult_t21186376_m3188614988_gshared
Lsf:_CultureAwareComparer_GetHashCode_m3681260951
lue:__Z13RegisterClassIN2UI11CanvasGroupEEvv
OGk:_U3CStartU3Ec__Iterator0__ctor_m951808111_gshared
XZb:__ZN6prcoreL11inner_clearILj4EEEvPhjjj
Zf:_emscripten_glClear
YSj:_Selectable__ctor_m1440593935
n1a:__ZN15SHConstantCacheC2ER13BatchRendererR15RenderLoopStats
Pwl:_GC_initialize_offsets
K9:__ZNK8Playable6HandleEv
MGl:___cxa_guard_abort
_0a:__Z30SetupBakedOcclusionForGeometrybRK26SharedLightmapSettingsDataRK15LightmapIndicesR17ShaderPassContext
J8h:_CustomAttributeTypedArgument_t1498197914_marshal_pinvoke_back
S3:__ZN14MessageHandler28MessageIDToMessageIdentifierEi
u6g:_HttpRequestCreator_Create_m3607509610
T5i:__ZL50GUISkin_t1436893342_CustomAttributesCacheGeneratorP21CustomAttributesCache
$ub:__ZNK11SpriteAtlas20GetRuntimeRenderDataEPK6Sprite
AOk:__ZL24UnresolvedVirtualCall_98P12Il2CppObject8IntPtr_tPK10MethodInfo
CAg:_List_1_Shift_m3824049528_gshared
Ujh:_ArrayFixupRecord__ctor_m3659990982
O_g:_Context_get_RandomCS_m3946020109
Rzi:__ZL72IntPtr_t_CustomAttributesCacheGenerator_IntPtr_op_Inequality_m3044532593P21CustomAttributesCache
N0e:_Dropdown_get_onValueChanged_m3334401942
Eyl:__ZN6il2cpp2vm10WaitHandle19NewManualResetEventEb
Gwk:_UISystemProfilerApi_EndSample_m2059427490
WOg:_ReadOnlyCollection_1_System_Collections_IList_Contains_m3707723158_gshared
ACh:_Version_GetHashCode_m880841176
qw:__ZN7mecanim14ValueArrayCopyILb0EEEvPKNS_10ValueArrayEPS1_
Myj:_CustomEventData_Add_m4160204358
vH:__Z51Register_UnityEngine_Animator_get_hasBoundPlayablesv
pCk:_Nullable_1_ToString_m1238126148_AdjustorThunk
oe:emscriptenWebGLGetUniform
Bp:FUNCTION_TABLE_iiiiiiiiiii
MJc:__ZN5physx2Gu19sweepCapsuleCapsuleERKNS0_7CapsuleES3_RKNS_6PxVec3EfRfRS4_S8_jRt
gEd:__ZN5physx2Gu29EPASupportMapPairRelativeImplINS0_9TriangleVENS0_11ConvexHullVEED0Ev
wva:__Z32TransferEnumWithNameForceIntSizeI14SafeBinaryRead13TextureFormatEvRT_RT0_PKc17TransferMetaFlags
lgj:__ZL86Scrollbar_t3248359358_CustomAttributesCacheGenerator_Scrollbar_ClickRepeat_m3403943364P21CustomAttributesCache
T5a:__ZL10CleanUpJobP20CullingGroupsJobData
ngf:_Char_CompareTo_m3044885427_AdjustorThunk
UEc:__ZN5physx2Gu22computeMTD_PlaneConvexERNS_6PxVec3ERfRKNS_7PxPlaneERKNS_20PxConvexMeshGeometryERKNS_11PxTransformE
W$a:__Z20IsRunningNativeTestsv
hck:_InternalEnumerator_1_System_Collections_IEnumerator_get_Current_m2035754659_AdjustorThunk
Vxb:__ZN10MeshFilter23VirtualRedirectTransferER24GenerateTypeTreeTransfer
XVd:__ZN5physx13BigConvexData4LoadERNS_13PxInputStreamE
CUa:__ZN13RenderManager15BatchModeUpdateEv
RCk:_Predicate_1_EndInvoke_m973058386_gshared
qXi:__ZL52LayerMask_t3188175821_CustomAttributesCacheGeneratorP21CustomAttributesCache
jFg:_Collection_1_Add_m3985367602_gshared
gub:__ZN14SafeBinaryRead21TransferSTLStyleArrayI13dynamic_arrayI8Vector2fLj4EEEEvRT_17TransferMetaFlags
Tna:__ZN17PersistentManager51InstanceIDToLocalSerializedObjectIdentifierInternalEiR31LocalSerializedObjectIdentifier
Kii:_StrongNameKeyPair_System_Runtime_Serialization_IDeserializationCallback_OnDeserialization_m2330221363
W3c:__ZN5physx2Sc8ActorSim24postDominanceGroupChangeEv
Ngk:_DefaultComparer__ctor_m1661558765_gshared
Gli:_GUILayoutEntry_CalcWidth_m2520096159
Sd:_glVertexAttribIPointer
UBh:_UnhandledExceptionEventHandler_EndInvoke_m2207457167
aqj:_Dictionary_2_System_Collections_ICollection_get_IsSynchronized_m304009368_gshared
qFe:_HMAC_set_HashName_m457235014
h9b:__ZNK6Sprite10GetPaddingE20SpriteRenderDataMode
iUk:__ZN6il2cpp2vm5Class11GetPtrClassEPK10Il2CppType
O4c:__ZN5physx2Cm8PtrTable5clearERNS0_22PtrTableStorageManagerE
DCf:_Array_InternalArray__ICollection_Contains_TisTableRange_t2011406615_m605506746_gshared
wqj:_Dictionary_2_Add_m1296007576_gshared
Krf:_Decimal_op_Explicit_m729046406
wNc:__ZN5physx3Cct15ObstacleContext7releaseEv
V2e:_Graphic_OnEnable_m2900261811
sFd:__ZN5physx27solveFrictionBlockWriteBackEPKNS_23PxcSolverConstraintDescEjRNS_16PxcSolverContextEPNS_25PxcThresholdStreamElementEjPi
roh:_CryptographicUnexpectedOperationException__ctor_m3552441227
Zhf:_ArrayListWrapper_Clear_m321161741
V7e:_InputField_LineDownCharacterPosition_m2690468785
Cie:_UNITY_ft_glyphslot_alloc_bitmap
vPf:_Array_Sort_TisVector2_t2243707579_TisVector2_t2243707579_m2582252549_gshared
DAh:_UInt64_System_IConvertible_ToDouble_m2828923873
UXk:__ZN15dense_hashtableI10KeyWrapperIPK17Il2CppGenericInstES4_N6il2cpp8metadata21Il2CppGenericInstHashEN14dense_hash_setIS4_S7_NS4_14EqualsComparerINS6_24Il2CppGenericInstCompareEEENSt3__29allocatorIS4_EEE8IdentityESB_SE_E16reset_thresholdsEv
M0b:__ZZN2UI13RectTransform15InitializeClassEvEN31FunctorImpl_62kTransformChanged4CallEPviR11MessageData
Avg:_List_1_System_Collections_IList_set_Item_m1129584681_gshared
iuh:_SendOrPostCallback__ctor_m107067079
Yje:_ft_raster1_render
ckc:__Z57Register_UnityEngine_RectTransform_INTERNAL_set_anchorMaxv
uqg:_List_1_set_Capacity_m491101164_gshared
wFl:__ZNKSt3__221__basic_string_commonILb1EE20__throw_length_errorEv
Orh:_StringBuilder_Insert_m1733097906
Mj:_JS_SystemInfo_GetMemory
iik:_Comparer_1__ctor_m1157133632_gshared
j3g:_SslStreamBase_get_HashStrength_m480059173
mKa:__ZN18GfxFramebufferGLES13ReadbackImageER14ImageReferenceiiiiii
Goj:_ValueCollection_System_Collections_Generic_ICollectionU3CTValueU3E_Clear_m3271993638_gshared
TQh:__Z35RuntimeInvoker_Position_t3781184359PFvvEPK10MethodInfoPvPS4_
Fnf:_Enumerator_MoveNext_m1419609883
zM:__ZN4FMOD7Channel19setReverbPropertiesEPK29FMOD_REVERB_CHANNELPROPERTIES
q3:__ZN13MonoBehaviour22GetScriptFullClassNameEv
i4k:_il2cpp_object_get_class
RRd:__ZN5physx6shdfnd4sortIPNS_15PxsContactPatchENS_27SortBoundsPredicateManifoldENS0_19ReflectionAllocatorIS3_EEEEvPT_jRKT0_RKT1_j
dFi:__ZL111DerivedType_t1016359113_CustomAttributesCacheGenerator_DerivedType_MakeGenericType_m742223168____typeArguments0P21CustomAttributesCache
nxk:_Vector2__cctor_m3670745621
rRg:_ReadOnlyCollection_1_Contains_m1816350632_gshared
E6g:_ServicePointManager_FindServicePoint_m3137356168
hua:__ZN20SphericalHarmonicsL211AddWeightedERKS_f
Gcj:__ZL106PointerEventData_t1599784723_CustomAttributesCacheGenerator_PointerEventData_set_pressPosition_m2094137883P21CustomAttributesCache
rrd:__ZN5physx2Sc24ElementInteractionMarker12onDeactivateEj
tWe:_PointerInputModule_GetPointerData_m1695674453
emi:__Z14bankers_roundff
tLh:__Z90RuntimeInvoker_Void_t1841601450_RuntimeObject_RuntimeObject_RuntimeObject_SByte_t454417549PFvvEPK10MethodInfoPvPS4_
mKb:__Z19TransferField_ArrayI17RemapPPtrTransfer27Converter_SimpleNativeClassI8GUIStyleEEvRK23StaticTransferFieldInfoR31RuntimeSerializationCommandInfoRT0_
N0:__ZL22StaticInitializeShaderPv
Gsf:_Convert_ToUInt64_m345450801
sCk:_Predicate_1_BeginInvoke_m2559992383_gshared
dtc:__ZN9JSONWrite8TransferI10ColorRGBAfEEvRT_PKc17TransferMetaFlags
uOj:_Debug_Log_m920475918
ijl:__ZNK15dense_hashtableINSt3__24pairIK10KeyWrapperIP14Il2CppIUnknownEjEES5_N6il2cpp5utils11PointerHashIS3_EEN14dense_hash_mapIS5_jSB_NS5_14EqualsComparerINS0_8equal_toIS4_EEEENS0_9allocatorIS7_EEE9SelectKeyESG_SI_E10test_emptyERK30dense_hashtable_const_iteratorIS7_S5_SB_SK_SG_SI_E
RMc:__ZN5physx3Cct26CharacterControllerManager16createControllerERKNS_16PxControllerDescE
M3:__Z25scripting_method_get_name18ScriptingMethodPtr
lkc:__Z35Register_UnityEngine_Resources_Loadv
NIb:__Z19TransferField_ArrayI14SafeBinaryRead16Converter_StringEvRK23StaticTransferFieldInfoR31RuntimeSerializationCommandInfoRT0_
SEl:_rename
Rwl:_GC_exit_check
pwk:_Transform_INTERNAL_CALL_TransformDirection_m2899991790
g9f:_NotSupportedException__ctor_m3232764727
U5g:_TypeConverterAttribute_Equals_m2330345916
yDc:__ZNK5physx2Gu15OBBTriangleTest10obbTriTestERKNS_6PxVec3ES4_S4_
rQh:__Z90RuntimeInvoker_Boolean_t3825574718_Int32_t2071877448_Int32U26_t455636984_Int32_t2071877448PFvvEPK10MethodInfoPvPS4_
R9g:_X509Certificate2_get_NotAfter_m3430171627
q2:__Z20UnlockObjectCreationv
LRh:__Z54RuntimeInvoker_Int32_t2071877448_LayerMask_t3188175821PFvvEPK10MethodInfoPvPS4_
uuf:_DateTime_ToString_m1117481977
M0f:_MonoIO_CreateDirectory_m379525469
sHf:__ZN21InterfaceFuncInvoker2Ii22UILineInfo_t3621277874S0_E6InvokeEjP11Il2CppClassP12Il2CppObjectS0_S0_
uB:__ZN9BlobWrite8TransferI22OffsetPtrArrayTransferI9OffsetPtrIN7mecanim12statemachine18StateMachineMemoryEEEEEvRT_PKc17TransferMetaFlags
dge:_UNITY_ft_smooth_renderer_class_pic_free
kyg:_List_1_System_Collections_IList_Remove_m3763718607_gshared
cJj:_Bounds_get_center_m129401026
PQ:__ZN19AudioPlayableOutput22OnConnectionHashChangeEv
xPe:_String_Concat_m2000667605
tUk:__ZN24dense_hashtable_iteratorINSt3__24pairIK10KeyWrapperIPK22Il2CppGenericParameterEP11Il2CppClassEES6_N6il2cpp5utils11PointerHashIS4_EEN14dense_hash_mapIS6_S9_SE_NS6_14EqualsComparerINS0_8equal_toIS5_EEEENS0_9allocatorISA_EEE9SelectKeyESJ_SL_E30advance_past_empty_and_deletedEv
S$k:__ZN6il2cpp2os19SocketHandleWrapperC2ERKS1_
dsl:__ZN6il2cpp2vm6String8NewUtf16EPKDsi
upl:__ZN6il2cpp2os10ThreadImpl12QueueUserAPCEPFvPvES2_
IJ:__Z32TransferEnumWithNameForceIntSizeI14SafeBinaryReadN10SampleClip17CompressionFormatEEvRT_RT0_PKc17TransferMetaFlags
wee:__ZN20TextRenderingPrivate15DynamicFontData36GetFaceForCharacterIfAvailableInFontERKNS_7FontRefERKNSt3__26vectorI4PPtrIN13TextRendering4FontEE13stl_allocatorIS9_L18MemLabelIdentifier34ELi16EEEEj
xOc:__ZN5physx12PxControllerD2Ev
hWk:_ExecuteEvents_GetEventHandler_TisRuntimeObject_m3333041576_gshared
Evg:__ZN23InterfaceActionInvoker2IP28UICharInfoU5BU5D_t2749705857iE6InvokeEjP11Il2CppClassP12Il2CppObjectS1_i
jXi:__ZL81Input_t1785128008_CustomAttributesCacheGenerator_Input_get_touchCount_m2050827666P21CustomAttributesCache
rJc:__ZNK5physx2Gu15HeightFieldUtil12traceSegmentI25CapsuleTraceSegmentReportLb0ELb0ELb1EEEvRKNS_6PxVec3ES6_PT_PS5_
A1k:__ZNSt3__26__treeIP11Il2CppClassNS_4lessIS2_EENS_9allocatorIS2_EEE16__insert_node_atEPNS_16__tree_node_baseIPvEERSB_SB_
cMc:__ZN5physx3Cct17CapsuleController13setStepOffsetEf
xpe:_UNITY_FT_Hypot
UJd:__ZN5physx10PxsContext23prepareCMDiscreteUpdateEPNS_10PxBaseTaskE
Tcf:_BitConverter_ToInt64_m1329623425
t1b:__ZN8RendererC2E12RendererType18MemLabelIdentifier18ObjectCreationMode
lMi:__ZL95ASCIIEncoding_t3022927988_CustomAttributesCacheGenerator_ASCIIEncoding_GetByteCount_m1396020051P21CustomAttributesCache
p4c:__ZN5physx6shdfnd5ArrayIPvNS0_19ReflectionAllocatorINS_2Cm5BlockIhLj256EEEEEE4copyINS0_15InlineAllocatorILj256ES7_EEEEvRKNS1_IS2_T_EE
hg:_emscripten_glGetError
nbl:__ZN15dense_hashtableINSt3__24pairIK10KeyWrapperIPK14Il2CppAssemblyEPK22Il2CppMonoAssemblyNameEES6_N6il2cpp5utils11PointerHashIS4_EEN14dense_hash_mapIS6_SA_SF_NS6_14EqualsComparerINS0_8equal_toIS5_EEEENS0_9allocatorISB_EEE9SelectKeyESK_SM_E14squash_deletedEv
VDh:__Z70RuntimeInvoker_Boolean_t3825574718_RuntimeObject_UInt64U26_t1611942494PFvvEPK10MethodInfoPvPS4_
mN:__Z14FMOD_FILE_SeekPvjS_
Vfh:_MethodCall_get_Properties_m1893707917
mAi:__ZL72Enum_t2459695545_CustomAttributesCacheGenerator_Enum_ToObject_m604645223P21CustomAttributesCache
V7c:__ZN5physx6shdfnd8PoolBaseINS_11NpAggregateENS0_19ReflectionAllocatorIS2_EEE15disposeElementsEv
Rlj:_ShimEnumerator_get_Entry_m2387156530_gshared
DAi:__ZL82RuntimeArray_CustomAttributesCacheGenerator_Array_SetValue_m2421438042____indices1P21CustomAttributesCache
EZk:__ZN14dense_hash_mapI10KeyWrapperIN6il2cpp5utils13dynamic_arrayIPK10Il2CppTypeLj4EEEEPFvvENS1_8metadata19Il2CppSignatureHashENS8_14EqualsComparerINSB_22Il2CppSignatureCompareEEENSt3__29allocatorINSG_4pairIKS8_SA_EEEEEC2EjRKSC_RKSF_
fye:__Z56Register_UnityEngine_Analytics_CustomEventData_AddStringv
AWi:__ZL75Screen_t786852042_CustomAttributesCacheGenerator_Screen_get_dpi_m3345126327P21CustomAttributesCache
q7a:__ZNK13RenderTexture32CalculateNeedsInvertedProjectionEv
kNc:__ZN5physx2Gu17RadixSortBuffered4SortEPKfj
pg:emscriptenWebGLGet
_pk:_Rect_GetHashCode_m559954498_AdjustorThunk
T5:__Z19CanReplaceComponentRN5Unity9ComponentEPKNS_4TypeEPN4core12basic_stringIcNS5_20StringStorageDefaultIcEEEE
CBi:__ZL77RuntimeArray_CustomAttributesCacheGenerator_Array_ConstrainedCopy_m1922927602P21CustomAttributesCache
F2b:__ZN12CubemapArray11InitTextureEiii13TextureFormatb
Gpa:__ZN6prcoreL18BlitIntegerToFloatERK14ImageReferenceRS0_
F$i:__ZL93Physics_t634932869_CustomAttributesCacheGenerator_Physics_RaycastAll_m410413656____layerMask2P21CustomAttributesCache
Obc:__Z17GetSceneBuildInfoRKN4core12basic_stringIcNS_20StringStorageDefaultIcEEEEiR14SceneBuildInfo
tPa:__ZNK15Lz4Decompressor20DecompressStreamInitEPPv
LYk:__ZNSt3__27__sort4IRN6il2cpp5utils11collections13ArrayValueMapIPK10Il2CppType17Il2CppInteropData26InteropDataToTypeConverterNS1_8metadata14Il2CppTypeLessENSA_26Il2CppTypeEqualityComparerEE12SortComparerEPS8_EEjT0_SH_SH_SH_T_
NEg:_Collection_1_set_Item_m3803272710_gshared
cti:_Mesh_SetUVs_m841280343
zhi:_MonoMethodInfo_t3646562144_marshal_pinvoke_cleanup
W9g:_X509Certificate2_get_SignatureAlgorithm_m3069898012
t6g:_HttpRequestCreator__ctor_m2513916021
_Sc:__ZN27ConvexVsMeshOverlapCallbackC2ERKN5physx2Gu10ConvexMeshERKNS0_11PxMeshScaleERKNS0_2Cm23FastVertex2ShapeScalingERKNS0_11PxTransformESE_bRKNS1_3BoxE
mpi:_GUIStyle_INTERNAL_CALL_Internal_CalcSizeWithConstraints_m1203344891
bC:__ZN7mecanim5human13HumanFixTwistEPKNS0_5HumanEPNS_8skeleton13SkeletonPoseTIN4math4trsXEEES9_iiRKf
F0a:__ZL24AssignProjectorQueuesJobP30AssignProjectorQueuesJobHeader
Uvh:_TimeSpan_get_Hours_m3804628138
c2e:_FontData_set_alignByGeometry_m2819509290
jml:__ZN14dense_hash_mapI10KeyWrapperIP12Il2CppObjectEN6il2cpp2gc9CachedCCWENS4_5utils11PointerHashIS1_EENS3_14EqualsComparerINSt3__28equal_toIS2_EEEENSB_9allocatorINSB_4pairIKS3_S6_EEEEEC2EjRKS9_RKSE_
$jk:_Regex__ctor_m3250610064
kZk:__ZN15dense_hashtableINSt3__24pairIK10KeyWrapperIN6il2cpp5utils13dynamic_arrayIPK10Il2CppTypeLj4EEEEPFvvEEESA_NS3_8metadata19Il2CppSignatureHashEN14dense_hash_mapISA_SD_SG_NSA_14EqualsComparerINSF_22Il2CppSignatureCompareEEENS0_9allocatorISE_EEE9SelectKeyESK_SM_E4swapERSP_
SXb:__ZN9ShaderLab20SerializedSubProgram14SetConstBufferEPKci
Skg:_ArgumentNullException__ctor_m911049464
Sfi:_TargetParameterCountException__ctor_m2760108938
O9d:__ZN13PhysicsModule17SetRigidBodyStateER9RigidbodyRKN8IPhysics14RigidBodyStateE
mIk:_Check_Source_m3385315029
uEk:_InvokableCall_4_Find_m1467690987_gshared
tRk:_Comparison_1_Invoke_m345024424_gshared
Yle:_cf2_getStdVW
cQg:_ReadOnlyCollection_1_System_Collections_IList_Insert_m3936197025_gshared
kAf:_EventHandler_BeginInvoke_m3027583606
H_:__Z40DebugStringToFilePostprocessedStacktraceRK21DebugStringToFileData
WAd:__ZN5physx2Sq12BucketPruner11shiftOriginERKNS_6PxVec3E
Zxc:__Z29Transfer_Blittable_ArrayFieldI8JSONReadjEvRT_R9ArrayInfoRK23StaticTransferFieldInfo
Tek:_InternalEnumerator_1__ctor_m3220229132_AdjustorThunk
oWc:__ZN5physx6shdfnd5ArrayIPNS_2Sc16ArticulationCoreENS0_19ReflectionAllocatorIS4_EEE15growAndPushBackERKS4_
Utk:_StateMachineBehaviour_OnStateEnter_m1095276890
Eui:_Object_GetInstanceID_m1920497914
J2j:_ContextAttribute__ctor_m4006843177
Jbk:_InternalEnumerator_1_get_Current_m314017974_AdjustorThunk
Wg:__setLetterbox
mqg:_List_1_RemoveAll_m1569860525_gshared
hoa:__ZNSt3__26__treeINS_12__value_typeIN9ShaderLab16FastPropertyNameEfEENS_19__map_value_compareIS3_S4_NS_4lessIS3_EELb1EEENS_9allocatorIS4_EEE12__find_equalIS3_EERPNS_16__tree_node_baseIPvEENS_21__tree_const_iteratorIS4_PNS_11__tree_nodeIS4_SE_EEiEESH_RKT_
qQd:__ZN5physx19normalizePartitionsERNS_6shdfnd5ArrayIjNS0_19ReflectionAllocatorIjEEEEPNS_23PxcSolverConstraintDescEPKNS_13PxcSolverBodyEjjS5_
Ouk:_TextGenerator_Populate_Internal_m1817393161
mDi:__ZL57CollectionBase_t1101587467_CustomAttributesCacheGeneratorP21CustomAttributesCache
tEc:__ZN18ContactCapsuleMesh20processTriangleCacheILj16EEEbRN5physx2Gu13TriangleCacheIXT_EEE
Pwb:__ZNSt3__26vectorI17BlendShapeChannelNS_9allocatorIS1_EEE6assignINS_11__wrap_iterIPS1_EEEENS_9enable_ifIXaasr21__is_forward_iteratorIT_EE5valuesr16is_constructibleIS1_NS_15iterator_traitsISA_E9referenceEEE5valueEvE4typeESA_SA_
c9e:_LayoutElement_set_preferredWidth_m3072758716
qFk:_UnityEvent_1_AddListener_m1708363187_gshared
F8g:_AsnEncodedData_ToString_m724151831
aVa:__ZN11TimeManager11GetRealtimeEv
IDg:_Collection_1_System_Collections_IList_get_IsFixedSize_m2408637569_gshared
sth:_UTF8Encoding_GetByteCount_m1469571127
XRc:__ZN5physx2Sc16InteractionScene25removeFromActiveActorListERNS0_5ActorE
GDe:__ZN20UnityWebRequestProtoI19TransportJavaScript16AtomicRefCounter14RedirectHelper14ResponseHelper15DownloadHandler13UploadHandler12HeaderHelper14AsyncOperationE26Job_ExecuteUnityWebRequestEPS8_
zN:__ZN29AudioEffectInternalDefinitionC2EP26UnityAudioEffectDefinitionb
agi:_MonoMethodInfo_GetDeclaringType_m4186531677
Uhh:_SoapTypeAttribute_SetReflectionObject_m1566293812
Ouj:_DefaultComparer__ctor_m418731767_gshared
eE:__ZN4PPtrI6AvatarE8TransferI18StreamedBinaryReadILb0EEEEvRT_
tOc:__ZN5physx3Ext21InertiaTensorComputer6rotateERKNS_7PxMat33E
_Kk:_Enumerator_System_Collections_IEnumerator_Reset_m2573763156_AdjustorThunk
qjh:_RemotingServices_CreateClientProxy_m1631035355
hBh:_UInt64_ToString_m2892887310
U6i:__ZL88GUIStyle_t1799908754_CustomAttributesCacheGenerator_GUIStyle_set_fixedHeight_m1517737608P21CustomAttributesCache
vPd:__ZN5physx22PxcDiscreteNarrowPhaseERNS_18PxcNpThreadContextERNS_13PxcNpWorkUnitE
bva:_stbir_resize
srl:__ZN15dense_hashtableINSt3__24pairIK10KeyWrapperIPK19Il2CppGenericMethodEP10MethodInfoEES6_N6il2cpp8metadata23Il2CppGenericMethodHashEN14dense_hash_mapIS6_S9_SD_NS6_14EqualsComparerINSC_26Il2CppGenericMethodCompareEEENS0_9allocatorISA_EEE9SelectKeyESH_SJ_EC2ERKSM_j
P9k:__ZN15dense_hashtableINSt3__24pairIK10KeyWrapperINS1_IPK12PropertyInfoP11Il2CppClassEEEjEES9_17ReflectionMapHashIS8_EN14dense_hash_mapIS9_jSD_NS9_14EqualsComparerINS0_8equal_toIS8_EEEENS0_9allocatorISB_EEE9SelectKeyESI_SK_E5clearEv
$xb:__ZN4PPtrI4MeshE8TransferI14SafeBinaryReadEEvRT_
UKd:__ZN5physx23PxcPCMContactCapsuleBoxERKNS_2Gu13GeometryUnionES3_RKNS_11PxTransformES6_RKfRNS_10PxcNpCacheERNS0_13ContactBufferE
UPa:__Z37ReadDirectoryInfo_UnityWebAndUnityRawR12FileAccessorRKN20ArchiveStorageHeader6HeaderERNS1_13DirectoryInfoE
cGf:_Array_InternalArray__IEnumerable_GetEnumerator_TisInt64_t909078037_m1219751804_gshared
s0:__ZNSt3__26__treeINS_12__value_typeIPKciEENS_19__map_value_compareIS3_S4_15compare_tstringIS3_ELb1EEENS_9allocatorIS4_EEE7destroyEPNS_11__tree_nodeIS4_PvEE
eCi:__ZL96RuntimeTypeHandle_t2330101084_CustomAttributesCacheGenerator_RuntimeTypeHandle_Equals_m452760426P21CustomAttributesCache
BTk:_FieldWithTarget_get_fieldPath_m354282076
qJk:_EqualityComparer_1_System_Collections_IEqualityComparer_Equals_m1960102236_gshared
Ttj:_Dictionary_2_ToTValue_m1381983709_gshared
_8f:_MulticastDelegate_KPM_m1592985119
hti:_MeshCollider_set_sharedMesh_m4192566451
UTh:__Z64RuntimeInvoker_Playable_t1896841784_AudioClipPlayable_t192218916PFvvEPK10MethodInfoPvPS4_
YFg:_Collection_1_ClearItems_m1410275009_gshared
nLg:_Collection_1_ConvertItem_m3941916604_gshared
PZa:__ZN20DynamicPropertySheet14SetValueQueuedEN9ShaderLab16FastPropertyNameEN19ShaderPropertySheet12PropertyTypeEjNS2_8SetFlagsE
_se:__ZN2UI6Canvas26MarkAllNestedCanvasesDirtyEv
ujl:__ZN6il2cpp2vm12ReboxIfBoxedEP14Il2CppIUnknownP11Il2CppClass
iMa:__ZN16GeometryJobTasks20ScheduleGeometryJobsER9GfxDevicePFvP15GeometryJobDataEPK22GeometryJobInstructionjb
ddb:__ZN25PathNamePersistentManagerD2Ev
j2:__ZN17PersistentManager48IntegrateObjectAndUnlockIntegrationMutexInternalEi
MQg:_ReadOnlyCollection_1_System_Collections_IList_get_IsReadOnly_m3872065502_gshared
HFi:__ZL112TypeBuilder_t3308873219_CustomAttributesCacheGenerator_TypeBuilder_MakeGenericType_m4282022646____typeArguments0P21CustomAttributesCache
Wca:__ZZ29InitializeSortingGroupManagerPvEN44PostLateUpdateSortingGroupsUpdateRegistrator7ForwardEv
yq:__ZN6Object12SetHideFlagsENS_9HideFlagsE
p3d:__ZN9Rigidbody23VirtualRedirectTransferER14SafeBinaryRead
VMl:_emscripten_glGetFramebufferAttachmentParameteriv__wrapper
iVa:__ZN13RendererScene15InitializeUmbraEv
dGj:_AnimatorTransitionInfo_IsName_m2561957738_AdjustorThunk
Tta:__Z28CalculateGlobalMatrixInverse23TransformAccessReadOnly
hvc:__ZN4PPtrI6ObjectE8TransferI9JSONWriteEEvRT_
nCi:__ZL60SecurityAttribute_t2016950496_CustomAttributesCacheGeneratorP21CustomAttributesCache
Fwb:__ZN13dynamic_arrayI12BoneWeights4Lj16EE18resize_initializedEjRKS0_12ResizePolicy
oWe:_PointerEventData_ToString_m1218584363
Kff:_Char_System_IConvertible_ToChar_m1489061093_AdjustorThunk
Ish:_UTF7Encoding_GetCharCount_m2589913583
Haj:__ZL117RenderPipelineManager_t984453155_CustomAttributesCacheGenerator_RenderPipelineManager_set_currentPipeline_m3825706412P21CustomAttributesCache
nid:__ZNK5physx15PxsParticleData15getWorldBoundsVEv
j1d:__ZN15CapsuleCollider13AwakeFromLoadE17AwakeFromLoadMode
n3:__ZN13MonoBehaviour19ReleaseMonoInstanceEv
j3f:_MemoryStream_CalculateNewCapacity_m3533542025
pKc:__ZN12_GLOBAL__N_124HfTrianglesEntityReport27onEventEjPj
O$c:__ZNK5physx2Sc15ArticulationSim16createDriveCacheEfj
Nkd:__ZN5physx22NpParticleBaseTemplateINS_16PxParticleSystemENS_16NpParticleSystemEE17setStaticFrictionEf
a7i:__ZL88GUIStyle_t1799908754_CustomAttributesCacheGenerator_GUIStyle_GetFontInternal_m3509743324P21CustomAttributesCache
twh:_TimeSpan_Equals_m4102942751_AdjustorThunk
Foj:_ValueCollection_System_Collections_Generic_ICollectionU3CTValueU3E_Add_m1903672223_gshared
o3c:__ZN5physx17PxsContactManager16resetCachedStateEv
HDe:__ZN12HeaderHelper14SetUnvalidatedERKN4core12basic_stringIcNS0_20StringStorageDefaultIcEEEES6_b
UJ:__ZN4FMOD6SoundI7releaseEv
i0i:__ZL103Collider_t3497673348_CustomAttributesCacheGenerator_Collider_INTERNAL_CALL_Internal_Raycast_m1149196481P21CustomAttributesCache
knd:__ZN5physx20NpRigidActorTemplateINS_14PxRigidDynamicEE15setActorSimFlagEb
IAi:__ZL70RuntimeArray_CustomAttributesCacheGenerator_Array_SetValue_m1489959987P21CustomAttributesCache
PWe:_MouseButtonEventData__ctor_m618518000
Yxj:_EqualityComparer_1_get_Default_m3222318365_gshared
IQa:__ZN10MemoryFile9SetLengthEy
tzh:_UInt16_ToString_m2038947049_AdjustorThunk
dEj:_AnimatorControllerPlayable_GetNextAnimatorClipInfoInternal_m1102604948
PMc:__ZNK5physx3Cct26CharacterControllerManager16getNbControllersEv
ZDb:__Z28scripting_class_is_interface17ScriptingClassPtr
ji:_glTexStorage2D
wMf:_Array_InternalArray__Insert_TisRaycastHit2D_t4063908774_m3174907903_gshared
GXb:__ZNK9ShaderLab10SubProgram14EnsureCompiledEv
YCh:__Z79RuntimeInvoker_Boolean_t3825574718_RuntimeObject_RuntimeObject_SByte_t454417549PFvvEPK10MethodInfoPvPS4_
Mlh:_ObjectManager_RecordFixup_m3572285566
dEi:__ZL55DaylightTime_t3800227331_CustomAttributesCacheGeneratorP21CustomAttributesCache
i6d:__ZN5physx7profile10DataBufferINS_6shdfnd6MutexTINS0_26WrapperReflectionAllocatorIhEEEENS0_14ScopedLockImplIS6_EEE17handleBufferFlushEPKhj
Cmf:_SortedList_InitTable_m460350503
C3:__Z18BuildScriptClassId17ScriptingClassPtr
B8j:_InternalEnumerator_1_get_Current_m4279678504_AdjustorThunk
Rr:__ZNK16LevelGameManager7GetNameEv
KDg:_Collection_1_System_Collections_IList_get_Item_m2415649949_gshared
j3b:__ZN8Renderer28HandleParentHierarchyChangesEPK23TransformAccessReadOnlyj
Qci:_ILTokenInfo_t149559338_marshal_pinvoke_cleanup
Tea:__ZL31DeleteLastPathNameComponentImplRKN4core12basic_stringIcNS_20StringStorageDefaultIcEEEEPKc
g$b:__Z13RegisterClassI18DelayedCallManagerEvv
sAe:__ZN18UnityConnectClient15GetCloudServiceEv
AKb:__Z18Transfer_BlittableI24GenerateTypeTreeTransferLb0EiEvRK29SerializationCommandArgumentsR31RuntimeSerializationCommandInfo
bTd:__ZN5physx20PxsConstraintProjectEPKNS_13PxsConstraintEbf
Vad:__ZN5physx7NpShape7setFlagENS_11PxShapeFlag4EnumEb
TDb:__ZL28SerializationCommandGroupForRK31TransferFunctionScriptingTraits17ScriptingClassPtr17ScriptingFieldPtrRK20CoreScriptingClasses
kib:__ZN10TagManager32RegisterDefaultTagsAndLayerMasksEv
bHk:_TweenRunner_1_StopTween_m2135918118_gshared
TIf:_Array_InternalArray__IndexOf_TisKeyCode_t2283395152_m1857821576_gshared
Fpj:_ValueCollection_get_Count_m4142113966_gshared
Swi:_PlayableHandle_SetDuration_m1990009798_AdjustorThunk
_Od:__ZN5physx2Sc35ParticleElementRbElementInteraction12onDeactivateEj
r_k:__ZN15dense_hashtableINSt3__24pairIK10KeyWrapperIPKcEP11Il2CppClassEES5_N6il2cpp5utils11StringUtils12StringHasherIS4_EEN14dense_hash_mapIS5_S8_SE_NS5_14EqualsComparerINSB_13VmStringUtils21CaseSensitiveComparerEEENS0_9allocatorIS9_EEE9SelectKeyESJ_SL_E15insert_noresizeERKS9_
puh:_SynchronizationLockException__ctor_m549086841
Q_i:__ZL105RectTransform_t3349966182_CustomAttributesCacheGenerator_RectTransform_INTERNAL_get_sizeDelta_m3975625099P21CustomAttributesCache
nye:__Z56Register_UnityEngine_Analytics_CustomEventData_AddUInt32v
vhf:_ArrayList_InsertRange_m1478230997
UEa:__ZN4gles8InitCapsEP7ApiGLESP12GraphicsCapsR16GfxDeviceLevelGL
Hoa:__ZN6prcore14BlitImageFloatERK14ImageReferenceRS0_NS0_8BlitModeE
ocf:_Swapper_EndInvoke_m677693941
lwa:__Z24CalculateVertexLightDataRK15SharedLightDataR14GfxVertexLight
nsi:_Matrix4x4_Equals_m1321236479_AdjustorThunk
Ti:_glEnable
Sra:__ZN15dense_hashtableINSt3__24pairIKiiEEi21InstanceIDHashFunctorN14dense_hash_mapIiiS4_NS0_8equal_toIiEE13stl_allocatorIS3_L18MemLabelIdentifier1ELi16EEE9SelectKeyES7_SA_E12maybe_shrinkEv
OXa:__ZNK25CameraStackRenderingState21GetImageEffectTextureEb
Lmh:_RuntimeMethodHandle__ctor_m2437574937_AdjustorThunk
Gwd:__ZN5physx2Sq8AABBTreeC2Ev
xAi:__ZL72RuntimeArray_CustomAttributesCacheGenerator_Array_get_Length_m1498215565P21CustomAttributesCache
Ttc:__Z35Transfer_Blittable_FixedBufferFieldI9JSONWriteiEvRK29SerializationCommandArgumentsR31RuntimeSerializationCommandInfo
n_i:__ZL99Transform_t3275118058_CustomAttributesCacheGenerator_Transform_INTERNAL_get_localPosition_m94028171P21CustomAttributesCache
Uyh:_UInt16_System_IConvertible_ToInt64_m2835280558_AdjustorThunk
Qxi:_Quaternion_GetHashCode_m2270520528_AdjustorThunk
ITi:__ZL53g_UnityEngine_Assembly_CustomAttributesCacheGeneratorP21CustomAttributesCache
aDk:_Predicate_1_BeginInvoke_m3926587117_gshared
BBb:__ZNSt3__26vectorI4PPtrI6ObjectE13stl_allocatorIS3_L18MemLabelIdentifier51ELi16EEE6assignINS_11__wrap_iterIPS3_EEEENS_9enable_ifIXaasr21__is_forward_iteratorIT_EE5valuesr16is_constructibleIS3_NS_15iterator_traitsISD_E9referenceEEE5valueEvE4typeESD_SD_
ry:__ZN26AnimatorControllerPlayable17ProcessRootMotionEP35AnimationPlayableEvaluationConstantP32AnimationPlayableEvaluationInputP33AnimationPlayableEvaluationOutput
ntg:_List_1_get_Item_m1231764300_gshared
oDh:__Z94RuntimeInvoker_Boolean_t3825574718_Int32_t2071877448_SByte_t454417549_ExceptionU26_t1467204777PFvvEPK10MethodInfoPvPS4_
e0e:_DefaultControls_CreateToggle_m1568873127
Yzg:_List_1__cctor_m1022807427_gshared
aDi:__ZL63KeyNotFoundException_t1722175009_CustomAttributesCacheGeneratorP21CustomAttributesCache
Dtj:_Dictionary_2_InitArrays_m2270022740_gshared
fof:_Convert_ToBoolean_m2188088811
aze:__ZN11UnityEngine7Connect15DeviceInfoEvent16CollectExtraInfoEv
ztl:__ZN6il2cpp2os11Environment22SetEnvironmentVariableERKNSt3__212basic_stringIcNS2_11char_traitsIcEENS2_9allocatorIcEEEESA_
IUh:__Z50RuntimeInvoker_AnimationOffsetPlayable_t1019600543PFvvEPK10MethodInfoPvPS4_
dWd:__ZN5physx2Gu10ConvexMeshD2Ev
Zrh:_UnicodeEncoding_GetChars_m3765282346
e$f:_IntPtr__ctor_m4104029105
NJi:__ZL114BinaryFormatter_t1866979105_CustomAttributesCacheGenerator_BinaryFormatter_get_DefaultSurrogateSelector_m219714691P21CustomAttributesCache
ebl:__ZN6il2cpp2gc19AppendOnlyGCHashMapIPK10Il2CppTypeP20Il2CppReflectionTypeNS_8metadata14Il2CppTypeHashENS7_26Il2CppTypeEqualityComparerEEC2Ev
Vck:_InternalEnumerator_1_System_Collections_IEnumerator_get_Current_m771161214_AdjustorThunk
Y7f:_MonoType_get_attributes_m1493788675
VEl:_atol
Hyl:__ZN6il2cpp6icalls8mscorlib6System10Reflection9FieldInfo25internal_from_handle_typeE12Il2CppIntPtrS5_
Dqf:_Convert_ToDouble_m4236754739
o2g:_SslClientStream_get_PrivateKeyCertSelectionDelegate_m3715949545
mXk:__ZN15dense_hashtableINSt3__24pairIK10KeyWrapperIPKcEP11Il2CppClassEES5_N6il2cpp5utils11StringUtils12StringHasherIS4_EEN14dense_hash_mapIS5_S8_SE_NS5_14EqualsComparerINSB_13VmStringUtils21CaseSensitiveComparerEEENS0_9allocatorIS9_EEE9SelectKeyESJ_SL_EC2EjRKSE_RKSJ_RKSN_
u1e:_Dropdown_CreateItem_m2702141380
YRg:_ReadOnlyCollection_1_IndexOf_m224962127_gshared
JDi:__ZL48Stack_t1043988394_CustomAttributesCacheGeneratorP21CustomAttributesCache
Gp:FUNCTION_TABLE_viifi
Jp:FUNCTION_TABLE_viiff
FT:__Z75AudioPlayableGraphExtensions_CUSTOM_INTERNAL_CALL_InternalCreateAudioOutputR14HPlayableGraphP12Il2CppStringP15HPlayableOutput
gQc:__ZNK5physx2Sc8ShapeSim10getBodySimEv
V$h:__Z59RuntimeInvoker_Boolean_t3825574718_ResourceInfo_t3933049236PFvvEPK10MethodInfoPvPS4_
lgi:_MonoEvent_GetAddMethod_m4289563120
PBi:__ZL37Type_t_CustomAttributesCacheGeneratorP21CustomAttributesCache
Mpe:_UNITY_tt_face_free_hdmx
xdl:__ZN15dense_hashtableINSt3__24pairIK10KeyWrapperINS1_IP11Il2CppClassjEEES4_EES6_N6il2cpp8metadata14ArrayClassHashEN14dense_hash_mapIS6_S4_SB_NS6_14EqualsComparerINSA_17ArrayClassCompareEEENS0_9allocatorIS8_EEE9SelectKeyESF_SH_E5clearEv
LWk:__ZNSt3__218uninitialized_copyIPNS_4pairIK10KeyWrapperIPK11Il2CppClassEPKcEESB_EET0_T_SD_SC_
X4k:__ZN6il2cpp2vm14TypeNameParser5ParseEb
DSj:_ReflectionMethodsCache__ctor_m1835220
BMk:_RefreshScene_Refresh_m2563309098
hDi:__ZL71SynchronizedArrayListWrapper_t3317806524_CustomAttributesCacheGeneratorP21CustomAttributesCache
t4c:__ZN5physx6shdfnd5ArrayIPvNS0_19ReflectionAllocatorINS_2Cm5BlockIhLj128EEEEEE15growAndPushBackERKS2_
HCe:__ZN23UnityPurchasingSettingsC2Ev
Ryf:_Double_ToString_m1864290157
vyb:__ZNK9Transform13GetWorldScaleEv
lMh:__Z50RuntimeInvoker_Int64_t909078037_Double_t4078015681PFvvEPK10MethodInfoPvPS4_
vVc:__ZN5physx2Sc11Interaction10onActivateEj
_Ic:__ZNK5physx2Gu29EPASupportMapPairRelativeImplINS0_4BoxVENS0_11ConvexHullVEE6getDirEv
Bbd:__ZN5physx14NpShapeManager15setupSceneQueryERNS_2Sq17SceneQueryManagerERKNS_12PxRigidActorERKNS_7NpShapeE
o8:__ZNSt3__26__treeINS_12__value_typeI18VertexChannelsInfo16MeshVertexFormatEENS_19__map_value_compareIS2_S4_NS_4lessIS2_EELb1EEE13stl_allocatorIS4_L18MemLabelIdentifier16ELi16EEE12__find_equalIS2_EERPNS_16__tree_node_baseIPvEENS_21__tree_const_iteratorIS4_PNS_11__tree_nodeIS4_SF_EEiEESI_RKT_
wJg:_Collection_1_System_Collections_IList_get_Item_m1122792492_gshared
hva:__ZL37stbir__resample_horizontal_downsampleP11stbir__infoiPf
LFg:__ZN21InterfaceFuncInvoker1Ib18Color32_t874517518E6InvokeEjP11Il2CppClassP12Il2CppObjectS0_
osa:__ZNK5Unity9Component38MarkGameObjectAndComponentDependenciesER27GarbageCollectorThreadState
JFj:_Animator_get_hasBoundPlayables_m3670407842
W_:__ZL16OutOfMemoryErrorjj18MemLabelIdentifieriPKc
eYc:__ZNK5physx2Sc9ClothCore23getExternalAccelerationEv
Zif:_SynchronizedArrayListWrapper_Contains_m2259439339
fR:__ZNK7Texture21GetShadowSamplingModeEv
b4:__ZNK11TypeManager15ClassNameToRTTIEPKcb
cIc:__ZN5physx2Gu13coarseCullingERKNS_6PxVec3ES3_ffRKNS_10PxTriangleE
hQk:__ZL25UnresolvedVirtualCall_187P12Il2CppObject20TimeSpan_t3430258949PK10MethodInfo
Lda:__ZN13ScreenManager21OnWindowRegainedFocusEv
QRb:__Z18Transfer_BlittableI18StreamedBinaryReadILb0EELb1EdEvRK29SerializationCommandArgumentsR31RuntimeSerializationCommandInfo
NKj:_WillRenderCanvases_BeginInvoke_m1914028027
aXf:_Guid__ctor_m2599802704
K1f:_FileStream_get_CanRead_m4148920720
BEe:__ZN13RuntimeStaticINSt3__26vectorIPN5physx15PxVehicleWheelsENS0_9allocatorIS4_EEEELb0EE13StaticDestroyEPv
Y3h:__Z31RuntimeInvoker_Link_t2723257478PFvvEPK10MethodInfoPvPS4_
APd:__ZN5physx2Sc5Scene29processNarrowPhaseTouchEventsEv
xHa:__ZN4crnd12symbol_codec32decode_receive_static_data_modelERNS_25static_huffman_data_modelE
H0b:__ZN18ScriptingArguments8AddFloatEf
vVf:_GregorianCalendar_set_CalendarType_m2438362222
A$e:_FloatTween_get_targetValue_m2120061648_AdjustorThunk
VGh:__Z44RuntimeInvoker_RuntimeTypeHandle_t2330101084PFvvEPK10MethodInfoPvPS4_
FDf:_Array_InternalArray__ICollection_Contains_TisVector2_t2243707579_m3625698589_gshared
h_c:__ZN5physx6shdfnd5ArrayIPvNS0_15InlineAllocatorILj256ENS0_19ReflectionAllocatorINS_18NpArticulationLinkEEEEEE15growAndPushBackERKS2_
Luc:__Z18Transfer_BlittableI9JSONWriteLb0EaEvRK29SerializationCommandArgumentsR31RuntimeSerializationCommandInfo
eDh:__Z45RuntimeInvoker_SByte_t454417549_RuntimeObjectPFvvEPK10MethodInfoPvPS4_
YU:__ZN11UnityEngine15CloudWebService14DataDispatcher34OnSessionContainerArchivedAndReadyERNS0_16SessionContainerE
eWf:_NumberFormatInfo_GetFormat_m3247563525
CNc:__ZNK5physx3Cct15ObstacleContext11getObstacleEj
mYg:_CipherSuiteCollection__ctor_m2154226461
IMb:__Z18Transfer_BlittableI19StreamedBinaryWriteILb0EELb0E8Vector3fEvRK29SerializationCommandArgumentsR31RuntimeSerializationCommandInfo
hqk:_RectOffset__ctor_m2227510254
RTb:__ZN14SafeBinaryRead19TransferSTLStyleMapINSt3__23mapIN4core12basic_stringIcNS3_20StringStorageDefaultIcEEEEiNS1_4lessIS7_EENS1_9allocatorINS1_4pairIKS7_iEEEEEEEEvRT_17TransferMetaFlags
f9k:__ZN15dense_hashtableINSt3__24pairIK10KeyWrapperINS1_IPK11Il2CppImageP11Il2CppClassEEEjEES9_17ReflectionMapHashIS8_EN14dense_hash_mapIS9_jSD_NS9_14EqualsComparerINS0_8equal_toIS8_EEEENS0_9allocatorISB_EEE9SelectKeyESI_SK_ED2Ev
the:_gray_move_to
sph:_DSAParameters_t1872138834_marshal_pinvoke
FPh:__Z37RuntimeInvoker_ContentType_t859870085PFvvEPK10MethodInfoPvPS4_
JKg:_Collection_1_System_Collections_IEnumerable_GetEnumerator_m4174600764_gshared
P3j:_ConstructionCall_InitDictionary_m4046452035
$9k:__ZN6il2cpp2vm10Reflection14GetEventObjectEP11Il2CppClassPK9EventInfo
FZg:_TlsStream_Write_m2271546135
Gbc:__Z30RegisterValidateMethodCallbackiPF18ScriptingMethodPtrS_17ScriptingClassPtrP6ObjectEPKc
lfa:__ZN20LocalFileSystemPosixD0Ev
m3i:__ZL133AnimatorControllerPlayable_t1744083903_CustomAttributesCacheGenerator_AnimatorControllerPlayable_INTERNAL_CALL_GetFloatID_m1278007428P21CustomAttributesCache
OBf:_CultureInfo_ConstructInternalLocaleFromCurrentLocale_m1342751405
crh:_Latin1Encoding_GetString_m3553289597
eAd:__ZN5physx13IslandManager6resizeEj
Rie:_tt_cmap_init
Ta:invoke_viidi
Mkj:_Enumerator_get_Current_m1020413567_AdjustorThunk
Mqg:_List_1_System_Collections_IList_get_IsFixedSize_m1122077912_gshared
Tll:__ZN15dense_hashtableI10KeyWrapperIP18Il2CppGenericClassES3_N6il2cpp8metadata22Il2CppGenericClassHashEN14dense_hash_setIS3_S6_NS3_14EqualsComparerINS5_25Il2CppGenericClassCompareEEENSt3__29allocatorIS3_EEE8IdentityESA_SD_E12maybe_shrinkEv
l0b:__ZN9TextAssetC2E18MemLabelIdentifier18ObjectCreationMode
$Uc:__ZN5physx6shdfnd8PoolBaseINS_2Cm5BlockIPvLj16EEENS0_19ReflectionAllocatorIS5_EEE17releaseEmptySlabsEv
Gpg:_List_1_System_Collections_ICollection_CopyTo_m2020941110_gshared
TOj:_Display_RecreateDisplayList_m3412638488
J9k:__ZN15dense_hashtableINSt3__24pairIK10KeyWrapperINS1_IPK12PropertyInfoP11Il2CppClassEEEjEES9_17ReflectionMapHashIS8_EN14dense_hash_mapIS9_jSD_NS9_14EqualsComparerINS0_8equal_toIS8_EEEENS0_9allocatorISB_EEE9SelectKeyESI_SK_E8min_sizeEjj
IPi:__ZL79Convert_t2607082565_CustomAttributesCacheGenerator_Convert_ToUInt64_m2215781574P21CustomAttributesCache
RSl:_emscripten_glCheckFramebufferStatus__wrapper
Jel:__ZNK15dense_hashtableINSt3__24pairIK10KeyWrapperIP11Il2CppClassES4_EES5_N6il2cpp8metadata16SZArrayClassHashEN14dense_hash_mapIS5_S4_SA_NS5_14EqualsComparerINS9_19SZArrayClassCompareEEENS0_9allocatorIS7_EEE9SelectKeyESE_SG_E12test_deletedEj
mOc:__ZL20updateMassAndInertiabRN5physx11PxRigidBodyEPKfjPKNS_6PxVec3Eb
rxc:__Z18Transfer_BlittableI8JSONReadLb0EdEvRK29SerializationCommandArgumentsR31RuntimeSerializationCommandInfo
s6d:__ZN5physx24NpPtrTableStorageManagerC2Ev
Jej:__ZL98Graphic_t2426225576_CustomAttributesCacheGenerator_Graphic_get_useLegacyMeshGeneration_m1366444625P21CustomAttributesCache
p$h:__Z83RuntimeInvoker_Boolean_t3825574718_NavigationU26_t3929175072_Navigation_t1571958496PFvvEPK10MethodInfoPvPS4_
Ewe:__Z44Register_UnityEngine_Canvas_set_sortingOrderv
Juh:_Thread_ClrState_m822263449
Nbg:_SimpleCollator_LastIndexOfOrdinalIgnoreCase_m550798345
e0k:__ZN6il2cpp2vm21ThreadPoolCompartment13QueueWorkItemEP17Il2CppAsyncResult
rAa:__ZNK9GfxDevice13GetViewMatrixEv
Xsd:__ZN5physx7NpScene15flushSimulationEb
P9c:__ZN5physx6shdfnd8PoolBaseINS_10NpMaterialENS0_19ReflectionAllocatorIS2_EEE12allocateSlabEv
Y4:__ZN8TypeTree8BlobReadERPKhS1_ib
JZd:__ZN5physx18ReducedVertexCloudC2EPKNS_6PxVec3Ej
Yqj:_Dictionary_2_System_Collections_Generic_ICollectionU3CSystem_Collections_Generic_KeyValuePairU3CTKeyU2CTValueU3EU3E_Remove_m3080541539_gshared
Lsa:__ZN18LoadSceneOperation23GetAllowSceneActivationEv
wBj:_AnimationPlayableOutput_op_Implicit_m1147972631
hjb:__ZN6CameraD0Ev
mdg:_ModulusRing_Multiply_m386339435
bba:__ZN31CanvasBatchIntermediateRenderer16StaticInitializeEPv
M3e:_GraphicRaycaster_U3CRaycastU3Em__0_m3971200721
wOg:_ReadOnlyCollection_1_System_Collections_IList_RemoveAt_m3004588099_gshared
Dx:__ZN7mecanim12AndValueMaskILb0EEEvPKNS_14ValueArrayMaskEPS1_
jqf:_Decimal_op_Implicit_m4246329390
Ukg:_ArgumentNullException__ctor_m2252076819
P8a:__ZN10GameObjectC2E18MemLabelIdentifier18ObjectCreationMode
vge:_raccess_guess_apple_double
F1h:__Z70RuntimeInvoker_Void_t1841601450_CustomAttributeNamedArgument_t94157543PFvvEPK10MethodInfoPvPS4_
V4g:_ListDictionary_GetEnumerator_m1511032609
Eai:_TypeBuilder_get_FullName_m1626507516
ilh:_SerializationInfo__ctor_m4016423422
tIa:__ZL18ProgramUniform1uivPK7ApiGLESjiihPKv
Q2b:__ZN14Texture2DArray13RebuildMipMapEv
lWk:__ZN13Il2CppHashSetIPK17Il2CppGenericInstN6il2cpp8metadata21Il2CppGenericInstHashENS4_24Il2CppGenericInstCompareENSt3__29allocatorI10KeyWrapperIS2_EEEEC2EjRKS5_RKS6_
GGb:__Z18Transfer_BlittableI14SafeBinaryReadLb1EaEvRK29SerializationCommandArgumentsR31RuntimeSerializationCommandInfo
Dql:__ZN6il2cpp2gc16GarbageCollector14RemoveWeakLinkEPPv
TXb:__ZN9ShaderLab20SerializedSubProgram14AddVectorParamEPKcii15ShaderParamTypei
vsg:_List_1_System_Collections_Generic_IEnumerableU3CTU3E_GetEnumerator_m3123730956_gshared
Iue:__ZN2UI14CanvasRenderer12CleanupClassEv
d2c:__ZNK5physx19NpRigidBodyTemplateINS_18PxArticulationLinkEE27getMinCCDAdvanceCoefficientEv
dRg:_ReadOnlyCollection_1_System_Collections_IEnumerable_GetEnumerator_m1734360860_gshared
qvj:_DefaultComparer__ctor_m1052417779_gshared
lNe:_SystemException__ctor_m2688248668
w_j:_ResourceSet_ReadResources_m1669023823
bjg:_PKCS12_RemoveCertificate_m1590055870
vfl:__ZN6il2cpp2vm6Thread7SetNameEP12Il2CppThreadP12Il2CppString
kFi:__ZL117GenericTypeParameterBuilder_t1370236603_CustomAttributesCacheGenerator_GenericTypeParameterBuilder_Equals_m2498927509P21CustomAttributesCache
a$i:__ZL107Collision_t2876846408_CustomAttributesCacheGenerator_Collision_t2876846408____frictionForceSum_PropertyInfoP21CustomAttributesCache
Bq:__ZN6Object23VirtualRedirectTransferER19StreamedBinaryWriteILb1EE
dga:__ZN13ScreenManager18SetAllowCursorLockEb
qW:__ZN11UnityEngine15CloudWebService10RestClientINS0_23WebRequestRestHeaderMapEE16SetRequestHeaderERKN4core12basic_stringIcNS4_20StringStorageDefaultIcEEEESA_
rCb:__ZN30RuntimeInitializeOnLoadManager15ClassMethodInfo8TransferI14SafeBinaryReadEEvRT_
yYc:__ZNK5physx2Sc10ClothShape8isActiveEv
Ghj:__ZL73CanvasScaler_t2574720772_CustomAttributesCacheGenerator_m_ScreenMatchModeP21CustomAttributesCache
QS:__ZL22InitializeModule_Audiov
JAd:__ZN5physx2Sq11PruningPoolD0Ev
$db:__ZN16MemoryFileSystem8IsLockedERK13FileEntryData
BId:__ZN3MBP15removeBoxPrunerEj
Ywk:_Vector2_get_Item_m2792130561_AdjustorThunk
Ufi:_MonoCMethod_Invoke_m931478014
OEh:__Z86RuntimeInvoker_Int32_t2071877448_Int16_t4041245914_Int32_t2071877448_Int32_t2071877448PFvvEPK10MethodInfoPvPS4_
D_j:_SatelliteContractVersionAttribute__ctor_m2605651717
Bl:_emscripten_glBindRenderbuffer
Hqc:__Z32GUIStyle_Set_Custom_PropClippingP12Il2CppObjecti
QRe:_DecoderExceptionFallbackBuffer_GetNextChar_m1727394816
Mwl:_GC_dirty_init
Abf:_Array_Copy_m1969461849
Ckh:_MessageFormatter_ReadMethodResponse_m4134629501
qnl:__ZN6il2cpp2vm5Field14GetValueObjectEP9FieldInfoP12Il2CppObject
aue:__ZNK2UI6Canvas16GetTargetDisplayEv
qHj:_AudioClipPlayable_Equals_m2497502457_AdjustorThunk
uHk:_ListPool_1__cctor_m709904475_gshared
Zzf:_Environment_get_OSVersion_m1247315981
CFc:__ZL15SweepBoxCapsulePKN5physx3Cct9SweepTestEPKNS0_11SweptVolumeEPKNS0_11TouchedGeomERKNS_14PxExtendedVec3ERKNS_6PxVec3ERNS0_12SweptContactE
M8:__ZN6Object17FindObjectsOfTypeEPKN5Unity4TypeER13dynamic_arrayIPS_Lj4EEb
C7b:__ZNSt3__26vectorINS_4pairIiiEE13stl_allocatorIS2_L18MemLabelIdentifier1ELi16EEE21__push_back_slow_pathIKS2_EEvRT_
Qch:_Capture_get_Length_m1952322390
svc:__ZN9JSONWrite8TransferI4PPtrI9Texture2DEEEvRT_PKc17TransferMetaFlags
qDb:__ZN13MonoBehaviour17RemoveFromManagerEv
fUd:__ZN5physx2Sc19ParticlePacketShapeD2Ev
Rue:__ZL23RegisterModuleICalls_UIv
Stb:__ZL11DecodeValuePPKcS0_
qmj:_ShimEnumerator_MoveNext_m2013866013_gshared
IZ:__ZN13MemoryManagerC2Ev
qLa:__ZN12SkinMeshInfo10DeallocateEPS_
lwk:_Transform_SetParent_m1963830867
J1i:__ZL66AnimationOffsetPlayable_t1019600543_CustomAttributesCacheGeneratorP21CustomAttributesCache
VSa:__ZN20ArchiveStorageReader28AcquireAndPrefillUnusedBlockEjPNS_11CacheResultE
J2b:__Z12NHxRoughnessIA4_tEvP9Texture2DPT_iiii
tvk:_Touch_get_phase_m196706494_AdjustorThunk
HOk:__ZL25UnresolvedVirtualCall_105P12Il2CppObjecthPK10MethodInfo
sgh:_MethodDictionary_get_SyncRoot_m673971424
l9:__ZN18AsyncUploadManagerD2Ev
HZb:__ZN9Transform5ResetEv
tMb:__Z22TransferField_NonArrayI24GenerateTypeTreeTransfer16Converter_StringEvRK23StaticTransferFieldInfoR31RuntimeSerializationCommandInfoRT0_
Iie:_UNITY_FT_CMap_New
kIj:_AudioMixerPlayable_Equals_m3014217409_AdjustorThunk
A6g:_HttpWebRequest_System_Runtime_Serialization_ISerializable_GetObjectData_m3671622902
Vfa:__Z17MainLoopKeepalivePv
SXc:__ZN5physx7NpScene16addActorInternalERNS_7PxActorE
Kik:_MatchCollection__ctor_m1944681790
nnc:__ZN18CrashReportHandler25UnregisterGlobalCallbacksEv
VFe:_HMACSHA512__ctor_m1667460019
L5a:__Z24ScheduleCullingAllGroupsR8JobFenceRK22SceneCullingParameters4PPtrI6CameraERK13CullingOutputRK13dynamic_arrayIP12CullingGroupLj4EERKS_
NCl:_printf_core
xKe:_ToBase64Transform_get_OutputBlockSize_m949275583
kLg:_Collection_1_set_Item_m3254085220_gshared
X4a:__Z14CalcHullBoundsPK8Vector3fPKhhRK5PlaneRK10Matrix4x4fR10MinMaxAABB
Cih:_RealProxy__ctor_m2147093603
Uok:_RaycastHit2D_get_point_m442317739_AdjustorThunk
gQ:__ZNK14SoundHandleAPI12GetFrequencyEv
ayg:_List_1__ctor_m3511181530_gshared
KZa:__Z19SetupLODFadeKeywordR17ShaderPassContexti
uie:_UNITY_FT_Stream_ReadFields
HOg:_ReadOnlyCollection_1_get_Count_m2180604490_gshared
kVf:_DateTimeFormatInfo_GetAllDateTimePatternsInternal_m1587126173
qvl:_GC_set_fl_marks
LKa:__ZL25CheckCopyTextureArgumentsRK7ApiGLESP11GLESTextureS3_
e9:__ZN13dynamic_arrayI26EnlightenSystemInformationLj8EE6insertEPS0_PKS0_S4_
mie:_tt_name_entry_ascii_from_utf16
a9f:_MulticastNotSupportedException__ctor_m2164514827
etf:_DateTime_System_IConvertible_ToChar_m2489529194_AdjustorThunk
YLb:__Z29Transfer_Blittable_ArrayFieldI24GenerateTypeTreeTransferyEvRT_R9ArrayInfoRK23StaticTransferFieldInfo
RM:__ZN4FMOD7SystemI9playSoundE17FMOD_CHANNELINDEXPNS_5SoundEbPPNS_7ChannelE
N9d:__ZN13PhysicsModule31GetColliderComponentsInChildrenERK10GameObjectbbR13dynamic_arrayIPN5Unity9ComponentELj4EE
SAi:__ZL74RuntimeArray_CustomAttributesCacheGenerator_Array_BinarySearch_m1368352453P21CustomAttributesCache
lZ:__GLOBAL__sub_I_runtime_graphics_mesh2_lump_cpp
e9i:__ZL68PreferBinarySerialization_t2472773525_CustomAttributesCacheGeneratorP21CustomAttributesCache
ndd:__ZNK5physx7NpCloth16getStretchConfigENS_22PxClothFabricPhaseType4EnumE
QOi:__ZL78Convert_t2607082565_CustomAttributesCacheGenerator_Convert_ToSByte_m1183867428P21CustomAttributesCache
Cx:__ZN27AnimationLayerMixerPlayable17LayerMixerProcessEP35AnimationPlayableEvaluationConstantP32AnimationPlayableEvaluationInputP33AnimationPlayableEvaluationOutputM17AnimationPlayableFvS1_S3_S5_EMS_FvS1_S3_S5_ESA_MS_FvS5_S1_S3_S5_ifE
U4k:__ZN6il2cpp2os4File4ReadEPNS0_10FileHandleEPciPi
tL:__ZN12AudioManager23VirtualRedirectTransferER18StreamedBinaryReadILb0EE
ppg:_List_1_Remove_m2616693989_gshared
gFl:_realloc
$lc:__Z57Register_UnityEngine_Transform_INTERNAL_get_localRotationv
mLh:__Z65RuntimeInvoker_Void_t1841601450_RuntimeObject_DateTime_t693205669PFvvEPK10MethodInfoPvPS4_
jxh:_Type_get_IsInterface_m3583817465
eCb:__ZN30RuntimeInitializeOnLoadManager23VirtualRedirectTransferER17RemapPPtrTransfer
AJl:dynCall_viif
Egi:_MonoField_get_DeclaringType_m1591666235
P5j:_InternalEnumerator_1__ctor_m2111763266_AdjustorThunk
jfh:_Enumerator_MoveNext_m4234629003
Zme:_cf2_hint_lock
_Sd:__ZN5physx2Sc24ConstraintProjectionTree11projectPoseERNS0_19ConstraintGroupNodeE
MJb:__ZL26Transfer_SimpleNativeClassI17RemapPPtrTransfer8GradientLb0EEvRK29SerializationCommandArgumentsR31RuntimeSerializationCommandInfo
GAi:__ZL69RuntimeArray_CustomAttributesCacheGenerator_Array_GetValue_m518505780P21CustomAttributesCache
sNh:__Z52RuntimeInvoker_UInt64_t2909196914_Single_t2076509932PFvvEPK10MethodInfoPvPS4_
f0h:__Z59RuntimeInvoker_Boolean_t3825574718_RaycastHit2D_t4063908774PFvvEPK10MethodInfoPvPS4_
WOi:__ZL78Convert_t2607082565_CustomAttributesCacheGenerator_Convert_ToSByte_m1880147062P21CustomAttributesCache
V9d:__ZN13PhysicsModule29GetColliderMaterialInstanceIDER8Collider
Z7f:_MonoType_GetDefaultConstructor_m925465120
H1c:__ZNK5physx20NpRigidActorTemplateINS_18PxArticulationLinkEE14getConstraintsEPPNS_12PxConstraintEjj
_W:__ZN13UploadHandlerD2Ev
AHl:dynCall_viiiiiffi
hd:_emscripten_glBlendFuncSeparate
eci:_GenericTypeParameterBuilder_IsPrimitiveImpl_m1198748291
u1:__Z20scripting_string_newPKc
tkc:__Z43Material_CUSTOM_Internal_CreateWithMaterialP12Il2CppObjectS0_
F0f:_Directory_GetCurrentDirectory_m44486537
E9i:__ZL56UnityEventBase_t828812576_CustomAttributesCacheGeneratorP21CustomAttributesCache
cCg:_Collection_1_System_Collections_ICollection_CopyTo_m1047946700_gshared
srf:_Convert_ToInt64_m4057339019
f2c:__ZNK5physx19NpRigidBodyTemplateINS_18PxArticulationLinkEE27getMaxDepenetrationVelocityEv
M8g:_AsnEncodedData_Default_m4197142414
wfl:__ZN6il2cpp2vm6Thread13MemoryBarrierEv
$Wd:__ZThn8_N5physx2Gu11HeightFieldD1Ev
gel:__ZNSt3__218uninitialized_copyIPNS_4pairIK10KeyWrapperIP11Il2CppClassES4_EES8_EET0_T_SA_S9_
ynd:__ZN5physx19NpRigidBodyTemplateINS_14PxRigidDynamicEED0Ev
X$c:__ZNK5physx19PxArticulationJoint19getConcreteTypeNameEv
LC:__ZNSt3__26__sortIRPFbPKN8Animator11AnimatorJobES4_EPS4_EEvT0_S9_T_
JK:__ZN17AudioCustomFilterD2Ev
ZI:__Z91Register_UnityEngine_Animations_AnimatorControllerPlayable_INTERNAL_CALL_ResetTriggerStringv
CPk:__ZL25UnresolvedVirtualCall_154P12Il2CppObject40CustomAttributeTypedArgument_t1498197914S1_PK10MethodInfo
OZb:__ZN9Transform16ResetReplacementEv
kpc:__ZNK8GUIStyle13GetLineHeightEv
VJa:__ZN18GfxFramebufferGLES18ReleaseFramebufferEP17RenderSurfaceBaseP14GfxContextGLES
Y1j:_Context_GetDynamicPropertyCollection_m1987747444
Z9g:_X509Certificate2_get_Version_m1927399907
q5b:__ZN13ProduceHelperI6CameraLb0EE7ProduceE18MemLabelIdentifier18ObjectCreationMode
s5e:_Image_RadialCut_m3229543088
wY:__ZN19CloudServiceHandler34HandleSaveFileWebRequestPlayerLoopEv
Ty:__ZN7mecanim21ValueArrayReverseCopyEPKNS_18ValueArrayConstantEPKNS_10ValueArrayES2_PS3_PKi
uK:__Z31GetParentSampleClipFromInstancePN11SoundHandle8InstanceE
O0b:__ZNK28RectTransformPropertyBinding13GetFloatValueERKN11UnityEngine9Animation10BoundCurveE
bLc:__ZN5physx11PxHitBufferINS_12PxOverlapHitEE14processTouchesEPKS1_j
N7a:__ZN6Camera22StandaloneCustomRenderENS_10RenderFlagEP6ShaderRKN4core12basic_stringIcNS3_20StringStorageDefaultIcEEEEPNS_21PerformRenderFunctionE
Eod:__ZL22addOrRemoveRigidObjectILb0ELb0ELb0ELb1EN5physx3Scb11RigidStaticEEvRNS0_2Sc5SceneERT3_b
BBl:__ZN6il2cpp2os16ThreadLocalValue8GetValueEPPv
y_k:__ZN6il2cpp2vm13MetadataCache14GetGenericInstEPKPK10Il2CppTypej
yJe:_SHA384Managed_Initialize_m712692291
K6j:_InternalEnumerator_1__ctor_m2688327768_gshared
y0j:_ChannelInfo__ctor_m2502026239
Jd:_glUniform1uiv
lHi:__ZL60CallingConvention_t3354538265_CustomAttributesCacheGeneratorP21CustomAttributesCache
smc:__Z52Object_CUSTOM_GetOffsetOfInstanceIDInCPlusPlusObjectv
Zvk:_Transform_get_right_m440863970
lVc:__ZN5physx6shdfnd4sortIPvNS0_4LessIS2_EENS0_19ReflectionAllocatorINS_2Cm5BlockIS2_Lj8EEEEEEEvPT_jRKT0_RKT1_j
xR:__ZN9AudioClip15InitializeClassEv
w9c:__ZNK5physx9NpPhysics11getNbShapesEv
rq:setThrew
B2b:__ZL21BuildEmptyCubeTexturePKci11ColorRGBA3217TextureColorSpace
UTb:__ZN14SafeBinaryRead21TransferSTLStyleArrayINSt3__26vectorIN9ShaderLab20SerializedSubProgramENS1_9allocatorIS4_EEEEEEvRT_17TransferMetaFlags
tXe:_StandaloneInputModule_set_cancelButton_m2642677329
ywc:__Z15Transfer_StringI8JSONReadLb1EEvRK29SerializationCommandArgumentsR31RuntimeSerializationCommandInfo
bqa:__ZN6prcoreL17RemapGenericFloatI17TexFormatRGBFloat15TexFormatRGHalfEEvPKNS_9InnerInfoE
a$a:__Z25DoForwardShaderRenderLoopR17RenderLoopContextR13dynamic_arrayI16RenderObjectDataLj4EERK11CullResultsbbbN6Camera10RenderFlagE
ESf:_GameObject_GetComponent_TisRuntimeObject_m2812611596_gshared
Mhe:_sfnt_load_face
kee:_UNITY_FT_Render_Glyph_Internal
Ysh:_UTF8Encoding_GetByteCount_m2372933408
V1j:_Context_get_NeedsContextSink_m1907794755
Dhe:_UNITY_ft_service_list_lookup
$Ug:_ARC4Managed_GenerateKey_m716135508
FJb:__Z18Transfer_BlittableI17RemapPPtrTransferLb1E11ColorRGBA32EvRK29SerializationCommandArgumentsR31RuntimeSerializationCommandInfo
Poc:__ZN5IMGUI21SelectReceivingWindowER8GUIStateb
uEc:__ZN5physx2Gu20intersectTriangleBoxERKNS_6PxVec3ES3_S3_S3_S3_
eG:__ZNK26AnimatorControllerPlayable17ValidateGoToStateERiS0_
r8c:__ZN5physx10NpMaterial8setFlagsENS_7PxFlagsINS_14PxMaterialFlag4EnumEtEE
rfb:__ZN13BaseAllocator13TryDeallocateEPv
kOb:__Z29Transfer_Blittable_ArrayFieldI19StreamedBinaryWriteILb0EEfEvRT_R9ArrayInfoRK23StaticTransferFieldInfo
kbf:_Array_CreateInstance_m1054139389
Hmi:_GUIStyleState_GetGUIStyleState_m2816150617
n7j:_InternalEnumerator_1__ctor_m967618647_AdjustorThunk
Jdb:__ZN16MemoryFileSystem5WriteER13FileEntryDatayPvPy
MXh:__Z74RuntimeInvoker_Vector4_t2243707581_Vector4_t2243707581_Vector4_t2243707581PFvvEPK10MethodInfoPvPS4_
Sqj:_Dictionary_2_System_Collections_ICollection_get_IsSynchronized_m1738433079_gshared
Rjb:__ZNSt3__26vectorIN12FlareManager10FlareEntryENS_9allocatorIS2_EEE21__push_back_slow_pathIKS2_EEvRT_
e8h:_Default_check_arguments_with_score_m1714931543
uMj:_Collision_get_impactForceSum_m521972354
VEe:_SHA1_Create_m4086509717
IFk:_UnityEvent_1_GetDelegate_m3098147632_gshared
B0h:__Z111RuntimeInvoker_Int32_t2071877448_RuntimeObject_AnimatorClipInfo_t3905751349_Int32_t2071877448_Int32_t2071877448PFvvEPK10MethodInfoPvPS4_
nhi:_MonoMethodInfo_GetMethodInfo_m3298558752
eL:__ZN13AudioListener17RemoveFromManagerEv
ce:_glAttachShader
y1e:_Dropdown_SetAlpha_m2769981009
M4d:__ZN5physx6shdfnd8internal8HashBaseINS0_4PairIKtPKcEEtNS0_4HashItEENS1_11HashMapBaseItS6_S9_NS_7profile26WrapperReflectionAllocatorIS6_EEE6GetKeyESD_Lb1EE6createERS4_Rb
EYa:__ZNK6Camera19GetProjectionMatrixEv
ECk:_Predicate_1_BeginInvoke_m1856151290_gshared
wUd:__ZNK5physx2Cm12DelegateTaskINS_2Sc5SceneEXadL_ZNS3_18clothPreprocessingEPNS_10PxBaseTaskEEEE7getNameEv
Qtd:__ZNK5physx7NpScene24getWakeCounterResetValueEv
Pmd:__ZN5physx20NpRigidActorTemplateINS_14PxRigidDynamicEE17resolveReferencesERNS_24PxDeserializationContextE
yPg:_ReadOnlyCollection_1_System_Collections_IList_Contains_m673434054_gshared
Rxf:_StackTrace__ctor_m2404985356
gLd:__ZN5physx2Gu32PCMConvexVsMeshContactGeneration20generateLastContactsEv
k3:__Z38PreallocateObjectFromPersistentManagerib
stf:_DateTime_System_IConvertible_ToSingle_m3927769066
B8c:__ZThn12_N5physx10NpMaterialD0Ev
W$i:__ZL84Collider_t3497673348_CustomAttributesCacheGenerator_Collider_get_enabled_m3927623311P21CustomAttributesCache
efh:_CostDelegate__ctor_m80452417
nZ:__GLOBAL__sub_I_runtime_interfaces_lump_cpp
Ypb:__ZNK9Texture2D20GetUnscaledTextureIDEv
yEd:__ZN5physx2Gu29EPASupportMapPairRelativeImplINS0_9TriangleVENS0_8CapsuleVEED0Ev
K_d:__ZN5physx6shdfnd4sortIjNS_19SortBoundsPredicateENS0_19ReflectionAllocatorIjEEEEvPT_jRKT0_RKT1_j
JPl:_glFenceSync__wrapper
R8f:_MonoType_get_ContainsGenericParameters_m3229732653
aJ:__Z103Register_UnityEngine_Animations_AnimatorControllerPlayable_INTERNAL_CALL_IsParameterControlledByCurveIDv
$ad:__ZN5physx7NpShape14onRefCountZeroEv
tBg:_Queue_1_Peek_m1463479953_gshared
RIf:_Array_InternalArray__IndexOf_TisContactPoint_t1376425630_m3651364246_gshared
dfj:__ZL53InputField_t1631627530_CustomAttributesCacheGeneratorP21CustomAttributesCache
h_d:__ZL15TestContainmentRKN5physx6PxVec3EPKfjPKNS_2Gu15HullPolygonDataE
ZYe:_ButtonClickedEvent__ctor_m938038541
GSb:__ZN18StreamedBinaryReadILb0EE21TransferSTLStyleArrayI13dynamic_arrayI4AABBLj4EEEEvRT_17TransferMetaFlags
ULh:__Z119RuntimeInvoker_Int32_t2071877448_RuntimeObject_Int32_t2071877448_Int32_t2071877448_CharU26_t1894467670_SByte_t454417549PFvvEPK10MethodInfoPvPS4_
Oyh:_UInt16_System_IConvertible_ToDouble_m4100549304_AdjustorThunk
nta:__Z29ClearRepeatingLogMessageStatev
iXd:__ZN5physx2Gu11HeightField12loadFromDescERKNS_17PxHeightFieldDescEb
cOe:_Single_System_IConvertible_ToInt16_m962677079
A8:__ZN21EnlightenSceneMappingaSERKS_
PJg:_Collection_1_SetItem_m546457615_gshared
TBl:__ZNK6il2cpp8metadata21Il2CppGenericInstHashclEPK17Il2CppGenericInst
qOe:_Single_System_IConvertible_ToUInt32_m2447833283
KOa:__ZN7ApiGLESD2Ev
y9a:__ZN9Transform47ClearTransformHierarchyAndApplyToSerializedDataEv
Xak:_InternalEnumerator_1_get_Current_m4083613828_AdjustorThunk
Wqd:__ZN5physx6shdfnd8PoolBaseINS_2Gu30LargePersistentContactManifoldENS0_19ReflectionAllocatorIS3_EEE12allocateSlabEv
j8c:__ZNK5physx10NpMaterial17getReferenceCountEv
$Ge:_RijndaelManaged_GenerateKey_m3366247933
l0f:_BinaryReader_ReadUInt64_m1893783375
tJj:_Bounds_op_Equality_m2161830280
jdb:__ZN17PersistentManager9AddStreamEv
XJl:dynCall_fidi
e7k:__ZN15dense_hashtableINSt3__24pairIK10KeyWrapperINS1_IPK9FieldInfoP11Il2CppClassEEEjEES9_17ReflectionMapHashIS8_EN14dense_hash_mapIS9_jSD_NS9_14EqualsComparerINS0_8equal_toIS8_EEEENS0_9allocatorISB_EEE9SelectKeyESI_SK_E12resize_deltaEjj
Grc:__Z47Register_UnityEngine_GUIStyle_set_imagePositionv
kPd:__ZN5physx20getVertexEdgeIndicesERKNS_2Gu11HeightFieldEjjjPNS_8EdgeDataE
hrc:__Z49GUIStyle_CUSTOM_INTERNAL_CALL_Internal_DrawCursor13Il2Cpp_IntPtrRK5RectTIfEP12Il2CppObjectiRK10ColorRGBAf
qUj:_ScrollRect_set_movementType_m3292965850
ZNi:__ZL59AttributeTargets_t1984597432_CustomAttributesCacheGeneratorP21CustomAttributesCache
awd:__ZN5physx6shdfnd5ArrayIPNS_2Sc8BodyCoreENS0_19ReflectionAllocatorIS4_EEE6resizeEjRKS4_
Bqk:_RectTransform_set_anchorMin_m4247668187
SMc:__ZN5physx3Cct26CharacterControllerManager16createControllerERNS_9PxPhysicsEPNS_7PxSceneERKNS_16PxControllerDescE
CX:__ZN11UnityEngine15CloudWebService14RestDownloaderD2Ev
ecb:__Z29StdTemplateConversionFunctionIjhEbPvR14SafeBinaryRead
Zog:_List_1_GrowIfNeeded_m2986672263_gshared
l5j:_ArrayReadOnlyList_1_Remove_m2325516426_gshared
llf:_Hashtable_get_Count_m830088216
Bbc:__ZNK13MonoBehaviour13GetScriptTypeEv
Xha:__ZN13RenderTexture12SetDimensionE16TextureDimension
Csk:_ScriptableObject_CreateInstance_m3921674852
Ue:_SDL_FreeRW
hzd:__ZN5physx6shdfnd8PoolBaseINS_2Cm5BlockIhLj128EEENS0_19ReflectionAllocatorIS4_EEE15disposeElementsEv
_Ie:_SHA1Internal_FillBuff_m891541953
pRi:__ZL62ResolveEventHandler_t3842432458_CustomAttributesCacheGeneratorP21CustomAttributesCache
tve:__Z34CanvasRenderer_Get_Custom_PropCullP12Il2CppObject
ljd:__ZN5physx3Scb14ParticleSystem14setRestOffsetsEjRKNS_16PxStrideIteratorIKjEERKNS2_IKfEE
Z1d:__ZN12MeshCollider11CreateShapeEPvPK9RigidbodyRK8Vector3f
FP:__ZN20SoundChannelInstance8getDelayE14FMOD_DELAYTYPEPjS1_
Azl:__ZNSt3__26__treeINS_12__value_typeIPvxEENS_19__map_value_compareIS2_S3_NS_4lessIS2_EELb1EEENS_9allocatorIS3_EEE12__find_equalIS2_EERPNS_16__tree_node_baseIS2_EESF_RKT_
RTi:__ZL97Application_t354826772_CustomAttributesCacheGenerator_Application_InvokeOnBeforeRender_m799598445P21CustomAttributesCache
x6e:_InputField_set_customCaretColor_m3534590098
AUj:_ScrollRect_set_viewport_m323693490
lLi:__ZL66RijndaelManagedTransform_t135163252_CustomAttributesCacheGeneratorP21CustomAttributesCache
CUf:_NumberFormatter_FormatExponential_m3975285307
$ce:__ZNSt3__26vectorIN20TextRenderingPrivate8FontImpl13CharacterInfoE13stl_allocatorIS3_L18MemLabelIdentifier1ELi16EEE8__appendEj
v:tempBigInt
af:_emscripten_glVertexAttrib1fv
yUb:__ZNSt3__26vectorIN9ShaderLab20SerializedSubProgram12UAVParameterENS_9allocatorIS3_EEE7reserveEj
XRf:_Array_InternalArray__get_Item_TisTypeTag_t141209596_m1747911007_gshared
$yj:_AnimationCurve_Init_m1486386337
fNj:_Component_GetComponents_m3712441745
Qud:__ZN5physx13NpVolumeCacheC2EPNS_2Sq17SceneQueryManagerEjj
hWc:__ZThn24_N5physx2Sc20ArticulationJointSimD1Ev
h7e:_InputField_get_selectionAnchorPosition_m466595604
wNi:__ZL99Thread_t241561612_CustomAttributesCacheGenerator_Thread_t241561612____ExecutionContext_PropertyInfoP21CustomAttributesCache
YRe:_DecoderReplacementFallback_get_DefaultString_m3399348550
mFk:_UnityAction_4_Invoke_m3312096275_gshared
Sij:__ZL111LayoutUtility_t4076838048_CustomAttributesCacheGenerator_LayoutUtility_U3CGetPreferredHeightU3Em__5_m1524880643P21CustomAttributesCache
M8k:__ZN24dense_hashtable_iteratorINSt3__24pairIK10KeyWrapperINS1_IPK10MethodInfoP11Il2CppClassEEEjEES9_17ReflectionMapHashIS8_EN14dense_hash_mapIS9_jSD_NS9_14EqualsComparerINS0_8equal_toIS8_EEEENS0_9allocatorISB_EEE9SelectKeyESI_SK_E30advance_past_empty_and_deletedEv
mjd:__ZN5physx2Sc18ParticleSystemCore14setRestOffsetsEjRKNS_16PxStrideIteratorIKjEERKNS2_IKfEE
LEc:__ZN5physx2Gu16testPolyDataAxisERKNS0_8CapsuleVERKNS0_13PolygonalDataEPNS0_12SupportLocalERKNS_6shdfnd3aos6FloatVERSB_RNSA_5Vec3VE
srk:_RectTransformUtility_ScreenPointToRay_m1842507230
$6a:__ZN16ReflectionProbes16UpdateSampleDataEv
_Yc:__ZN5physx2Sc17ParticleSystemSimD0Ev
zjj:_Enumerator_VerifyState_m2118679243_gshared
uFb:__ZN14SafeBinaryRead21TransferSTLStyleArrayI10vector_setI4PPtrI10MonoScriptENSt3__24lessIS4_EE13stl_allocatorIS4_L18MemLabelIdentifier76ELi16EEEEEvRT_17TransferMetaFlags
R$j:_SafeHandle_Finalize_m1839546519
Avb:__ZN14Texture2DArray5ResetEv
dyc:__ZN8JSONRead21TransferSTLStyleArrayINSt3__26vectorI10RectOffset13stl_allocatorIS3_L18MemLabelIdentifier1ELi16EEEEEEvRT_S5_17TransferMetaFlags
ifk:_InternalEnumerator_1_MoveNext_m252820768_AdjustorThunk
E2j:_Context_AllocateNamedDataSlot_m3200404053
zwa:__ZN14BatchAllocator6CommitE18MemLabelIdentifier
X8g:_X509EnhancedKeyUsageExtension_Decode_m3866320499
yUf:_NumberFormatter_AppendIntegerStringWithGroupSeparator_m1401773574
Myg:_List_1_Remove_m1237648310_gshared
BXg:_CipherSuite_get_ServerHMAC_m3566778727
PDi:__ZL64DebuggerBrowsableState_t944457511_CustomAttributesCacheGeneratorP21CustomAttributesCache
yf:_JS_Sound_Play
H5e:_Image_IsRaycastLocationValid_m864962354
bIh:__Z181RuntimeInvoker_Void_t1841601450_RuntimeObject_Int32_t2071877448_Int32_t2071877448_RuntimeObject_Int32_t2071877448_Int32_t2071877448_RuntimeObject_Int32_t2071877448_Int32_t2071877448PFvvEPK10MethodInfoPvPS4_
vTb:__ZN9ShaderLab16SerializedShader8TransferI14SafeBinaryReadEEvRT_
Zwa:__ZN5Mutex7TryLockEv
mMj:_Collision_get_collider_m3340328360
dC:__ZN7mecanim8skeleton13SkeletonAlignEPKNS0_8SkeletonERKN4math7_float4ES7_i
u3b:__ZN19ShaderPropertySheet16SetVectorIndexedEN9ShaderLab16FastPropertyNameEifRK8Vector4fNS_8SetFlagsE
Kr:__ZN14SafeBinaryRead21TransferSTLStyleArrayIN4core12basic_stringIcNS1_20StringStorageDefaultIcEEEEEEvRT_17TransferMetaFlags
Yih:_RemotingConfiguration_RegisterWellKnownServiceType_m2491506630
CWi:__ZL89Screen_t786852042_CustomAttributesCacheGenerator_Screen_t786852042____height_PropertyInfoP21CustomAttributesCache
gIi:__ZL55_TypeBuilder_t2783404358_CustomAttributesCacheGeneratorP21CustomAttributesCache
yQk:__ZL25UnresolvedVirtualCall_204P12Il2CppObjectPK10MethodInfo
Icb:__Z29StdTemplateConversionFunctionIayEbPvR14SafeBinaryRead
jod:__ZNK5physx20NpRigidActorTemplateINS_13PxRigidStaticEE14getConstraintsEPPNS_12PxConstraintEjj
hHc:__ZN25MeshMTDGenerationCallbackD0Ev
Q9e:_LayoutRebuilder_Initialize_m2671585490
uug:_List_1_System_Collections_IList_IndexOf_m4061554721_gshared
dY:__ZN11UnityEngine15CloudWebService14DataDispatcher4StopEv
wAj:_AnimationLayerMixerPlayable_SetLayerAdditive_m4206337590_AdjustorThunk
AUb:__ZNSt3__26vectorIN9ShaderLab20SerializedSubProgram12UAVParameterENS_9allocatorIS3_EEE8__appendEj
DEg:_Collection_1_GetEnumerator_m434271983_gshared
Fal:__ZNK15dense_hashtableINSt3__24pairIK10KeyWrapperINS1_IPK9EventInfoP11Il2CppClassEEEjEES9_17ReflectionMapHashIS8_EN14dense_hash_mapIS9_jSD_NS9_14EqualsComparerINS0_8equal_toIS8_EEEENS0_9allocatorISB_EEE9SelectKeyESI_SK_E12test_deletedERK24dense_hashtable_iteratorISB_S9_SD_SM_SI_SK_E
Goc:__ZN5IMGUI9GUIWindow5OnGUIER8GUIState
goj:_Enumerator_get_Current_m2986380627_gshared
Hka:__ZN17ScriptingGCHandle7AcquireE18ScriptingObjectPtr25ScriptingGCHandleWeakness
F1j:_LifetimeServices_set_LeaseTime_m1487876644
q9h:_ConstructorBuilder_not_supported_m3687319507
$S:__ZN19AudioPlayableOutputC2EjP13PlayableGraph
MBi:__ZL48IList_t3321498491_CustomAttributesCacheGeneratorP21CustomAttributesCache
g3c:__ZN5physx12NpConstraint8comShiftEPNS_12PxRigidActorE
hOe:_Single_System_IConvertible_ToInt64_m3555853323_AdjustorThunk
rgk:_InternalEnumerator_1__ctor_m3901400705_AdjustorThunk
yIl:dynCall_iifiii
Tua:__Z21HasAlphaTextureFormat13TextureFormat
dS:__ZN12AudioManager6UpdateEv
Oua:__ZN14ImageReference9BlitImageERKS_NS_8BlitModeE
chi:_MonoMethod_get_MethodHandle_m1882915015
Et:__ZN8Animator12AddToManagerEv
iGi:__ZL93ConstructorInfo_t2851816542_CustomAttributesCacheGenerator_ConstructorInfo_Invoke_m2144827141P21CustomAttributesCache
Zlj:_ShimEnumerator_get_Key_m1171725158_gshared
LDc:__ZNK5physx2Gu16SupportLocalImplINS0_11ConvexHullVEE9doSupportERKNS_6shdfnd3aos5Vec3VERNS5_6FloatVESA_
mEb:__ZN23CachedSerializationDataD2Ev
F6a:__ZNK25CameraStackRenderingState31CalculateStereoCameraTargetTypeEv
GAc:__ZNK5physx3Cct13BoxController8getActorEv
Mnb:__ZN14RenderSettings23VirtualRedirectTransferER14SafeBinaryRead
Cpl:__ZN6il2cpp2os10ThreadImpl15CurrentThreadIdEv
vJg:_Collection_1_System_Collections_IList_get_IsReadOnly_m4005091053_gshared
rDf:_Array_InternalArray__ICollection_Contains_TisColor32_t874517518_m2818328910_gshared
_kb:__ZN17GlobalGameManager8TransferI17RemapPPtrTransferEEvRT_
$Xd:__ZN5physx6shdfnd8internal8HashBaseIPNS_2Gu12TriangleMeshES5_NS0_4HashIS5_EENS1_11HashSetBaseIS5_S7_NS0_9AllocatorELb1EE6GetKeyES9_Lb1EE5eraseERKS5_
Bkg:_AppDomainInitializer_EndInvoke_m4003801172
uBi:__ZL66RuntimeArray_CustomAttributesCacheGenerator_Array_Sort_m2544329074P21CustomAttributesCache
Tok:_RaycastHit2D_get_point_m442317739
ynb:__ZN16LevelGameManager8TransferI18StreamedBinaryReadILb0EEEEvRT_
Rpe:_UNITY_tt_face_load_fpgm
Zyb:__ZN12InputManagerD0Ev
Mzl:__ZN6il2cpp6icalls8mscorlib6System11Diagnostics10StackTrace9get_traceEP15Il2CppExceptionib
S$e:_DefaultControls_CreateUIObject_m2810394112
roi:_GUIStyle_get_overflow_m1125058093
zaj:__ZL109PlayerConnection_t3517219175_CustomAttributesCacheGenerator_PlayerConnection_DisconnectedCallback_m4115432464P21CustomAttributesCache
xUj:_ScrollRect_get_scrollSensitivity_m1160815603
Trh:_UnicodeEncoding_GetBytes_m1337660232
E3c:__ZN5physx2Sc9RigidCore20removeShapeFromSceneERNS0_9ShapeCoreEb
mRb:__Z18Transfer_BlittableI18StreamedBinaryReadILb0EELb1EtEvRK29SerializationCommandArgumentsR31RuntimeSerializationCommandInfo
lFl:_posix_memalign
K3b:__ZN13ProduceHelperI12MeshRendererLb0EE7ProduceE18MemLabelIdentifier18ObjectCreationMode
F_d:__ZN5physx11RTreeCooker18buildFromTrianglesERNS_2Gu5RTreeEPKNS_6PxVec3EjPKtPKjjRNS_6shdfnd5ArrayIjNSB_19ReflectionAllocatorIjEEEEPNS0_13RemapCallbackEfNS_17PxMeshCookingHint4EnumE
PZc:__ZN5physx6shdfnd5ArrayIPvNS0_15InlineAllocatorILj256ENS0_19ReflectionAllocatorINS_14NpArticulationEEEEEE15growAndPushBackERKS2_
QAg:_List_1_get_Count_m1249351212_gshared
pgk:_InternalEnumerator_1_get_Current_m747506907_AdjustorThunk
RJj:_Camera_get_eventMask_m4241372419
nRd:__ZN29PxsCreateFinalizeContactsTaskD0Ev
ELh:__Z38RuntimeInvoker_PaddingMode_t3032142640PFvvEPK10MethodInfoPvPS4_
tXg:_CertificateValidationCallback2_BeginInvoke_m3996282202
m2g:_SslClientStream_get_ClientCertSelectionDelegate_m2316959461
Wif:_SynchronizedArrayListWrapper_get_SyncRoot_m1466044127
p4:__ZNK15MonoScriptCache7ReleaseEv
RUk:__ZN6il2cpp2vm5Class13HasReferencesEP11Il2CppClass
MMd:__ZN5physx9PxTaskMgrC2EPNS_15PxCpuDispatcherEPNS_15PxGpuDispatcherEPNS_15PxSpuDispatcherE
Mg:_glBindTexture
AEg:_Collection_1_ClearItems_m3585785594_gshared
BDl:_snprintf
Xhj:__ZL84HorizontalOrVerticalLayoutGroup_t1968298610_CustomAttributesCacheGenerator_m_SpacingP21CustomAttributesCache
M7h:_Binder__ctor_m1361613966
e7e:_InputField_set_caretPosition_m888572237
Hci:_ILGenerator__cctor_m3943061018
lif:_ArrayListWrapper_Clone_m1506311066
zPj:_Event_get_character_m3740896233
_ra:__Z36scripting_liveness_calculation_begin17ScriptingClassPtriPFvPP12Il2CppObjectiPvES3_PFvvES7_
oHk:_ListPool_1_Get_m4215629480_gshared
GMa:__ZN16UniformCacheGLES6CreateERK20GpuProgramParameters
fth:_UTF8Encoding_Fallback_m811555654
WAh:_UInt64_CompareTo_m3513742483
VIf:_Array_InternalArray__IndexOf_TisPlayableBinding_t2498078091_m398853908_gshared
zsk:_ScriptableObject_t1975622470_marshal_pinvoke_cleanup
Iqh:_Encoding_GetString_m1894033578
VOg:_ReadOnlyCollection_1_System_Collections_IList_Clear_m1918003010_gshared
uuk:_TextGenerator_t647235000_marshal_pinvoke_cleanup
$Eh:__Z77RuntimeInvoker_Void_t1841601450_RuntimeObject_RuntimeObject_Int32_t2071877448PFvvEPK10MethodInfoPvPS4_
TMl:_emscripten_glGetProgramInfoLog__wrapper
IE:__ZN25AnimatedPropertyEvaluator29BindCurveToScriptingObjectPtrERKN13AnimationClip10FloatCurveEj18ScriptingObjectPtrb
h4i:__ZL94Font_t4239498691_CustomAttributesCacheGenerator_Font_InvokeTextureRebuilt_Internal_m2007522718P21CustomAttributesCache
SGc:__ZN5physx2Gu17EPASupportMapPairD2Ev
jth:_UTF8Encoding_InternalGetChars_m373801468
f6:__ZN17PersistentManager23DestroyFromFileInternalEi
DZi:__ZL98Object_t1021602117_CustomAttributesCacheGenerator_Object_DoesObjectWithInstanceIDExist_m2570795274P21CustomAttributesCache
Lsk:_ScrollViewState__ctor_m535685782
m$a:__Z19SetupMotionMatricesR6CameraR18RPDataMotionVector
Rzf:_Enum_ToString_m2112979707
Buk:_TextGenerator_ValidatedSettings_m1640214759
GJi:__ZL55SoapServices_t3397513225_CustomAttributesCacheGeneratorP21CustomAttributesCache
Hgh:_MonoMethodMessage_get_MethodName_m3580519713
sD:__ZN26AnimatorControllerPlayable18PrepareForPlaybackERN7mecanim6memory9AllocatorE
UCd:__ZN5physx19PxsMaterialCombiner24combineIsotropicFrictionERKNS_15PxsMaterialDataES3_
_yf:_Enum_t2459695545_marshal_pinvoke_cleanup
Wsk:_HitInfo_t1761367055_marshal_pinvoke_cleanup
KHf:_Array_FindLastIndex_TisRuntimeObject_m986818300_gshared
ath:_UTF8Encoding_GetBytes_m4170182058
dTf:_Mesh_GetAllocArrayFromChannel_TisColor32_t874517518_m2030100417_gshared
skd:__ZN5physx22NpParticleBaseTemplateINS_16PxParticleSystemENS_16NpParticleSystemEE20lockParticleReadDataEv
Bla:__ZN22CreateGpuProgramOutputC2Ev
Hbh:_X509Chain__ctor_m2242540866
Hji:_Object__ctor_m197157284
EYi:__ZL99SortingLayer_t221838959_CustomAttributesCacheGenerator_SortingLayer_GetLayerValueFromID_m4029056996P21CustomAttributesCache
X2f:_MemoryStream_InternalConstructor_m2423667240
hmk:_CapturingGroup_set_Index_m2175936006
Chh:_SoapMethodAttribute_SetReflectionObject_m3431595769
NYd:__ZN5physx7Cooking16cookTriangleMeshERKNS_18PxTriangleMeshDescERNS_14PxOutputStreamE
aXj:_Slider_set_maxValue_m2951480075
Sxe:__Z38CustomEventData_CUSTOM_InternalDestroyP12Il2CppObject
H8d:__ZN14CompletionTask4InitEPN5physx7PxSceneE
$Wc:__ZN5physx2Sc7ElementD0Ev
k$d:__ZN5physx6shdfnd10Foundation7releaseEv
QUk:__ZN6il2cpp2vm5Class4InitEP11Il2CppClass
bd:invoke_vidi
G9b:__ZNK15GUIEventManager15GetEventAtIndexEi
Ate:__ZN2UI14CanvasRenderer17SyncDirtyElementsER8JobFence
iRb:__Z18Transfer_BlittableI18StreamedBinaryReadILb0EELb0ExEvRK29SerializationCommandArgumentsR31RuntimeSerializationCommandInfo
J_e:_ColorBlock_op_Inequality_m1517672458
Isl:__ZN6il2cpp5utils11StringUtils15StringDuplicateEPKc
a2i:__ZL156AnimatorControllerPlayable_t1744083903_CustomAttributesCacheGenerator_AnimatorControllerPlayable_INTERNAL_CALL_GetAnimatorTransitionInfoInternal_m1417370130P21CustomAttributesCache
E8a:__Z15CanAddComponentR10GameObjectPKN5Unity4TypeE
Uka:__ZNK9ShaderLab21ShaderRasterStateDesc16ToGfxRasterStateEPK19ShaderPropertySheetS3_R14GfxRasterState
v_:_tlsf_memalign
zoh:_CspParameters__ctor_m2480441577
IBl:__ZN6il2cpp2os9EventImplC2Ebb
f2j:_DynamicPropertyCollection_NotifyMessage_m840388347
rnk:_Uri_ParseUri_m5711497
zE:__ZN4PPtrI13MonoBehaviourE8TransferI19StreamedBinaryWriteILb0EEEEvRT_
jRh:__Z98RuntimeInvoker_RuntimeObject_RuntimeObject_RayU26_t3651946800_Single_t2076509932_Int32_t2071877448PFvvEPK10MethodInfoPvPS4_
f$:__Z20IsMatrixBuiltinParamPKcPi
CFg:_Collection_1_CheckWritable_m2467777750_gshared
Vfj:__ZL108MaskableGraphic_t540192618_CustomAttributesCacheGenerator_MaskableGraphic_ParentMaskStateChanged_m3643747340P21CustomAttributesCache
B8k:__ZN15dense_hashtableINSt3__24pairIK10KeyWrapperINS1_IPK10MethodInfoP11Il2CppClassEEEjEES9_17ReflectionMapHashIS8_EN14dense_hash_mapIS9_jSD_NS9_14EqualsComparerINS0_8equal_toIS8_EEEENS0_9allocatorISB_EEE9SelectKeyESI_SK_E16reset_thresholdsEv
b3b:__ZN8Renderer19PostInitializeClassEv
Kvk:_TrackedReference_t1045890189_marshal_pinvoke_back
f6j:_InternalEnumerator_1_get_Current_m1943362081_AdjustorThunk
Nxk:_Vector3_get_sqrMagnitude_m1814096310_AdjustorThunk
Wxl:__ZN6il2cpp6icalls8mscorlib6System8Delegate23CreateDelegate_internalEP20Il2CppReflectionTypeP12Il2CppObjectP22Il2CppReflectionMethodb
OAi:__ZL82RuntimeArray_CustomAttributesCacheGenerator_Array_GetValue_m1507415734____indices0P21CustomAttributesCache
_7h:_Default_check_type_m2363631305
CDb:__ZN18DelayedCallManager18CancelCallDelayed2E4PPtrI6ObjectEPF15CallObjectStatePS1_PvES7_
oug:_List_1__cctor_m911493842_gshared
wfb:__ZN25ThreadsafeLinearAllocator10ReallocateEPvji
$Fb:__Z18Transfer_BlittableI14SafeBinaryReadLb1E11QuaternionfEvRK29SerializationCommandArgumentsR31RuntimeSerializationCommandInfo
j1c:__ZNK5physx18PxArticulationLink8isKindOfEPKc
Tca:__ZN18SpriteAtlasManagerD0Ev
XIf:_Array_InternalArray__IndexOf_TisRaycastHit2D_t4063908774_m3739817942_gshared
Nhi:_MonoProperty_GetAccessors_m3704698731
a9d:__Z25CreatePxMeshFromUnityMeshP4MeshbbRK10Matrix4x4f13TransformTypef
xxl:_GC_disable
Iwb:__ZN10Matrix4x4f8TransferI14SafeBinaryReadEEvRT_
mn:FUNCTION_TABLE_vifiiiiiiiiiiiiiiiiii
m6f:_UnmanagedMemoryStream_ReadByte_m2501145010
Mkh:_ObjectRecord_UnchainFixup_m3025030310
y6:__Z6AppendRKN4core12basic_stringIcNS_20StringStorageDefaultIcEEEEPKc
aAi:__ZL60MulticastDelegate_t3201952435_CustomAttributesCacheGeneratorP21CustomAttributesCache
Zra:__ZL14OnWorldStoppedv
yOb:__Z18Transfer_BlittableI18StreamedBinaryReadILb1EELb0E8Vector3fEvRK29SerializationCommandArgumentsR31RuntimeSerializationCommandInfo
iRh:__Z81RuntimeInvoker_RuntimeObject_Ray_t2469606224_Single_t2076509932_Int32_t2071877448PFvvEPK10MethodInfoPvPS4_
Hif:_ReadOnlyArrayListWrapper_Sort_m2056228524
Yej:__ZL61Image_t2042527209_CustomAttributesCacheGenerator_m_FillCenterP21CustomAttributesCache
IFa:__ZN7ApiGLES18ClearBufferSubDataEjN2gl12BufferTargetEll
vvk:_Touch_get_type_m3264731406_AdjustorThunk
Wec:__Z37Camera_Get_Custom_PropAllCamerasCountv
Vvb:__ZN14Texture2DArray8TransferI18StreamedBinaryReadILb0EEEEvRT_
F4c:__ZN5physx15NpActorTemplateINS_18PxArticulationLinkEED2Ev
G3h:__Z52RuntimeInvoker_KeyCode_t2283395152_Int32_t2071877448PFvvEPK10MethodInfoPvPS4_
G3a:__Z18ApplyOcclusionMaskR19ProbeOcclusionCacheRK17LightProbeContextRK10RenderNodeb
p2f:_FileStreamAsyncResult__ctor_m1096228032
ske:_Split_Cubic
N0d:__ZN11BoxCollider8TransferI18StreamedBinaryReadILb0EEEEvRT_
aZi:__ZL78Time_t31991979_CustomAttributesCacheGenerator_Time_get_unscaledTime_m862335845P21CustomAttributesCache
ovf:_DBNull_System_IConvertible_ToSByte_m1228193074
hEg:_Collection_1__ctor_m2818834331_gshared
qSf:_Array_InternalArray__get_Item_TisUICharInfo_t3056636800_m3872982785_gshared
oQh:__Z68RuntimeInvoker_UInt16_t986882611_UInt16_t986882611_UInt16_t986882611PFvvEPK10MethodInfoPvPS4_
J8d:__Z19ExtractDataFromMeshR4MeshR13dynamic_arrayI8Vector3fLj4EERS1_ItLj2EES6_
sDj:_AnimatorControllerPlayable_INTERNAL_CALL_GetLayerIndexInternal_m2875146206
EAl:__ZN6il2cpp2vm14MetadataLoader16LoadMetadataFileEPKc
Epl:__ZN6il2cpp2os10ThreadImpl22CreateForCurrentThreadEv
L1i:__ZL136AnimationOffsetPlayable_t1019600543_CustomAttributesCacheGenerator_AnimationOffsetPlayable_INTERNAL_CALL_GetPositionInternal_m1117100583P21CustomAttributesCache
yHg:_Collection_1_Insert_m3041550124_gshared
X5c:__ZN5physx2Sc16ArticulationCore26setMaxProjectionIterationsEj
R1f:_FileStream_FlushBuffer_m2594140542
NKc:__ZN26IntersectAnyVsMeshCallbackILi1ELb0EED2Ev
$rc:__Z64Register_UnityEngine_GUIStyle_GetFontInternalDuringLoadingThreadv
eke:_ft_black_render
utl:__ZN6il2cpp2vm8Profiler12GCHeapResizeEx
cKl:dynCall_viiifi
xJa:__ZN18GfxFramebufferGLES20ActiveContextChangedEPP17RenderSurfaceBaseS2_
WQi:__ZL51TimeSpan_t3430258949_CustomAttributesCacheGeneratorP21CustomAttributesCache
tJa:__Z19PluginsRenderMarkeri
HZi:__ZL80Object_t1021602117_CustomAttributesCacheGenerator_Object_Instantiate_m2439155489P21CustomAttributesCache
hF:__ZN10HumanTrait18InitializeBoneNameEv
_tj:_DefaultComparer__ctor_m899694595_gshared
vBj:_AnimationPlayableOutput_GetHandle_m1362491789_AdjustorThunk
bnk:__ZN23InterfaceActionInvoker1ItE6InvokeEjP11Il2CppClassP12Il2CppObjectt
Erf:_Convert_ToSByte_m1570938941
iSb:__Z29Transfer_Blittable_ArrayFieldI18StreamedBinaryReadILb0EEyEvRT_R9ArrayInfoRK23StaticTransferFieldInfo
Kzk:_X509CertificateEnumerator_get_Current_m3129374511
twj:_EqualityComparer_1_get_Default_m875724809_gshared
gll:__ZNSt3__214__split_bufferIN6il2cpp2vm5Image20EmbeddedResourceDataERNS_9allocatorIS4_EEEC2EjjS7_
w4e:_HorizontalOrVerticalLayoutGroup_get_spacing_m2859152439
rHi:__ZL57DispIdAttribute_t607560947_CustomAttributesCacheGeneratorP21CustomAttributesCache
SK:__ZN12AudioManager17RemoveAudioSourceEP11AudioSource
COl:_emscripten_glBindProgramARB__wrapper
DBi:__ZL83RuntimeArray_CustomAttributesCacheGenerator_RuntimeArray____LongLength_PropertyInfoP21CustomAttributesCache
ILh:__Z151RuntimeInvoker_Int32_t2071877448_RuntimeObject_Int32_t2071877448_Int32_t2071877448_RuntimeObject_Int32_t2071877448_DecoderFallbackBufferU26_t3597875002PFvvEPK10MethodInfoPvPS4_
cOj:_CullingGroup_Finalize_m3172731580
lWd:__ZNK5physx2Gu10ConvexMesh17getReferenceCountEv
dSf:_Array_InternalArray__get_Item_TisUInt64_t2909196914_m2580870875_gshared
udl:__ZN15dense_hashtableINSt3__24pairIK10KeyWrapperINS1_IP11Il2CppClassjEEES4_EES6_N6il2cpp8metadata14ArrayClassHashEN14dense_hash_mapIS6_S4_SB_NS6_14EqualsComparerINSA_17ArrayClassCompareEEENS0_9allocatorIS8_EEE9SelectKeyESF_SH_E4swapERSK_
mud:__ZN5physx2Sc5Scene22setNbContactDataBlocksEj
uth:_UTF8Decoder_GetChars_m3819660582
UT:__ZN5physx14PxLightCpuTask12addReferenceEv
Zrb:__ZN21EnlightenSceneMapping8TransferI19StreamedBinaryWriteILb0EEEEvRT_
Hml:__ZN6il2cpp2gc16GarbageCollector19InitializeFinalizerEv
Vy:__ZN7mecanim8skeleton18CreateSkeletonMaskEjPKNS0_19SkeletonMaskElementERNS_6memory9AllocatorE
kBi:__ZL66RuntimeArray_CustomAttributesCacheGenerator_Array_Sort_m4096942812P21CustomAttributesCache
toc:__ZN10GUIManager10DoGUIEventER10InputEventb
gYg:_Context_get_ClientWriteKey_m2235605337
_Kb:__Z35Transfer_Blittable_FixedBufferFieldI24GenerateTypeTreeTransferxEvRK29SerializationCommandArgumentsR31RuntimeSerializationCommandInfo
Tkj:_Enumerator__ctor_m3597047336_AdjustorThunk
g0:__Z20CalculateSqrDistanceRK8Vector3fRK4AABB
z9d:__ZN14PhysicsManager15ProcessContactsEv
pIc:__ZN21BoxTraceSegmentReport7onEventEjPj
S0c:__ZN5physx2Sc21ArticulationJointCore13setSwingLimitEff
IO:__Z32AudioMixerDuckingProcessCallbackP21UnityAudioEffectStatePfS1_jii
aEc:__ZL20HullProjectionCB_BoxRKN5physx2Gu13PolygonalDataERKNS_6PxVec3ERKNS_2Cm8Matrix34ERKNS7_23FastVertex2ShapeScalingERfSE_
N8h:_CustomAttributeTypedArgument_GetHashCode_m999147081_AdjustorThunk
e2b:__ZN26CustomRenderTextureManagerD2Ev
_1f:_FileStream_Read_m3880951166
MId:__ZN5physx14PxsAABBManager21selfCollideAggregatesEPKNS_19AggregateSortedDataE
yL:__ZN12AudioManager8TransferI24GenerateTypeTreeTransferEEvRT_
Coa:__Z25GetBytesFromTextureFormat13TextureFormat
Lua:__ZN9Texture3D19UnloadFromGfxDeviceEb
UQd:__ZN5physx12_GLOBAL__N_112innerProductERKNS_14Px1DConstraintERS1_RKNS0_9MassPropsE
pJb:__Z18Transfer_BlittableI17RemapPPtrTransferLb0EsEvRK29SerializationCommandArgumentsR31RuntimeSerializationCommandInfo
xEf:_Array_InternalArray__ICollection_Remove_TisContactPoint_t1376425630_m2242111467_gshared
xIl:dynCall_iifff
tj:_emscripten_webgl_init_context_attributes
sQi:__ZL67Math_t2022911894_CustomAttributesCacheGenerator_Math_Min_m105057611P21CustomAttributesCache
BE:__ZN16MecanimAnimation25RegisterIAnimationBindingEPKN5Unity4TypeEiP17IAnimationBinding
l4:__Z32scripting_class_get_assemblyname17ScriptingClassPtr
Qze:__ZN11UnityEngine15PlatformWrapper15GetVRDeviceNameEv
vqj:_Dictionary_2_Resize_m2532139610_gshared
Stk:_StackTraceUtility__cctor_m1132099289
Hyg:_List_1_IndexOf_m2019441835_gshared
_Ed:__ZN5physx26PxcFrictionPatchStreamPairC2ERNS_17PxcNpMemBlockPoolE
pwh:_TimeSpan_Equals_m2029123271_AdjustorThunk
X_k:__ZN6il2cpp2vm13MetadataCache23GetInvokerMethodPointerEPK10MethodInfoPK20Il2CppGenericContext
ONa:__ZN9GfxDevice21RegisterNativeTextureE9TextureIDi16TextureDimension
KBf:_CultureInfo__ctor_m456863818
Zyl:__ZN6il2cpp6icalls8mscorlib6System10Reflection4Emit11TypeBuilder20create_generic_classEP27Il2CppReflectionTypeBuilder
I1k:__ZNSt3__26vectorIPK10MethodInfoNS_9allocatorIS3_EEE26__swap_out_circular_bufferERNS_14__split_bufferIS3_RS5_EE
Nng:_Enumerator_MoveNext_m2504790928_gshared
Xmi:_GUISkin_set_button_m412653849
Aj:_emscripten_glUniformMatrix4fv
jtk:_SliderState__ctor_m1096533539
tYb:__ZN12ScriptMapperD2Ev
h3d:__ZN9Rigidbody13AwakeFromLoadE17AwakeFromLoadMode
Pbj:__ZL85AxisEventData_t1524870173_CustomAttributesCacheGenerator_U3CmoveDirU3Ek__BackingFieldP21CustomAttributesCache
x6c:__ZNK5physx14NpSceneQueries10multiQueryINS_12PxOverlapHitEEEbRKNS_15MultiQueryInputERNS_13PxHitCallbackIT_EENS_7PxFlagsINS_9PxHitFlag4EnumEtEEPKNS_12PxQueryCacheERKNS_17PxQueryFilterDataEPNS_21PxQueryFilterCallbackEPNS_20BatchQueryFilterDataE
AFe:_KeyedHashAlgorithm_Dispose_m1864300576
Dzk:_X509Certificate_PEM_m49854707
wEj:_AnimatorControllerPlayable_GetParameter_m4243058543_AdjustorThunk
K8d:__ZL21GetMeshLocationDetailR4Mesh
_8g:_X509BasicConstraintsExtension__ctor_m3320418592
Nyk:_ExtendedKeyUsageExtension_Decode_m901297139
xVb:__Z32TransferEnumWithNameForceIntSizeI14SafeBinaryRead7FogModeEvRT_RT0_PKc17TransferMetaFlags
qlc:__Z52Register_UnityEngine_RenderTexture_Internal_GetWidthv
JCi:__ZL89SafeWaitHandle_t481461830_CustomAttributesCacheGenerator_SafeWaitHandle__ctor_m1710231470P21CustomAttributesCache
hwl:_GC_check_leaked
$Wb:__ZN9ShaderLab20SerializedSubProgram16TextureParameter8TransferI19StreamedBinaryWriteILb0EEEEvRT_
Mb:invoke_fiiiiiiiifiiiif
FMf:_Array_InternalArray__Insert_TisVector4_t2243707581_m1643342708_gshared
Rgb:__ZNK7Hash12812PackToUInt32Ev
KQj:_Mask_OnSiblingGraphicEnabledDisabled_m865494155
D5g:_KeysCollection_System_Collections_ICollection_get_SyncRoot_m2289369147
lY:__ZN11UnityEngine15CloudWebService16SessionContainer8AddEventEPNS0_14CloudEventInfoE
IMa:__Z4TrimRKN4core12basic_stringIcNS_20StringStorageDefaultIcEEEES5_
iYj:_Text_set_resizeTextMaxSize_m4034967714
oCi:__ZL55GuidAttribute_t222072359_CustomAttributesCacheGeneratorP21CustomAttributesCache
Fki:_GUIStyle_SetDefaultFont_m2095841351
y8h:_CustomAttributeNamedArgument_Equals_m2691468532
kzi:__ZL74String_t_CustomAttributesCacheGenerator_String_Concat_m3881798623____args0P21CustomAttributesCache
yKi:__ZL103CryptoConfig_t896479599_CustomAttributesCacheGenerator_CryptoConfig_CreateFromName_m2169102076____args1P21CustomAttributesCache
qub:__ZN10VertexData8TransferI14SafeBinaryReadEEvRT_
Z$c:__ZN5physx19NpArticulationJointD0Ev
LM:__ZN4FMOD8ChannelI8setDelayE14FMOD_DELAYTYPEjj
pnf:_Stack__ctor_m2410583781
gGh:__Z42RuntimeInvoker_UInt32_t2149682021_IntPtr_tPFvvEPK10MethodInfoPvPS4_
i7d:__ZN5physx9NpPhysics14createInstanceEjRNS_12PxFoundationERKNS_17PxTolerancesScaleEbPNS_20PxProfileZoneManagerE
wbe:__Z59Register_UnityEngine_Physics_INTERNAL_CALL_Internal_Raycastv
Y7h:_Default_GetBetterMethod_m4255740863
B9h:_ConstructorBuilder_GetILGenerator_m1731893569
Osd:__ZNK5physx7NpScene17getFilterCallbackEv
ill:__ZNSt3__214__split_bufferIN6il2cpp2vm5Image20EmbeddedResourceDataERNS_9allocatorIS4_EEED2Ev
r2:__ZL20SortItemByInstanceIDRKN18AwakeFromLoadQueue4ItemES2_
Q6d:__ZN5physx6shdfnd5ArrayIPvNS0_15InlineAllocatorILj256ENS0_19ReflectionAllocatorINS_24NpPtrTableStorageManager8PtrBlockILi16EEEEEEEE15growAndPushBackERKS2_
fei:_TypeBuilder_create_runtime_class_m2719530260
YHe:_RNGCryptoServiceProvider_RngClose_m2921734810
g7i:__ZL85GUIStyle_t1799908754_CustomAttributesCacheGenerator_GUIStyle_set_richText_m1853532836P21CustomAttributesCache
nz:__ZNK34AnimationStateMachineMixerPlayable26GetInterruptedPosePlayableEv
xBe:__ZN20UnityConnectSettings8TransferI24GenerateTypeTreeTransferEEvRT_
GB:__ZN34BlobWriteTransferSTLStyleArrayImplI22OffsetPtrArrayTransferIbEEclERS1_17TransferMetaFlagsR9BlobWrite
BTi:__ZL199U3CCreateWhereIteratorU3Ec__Iterator1D_1_t2523986802_CustomAttributesCacheGenerator_U3CCreateWhereIteratorU3Ec__Iterator1D_1_System_Collections_Generic_IEnumeratorU3CTSourceU3E_get_Current_m517722874P21CustomAttributesCache
rMg:_ReadOnlyCollection_1_Contains_m1227826160_gshared
$ag:_SimpleCollator_IsHalfKana_m4255579023
s3g:_InternalAsyncResult_get_Count_m1291942796
fCg:_Collection_1_System_Collections_IList_Contains_m3365884450_gshared
Tad:__ZN5physx7NpShape13setRestOffsetEf
Erl:__ZNK15dense_hashtableINSt3__24pairIK10KeyWrapperIPK19Il2CppGenericMethodEP10MethodInfoEES6_N6il2cpp8metadata23Il2CppGenericMethodHashEN14dense_hash_mapIS6_S9_SD_NS6_14EqualsComparerINSC_26Il2CppGenericMethodCompareEEENS0_9allocatorISA_EEE9SelectKeyESH_SJ_E10test_emptyERK30dense_hashtable_const_iteratorISA_S6_SD_SL_SH_SJ_E
ASa:__Z16FlaggedAsSkippedIN4core12basic_stringIcNS0_20StringStorageDefaultIcEEEEEbRK13FileEntryInfoRKT_19FileEnumerationFlag
OJg:_Collection_1_set_Item_m3440986310_gshared
q8:__ZL31InitializeRendererUpdateManagerPv
RYe:_BaseMeshEffect__ctor_m2843647600
XNh:__Z106RuntimeInvoker_RuntimeObject_Int16_t4041245914_RuntimeObject_BooleanU26_t3168250738_BooleanU26_t3168250738PFvvEPK10MethodInfoPvPS4_
tbd:__ZN5physxL11getTriangleERKNS_2Gu12TriangleMeshEjPNS_6PxVec3EPKS4_PKvRKNS_2Cm8Matrix34Eb
YP:__ZN13AudioPlayable22ClearFMODResourceCacheEPN4FMOD6SystemE
QR:__ZN13AudioListener12CleanupClassEv
V2d:__ZN14SafeBinaryRead21TransferSTLStyleArrayINSt3__26vectorIjNS1_9allocatorIjEEEEEEvRT_17TransferMetaFlags
ZZg:_ClientSessionInfo_Dispose_m2571428025
C9e:_LayoutGroup_DelayedSetDirty_m4276695617
j1g:_RecordProtocol_decryptRecordFragment_m2510859489
Q6i:__ZL105GUIStyle_t1799908754_CustomAttributesCacheGenerator_GUIStyle_INTERNAL_set_Internal_clipOffset_m2024478897P21CustomAttributesCache
zcd:__ZNK5physx7NpCloth16lockParticleDataEv
CTe:_BaseRaycaster_get_sortOrderPriority_m3340181311
Ozb:__ZN11TimeManager8TransferI19StreamedBinaryWriteILb0EEEEvRT_
G2f:_DelegatePInvokeWrapper_ReadDelegate_t3184826381
vTi:__ZL91HashSet_1_t2624254809_CustomAttributesCacheGenerator_HashSet_1_OnDeserialization_m627602129P21CustomAttributesCache
DYi:__ZL86Material_t193706927_CustomAttributesCacheGenerator_Material_DisableKeyword_m1204728089P21CustomAttributesCache
rle:_compare_uni_maps
Jqe:__ZL34RegisterModuleICalls_TextRenderingv
Fze:__ZN11UnityEngine15PlatformWrapper27GetGraphicsCapsSupportFlagsEv
Sre:__ZNSt3__218__insertion_sort_3IRPFbPN2UI6CanvasES3_EPS3_EEvT0_S8_T_
Czi:__ZL80Decimal_t724701077_CustomAttributesCacheGenerator_Decimal_op_Explicit_m714968249P21CustomAttributesCache
MMa:__ZN18GlslGpuProgramGLES25LoadFromBinaryShaderCacheERKN4core12basic_stringIcNS0_20StringStorageDefaultIcEEEER17ShaderChannelMaskPKc
Zxd:__ZN5physx13NpRigidStatic9visualizeERNS_2Cm12RenderOutputEPNS_7NpSceneE
hOb:__ZN12NativeBufferI16Converter_StringE15SetupForWritingER9ArrayInfo
zXe:_StandaloneInputModule_DeactivateModule_m2952848884
hRl:___cxa_end_catch__wrapper
Tj:_emscripten_glVertexAttrib3fv
Wkd:__ZNK5physx22NpParticleBaseTemplateINS_16PxParticleSystemENS_16NpParticleSystemEE13getRestOffsetEv
Iaj:__ZL119RenderPipelineManager_t984453155_CustomAttributesCacheGenerator_RenderPipelineManager_CleanupRenderPipeline_m2242901458P21CustomAttributesCache
tAd:__ZN5physx6shdfnd8PoolBaseINS_2Sc35ParticleElementRbElementInteractionENS0_19ReflectionAllocatorIS3_EEE15disposeElementsEv
upj:_ValueCollection_System_Collections_Generic_ICollectionU3CTValueU3E_Clear_m231380274_gshared
DUe:_Entry__ctor_m1176697586
k0f:_BinaryReader_ReadUInt32_m1363572147
UZi:__ZL119PlayableHandle_t213697122_CustomAttributesCacheGenerator_PlayableHandle_INTERNAL_CALL_SetInputCountInternal_m3510545880P21CustomAttributesCache
K8f:_MonoType_get_Module_m3769241394
BPi:__ZL79Convert_t2607082565_CustomAttributesCacheGenerator_Convert_ToUInt32_m3391339025P21CustomAttributesCache
Wah:_X509Chain_IsSignedWith_m292245392
m8a:__ZN13MonoBehaviour22DoScriptRebuildWarningEv
Yec:__Z38Camera_CUSTOM_INTERNAL_CALL_RaycastTryP12Il2CppObjectRK3Rayfi
knc:__ZN18CrashReportHandler12CloseServiceEv
rYj:_Text_get_verticalOverflow_m3134063496
xEj:_AnimatorControllerPlayable_StringToHash_m2562221043
I4b:__ZZL23RegisterLightPropertiesR22GenericPropertyBindingEN22Wrapper_LightSpotAngle13GetFloatValueEPv
k$j:_GCHandle_get_Target_m2327042781
p9g:_PublicKey_get_EncodedKeyValue_m3051963850
wMh:__Z50RuntimeInvoker_Char_t3454481338_Single_t2076509932PFvvEPK10MethodInfoPvPS4_
dZe:_Button_OnFinishSubmit_m1646528571
uIc:__ZN5physx2Gu26EPASupportMapPairLocalImplINS0_9TriangleVENS0_4BoxVEED0Ev
_Gl:_llvm_cttz_i32
t9g:_PublicKey_DecodeDSA_m1169363495
Bpc:__ZN11IMGUIModule25GetGUIStyleScriptingClassEv
poe:_tt_get_interface
VOf:_Array_Sort_TisRuntimeObject_m143182644_gshared
hoh:_AsymmetricKeyExchangeFormatter__ctor_m3362140205
Dgl:__ZN6il2cpp5utils9PathUtils7CombineIcEENSt3__212basic_stringIT_NS3_11char_traitsIS5_EENS3_9allocatorIS5_EEEERKSA_SC_
u5g:_NameObjectCollectionBase_BaseGet_m667273025
WId:__ZN5physx14PxsAABBManager16processBPResultsERKNS_20PxsComputeAABBParamsE
nwc:__ZN9JSONWrite8TransferI13dynamic_arrayIiLj4EEEEvRT_PKc17TransferMetaFlags
bHd:__ZN5physx23PxsBroadPhaseContextSapD2Ev
M_d:__ZN5physx12SubSortQuickC2EPjPKNS_10PxBounds3VEjf
x1:__Z18ConvertUTF16toUTF8PPKtS0_PPhS2_15ConversionFlags
Zql:__ZN6il2cpp2os20PathErrnoToErrorCodeERKNSt3__212basic_stringIcNS1_11char_traitsIcEENS1_9allocatorIcEEEEi
Fxh:_TypeLoadException__ctor_m1903359728
GSk:__ZL16my_g_bit_nth_msfj
snj:_Transform_1_BeginInvoke_m3014766640_gshared
ZFe:_KeySizes__ctor_m3526899007
_dl:__ZN15dense_hashtableINSt3__24pairIK10KeyWrapperIP11Il2CppClassES4_EES5_N6il2cpp8metadata16SZArrayClassHashEN14dense_hash_mapIS5_S4_SA_NS5_14EqualsComparerINS9_19SZArrayClassCompareEEENS0_9allocatorIS7_EEE9SelectKeyESE_SG_E12expand_arrayEjN21dense_hash_map_traits17integral_constantIbLb0EEE
fYf:_Int16_System_IConvertible_ToInt32_m191782913_AdjustorThunk
Awk:_SpriteAtlasManager__cctor_m1344469326
q9i:__ZL69ArgumentCache_t4810721_CustomAttributesCacheGenerator_m_FloatArgumentP21CustomAttributesCache
eDg:_Collection_1_CopyTo_m1578267616_gshared
Gph:_EncoderReplacementFallback__ctor_m2208438262
xYa:__Z23SetupStereoFlareElementP11FlareVertexRK8Vector2fS3_S3_RK11ColorRGBA32RK10Matrix4x4fRK8Vector3fb
UPh:__Z91RuntimeInvoker_X509ChainStatusFlags_t480677120_RuntimeObject_RuntimeObject_SByte_t454417549PFvvEPK10MethodInfoPvPS4_
cVk:__ZN6il2cpp2vm5Class15GetInstanceSizeEPK11Il2CppClass
F_h:__Z37RuntimeInvoker_Enumerator_t3806193287PFvvEPK10MethodInfoPvPS4_
ab:invoke_iiiifiiii
jOg:_ReadOnlyCollection_1_System_Collections_Generic_ICollectionU3CTU3E_Remove_m3751131234_gshared
Htj:_Dictionary_2_CopyTo_m1495142643_gshared
xzc:__ZN9rapidjson8internal6u64toaEyPc
oGk:_EventFunction_1_BeginInvoke_m3064802067_gshared
jQi:__ZL67IndexOutOfRangeException_t3527622107_CustomAttributesCacheGeneratorP21CustomAttributesCache
Zed:__ZNK5physx2Sc9ClothCore16getRestPositionsEPNS_6PxVec4E
KDd:__ZN5physx20PxcSweepConvexConvexERKNS_11PxsCCDShapeES2_PKNS_12PxsRigidBodyES5_RKNS_11PxTransformES8_S8_S8_fRNS_6PxVec3ESA_RNS_10PxcNpCacheERNS_18PxcNpThreadContextEf
Q0f:_Directory_GetFiles_m4036267478
dH:__Z64AnimationOffsetPlayable_CUSTOM_INTERNAL_CALL_GetRotationInternalR9HPlayableR11Quaternionf
JVf:_NumberFormatInfo_get_CurrencyNegativePattern_m3972163809
eid:__ZN5physx15PxsParticleDataD0Ev
$Ja:__ZL19BlitFramebufferImplRN4gles23BlitFramebufferDrawQuadER9GfxDevice9TextureIDRK8Vector4f
ZIb:__Z18Transfer_BlittableI17RemapPPtrTransferLb0EhEvRK29SerializationCommandArgumentsR31RuntimeSerializationCommandInfo
DYd:__ZN5physx6shdfnd5ArrayIPvNS0_19ReflectionAllocatorIN17PxcPoolMallocData9PoolData8EEEE15growAndPushBackERKS2_
G7k:__ZN15dense_hashtableINSt3__24pairIK10KeyWrapperIPK10Il2CppTypeEjEES6_N6il2cpp8metadata14Il2CppTypeHashEN14dense_hash_mapIS6_jSB_NS6_14EqualsComparerINSA_26Il2CppTypeEqualityComparerEEENS0_9allocatorIS8_EEE9SelectKeyESF_SH_E4findERS7_
YRh:__Z83RuntimeInvoker_Void_t1841601450_QuaternionU26_t4187826802_QuaternionU26_t4187826802PFvvEPK10MethodInfoPvPS4_
IMg:_ReadOnlyCollection_1_System_Collections_IList_Add_m2333231354_gshared
MOi:__ZL78Convert_t2607082565_CustomAttributesCacheGenerator_Convert_ToSByte_m2470292806P21CustomAttributesCache
Qee:_UNITY_FT_List_Add
Xdi:_OpCodes__cctor_m939885911
oH:__Z87Register_UnityEngine_Animations_AnimationPlayableOutput_INTERNAL_CALL_InternalGetTargetv
aWg:_PKCS1_RSASP1_m1748738009
F0d:__ZN5physx15PxGeometryQuery14getWorldBoundsERKNS_10PxGeometryERKNS_11PxTransformEf
WLk:_Cat__ctor_m2148486693
epb:__ZN12CubemapArray21AwakeFromLoadThreadedEv
Rvi:_PlayableHandle_CompareVersion_m276961171
mgd:__ZN5physx2Sc9ClothCore18setSolverFrequencyEf
Bok:_UriParser_InitializeAndValidate_m251943319
pKe:_SymmetricAlgorithm_set_Padding_m3081984460
xzb:__ZN9InputAxis8TransferI18StreamedBinaryReadILb0EEEEvRT_
ZWd:__ZN5physx2Gu11HeightField8requiresERNS_23PxProcessPxBaseCallbackE
rmh:_StreamingContext_t1417235061_marshal_pinvoke_back
HDc:__ZN5physx2Gu16buildPartialHullERKNS0_13PolygonalDataEPNS0_12SupportLocalERNS0_14SeparatingAxesERKNS_6shdfnd3aos5Vec3VESC_
yhf:_ArrayList_RemoveAt_m2578928333
FGb:__Z18Transfer_BlittableI14SafeBinaryReadLb0EaEvRK29SerializationCommandArgumentsR31RuntimeSerializationCommandInfo
BXh:__Z51RuntimeInvoker_Boolean_t3825574718_Rect_t3681755626PFvvEPK10MethodInfoPvPS4_
OLg:_ReadOnlyCollection_1_System_Collections_IList_set_Item_m1233322304_gshared
Uyk:_GeneralNames_get_DNSNames_m2721668874
iMh:__Z76RuntimeInvoker_Boolean_t3825574718_TimeSpan_t3430258949_TimeSpan_t3430258949PFvvEPK10MethodInfoPvPS4_
dzf:_Enum_System_IConvertible_ToByte_m38374586
wLg:_ReadOnlyCollection_1_System_Collections_Generic_IListU3CTU3E_RemoveAt_m1592158292_gshared
C6h:_PlatformNotSupportedException__ctor_m3301654967
qLl:_emscripten_glFrustum__wrapper
I2i:__ZL126AnimatorControllerPlayable_t1744083903_CustomAttributesCacheGenerator_AnimatorControllerPlayable_CrossFadeInternal_m1115142950P21CustomAttributesCache
l$c:__ZNK5physx2Sc16ArticulationCore17releaseDriveCacheERNS_9PxcFsDataE
B1g:_ReceiveRecordAsyncResult_get_CompletedWithError_m2670396551
$4h:__Z37RuntimeInvoker_Enumerator_t2983962278PFvvEPK10MethodInfoPvPS4_
qwf:_Decimal_Equals_m1798565377
Vkb:__ZN17GlobalGameManager8TransferI24GenerateTypeTreeTransferEEvRT_
WYh:__Z38RuntimeInvoker_ContentType_t1028629049PFvvEPK10MethodInfoPvPS4_
xPc:__ZN5physx11NpAggregate7releaseEv
rfj:__ZL66InputField_t1631627530_CustomAttributesCacheGenerator_m_CaretColorP21CustomAttributesCache
u$d:__ZN5physx6shdfnd7PAUtilsD2Ev
Nai:_TypeBuilder_check_created_m2929267877
HOh:__Z121RuntimeInvoker_Int64_t909078037_Int32_t2071877448_Int32_t2071877448_Int32_t2071877448_Int32_t2071877448_Int32_t2071877448PFvvEPK10MethodInfoPvPS4_
pVa:__Z20SyncFenceCullResultsR11CullResults
xLa:__ZN15TextureTFMethod20IsBoneCountSupportedEi
gG:__ZN26AnimatorControllerPlayable9GotoStateEiifff
lni:_GUISkin_set_horizontalScrollbarThumb_m2119687595
fFf:_PlayableHandle_IsPlayableOfType_TisAudioMixerPlayable_t1831808911_m1065481197_AdjustorThunk
Vhh:_ObjRef__ctor_m1486312270
Dnc:__ZN18CrashReportManagerC2E18MemLabelIdentifier18ObjectCreationMode
rtf:_DateTime_System_IConvertible_ToSByte_m2575078084_AdjustorThunk
pKb:__Z22TransferField_NonArrayI17RemapPPtrTransfer27Converter_SimpleNativeClassI8GUIStyleEEvRK23StaticTransferFieldInfoR31RuntimeSerializationCommandInfoRT0_
ZFj:_AnimatorStateInfo_IsTag_m1529621725_AdjustorThunk
Nad:__ZN5physx7NpShape12setMaterialsEPKPNS_10PxMaterialEt
f1b:__ZNK17AnimationCurveTplIfE20EvaluateWithoutCacheEfRf
dpl:__ZN6il2cpp2os6Thread12QueueUserAPCEPFvPvES2_
jSe:_EncoderExceptionFallback_Equals_m762170768
Yla:__ZN19ShaderPropertySheet10SetTextureERK23FastTexturePropertyNameP7Texture
PFf:_Array_InternalArray__IEnumerable_GetEnumerator_TisDictionaryEntry_t3048875398_m3498834924_gshared
Wpi:_GUIStyleState__ctor_m3611888666
PEg:_Collection_1_IsValidItem_m1304951912_gshared
I8b:__ZN4Mesh10SetNormalsEPK8Vector3fj
Dhi:_PropertyInfo__ctor_m1808219471
Epf:_Convert_ToDateTime_m4161927553
Tai:_TypeBuilder_GetConstructors_m774120094
D4i:__ZL87Canvas_t209405766_CustomAttributesCacheGenerator_Canvas_set_overrideSorting_m3982973573P21CustomAttributesCache
Js:__ZN17AnimationCurveTplIfE8TransferI14SafeBinaryReadEEvRT_
kJh:__Z75RuntimeInvoker_Boolean_t3825574718_RuntimeObject_MonoIOErrorU26_t1029615899PFvvEPK10MethodInfoPvPS4_
Ppi:_GUIStyle_INTERNAL_CALL_SetMouseTooltip_m3411291301
Umk:_RegularExpression_set_GroupCount_m2991393456
mNc:__ZN5physx2Gu9RadixSortD2Ev
JAf:_Calendar_get_EraNames_m452820602
Atb:__ZNSt3__26vectorIN15QualitySettings14QualitySettingENS_9allocatorIS2_EEE6assignIPS2_EENS_9enable_ifIXaasr21__is_forward_iteratorIT_EE5valuesr16is_constructibleIS2_NS_15iterator_traitsIS9_E9referenceEEE5valueEvE4typeES9_S9_
Ggb:__ZNK5Unity9Component10GetEnabledEv
jLc:__Z15raycast_capsuleRKN5physx10PxGeometryERKNS_11PxTransformERKNS_6PxVec3ES8_fNS_7PxFlagsINS_9PxHitFlag4EnumEtEEjPNS_12PxRaycastHitEbPFbRSD_PvESG_
IWa:__ZNK19ShaderPropertySheet11HasPropertyERKN9ShaderLab16FastPropertyNameE
ctf:_DateTime_System_IConvertible_ToByte_m2670443498_AdjustorThunk
Xgd:__ZNK5physx15NpActorTemplateINS_15PxParticleFluidEE14getOwnerClientEv
AZ:__GLOBAL__sub_I_runtime_utilities4_lump_cpp
qej:__ZL58FontData_t2614388407_CustomAttributesCacheGenerator_m_FontP21CustomAttributesCache
C3k:_il2cpp_class_get_image
z5:__Z16AsyncReadRequestP16AsyncReadCommand
tRi:__ZL81BigInteger_t925946153_CustomAttributesCacheGenerator_BigInteger__ctor_m4013661868P21CustomAttributesCache
NRd:__ZNK5physx34PxsSolverConstraintPostProcessTask7getNameEv
TTg:_BigInteger_op_Addition_m1734797151
REc:__ZN5physx2Gu23distancePointBoxSquaredERKNS_6PxVec3ES3_S3_RKNS_7PxMat33EPS1_
$6d:__ZN5physx9NpPhysics20MeshDeletionListener28onGuMeshFactoryBufferReleaseEPKNS_6PxBaseEtb
MDg:_Collection_1_System_Collections_IList_set_Item_m3488446830_gshared
mbi:_EnumBuilder_CreateNotSupportedException_m62763134
wDe:__ZNK12HeaderHelper3GetERKN4core12basic_stringIcNS0_20StringStorageDefaultIcEEEE
Hxe:__Z24GetUnityAnalyticsManagerv
jHe:_RijndaelManagedTransform_TransformBlock_m2558865851
iEg:_Collection_1_System_Collections_Generic_ICollectionU3CTU3E_get_IsReadOnly_m4096071066_gshared
ozb:__ZN9InputAxis8TransferI14SafeBinaryReadEEvRT_
G2:__ZNK21ExecutionOrderManager30GetCustomAwakeFromLoadQueueForEPKN5Unity4TypeE
hsd:__ZNK5physx7NpScene9getActorsENS_7PxFlagsINS_15PxActorTypeFlag4EnumEtEEPPNS_7PxActorEjj
A1i:__ZL141AnimationClipPlayable_t4099382200_CustomAttributesCacheGenerator_AnimationClipPlayable_INTERNAL_CALL_GetRemoveStartOffsetInternal_m3895628593P21CustomAttributesCache
KCe:__Z27RegisterModule_UnityConnectv
fog:_Enumerator_Dispose_m3717265706_AdjustorThunk
Vjd:__ZN5physx15PxParticleFluidD0Ev
Zzd:__ZN5physx11NodeManagerD0Ev
lii:_ParameterInfo_get_IsRetval_m1881464570
kJj:_Bounds_get_size_m1728027642_AdjustorThunk
xih:_RealProxy__ctor_m3041043303
STf:_NumberFormatter_Init_m2654758994
KFe:_HMACSHA1__ctor_m1168389339
$Pc:__ZNK5physx2Sc8BodyCore6getSimEv
oXi:__ZL100Input_t1785128008_CustomAttributesCacheGenerator_Input_INTERNAL_get_compositionCursorPos_m2426914348P21CustomAttributesCache
EQk:__ZL25UnresolvedVirtualCall_210P12Il2CppObjectPK10MethodInfo
RG:__Z96Register_UnityEngine_Animations_AnimationClipPlayable_INTERNAL_CALL_SetRemoveStartOffsetInternalv
dO:__ZN10ObjectPoolIN4FMOD12ChannelGroupENS0_13ChannelGroupIEE7SetSizeEi
Udg:_PrimalityTest_BeginInvoke_m966469054
Cca:__ZN15dense_hashtableINSt3__24pairIKN4core12basic_stringIcNS2_20StringStorageDefaultIcEEEE13dynamic_arrayI4PPtrI6SpriteELj4EEEES6_20StringHash32FunctionIS6_EN14dense_hash_mapIS6_SC_SF_NS0_8equal_toIS6_EE13stl_allocatorISD_L18MemLabelIdentifier79ELi16EEE9SelectKeyESI_SL_E9copy_fromERKSO_j
GAh:_UInt64_System_IConvertible_ToInt16_m2797150165_AdjustorThunk
RRf:_Array_InternalArray__get_Item_TisLabelData_t3712112744_m863115768_gshared
LZf:_Int32_Parse_m753946802
Kri:_Material_DisableKeyword_m1204728089
n_:__Z22ValidateTlsfAllocationPvjiS_
T9c:__ZN5physx2Cm12RefCountable14onRefCountZeroEv
Oyg:_List_1_RemoveAt_m2331128844_gshared
UBj:_AnimatorControllerPlayable_GetFloatString_m3678921564
Dei:_UnmanagedMarshal_ToMarshalAsAttribute_m3695569337
hdd:__ZNK5physx7NpCloth25getMotionConstraintConfigEv
aIb:__Z14resize_trimmedINSt3__26vectorI17AnimationCurveTplIfE13stl_allocatorIS3_L18MemLabelIdentifier1ELi16EEEEEvRT_j
E6a:__ZN25CameraStackRenderingState19SetupLastEyeCamerasERK11CameraStack
Fdc:__Z12GUIDToStringRK9UnityGUID
IEe:__GLOBAL__sub_I_runtime_vr_plugininterface_lump_cpp
$8e:_LayoutElement_get_minHeight_m2070403283
tol:__ZN6il2cpp6icalls8mscorlib6System4Enum12get_hashcodeEP12Il2CppObject
rK:__ZN11SoundHandleC2ERKS_
LQj:_Mask_OnEnable_m501850981
VVg:_RSASslSignatureFormatter__ctor_m2530528184
AKj:_Canvas_get_targetDisplay_m316548313
KH:__Z75AnimatorControllerPlayable_CUSTOM_INTERNAL_CALL_GetAnimatorClipInfoInternalR9HPlayableihP12Il2CppObject
trd:__ZThn8_N5physx2Sc24ElementInteractionMarker7destroyEv
zdg:_BigInteger_op_Addition_m1196561843
AQb:__ZN11Quaternionf8TransferI18StreamedBinaryReadILb1EEEEvRT_
icb:__Z29StdTemplateConversionFunctionItxEbPvR14SafeBinaryRead
L1j:_FormatterData__ctor_m3974986124
JEi:__ZL64FileNotFoundException_t4200667904_CustomAttributesCacheGeneratorP21CustomAttributesCache
iHe:_RijndaelManagedTransform_get_CanReuseTransform_m3735256596
$Mc:__ZN5physx3Cct26CharacterControllerManager24setOverlapRecoveryModuleEb
Akf:_Comparer__cctor_m1327316974
L0f:_MonoIO_ExistsFile_m1421941572
Buf:_DateTime_op_GreaterThanOrEqual_m3818963848
pza:__ZNSt3__26__treeINS_12__value_typeI18VertexChannelsInfoP17VertexDeclarationEENS_19__map_value_compareIS2_S5_NS_4lessIS2_EELb1EEE13stl_allocatorIS5_L18MemLabelIdentifier14ELi16EEE12__find_equalIS2_EERPNS_16__tree_node_baseIPvEENS_21__tree_const_iteratorIS5_PNS_11__tree_nodeIS5_SG_EEiEESJ_RKT_
Fw:__ZN17AnimationPlayable18DeallocateBindingsEv
F9a:__ZN6Camera25StandaloneRenderToCubemapEP7TextureiPFvPK9SceneNodePK4AABBR9IndexListPvESA_j
V$e:_DefaultControls_SetDefaultTextValues_m1707718380
UXe:_TouchInputModule_UseFakeInput_m2112019004
VTe:_EventSystem_get_baseEventDataCache_m4294741599
LGl:___cxa_guard_release
Qnb:__ZN14RenderSettings18TransferDeprecatedI14SafeBinaryReadEEvRT_
FGc:__ZN24ConvexVsHeightfieldSweepD0Ev
h7i:__ZL85GUIStyle_t1799908754_CustomAttributesCacheGenerator_GUIStyle_Internal_Draw_m694122665P21CustomAttributesCache
V_:__ZN12TLSAllocatorI14StackAllocatorE8AllocateEji
B3:__ZN16ScriptingManager18GetMonoScriptCacheEi
AGh:__Z62RuntimeInvoker_Void_t1841601450_RuntimeObject_Int64_t909078037PFvvEPK10MethodInfoPvPS4_
Oli:_GUIStyle_get_stretchHeight_m3396762700
uWk:__ZN15dense_hashtableINSt3__24pairIK10KeyWrapperIPK11Il2CppClassEPKcEES6_N6il2cpp5utils11PointerHashIS3_EEN14dense_hash_mapIS6_S9_SE_NS6_14EqualsComparerINS0_8equal_toIS5_EEEENS0_9allocatorISA_EEE9SelectKeyESJ_SL_E15set_deleted_keyERKSA_
a4e:_GridLayoutGroup_CalculateLayoutInputHorizontal_m2355123124
sTi:__ZL84Locale_t4255929017_CustomAttributesCacheGenerator_Locale_GetText_m512920887____args1P21CustomAttributesCache
MGb:__Z18Transfer_BlittableI14SafeBinaryReadLb1EyEvRK29SerializationCommandArgumentsR31RuntimeSerializationCommandInfo
Eaj:__ZL89U3CInvokeMessageIdSubscribersU3Ec__AnonStorey0_t1899782350_CustomAttributesCacheGeneratorP21CustomAttributesCache
Tsc:__ZN8JSONRead8TransferIfEEvRT_PKc17TransferMetaFlagsb
i$i:__ZL105Physics_t634932869_CustomAttributesCacheGenerator_Physics_Raycast_m3475924638____queryTriggerInteraction4P21CustomAttributesCache
xdi:_ModuleBuilder_GetTypes_m93550753
QNj:_Coroutine__ctor_m1253937571
fQg:_ReadOnlyCollection_1_System_Collections_ICollection_get_IsSynchronized_m4063596282_gshared
ndf:__ZN21InterfaceFuncInvoker2IP12Il2CppObjectP6Type_tS1_E6InvokeEjP11Il2CppClassS1_S3_S1_
LFl:__ZNSt3__212basic_stringIcNS_11char_traitsIcEENS_9allocatorIcEEE6appendEPKcj
BFi:__ZL54TypeBuilder_t3308873219_CustomAttributesCacheGeneratorP21CustomAttributesCache
Udd:__ZN5physx7NpCloth25setSelfCollisionStiffnessEf
qDd:__ZZN5physx28PxcSweepEstimateAnyShapeMeshERKNS_11PxsCCDShapeES2_PKNS_12PxsRigidBodyES5_RKNS_11PxTransformES8_fEN2CBD0Ev
nGg:_Collection_1_CheckWritable_m691269733_gshared
X4h:__Z54RuntimeInvoker_Void_t1841601450_IntPtr_t_RuntimeObjectPFvvEPK10MethodInfoPvPS4_
Qbi:_GenericTypeParameterBuilder_GetAttributeFlagsImpl_m3338182267
qU:__ZN13Simd4iFactoryIN6detail9FourTupleEEC2Eiiii
e5f:_SynchronizedReader__ctor_m1408327515
_Bk:_X509Store_LoadCrl_m1146720614
N0h:__Z59RuntimeInvoker_Int32_t2071877448_KeyValuePair_2_t3749587448PFvvEPK10MethodInfoPvPS4_
fRg:_ReadOnlyCollection_1_System_Collections_IList_Clear_m1858417639_gshared
hmf:_Slot_t2022531261_marshal_pinvoke_cleanup
xGj:_LogCallback__ctor_m898185969
zrb:__ZN15SerializeTraitsI33EnlightenTerrainChunksInformationE8TransferI14SafeBinaryReadEEvRS0_RT_
J7c:__ZN5physx2Sc14ConstraintCoreD2Ev
OCk:_Predicate_1__ctor_m1567825400_gshared
r3b:__ZNK32RendererMaterialAnimationBinding9BindValueER6ObjectRKN11UnityEngine9Animation14GenericBindingERNS3_10BoundCurveE
I4c:__ZN5physx15NpActorTemplateINS_18PxArticulationLinkEE13setActorFlagsENS_7PxFlagsINS_11PxActorFlag4EnumEtEE
zob:__Z13GetIAnimationv
nva:__ZL18stbir__support_onef
lYd:__ZN5physx6shdfnd8internal8HashBaseIPNS_11PxAggregateES4_NS0_4HashIS4_EENS1_11HashSetBaseIS4_S6_NS0_9AllocatorELb0EE6GetKeyES8_Lb0EE15reserveInternalEj
Frg:_List_1_System_Collections_IList_Remove_m2040310137_gshared
Jik:_Match_get_Regex_m3526002767
VEi:__ZL49Stream_t3255436806_CustomAttributesCacheGeneratorP21CustomAttributesCache
$uc:__Z26Transfer_UnityEngineObjectI9JSONWriteLb0EEvRK29SerializationCommandArgumentsR31RuntimeSerializationCommandInfo
Vga:__ZN9ShaderLab4Pass9ApplyPassEjPK19ShaderPropertySheetR17ShaderPassContextP6ShaderiPKNS_10GrabPassesEPNS_11SubProgramsE
Xma:__ZNSt3__26vectorIN4core12basic_stringIcNS1_20StringStorageDefaultIcEEEE13stl_allocatorIS5_L18MemLabelIdentifier1ELi16EEE6assignINS_11__wrap_iterIPS5_EEEENS_9enable_ifIXaasr21__is_forward_iteratorIT_EE5valuesr16is_constructibleIS5_NS_15iterator_traitsISF_E9referenceEEE5valueEvE4typeESF_SF_
Nzh:_UInt32_System_IConvertible_ToInt16_m2251335934_AdjustorThunk
Nse:__ZNSt3__27__sort5IRNS_6__lessIN2UI14DepthSortEntryES3_EEPS3_EEjT0_S7_S7_S7_S7_T_
vee:_UNITY_FT_DivFix
p9k:__ZNSt3__218uninitialized_copyIPNS_4pairIK10KeyWrapperINS1_IPK11Il2CppImageP11Il2CppClassEEEjEESC_EET0_T_SE_SD_
WCk:_Predicate_1__ctor_m784266182_gshared
Ia:invoke_vdd
qo:FUNCTION_TABLE_fiii
sck:_InternalEnumerator_1_Dispose_m3838127340_AdjustorThunk
Dyf:_Double_System_IConvertible_ToUInt32_m624993430
uo:FUNCTION_TABLE_fiif
jcj:__ZL89PointerEventData_t1599784723_CustomAttributesCacheGenerator_U3CdraggingU3Ek__BackingFieldP21CustomAttributesCache
Cqe:__ZZ29InitializeTextRenderingModulevEN27cleanupAfterLoadRegistrator7ForwardEv
kvh:_Scheduler_Add_m376749205
Bx:__ZN27AnimationLayerMixerPlayable24ProcessAnimationLayerMixEP33AnimationPlayableEvaluationOutputP35AnimationPlayableEvaluationConstantP32AnimationPlayableEvaluationInputS1_if
IDi:__ZL53SortedList_t3004938869_CustomAttributesCacheGeneratorP21CustomAttributesCache
$zl:__ZN6il2cpp6icalls8mscorlib4Mono8Security12Cryptography18KeyPairPersistence19_IsMachineProtectedEP12Il2CppString
EOl:_emscripten_glGenVertexArrays__wrapper
b6a:__Z29PluginsIssueRenderingExtEvent26UnityRenderingExtEventTypePv
qkl:__ZN15dense_hashtableINSt3__24pairIK10KeyWrapperINS1_IPKcS4_EEEiEES6_24NamespaceAndNamePairHashN14dense_hash_mapIS6_iS9_NS6_14EqualsComparerI26NamespaceAndNamePairEqualsEENS0_9allocatorIS8_EEE9SelectKeyESD_SF_E12resize_deltaEjj
Eek:_InternalEnumerator_1_Dispose_m3464626239_AdjustorThunk
r2b:__Z14RandomRotationP9Texture2DPhiiii
tjh:_SingleCallIdentity__ctor_m1512303454
Wak:_InternalEnumerator_1_MoveNext_m1594563423_AdjustorThunk
B0e:_OptionDataList__ctor_m613113846
H4i:__ZL86Canvas_t209405766_CustomAttributesCacheGenerator_Canvas_get_sortingLayerID_m1396307660P21CustomAttributesCache
OPk:__ZL25UnresolvedVirtualCall_166P12Il2CppObject20UIVertex_t1204258818S1_PK10MethodInfo
pwg:_List_1_System_Collections_IList_Insert_m2036969360_gshared
C7e:_InputField_GetUnclampedCharacterLineFromPosition_m1912794077
mtk:_SpaceAttribute__ctor_m1444406696
Gsd:__ZN5physx7NpScene27setCCDContactModifyCallbackEPNS_26PxCCDContactModifyCallbackE
f2f:_ReadDelegate__ctor_m885671467
oZd:__ZNK5physx17ConvexHullBuilder17ComputeGeomCenterERNS_6PxVec3E
_uf:_DateTimeOffset_ToString_m2121173678_AdjustorThunk
QRi:__ZL50X509Crl_t1699034837_CustomAttributesCacheGeneratorP21CustomAttributesCache
vOh:__Z74RuntimeInvoker_RuntimeObject_RuntimeObject_Int16_t4041245914_RuntimeObjectPFvvEPK10MethodInfoPvPS4_
DHd:__ZN3MBPD0Ev
Oj:_JS_WebRequest_SetResponseHandler
CRl:_glDeleteProgram__wrapper
dfc:__Z50Register_UnityEngine_Camera_INTERNAL_get_pixelRectv
V0i:__ZL119AudioClipPlayable_t192218916_CustomAttributesCacheGenerator_AudioClipPlayable_INTERNAL_CALL_GetClipInternal_m2079955679P21CustomAttributesCache
Ipa:__ZN6prcoreL18BlitFloatToIntegerERK14ImageReferenceRS0_
tjg:_X509CertificateCollection_get_Item_m410866272
upk:_Rect_get_yMax_m2915146103
vJk:_EqualityComparer_1_System_Collections_IEqualityComparer_Equals_m1705945391_gshared
Mvd:__ZNK5physx10PxsContext18getBounceThresholdEv
I0b:__Z13GetIPhysics2Dv
GX:__ZN11UnityEngine15CloudWebService14RestDownloader17OnCompleteContentEv
u4e:_LayoutGroup_SetChildAlongAxis_m1615929339
zOh:__Z75RuntimeInvoker_RuntimeObject_RuntimeObject_Double_t4078015681_RuntimeObjectPFvvEPK10MethodInfoPvPS4_
ONh:__Z200RuntimeInvoker_Boolean_t3825574718_RuntimeObject_RuntimeObject_RuntimeObject_Int32_t2071877448_DateTimeU26_t3448131235_SByte_t454417549_BooleanU26_t3168250738_SByte_t454417549_ExceptionU26_t1467204777PFvvEPK10MethodInfoPvPS4_
Pqd:__ZN5physx6shdfnd5ArrayIPvNS0_15InlineAllocatorILj256ENS0_19ReflectionAllocatorINS_2Gu31SpherePersistentContactManifoldEEEEEE15growAndPushBackERKS2_
VTd:__ZN5physx2Cm18DelegateFanoutTaskINS_2Sc5SceneEXadL_ZNS3_17finalizationPhaseEPNS_10PxBaseTaskEEEE11runInternalEv
uaa:__ZNSt3__26vectorI20ProcessCallbackGroupNS_9allocatorIS1_EEEC2ERKS4_
zz:__ZN17AnimationPlayable28UpdateInternalStateRecursiveILi1ELb0EEEvPK35AnimationPlayableEvaluationConstant
kzg:_List_1_System_Collections_ICollection_get_SyncRoot_m1429670979_gshared
cb:invoke_vifff
Qgc:__Z41Register_UnityEngine_GameObject_set_layerv
O5j:_InternalEnumerator_1__ctor_m2111763266_gshared
Jhc:__Z53Register_UnityEngine_Input_INTERNAL_get_mousePositionv
Uhd:__ZN5physx15NpParticleFluid15exportExtraDataERNS_22PxSerializationContextE
dQl:_glGetVertexAttribiv__wrapper
C3c:__ZN5physx6shdfnd15atomicDecrementEPVi
xf:_emscripten_request_fullscreen
PTd:__ZN5physx2Cm12DelegateTaskINS_2Sc5SceneEXadL_ZNS3_11postCCDPassEPNS_10PxBaseTaskEEEED0Ev
ppk:_Rect_get_xMin_m1161102488
Wok:_RaycastHit2D_get_normal_m3768105386_AdjustorThunk
nea:__ZN20LocalFileSystemWebGL6DeleteER13FileEntryDatab
cwf:_Decimal_System_IConvertible_ToUInt16_m1621568250
zf:_emscripten_glDisableVertexAttribArray
FZi:__ZL79Object_t1021602117_CustomAttributesCacheGenerator_Object_Instantiate_m938141395P21CustomAttributesCache
jo:FUNCTION_TABLE_iiiifiiii
fwh:_TimeSpan_get_TotalMinutes_m1645177229_AdjustorThunk
Ec:invoke_fifffi
ioj:_Enumerator__ctor_m3539306986_gshared
hGa:__ZN4gles23ClearCurrentFramebufferEP7ApiGLESbbbRK10ColorRGBAffi
ay:__ZN7mecanim12statemachine20CreateStateWorkspaceEjjjRNS_6memory9AllocatorE
Ieg:__ZN21InterfaceFuncInvoker3IP22ByteU5BU5D_t3397334013S1_iiE6InvokeEjP11Il2CppClassP12Il2CppObjectS1_ii
N6j:_InternalEnumerator_1_System_Collections_IEnumerator_get_Current_m3680087284_gshared
WYd:__ZN5physx2Gu11HeightField13releaseMemoryEb
Kf:_emscripten_glDeleteObjectARB
YHa:__Z14DecompressDXT3iiiPKjPj
W5f:_UnexceptionalStreamReader_Read_m3839775235
Yqa:__ZN6prcoreL27StretchGenericFloatBilinearI18TexFormatARGBFloatEEvPKNS_9InnerInfoE
rlc:__Z53Register_UnityEngine_RenderTexture_Internal_GetHeightv
QSf:_Dropdown_GetOrAddComponent_TisRuntimeObject_m2875934266_gshared
Lih:_RealProxy_SetTargetDomain_m3940877656
Jqa:__ZN6prcoreL17RemapGenericFloatI17TexFormatRGBAHalf18TexFormatARGBFloatEEvPKNS_9InnerInfoE
jzf:_Enum_System_IConvertible_ToInt32_m2459904362
dpc:__ZNK8GUIStyle21DrawWithTextSelectionER8GUIStateRK5RectTIfER10GUIContentbbbbbiiRK10ColorRGBAfSA_
COh:__Z61RuntimeInvoker_RuntimeObject_Double_t4078015681_RuntimeObjectPFvvEPK10MethodInfoPvPS4_
abc:__ZN10systeminfo21SupportsAccelerometerEv
rpc:__Z14GetBuiltinSkini
eSe:_DecoderReplacementFallbackBuffer_Reset_m2576819665
Cnc:__ZN18CrashReportHandler23RegisterGlobalCallbacksEv
qdk:_InternalEnumerator_1_MoveNext_m607849555_AdjustorThunk
RSe:_BaseInput_set_compositionCursorPos_m2632248731
ZKk:_Enumerator_System_Collections_IEnumerator_Reset_m2573763156_gshared
c8f:_MonoType_GetConstructors_internal_m2709619723
WMe:_WindowsIdentity_Dispose_m2649088337
dZb:__ZN2UI13RectTransform23VirtualRedirectTransferER14SafeBinaryRead
QDk:_InvokableCall_1__ctor_m54675381_gshared
ptd:__ZN5physx7NpScene17flushQueryUpdatesEv
m8f:_MonoType_GetMethodImpl_m593754598
Tog:_List_1_System_Collections_ICollection_get_SyncRoot_m3733894943_gshared
$ug:_List_1_Reverse_m302978607_gshared
HVb:__ZNSt3__26vectorIN9ShaderLab20SerializedSubProgramENS_9allocatorIS2_EEE6assignIPS2_EENS_9enable_ifIXaasr21__is_forward_iteratorIT_EE5valuesr16is_constructibleIS2_NS_15iterator_traitsIS9_E9referenceEEE5valueEvE4typeES9_S9_
_wc:__Z18Transfer_BlittableI8JSONReadLb0E8BitFieldEvRK29SerializationCommandArgumentsR31RuntimeSerializationCommandInfo
Fjh:_SoapServices_RegisterInteropXmlType_m2949236705
g8k:__ZNK15dense_hashtableINSt3__24pairIK10KeyWrapperIPK10Il2CppTypeEjEES6_N6il2cpp8metadata14Il2CppTypeHashEN14dense_hash_mapIS6_jSB_NS6_14EqualsComparerINSA_26Il2CppTypeEqualityComparerEEENS0_9allocatorIS8_EEE9SelectKeyESF_SH_E10test_emptyERK24dense_hashtable_iteratorIS8_S6_SB_SJ_SF_SH_E
tPb:__ZL17Transfer_GUIStyleI18StreamedBinaryReadILb1EELb0EEvRK29SerializationCommandArgumentsR31RuntimeSerializationCommandInfo
$Qe:_String_CharCopy_m2550399897
nPh:__Z234RuntimeInvoker_RuntimeObject_Int16_t4041245914_RuntimeObject_Int32_t2071877448_Int32_t2071877448_Int32_t2071877448_SByte_t454417549_SByte_t454417549_SByte_t454417549_SByte_t454417549_Int16_t4041245914_SByte_t454417549_SByte_t454417549PFvvEPK10MethodInfoPvPS4_
Htd:__ZN5physx7NpScene10unlockReadEv
QTb:__ZN9ShaderLab14SerializedPass8TransferI14SafeBinaryReadEEvRT_
jqc:__Z71Register_UnityEngine_GUILayoutUtility_INTERNAL_CALL_Internal_MoveWindowv
bS:__ZN12AudioManager16SetListenerPauseEb
Mgl:__ZN6il2cpp2vm9Exception25RaiseOutOfMemoryExceptionERKNS_5utils10StringViewIDsEE
cEg:_Collection_1_IsValidItem_m2254106115_gshared
abi:_TypeBuilder_GetEvent_m3876348075
pkk:_Parser_ParseDecimal_m4127410766
yXj:_Slider_OnMove_m641164662
fa:invoke_viiiiiiiiiii
mCl:___syscall_ret
nvh:_Scheduler__ctor_m3716265742
xgg:_MACAlgorithm_Final_m4076939925
g5k:__ZNSt3__212basic_stringIcNS_11char_traitsIcEENS_9allocatorIcEEE6assignINS_11__wrap_iterIPKcEEEENS_9enable_ifIXaasr21__is_forward_iteratorIT_EE5valuesr38__libcpp_string_gets_noexcept_iteratorISC_EE5valueERS5_E4typeESC_SC_
qye:__Z56Register_UnityEngine_Analytics_CustomEventData_AddDoublev
IPk:__ZL25UnresolvedVirtualCall_160P12Il2CppObject23RaycastResult_t21186376S1_PK10MethodInfo
Xub:__ZN11ChannelInfo8TransferI19StreamedBinaryWriteILb0EEEEvRT_
t6j:_InternalEnumerator_1_System_Collections_IEnumerator_get_Current_m3583252352_gshared
Dai:_EnumBuilder_get_FullName_m2818393911
jfd:__ZN5physx2Sc9ClothCore22setFrictionCoefficientEf
oZa:__ZN14qsort_internal13Partition3WayIP17RODataReplacementi19ROSorterReplacementEENSt3__24pairIT_S6_EES6_S6_T0_T1_
h9c:__ZNK5physx9NpPhysics17getNbConvexMeshesEv
d4f:_StreamAsyncResult_get_Done_m2858832609
ctd:__ZNK5physx7NpScene29getContactCorrelationDistanceEv
ahc:__Z34Register_UnityEngine_Gradient_Initv
GHk:_ObjectPool_1_set_countAll_m1742773675_gshared
$lh:_SerializationEntry_get_Value_m1628109884_AdjustorThunk
sTe:_BaseInputModule_GetAxisEventData_m3903709281
eSf:_Array_InternalArray__get_Item_TisUriScheme_t1876590943_m1821482697_gshared
WSg:_BigInteger__ctor_m3239748086
Kda:__ZN13ScreenManager23SetIsOrientationEnabledE18EnabledOrientationb
NNk:__ZL24UnresolvedVirtualCall_57P12Il2CppObjectiPK10MethodInfo
bPi:__ZL79Convert_t2607082565_CustomAttributesCacheGenerator_Convert_ToUInt16_m1043031438P21CustomAttributesCache
Hx:__ZN7mecanim5human25HumanPoseAddOverrideLayerERNS0_9HumanPoseERKS1_fRKNS_6bitsetILj70EEE
Dqd:__ZN5physx16PxsIslandManager16clearEdgeRigidCMERKNS_20PxsIslandManagerHookIjLj4294967295EEE
$0b:__ZN13ProduceHelperI9TransformLb0EE7ProduceE18MemLabelIdentifier18ObjectCreationMode
asc:__Z45Register_UnityEngine_GUIStyle_GetFontInternalv
FOc:__ZN5physx6shdfnd8SyncImpl4waitEj
LOk:__ZL25UnresolvedVirtualCall_109P12Il2CppObjectS0_S0_iiPK10MethodInfo
dRe:_StringComparer_get_InvariantCultureIgnoreCase_m1052445386
olk:_Alternation_get_Alternatives_m1445219249
luj:_DefaultComparer_GetHashCode_m2506382068_gshared
mNj:_Component_SendMessageUpwards_m19741277
NIk:_EqualityComparer_1_System_Collections_IEqualityComparer_GetHashCode_m1012273405_gshared
nKf:_Array_InternalArray__ICollection_Add_TisHitInfo_t1761367055_m2956071622_gshared
sYi:__ZL74Random_t1170710517_CustomAttributesCacheGenerator_Random_Range_m2884721203P21CustomAttributesCache
Ock:_InternalEnumerator_1_MoveNext_m470170271_AdjustorThunk
_8a:__ZN10GameObject23VirtualRedirectTransferER18StreamedBinaryReadILb0EE
rmg:_Enumerator_get_Current_m2577424081_gshared
cgk:_InternalEnumerator_1_Dispose_m2270401482_AdjustorThunk
p8f:_MonoType_HasElementTypeImpl_m1040892148
_g:_glFrontFace
Alh:_ObjectRecord_get_IsUnsolvedObjectReference_m2202692850
edh:_FactoryCache_Cleanup_m4130035987
p2j:__ZN23InterfaceActionInvoker1IP18Context_t502196753E6InvokeEjP11Il2CppClassP12Il2CppObjectS1_
Axe:__ZN18BaseUnityAnalytics7ReleaseEv
RF:__ZN26AnimatorControllerPlayable14SetLayerWeightEif
Z$b:__ZN13ProduceHelperI19LowerResBlitTextureLb0EE7ProduceE18MemLabelIdentifier18ObjectCreationMode
Wud:__ZN5physx13NpVolumeCache17getNbCachedShapesEv
s2a:__ZNSt3__26vectorI16ShadowCasterData13stl_allocatorIS1_L18MemLabelIdentifier2ELi16EEE21__push_back_slow_pathIKS1_EEvRT_
VEf:_PlayableHandle_IsPlayableOfType_TisAnimationClipPlayable_t4099382200_m682525715_AdjustorThunk
EEk:_UnityAction_1_Invoke_m1279802577_gshared
pAh:_UInt32_ToString_m1783596809
yrk:_Vector3_get_forward_m1201659139
Nzg:_List_1_Sort_m269561757_gshared
k7i:__ZL110GUIStyle_t1799908754_CustomAttributesCacheGenerator_GUIStyle_INTERNAL_CALL_Internal_DrawPrefixLabel_m557487542P21CustomAttributesCache
jre:__Z51Register_UnityEngine_TextGenerator_GetLinesInternalv
sLk:_HashSet_1_Init_m1258286688_gshared
ZEg:_Collection_1_System_Collections_IList_Contains_m3345685421_gshared
uBk:_X509ExtensionCollection_get_Item_m4212651995
OMg:_ReadOnlyCollection_1_System_Collections_IList_RemoveAt_m525136953_gshared
EHf:__ZN21InterfaceFuncInvoker1Ii19Vector4_t2243707581E6InvokeEjP11Il2CppClassP12Il2CppObjectS0_
_pa:__ZN6prcoreL17RemapGenericFloatI17TexFormatRGBFloat18TexFormatRGBAFloatEEvPKNS_9InnerInfoE
xwd:__ZN5physx2Sc5Scene15getRenderBufferEv
uAh:_UInt64_System_IConvertible_ToBoolean_m3012279573_AdjustorThunk
hyh:_Type_get_IsGenericTypeDefinition_m2147901038
iRa:__ZN12HandlerChain10ToAbsoluteEPKc
M2j:_ContextAttribute_Freeze_m4133346275
oTf:_GregorianCalendar__ctor_m3794576475
kAh:_UInt32_TryParse_m4283512434
erj:__ZN21InterfaceFuncInvoker2Ib8IntPtr_tS0_E6InvokeEjP11Il2CppClassP12Il2CppObjectS0_S0_
xll:__ZN15dense_hashtableI10KeyWrapperIP18Il2CppGenericClassES3_N6il2cpp8metadata22Il2CppGenericClassHashEN14dense_hash_setIS3_S6_NS3_14EqualsComparerINS5_25Il2CppGenericClassCompareEEENSt3__29allocatorIS3_EEE8IdentityESA_SD_E8min_sizeEjj
dDb:__ZN13MonoBehaviour23VirtualRedirectTransferER19StreamedBinaryWriteILb0EE
iK:__ZN9AudioClip11CreateSoundEv
Dri:_Material_get_mainTexture_m432794412
Qlj:_ShimEnumerator_MoveNext_m3313047792_gshared
QEg:_Collection_1_ConvertItem_m2185647560_gshared
Mwh:_TimeSpan_op_Inequality_m257547441
Uth:_ExecutionContext_GetObjectData_m1456913356
Rcl:__ZN14dense_hash_mapI10KeyWrapperINSt3__24pairIPK9FieldInfoP11Il2CppClassEEEj17ReflectionMapHashIS8_ENS9_14EqualsComparerINS1_8equal_toIS8_EEEENS1_9allocatorINS2_IKS9_jEEEEEC2EjRKSB_RKSF_
Wti:_Object_set_hideFlags_m2204253440
r8k:__ZNK15dense_hashtableINSt3__24pairIK10KeyWrapperINS1_IPK10MethodInfoP11Il2CppClassEEEjEES9_17ReflectionMapHashIS8_EN14dense_hash_mapIS9_jSD_NS9_14EqualsComparerINS0_8equal_toIS8_EEEENS0_9allocatorISB_EEE9SelectKeyESI_SK_E13find_positionERSA_
vai:_EnumBuilder_get_Assembly_m4285228003
tDa:__ZN13GfxDeviceGLES20CreateComputeProgramEPKhj
Xwi:_PlayableOutput__ctor_m3826671654
hVf:_DateTimeFormatInfo_get_RoundtripPattern_m562440017
ZBe:__ZN11UnityEngine7Connect16PersistentValues13RestoreValuesER8JSONRead
P3d:__ZN14SphereCollider22FetchPoseFromTransformEv
QSa:__ZN20ArchiveStorageReader31TryToReadDirectoryFromBlockDataEyPKvj
nvj:_DefaultComparer__ctor_m3947565964_gshared
iyf:_Double_System_IConvertible_ToByte_m3004284950_AdjustorThunk
Jjh:_TypeEntry_get_AssemblyName_m1762285107
gPd:__ZNK5physx2Gu11HeightField17getHeightInternalEff
zjl:__ZN6il2cpp2vmL11GetIdentityEP14Il2CppIUnknown
Yfg:_SmallXmlParser_ReadCDATASection_m2558307107
Svl:_GC_push_gc_structures
wsd:__ZNK5physx7NpScene22getClientBehaviorFlagsEh
b6g:_ServicePointManager_get_ServerCertificateValidationCallback_m1409951209
O9c:__ZN5physx9NpFactory14createMaterialEfff
WAc:__ZNK5physx3Cct13BoxController8getStatsERNS_17PxControllerStatsE
pbl:__ZN15dense_hashtableINSt3__24pairIK10KeyWrapperIPK14Il2CppAssemblyEPK22Il2CppMonoAssemblyNameEES6_N6il2cpp5utils11PointerHashIS4_EEN14dense_hash_mapIS6_SA_SF_NS6_14EqualsComparerINS0_8equal_toIS5_EEEENS0_9allocatorISB_EEE9SelectKeyESK_SM_E4swapERSP_
jnf:_Enumerator_get_Current_m1271212567
tU:__ZN5physx5cloth11PhaseConfigC2Et
LMa:__Z22GetShaderCachePathGLESv
L9d:__ZN13PhysicsModule21OverlapBoxUserCollectERK8Vector3fS2_RK11Quaternionfi23QueryTriggerInteractionRN8IPhysics12IUserCollectE
YAc:__ZN5physx3Cct13BoxControllerD2Ev
Sqi:_Input_set_compositionCursorPos_m1615567306
R6g:_IPAddress_ParseIPV6_m2209709575
grd:__ZThn8_N5physx2Sc19ShapeInstancePairLLD0Ev
gKd:__ZN5physx19PxcContactSphereBoxERKNS_2Gu13GeometryUnionES3_RKNS_11PxTransformES6_RKfRNS_10PxcNpCacheERNS0_13ContactBufferE
TYj:_Toggle_set_group_m3833595685
V9e:_LayoutRebuilder_ForceRebuildLayoutImmediate_m566681977
Ksd:__ZNK5physx7NpScene21getBroadPhaseCallbackEh
iUc:__ZN5physx6shdfnd5ArrayIPNS_12PxConstraintENS0_19ReflectionAllocatorIS3_EEE15growAndPushBackERKS3_
ovb:__ZNSt3__213__stable_sortIRNS_4lessI4PPtrI11SpriteAtlasEEENS_11__wrap_iterIPS4_EEEEvT0_SA_T_NS_15iterator_traitsISA_E15difference_typeEPNSD_10value_typeEi
yMa:__ZNSt3__26vectorIPN19ConstantBuffersGLES11ConstBufferENS_9allocatorIS3_EEE21__push_back_slow_pathIKS3_EEvRT_
p$c:__ZNK5physx2Sc15ArticulationSim11checkResizeEv
kbe:__Z37MeshCollider_Get_Custom_PropSkinWidthP12Il2CppObject
bVh:__Z74RuntimeInvoker_AnimatorControllerPlayable_t1744083903_Playable_t1896841784PFvvEPK10MethodInfoPvPS4_
vKf:_Array_InternalArray__ICollection_Add_TisVector4_t2243707581_m698578249_gshared
x0:__ZN8keywords6CreateEPKc
mFc:__ZN5physx2Gu11gjkRelativeINS0_8CapsuleVENS0_11ConvexHullVEEEjRKT_RKT0_RKNS_6shdfnd3aos15PsMatTransformVERNSB_5Vec3VESG_SG_RNSB_6FloatVE
S:Math_imul
boi:_GUIStyle_set_active_m2896743432
Tyb:__ZN14SpriteRenderer15SetupPropertiesEv
Otb:__ZN11PlayerPrefs6GetIntERKN4core12basic_stringIcNS0_20StringStorageDefaultIcEEEEi
SYk:__ZN6il2cpp5utils13dynamic_arrayIPK10Il2CppTypeLj4EEC2ERKS5_
yNe:_SecurityFrame_t1002202659_marshal_pinvoke_back
$ui:_Physics_Raycast_m2036777053
Tqe:__Z45TextGenerator_CUSTOM_INTERNAL_get_rectExtentsP12Il2CppObjectP5RectTIfE
oXg:_CertificateValidationCallback_Invoke_m2500463874
l7i:__ZL102GUIStyle_t1799908754_CustomAttributesCacheGenerator_GUIStyle_Internal_GetCursorFlashOffset_m3177259302P21CustomAttributesCache
qFf:_SetPropertyUtility_SetStruct_TisChar_t3454481338_m2333420724_gshared
m3e:_Graphic_Raycast_m3582517890
Elf:_Hashtable_ContainsKey_m2716576664
i4d:__ZN12PhysXRaycast19ApplyParticleForcesER13dynamic_arrayI21BatchedColliderResultLj4EE
kjk:_PatternCompiler_EmitCategory_m1696942454
nwf:_Decimal_decimalFloorAndTrunc_m3655683429
PKf:_Array_InternalArray__ICollection_CopyTo_TisInt32_t2071877448_m984622488_gshared
n1:__ZN18ScriptingArguments9AddObjectE18ScriptingObjectPtr
Wue:__Z39CanvasGroup_Get_Custom_PropInteractableP12Il2CppObject
SU:__ZN11UnityEngine15CloudWebService16SessionContainerD2Ev
xGa:__ZN17GenericDynamicVBOC2ER9GfxDevice13GfxBufferModejj
j2j:_Context_get_HasDynamicSinks_m1998518649
ooc:__ZZN10GUIManager14InitGUIManagerEvEN41PreUpdateIMGUISendQueuedEventsRegistrator7ForwardEv
aDj:_AnimatorControllerPlayable_ResetTrigger_m758725835_AdjustorThunk
Nod:__ZNK5physx2Sc5Scene7isValidEv
jW:__ZN11UnityEngine15CloudWebService17SessionEventQueue10PurgeItemsEj
Nud:__ZN5physx2Sq17SceneQueryManager29setDynamicTreeRebuildRateHintEj
Opj:_ValueCollection_System_Collections_Generic_ICollectionU3CTValueU3E_get_IsReadOnly_m1530798787_gshared
wSe:_AbstractEventData_get_used_m4208553917
M7a:__ZN6Camera16StandaloneRenderENS_10RenderFlagEP6ShaderRKN4core12basic_stringIcNS3_20StringStorageDefaultIcEEEE
naf:_Array_System_Collections_IList_get_Item_m2088124007
Haf:_Array_GetLength_m2083296647
bMi:__ZL58SecurityElement_t2325568386_CustomAttributesCacheGeneratorP21CustomAttributesCache
tpb:__ZNK12CubemapArray13GetIsReadableEv
njf:_SynchronizedArrayListWrapper_ToArray_m1522185111
POb:__Z18Transfer_BlittableI18StreamedBinaryReadILb1EELb1EtEvRK29SerializationCommandArgumentsR31RuntimeSerializationCommandInfo
$Me:_SecurityContext_get_FlowSuppressed_m420202521
LIh:__Z55RuntimeInvoker_DayOfWeek_t721777893_DateTime_t693205669PFvvEPK10MethodInfoPvPS4_
DBa:__ZN9GfxDevice20DeallocRenderSurfaceEP17RenderSurfaceBase
e_c:__ZN5physx6shdfnd5ArrayIPvNS0_19ReflectionAllocatorINS_18NpArticulationLinkEEEE4copyINS0_15InlineAllocatorILj256ES5_EEEEvRKNS1_IS2_T_EE
iCh:_ValueType_ToString_m3796301715
bJa:__ZN20GpuProgramParameters36UpdatePrepareValuesMaximumBufferSizeEv
tBc:__ZNK5physx3Cct10Controller12getKineShapeEv
aic:__Z53Register_UnityEngine_Quaternion_INTERNAL_CALL_Inversev
$Nf:_Array_qsort_TisUICharInfo_t3056636800_m2607408901_gshared
ySc:__ZN5physx6shdfnd4sortIPvNS0_4LessIS2_EENS0_19ReflectionAllocatorINS_2Sc18TriggerInteractionEEEEEvPT_jRKT0_RKT1_j
cli:_GUILayoutGroup__ctor_m992523271
Qib:__ZN12BaseRenderer23RendererBecameInvisibleEv
Ymd:__ZNK5physx2Sc8BodyCore14getMaxAngVelSqEv
hde:__ZN20TextRenderingPrivate8FontImpl13CharacterInfo8TransferI18StreamedBinaryReadILb0EEEEvRT_
uMb:__Z29Transfer_Blittable_ArrayFieldI24GenerateTypeTreeTransferfEvRT_R9ArrayInfoRK23StaticTransferFieldInfo
WGh:__Z76RuntimeInvoker_RuntimeObject_RuntimeObject_SByte_t454417549_SByte_t454417549PFvvEPK10MethodInfoPvPS4_
zab:__ZN19CustomRenderTexture9AddParentE4PPtrIS_E
k7j:_InternalEnumerator_1_MoveNext_m930150026_AdjustorThunk
Fsb:__ZN8Gradient8TransferI14SafeBinaryReadEEvRT_
cGk:_UnityEvent_1_Invoke_m1533100983_gshared
Wma:__ZNSt3__26vectorIN4core12basic_stringIcNS1_20StringStorageDefaultIcEEEE13stl_allocatorIS5_L18MemLabelIdentifier1ELi16EEE7reserveEj
f6g:_FileWebRequest__ctor_m4003648606
khj:__ZL71SpriteState_t1353336012_CustomAttributesCacheGenerator_m_DisabledSpriteP21CustomAttributesCache
lzf:_Enum_System_IConvertible_ToSByte_m3488526280
SPh:__Z60RuntimeInvoker_X509ChainStatusFlags_t480677120_RuntimeObjectPFvvEPK10MethodInfoPvPS4_
o3j:_Identity_set_Disposed_m628843469
Jti:_MonoBehaviour_StopAllCoroutines_m1675795839
Swa:__ZN18IDCollectorFunctorD0Ev
fLd:__ZN5physx2Gu32PCMConvexVsMeshContactGeneration15processTriangleEPKNS_6PxVec3EjhPKj
XZk:__ZNK15dense_hashtableI10KeyWrapperIPK19Il2CppGenericMethodES4_N6il2cpp8metadata23Il2CppGenericMethodHashEN14dense_hash_setIS4_S7_NS4_14EqualsComparerINS6_26Il2CppGenericMethodCompareEEENSt3__29allocatorIS4_EEE8IdentityESB_SE_E4findERKS4_
yCj:_AnimatorControllerPlayable_GetIntegerString_m2944800090
zZi:__ZL82Object_t1021602117_CustomAttributesCacheGenerator_Object_DestroyObject_m2343493981P21CustomAttributesCache
q9f:_NumberFormatter_Init_m1022036773
Mul:_GC_new_free_list_inner
Ztj:_DefaultComparer_Equals_m85211180_gshared
UHg:_Collection_1_System_Collections_IList_IndexOf_m1950953062_gshared
e8f:_MonoType_InternalGetEvent_m532443236
NGg:_Collection_1_IndexOf_m2700825189_gshared
JOd:__ZN5physx6shdfnd5ArrayINS_2Cm8Matrix34ENS0_19ReflectionAllocatorIS3_EEE15growAndPushBackERKS3_
Hhk:_Comparer_1_get_Default_m2605397692_gshared
mLd:__ZN5physx2Gu32PCMConvexVsMeshContactGeneration31generatePolyDataContactManifoldERNS0_9TriangleVEjjhPNS0_21MeshPersistentContactERjRKNS_6shdfnd3aos6FloatVERNS8_5Vec3VE
CUh:__Z93RuntimeInvoker_Void_t1841601450_PlayableHandleU26_t4210769902_Int32_t2071877448_RuntimeObjectPFvvEPK10MethodInfoPvPS4_
R_d:__ZN5physx10SubSortSAH5splitEPjj
Oxc:__ZN8JSONRead8TransferI10RectOffsetEEvRT_PKc17TransferMetaFlagsb
ikl:__ZNK15dense_hashtableINSt3__24pairIK10KeyWrapperINS1_IPKcS4_EEEiEES6_24NamespaceAndNamePairHashN14dense_hash_mapIS6_iS9_NS6_14EqualsComparerI26NamespaceAndNamePairEqualsEENS0_9allocatorIS8_EEE9SelectKeyESD_SF_E12test_deletedERK24dense_hashtable_iteratorIS8_S6_S9_SH_SD_SF_E
TV:__ZN9JSONWrite8TransferIN11UnityEngine15CloudWebService14DataErrorEvent15FileErrorDetailEEEvRT_PKc17TransferMetaFlags
BRe:_Decoder__ctor_m2623573910
Dwa:__Z21ClearFenceWithoutSyncR8JobFence
OGc:__ZN5physx2Gu3EPA8addFacetEjjjRKNS_6shdfnd3aos6FloatVES6_
INg:_ReadOnlyCollection_1_System_Collections_Generic_IListU3CTU3E_RemoveAt_m1731148677_gshared
_M:__ZN12SoundManager20RegisterModifiedClipEP10SampleClip
nyb:__ZN12MeshRenderer15AddAsRenderNodeER15RenderNodeQueueRK20DeprecatedSourceData
wOc:__ZN5physx3Cct9CCTParamsC2Ev
OXk:__ZN15dense_hashtableI10KeyWrapperIPK17Il2CppGenericInstES4_N6il2cpp8metadata21Il2CppGenericInstHashEN14dense_hash_setIS4_S7_NS4_14EqualsComparerINS6_24Il2CppGenericInstCompareEEENSt3__29allocatorIS4_EEE8IdentityESB_SE_E13set_empty_keyERKS4_
Kcd:__ZN5physx7NpCloth21setStiffnessFrequencyEf
fea:__ZNK20LocalFileSystemPosix8IsHiddenERK13FileEntryData
JDd:__ZN5physx17PxcSweepBoxConvexERKNS_11PxsCCDShapeES2_PKNS_12PxsRigidBodyES5_RKNS_11PxTransformES8_S8_S8_fRNS_6PxVec3ESA_RNS_10PxcNpCacheERNS_18PxcNpThreadContextEf
bXd:__ZThn8_N5physx2Gu11HeightField14onRefCountZeroEv
mAk:_X501__cctor_m2610532554
DHi:__ZL95SafeHandle_t2733794115_CustomAttributesCacheGenerator_SafeHandle_DangerousGetHandle_m1328172664P21CustomAttributesCache
M0h:__Z48RuntimeInvoker_Int32_t2071877448_Link_t865133271PFvvEPK10MethodInfoPvPS4_
SRc:__ZN5physx2Sc5Actor9setActiveEbj
bRe:_StringComparer__ctor_m2275216983
QWh:__Z83RuntimeInvoker_Void_t1841601450_RuntimeObject_Internal_DrawArgumentsU26_t3595831378PFvvEPK10MethodInfoPvPS4_
Lyg:_List_1_CheckCollection_m2220107869_gshared
Tpb:__ZN7Cubemap23VirtualRedirectTransferER18StreamedBinaryReadILb0EE
DZg:_RecordProtocol_EncodeRecord_m3884270352
lJe:_SHA256_Create_m896954069
Voe:_Read_CVT
mSc:__ZN5physx2Sc10NPhaseCore28reserveContactReportPairDataEjjRj
qsf:_Convert_ToUInt32_m776714429
sFc:__ZN5physx2Gu22barycentricCoordinatesERKNS_6shdfnd3aos5Vec3VES5_S5_RNS2_6FloatVE
KPa:__ZN12FileAccessor4SeekEx10FileOrigin
oLb:__ZL26Transfer_SimpleNativeClassI24GenerateTypeTreeTransfer17AnimationCurveTplIfELb0EEvRK29SerializationCommandArgumentsR31RuntimeSerializationCommandInfo
mcd:__ZN5physx15NpActorTemplateINS_7PxClothEE12setActorFlagENS_11PxActorFlag4EnumEb
Nrb:__ZN24GenerateTypeTreeTransfer8TransferI13dynamic_arrayI33EnlightenTerrainChunksInformationLj4EEEEvRT_PKc17TransferMetaFlags
jZd:__ZL18TestUnifiedNormalsjPKN5physx6PxVec3EjPNS_2Gu9TriangleTIjEEb
NNj:_Coroutine_t2299508840_marshal_pinvoke
y8:__ZN16LightmapSettings20DidChangeActiveSceneEP10UnitySceneS1_
mjj:__ZL59g_AssemblyU2DCSharp_Assembly_CustomAttributesCacheGeneratorP21CustomAttributesCache
r2k:__ZN6il2cpp5utils9PathUtils8BasenameIcEENSt3__212basic_stringIT_NS3_11char_traitsIS5_EENS3_9allocatorIS5_EEEERKSA_
pO:__ZN10AudioMixer11SetupGroupsEv
vYi:__ZL91Resources_t339470017_CustomAttributesCacheGenerator_Resources_GetBuiltinResource_m582410469P21CustomAttributesCache
Xpc:__Z35Register_UnityEngine_Event_get_typev
Xgg:_PrivateKeyInfo_DecodeRSA_m1427048948
hMk:_CollisionAvoidance_GetSteering_m2903730075
Ygl:__ZN6il2cpp2vm9Exception23GetInvalidCastExceptionERKNS_5utils10StringViewIDsEE
bUg:_BigInteger_op_GreaterThanOrEqual_m2643115413
_6h:_Assembly_FillName_m1934025015
C$f:_IntPtr_op_Explicit_m1073656736
WPe:_String_IndexOf_m2126171214
__f:_Int64_ToString_m1544341651_AdjustorThunk
MVd:__ZNK5physx13GuMeshFactory17getNbConvexMeshesEv
ZWf:_Guid_CheckNull_m2903986431
hRi:__ZL62CrossContextDelegate_t754146990_CustomAttributesCacheGeneratorP21CustomAttributesCache
$Ij:_Bounds__ctor_m1202659404
v2:__Z63ThreadAndSerializationSafeCheckGetMonoBehaviourBeingTransferredv
wxl:_GC_enable
y$g:_TlsClientCertificateVerify_ProcessAsSsl3_m3377063356
obl:__ZN15dense_hashtableINSt3__24pairIK10KeyWrapperIPK14Il2CppAssemblyEPK22Il2CppMonoAssemblyNameEES6_N6il2cpp5utils11PointerHashIS4_EEN14dense_hash_mapIS6_SA_SF_NS6_14EqualsComparerINS0_8equal_toIS5_EEEENS0_9allocatorISB_EEE9SelectKeyESK_SM_EC2ERKSP_j
lXe:_StandaloneInputModule_set_repeatDelay_m2820945738
c1f:_EndOfStreamException__ctor_m4268387737
uzh:_UInt16_ToString_m4213290405
Ehc:__Z37Register_UnityEngine_Input_GetAxisRawv
O9i:__ZL123UnitySynchronizationContext_t1205147244_CustomAttributesCacheGenerator_UnitySynchronizationContext_ExecuteTasks_m2941058172P21CustomAttributesCache
zAg:_List_1_GetIndex_m433539411_gshared
jKi:__ZL59StreamingContext_t1417235061_CustomAttributesCacheGeneratorP21CustomAttributesCache
F0j:_ChannelServices_RegisterChannel_m3832858065
szf:_Enum_GetName_m1226611481
jSk:_Func_2_Invoke_m4121137703_gshared
NUi:__ZL92Camera_t189460977_CustomAttributesCacheGenerator_Camera_INTERNAL_CALL_RaycastTry_m1030092423P21CustomAttributesCache
Q4h:__Z74RuntimeInvoker_DictionaryEntry_t3048875398_RuntimeObject_Int32_t2071877448PFvvEPK10MethodInfoPvPS4_
CMh:__Z53RuntimeInvoker_DateTime_t693205669_Single_t2076509932PFvvEPK10MethodInfoPvPS4_
Evb:__ZN14Texture2DArray23VirtualRedirectTransferER18StreamedBinaryReadILb0EE
Plk:_Literal_CompileLiteral_m276843152
WYb:__ZN2UI13RectTransform13AwakeFromLoadE17AwakeFromLoadMode
tQd:__ZN5physx23PxsSolverSetupSolveTaskD2Ev
Q1a:__ZN14qsort_internal30FindAndMovePivotToLastPositionIP20ShadowCasterSortDatai26ShadowCasterSortDataSorterEEvT_S4_T0_T1_
sYk:__ZNK15dense_hashtableI10KeyWrapperIPK19Il2CppGenericMethodES4_N6il2cpp8metadata23Il2CppGenericMethodHashEN14dense_hash_setIS4_S7_NS4_14EqualsComparerINS6_26Il2CppGenericMethodCompareEEENSt3__29allocatorIS4_EEE8IdentityESB_SE_E3endEv
MFb:__Z18Transfer_BlittableI14SafeBinaryReadLb1EiEvRK29SerializationCommandArgumentsR31RuntimeSerializationCommandInfo
H_j:_DefaultDependencyAttribute__ctor_m107693037
pxa:__ZN17PersistentManager13GetAllFileIDsERKN4core12basic_stringIcNS0_20StringStorageDefaultIcEEEER13dynamic_arrayIxLj8EE
FOg:_ReadOnlyCollection_1_GetEnumerator_m713393110_gshared
Eih:_ProxyAttribute_GetPropertiesForNewContext_m3587421540
Hbf:_Array_LastIndexOf_m4096535198
ohf:_ArrayList_Add_m1719188324
S6c:__ZN18MultiQueryCallbackIN5physx12PxOverlapHitEE6invokeERfPKNS0_2Sq13PrunerPayloadEj
TJl:dynCall_vifiiiiiiiiiiiiiiiiiiiiiii
yyf:_Double_System_IConvertible_ToSByte_m1653690240_AdjustorThunk
A3d:__ZN14SphereColliderD0Ev
aJc:__ZN5physx2Gu18gjkRelativeRayCastINS0_4BoxVES2_NS0_10ShrunkBoxVES3_EEbRT_RT0_RKNS_6shdfnd3aos15PsMatTransformVERKNS9_6FloatVERKNS9_5Vec3VESI_RSD_RSG_SK_fb
hl:_glGetStringi
Tpi:_GUIStyleState_t3801000545_marshal_pinvoke
Ell:__ZNK15dense_hashtableI10KeyWrapperIP18Il2CppGenericClassES3_N6il2cpp8metadata22Il2CppGenericClassHashEN14dense_hash_setIS3_S6_NS3_14EqualsComparerINS5_25Il2CppGenericClassCompareEEENSt3__29allocatorIS3_EEE8IdentityESA_SD_E10test_emptyERK30dense_hashtable_const_iteratorIS3_S3_S6_SF_SA_SD_E
YE:__ZZN8Animator15InitializeClassEvEN43FunctorImpl_420kDidModifyAnimatorController4CallEPviR11MessageData
rhd:__ZN5physx22NpParticleBaseTemplateINS_15PxParticleFluidENS_15NpParticleFluidEE14setRestitutionEf
Zvb:__ZN18StreamedBinaryReadILb0EE21TransferSTLStyleArrayI13dynamic_arrayI8Vector4fLj4EEEEvRT_17TransferMetaFlags
sWd:__ZThn8_N5physx2Gu10ConvexMeshD0Ev
bbh:_X509Chain_get_CertificateCollection_m324631835
mxj:_EqualityComparer_1__cctor_m1011898363_gshared
kYe:_AnimationTriggers__ctor_m2623627182
bIf:_Array_InternalArray__IndexOf_TisClientCertificateType_t4001384466_m1168139450_gshared
Dbi:_FieldBuilder_get_Name_m2243491233
FW:__ZN11UnityEngine15CloudWebService20WebRequestRestClient18GetResponseHeadersEv
a7b:__ZN16PropertyAccessorC2Ev
Qtb:__ZNSt3__23mapIN4core12basic_stringIcNS1_20StringStorageDefaultIcEEEE9PrefValueNS_4lessIS5_EENS_9allocatorINS_4pairIKS5_S6_EEEEEixERSB_
jPb:__Z35Transfer_Blittable_FixedBufferFieldI18StreamedBinaryReadILb1EEaEvRK29SerializationCommandArgumentsR31RuntimeSerializationCommandInfo
B6b:__ZN15DirectorManager22ConstructPlayableGraphEv
vda:__ZN13ScreenManager16SetScreenTimeoutEi
ZJb:__Z18Transfer_BlittableI17RemapPPtrTransferLb0EdEvRK29SerializationCommandArgumentsR31RuntimeSerializationCommandInfo
iKe:_SymmetricAlgorithm_set_IV_m4262655606
TXj:_StencilMaterial__cctor_m2963056855
AJk:_EqualityComparer_1_System_Collections_IEqualityComparer_Equals_m315020809_gshared
Jwg:_List_1_Find_m3680710386_gshared
wFj:_AnimatorControllerPlayable_Play_m614561002_AdjustorThunk
H8h:_CustomAttributeNamedArgument_GetHashCode_m3715408876_AdjustorThunk
_qe:__Z38Register_UnityEngine_Font_HasCharacterv
gah:_X509Certificate2_AppendBuffer_m3517242299
V5a:__Z35IntersectSpherePlaneBoundsOptimizedRKN4math7_float4EPS1_i
_Bf:_CultureInfo_get_IsNeutralCulture_m3874876470
v2i:__ZL137AnimatorControllerPlayable_t1744083903_CustomAttributesCacheGenerator_AnimatorControllerPlayable_CrossFadeInFixedTimeInternal_m3383124488P21CustomAttributesCache
bxf:_Delegate_CreateDelegate_m3813023227
iQc:__ZN5physx2Sc8ShapeSim20createLowLevelVolumeEjRKNS_9PxBounds3EjNS_9AABBMgrIdE
_nk:_Uri_get_AbsoluteUri_m2120317928
yI:__Z100Register_UnityEngine_Animations_AnimatorControllerPlayable_INTERNAL_CALL_GetAnimatorClipInfoInternalv
qol:__ZN6il2cpp2os5posix15PosixWaitObject13InterruptWaitEv
Pcd:__ZNK5physx7NpCloth22getAngularInertiaScaleEv
zTe:_BaseInputModule_IsModuleSupported_m4272494372
PKc:__ZN26IntersectAnyVsMeshCallbackILi1ELb1EE10processHitERKN5physx12PxRaycastHitERKNS1_6PxVec3ES7_S7_RfPKj
XYj:_ToggleGroup_RegisterToggle_m3118973598
_7:__Z22CleanupLODGroupManagerPv
oKf:_Array_InternalArray__ICollection_Add_TisContentType_t1028629049_m2984242302_gshared
fwd:__ZN5physx6shdfnd5ArrayINS_2Sc5Scene14SimpleBodyPairENS0_19ReflectionAllocatorIS4_EEE8recreateEj
Zll:__ZN6il2cpp8metadata15GenericMetadata20RegisterGenericClassEP18Il2CppGenericClass
Rl:_glUniform3fv
vBb:__ZNSt3__218__insertion_sort_3IRN15ResourceManager10Dependency6SorterEPS2_EEvT0_S6_T_
nog:_Enumerator_System_Collections_IEnumerator_Reset_m3796537546_AdjustorThunk
eqe:_UNITY_FT_Init_Class_tt_service_gx_multi_masters
KOh:__Z53RuntimeInvoker_Int32_t2071877448_TimeSpan_t3430258949PFvvEPK10MethodInfoPvPS4_
ock:_InternalEnumerator_1_System_Collections_IEnumerator_Reset_m3249248421_AdjustorThunk
PEh:__Z64RuntimeInvoker_RuntimeObject_Int32_t2071877448_Int16_t4041245914PFvvEPK10MethodInfoPvPS4_
P7f:_IntComparer_Compare_m3057931085
w0a:__ZNK16LightmapSettings31GetRealtimeLightmapDecodeValuesEv
OO:__ZN5audio5mixer12SetSuspendedERNS0_16AudioMixerMemoryEb
Fsa:__ZN17PersistentManager21UnloadNonDirtyStreamsEv
mIh:__Z63RuntimeInvoker_DSAParameters_t1872138834_BooleanU26_t3168250738PFvvEPK10MethodInfoPvPS4_
d0h:__Z62RuntimeInvoker_Boolean_t3825574718_PlayableBinding_t2498078091PFvvEPK10MethodInfoPvPS4_
Nhl:__ZN6il2cpp2vm13LivenessStateC2EP11Il2CppClassjPFvPP12Il2CppObjectiPvES7_PFvvESB_
mTf:_Array_ConvertAll_TisRuntimeObject_TisRuntimeObject_m2423585546_gshared
sWa:__ZN12ImageFilters4BlitER17ShaderPassContextP7TextureP13RenderTextureiPK18SharedMaterialDataPKcP6ShaderiNS_9BlitFlagsE11CubemapFaceRK8Vector2fSH_
w8g:_Oid__ctor_m1936781897
T6d:__ZN5physx6shdfnd8PoolBaseINS_24NpPtrTableStorageManager8PtrBlockILi4EEENS0_19ReflectionAllocatorIS4_EEE12allocateSlabEv
nui:_Object_INTERNAL_CALL_Internal_InstantiateSingleWithParent_m1401308849
tW:__ZN11UnityEngine15CloudWebService10RestClientINS0_23WebRequestRestHeaderMapEED2Ev
o_j:_ResourceSet__ctor_m1222864106
tTd:__ZN5physx2Sc5Scene13ccdBroadPhaseEPNS_10PxBaseTaskE
oCg:_Collection_1_System_Collections_IList_get_Item_m3376056117_gshared
Ksa:__ZN18LoadSceneOperationD0Ev
GUe:__ZN23InterfaceActionInvoker1IP28PointerEventData_t1599784723E6InvokeEjP11Il2CppClassP12Il2CppObjectS1_
hLd:__ZN5physx2Gu24PCMMeshContactGeneration15processContactsEhb
fEg:_Collection_1_IsSynchronized_m2601980439_gshared
Syi:__ZL76UInt16_t986882611_CustomAttributesCacheGenerator_UInt16_TryParse_m1818885113P21CustomAttributesCache
mog:_Enumerator_VerifyState_m3639069574_gshared
BHa:__ZN4crnd25static_huffman_data_model22prepare_decoder_tablesEv
Qqb:__ZN9Texture2D23VirtualRedirectTransferER17RemapPPtrTransfer
i2b:__ZN16ReflectionProbesD2Ev
ATg:_ModulusRing_Difference_m662924064
Rbk:_InternalEnumerator_1_MoveNext_m1869236997_gshared
QZe:_CanvasUpdateRegistry_ObjectValidForUpdate_m855695984
F6e:_InputField_set_onValueChanged_m2406388125
KLg:_ReadOnlyCollection_1_System_Collections_ICollection_get_SyncRoot_m2702046016_gshared
dda:__ZL22CleanupUnityWebStreamsPv
bRb:__Z18Transfer_BlittableI18StreamedBinaryReadILb0EELb0E10ColorRGBAfEvRK29SerializationCommandArgumentsR31RuntimeSerializationCommandInfo
Y4g:_ListDictionary_Add_m4276262662
D8:__Znaj
KHe:_RIPEMD160Managed_GGG_m1639995340
aSl:_emscripten_glEnableClientState__wrapper
B$:__ZN17MessageIdentifierC2EPKcNS_7OptionsEPKN5Unity4TypeES1_
SH:__Z76AnimatorControllerPlayable_CUSTOM_INTERNAL_CALL_CrossFadeInFixedTimeInternalR9HPlayableifif
Enj:_Enumerator_System_Collections_IEnumerator_get_Current_m1648049763_gshared
Zzl:__ZN6il2cpp6icalls8mscorlib4Mono8Security12Cryptography18KeyPairPersistence15_ProtectMachineEP12Il2CppString
YIh:__Z31RuntimeInvoker_Char_t3454481338PFvvEPK10MethodInfoPvPS4_
Kib:__ZN11GameManager15ThreadedCleanupEv
nOj:_CustomYieldInstruction_get_Current_m1743233962
dxg:_List_1__ctor_m1337392449_gshared
wFd:__ZN5physxL26solveFriction4_StaticBlockEPKNS_23PxcSolverConstraintDescERNS_16PxcSolverContextE
Aaf:_Array_System_Collections_IList_Remove_m2438892375
H4f:_TextWriter__ctor_m2225796097
r1j:__ZN21InterfaceFuncInvoker0IP24StringU5BU5D_t1642385972E6InvokeEjP11Il2CppClassP12Il2CppObject
ghb:__ZN14SafeBinaryRead8TransferI14ConstantStringEEvRT_PKc17TransferMetaFlags
Bsk:_ScriptableObject_Internal_CreateScriptableObject_m1778903390
aKd:__ZN5physx30PxcGetMaterialShapeHeightFieldEPKNS_12PxsShapeCoreES2_RNS_18PxcNpThreadContextEPNS_15PxsMaterialInfoE
$ja:__ZNK6Camera16GetStereoEnabledEv
U2b:__ZN12LightManager15InitializeClassEv
cUd:__ZN5physx6shdfnd8PoolBaseINS_2Sc19ParticlePacketShapeENS0_19ReflectionAllocatorIS3_EEE12allocateSlabEv
$ka:__ZN9ShaderLab11shaderprops16GetComputeBufferEPK19ShaderPropertySheetS3_NS_16FastPropertyNameE
Aoi:_GUIStyle_GetFontInternal_m3509743324
A1:__ZN18ScriptingArgumentsC2Ev
Uwh:_TimeZone_IsDaylightSavingTime_m875882154
Qcj:__ZL104PointerEventData_t1599784723_CustomAttributesCacheGenerator_PointerEventData_set_scrollDelta_m4002219844P21CustomAttributesCache
A5j:_ArrayReadOnlyList_1_Insert_m503707439_gshared
eNl:_emscripten_glBlendFuncSeparate__wrapper
pYg:_CipherSuiteCollection_System_Collections_IList_set_Item_m750275607
eCj:_AnimatorControllerPlayable_SetFloatID_m3806317182
XEa:__Z17HasSampledTexture14GraphicsFormat13formatSupport
NXa:__ZNK25CameraStackRenderingState27GetStereoImageEffectTextureEb
SIe:_SHA1CryptoServiceProvider__ctor_m3127563759
cr:__ZN8Vector3f8TransferI14SafeBinaryReadEEvRT_
xac:__ZN13BuildSettings13GetSceneIndexERKN4core12basic_stringIcNS0_20StringStorageDefaultIcEEEE
ajj:__ZL103BaseVertexEffect_t2504093552_CustomAttributesCacheGenerator_BaseVertexEffect_ModifyVertices_m3446986347P21CustomAttributesCache
Ep:FUNCTION_TABLE_ii
Boj:_Enumerator_MoveNext_m335649778_AdjustorThunk
Eib:__ZN10TagManager8TransferI18StreamedBinaryReadILb0EEEEvRT_
_Ch:__Z45RuntimeInvoker_Char_t3454481338_RuntimeObjectPFvvEPK10MethodInfoPvPS4_
Buc:__Z18Transfer_BlittableI9JSONWriteLb0E8BitFieldEvRK29SerializationCommandArgumentsR31RuntimeSerializationCommandInfo
oAh:_UInt32_ToString_m3894907091_AdjustorThunk
DGf:_Array_InternalArray__IEnumerable_GetEnumerator_TisPlayableBinding_t2498078091_m2095426925_gshared
cDk:_Predicate_1__ctor_m2863314033_gshared
Qb:invoke_diiii
qJf:_Array_ForEach_TisRuntimeObject_m1849351808_gshared
UJc:__ZL17sweepVolumeVsMeshPKN5physx3Cct9SweepTestEPKNS0_11TouchedMeshERNS0_12SweptContactERKNS_6PxVec3ERKNS_10PxGeometryERKNS_11PxTransformEjPKNS_10PxTriangleEj
emj:_ShimEnumerator_get_Key_m616785465_gshared
Ofg:_SmallXmlParser_Error_m1832158746
aeh:_RepeatContext_get_IsLazy_m1620488045
gl:_glDeleteVertexArrays
vOd:__ZN5physx2Gu31checkOverlapOBB_heightFieldGeomERKNS_10PxGeometryERKNS_11PxTransformERKNS0_3BoxE
wdb:__Z24CreateDirectoryRecursiveRKN4core12basic_stringIcNS_20StringStorageDefaultIcEEEE
rLl:b41
CWb:__ZN9ShaderLab20SerializedSubProgram8TransferI18StreamedBinaryReadILb0EEEEvRT_
h4f:_StreamAsyncResult_get_AsyncWaitHandle_m4218169359
kri:_LayerMask_op_Implicit_m2135076047
V6i:__ZL89GUIStyle_t1799908754_CustomAttributesCacheGenerator_GUIStyle_get_stretchWidth_m1223411161P21CustomAttributesCache
joc:__Z22MonoGUIContentToNative18ScriptingObjectPtrR10GUIContent
KCc:__ZN5physx2Gu23findRotationMatrixFromZERKNS_6PxVec3E
w4a:__Z9EndJobSetR8JobFence11JobPriority
LEd:__ZNK5physx2Gu29EPASupportMapPairRelativeImplINS0_8CapsuleVENS0_11ConvexHullVEE18doWarmStartSupportEiiRNS_6shdfnd3aos5Vec3VES8_S8_
Cre:__ZN2UI13CanvasManager9AddCanvasEPNS_6CanvasE
Mva:__ZN9Texture3D8TransferI19StreamedBinaryWriteILb0EEEEvRT_
SYa:__ZNK6Camera22CalculateRenderingPathEv
Vvc:__ZN9JSONWrite8TransferI5RectTIfEEEvRT_PKc17TransferMetaFlags
Zzj:_AnimationClipPlayable_INTERNAL_CALL_GetRemoveStartOffsetInternal_m3895628593
Uud:__ZN5physx13NpVolumeCache10invalidateEv
rKa:__Z13ConvertMipmap14GraphicsFormatPKvS_Pviiii
VWg:_ContentInfo_get_Content_m1802070908
CJe:_SHA384Managed_processBlock_m3232296629
kjg:_X509Certificate_get_PublicKey_m714501701
uQh:__Z70RuntimeInvoker_Boolean_t3825574718_UInt16_t986882611_Int32_t2071877448PFvvEPK10MethodInfoPvPS4_
M8e:_U3CMouseDragOutsideRectU3Ec__Iterator1_System_Collections_IEnumerator_get_Current_m561728752
xie:_tt_sbit_decoder_load_image
Gia:__Z14IsHalfRTFormat19RenderTextureFormat
jQe:_String_LastIndexOf_m290475879
tHf:__ZN21InterfaceFuncInvoker1Ii22UILineInfo_t3621277874E6InvokeEjP11Il2CppClassP12Il2CppObjectS0_
G5e:_Image_get_layoutPriority_m2151045813
jel:__ZN15dense_hashtableINSt3__24pairIK10KeyWrapperIP11Il2CppClassES4_EES5_N6il2cpp8metadata16SZArrayClassHashEN14dense_hash_mapIS5_S4_SA_NS5_14EqualsComparerINS9_19SZArrayClassCompareEEENS0_9allocatorIS7_EEE9SelectKeyESE_SG_EC2EjRKSA_RKSE_RKSI_
ehd:__ZN5physx22NpParticleBaseTemplateINS_15PxParticleFluidENS_15NpParticleFluidEE12setPositionsEjRKNS_16PxStrideIteratorIKjEERKNS4_IKNS_6PxVec3EEE
x5f:_TextReader_Read_m975794707
Boc:__ZNSt3__24listIN10GUIManager12SortedScriptE11memory_poolIS2_EE6__sortI13OldSortScriptEENS_15__list_iteratorIS2_PvEESA_SA_jRT_
JQc:__ZN5physx6shdfnd5ArrayIPvNS0_19ReflectionAllocatorINS_2Sc10NPhaseCore16ClothListElementEEEE15growAndPushBackERKS2_
yAh:_UInt64_System_IConvertible_ToChar_m1930853313_AdjustorThunk
t$g:_TlsClientCertificate_SendCertificates_m1096074091
iYe:_UIBehaviour_OnCanvasHierarchyChanged_m762109874
qmf:_SyncHashtable_get_Item_m408601391
FKi:__ZL45DSA_t903174880_CustomAttributesCacheGeneratorP21CustomAttributesCache
NNg:_ReadOnlyCollection_1_System_Collections_IEnumerable_GetEnumerator_m1401363518_gshared
wYh:__Z86RuntimeInvoker_Void_t1841601450_RuntimeObject_RayU26_t3651946800_SingleU26_t4173844468PFvvEPK10MethodInfoPvPS4_
pCe:__ZN11UnityEngine15PlatformWrapper20GetRuntimePlatformIdEv
UBg:_Stack_1_System_Collections_ICollection_CopyTo_m2104527616_gshared
Lrh:_StringBuilder_AppendFormat_m1666670800
Q2a:__ZN18DeferredRenderLoop13RenderGBufferEP13RenderTexturePS1_b8JobFencePK25DeferredRenderLoopScratchRi
jMk:_Face_GetSteering_m3751956292
MVh:__Z97RuntimeInvoker_Boolean_t3825574718_RuntimeObject_TextGenerationSettings_t2543476768_RuntimeObjectPFvvEPK10MethodInfoPvPS4_
$pk:_Rect_Equals_m3806390726
b6h:__Z80RuntimeInvoker_RuntimeObject_RaycastResult_t21186376_RuntimeObject_RuntimeObjectPFvvEPK10MethodInfoPvPS4_
HJb:__Z18Transfer_BlittableI17RemapPPtrTransferLb1E8BitFieldEvRK29SerializationCommandArgumentsR31RuntimeSerializationCommandInfo
Xfl:__ZN6il2cpp6icalls8mscorlib6System9ThreadingL11ThreadStartEPv
Daa:__ZN15DirectorManager12OnSampleTimeEv
dQg:_ReadOnlyCollection_1_System_Collections_IList_Remove_m3878418841_gshared
K6e:_InputField_EnforceContentType_m1902926812
zja:__ZN12CachedReader10Align4ReadEv
Xnk:_Uri_op_Equality_m110355127
$Kg:_Collection_1_CopyTo_m42272870_gshared
qhl:__ZN6il2cpp2vm9Exception28GetMarshalDirectiveExceptionEPKc
U8f:_MulticastDelegate_GetObjectData_m3187757658
Kgb:__ZNK9Behaviour22GetTypeVirtualInternalEv
pZe:_CanvasScaler_set_referencePixelsPerUnit_m1188599784
F2h:__Z74RuntimeInvoker_Void_t1841601450_Int32_t2071877448_RaycastHit2D_t4063908774PFvvEPK10MethodInfoPvPS4_
y7c:__ZN5physx2Sc14ConstraintCore13setBreakForceEff
y0b:__ZNK28MonoBehaviourPropertyBinding12SetPPtrValueERKN11UnityEngine9Animation10BoundCurveEi
X6a:__Z21GetScriptingArraySize17ScriptingArrayPtr
Bce:__ZN20TextRenderingPrivate8FontImpl8TransferI14SafeBinaryReadEEvRT_
xYh:__Z74RuntimeInvoker_Int32_t2071877448_RaycastHit_t87180320_RaycastHit_t87180320PFvvEPK10MethodInfoPvPS4_
tlk:__ZN23InterfaceActionInvoker1IP19LinkRef_t2090853131E6InvokeEjP11Il2CppClassP12Il2CppObjectS1_
TAj:_AnimationOffsetPlayable_INTERNAL_CALL_CreateHandleInternal_m2301240007
Cna:__Z35UnityPropertySheet_MakeSortedColorsRKNSt3__23mapIN9ShaderLab16FastPropertyNameE10ColorRGBAfNS_4lessIS2_EENS_9allocatorINS_4pairIKS2_S3_EEEEEER10vector_mapIS2_S3_S5_NS6_INS7_IS2_S3_EEEEE
CWh:__Z116RuntimeInvoker_Void_t1841601450_Rect_t3681755626_RuntimeObject_Int32_t2071877448_Int32_t2071877448_Int32_t2071877448PFvvEPK10MethodInfoPvPS4_
Hoi:_GUIStyle_Draw_m4006459684
gaj:__ZL104PlayableExtensions_t2358977238_CustomAttributesCacheGenerator_PlayableExtensions_SetDuration_m3676215212P21CustomAttributesCache
GDh:__Z110RuntimeInvoker_Boolean_t3825574718_RuntimeObject_SByte_t454417549_Int64U26_t763825331_ExceptionU26_t1467204777PFvvEPK10MethodInfoPvPS4_
m9d:__ZZN14PhysicsManager15InitializeClassEvEN63EarlyUpdatePhysicsResetInterpolatedTransformPositionRegistrator7ForwardEv
zCa:__ZN9GfxDevice17ImmediateTexCoordEifff
hkk:_Parser_ParseRegularExpression_m2390577313
bke:_ft_black_new
cag:_OperatingSystem_Clone_m1943707477
pWi:__ZL102GameObject_t1756533147_CustomAttributesCacheGenerator_GameObject_Internal_CreateGameObject_m3428198595P21CustomAttributesCache
qlk:_Alternation_AddAlternative_m623421443
Dbh:_X509CertificateEnumerator_System_Collections_IEnumerator_Reset_m327358896
aPh:__Z65RuntimeInvoker_Void_t1841601450_Byte_t3683104436_Byte_t3683104436PFvvEPK10MethodInfoPvPS4_
FKf:_Array_InternalArray__ICollection_CopyTo_TisKeyValuePair_2_t1174980068_m1818152223_gshared
rMe:_Hash__ctor_m2554411450
aKe:_SHAConstants__cctor_m2781430679
ZNe:_Single_System_IConvertible_ToDateTime_m2510003459_AdjustorThunk
uxf:_Delegate_RemoveImpl_m3666700529
$Kl:_emscripten_glUniform4f__wrapper
q5g:_NameObjectCollectionBase_OnDeserialization_m3478980442
LFj:_AnimatorControllerParameter_get_name_m1366583724
w6e:_InputField_set_caretColor_m2252440840
wRd:__ZN5physx6shdfnd5ArrayINS_25PxcThresholdStreamElementENS0_19ReflectionAllocatorIS2_EEE8recreateEj
LT:__Z78Register_UnityEngine_Audio_AudioPlayableOutput_INTERNAL_CALL_InternalSetTargetv
FOf:_Array_Resize_TisVector2_t2243707579_m1117258774_gshared
o$a:__ZNK6Camera16GetProjectionFarEv
ds:__Z24InverseTransformRotationRK23TransformAccessReadOnlyRKN4math7_float4E
S6f:_MissingFieldException__ctor_m1161042282
tgf:_Char_GetHashCode_m2343577184
PCe:__Z31GetPerformanceReportingSettingsv
Gob:__ZNK14PlayableOutput11DerivesFromE17ScriptingClassPtr
Rva:__ZN7Texture34CreateFileTextureUploadInstructionE18TextureUploadFlagsj
Wtk:_StateMachineBehaviour_OnStateExit_m1490844990
nCa:__ZN9GfxDevice21ResetDynamicResourcesEv
hWa:__ZN13ComputeShader14SetBufferParamEjRKN9ShaderLab16FastPropertyNameE15ComputeBufferID
Klb:__ZThn280_N31CanvasBatchIntermediateRenderer20OnAssetBoundsChangedEv
Qdd:__ZN5physx7NpCloth21setCollisionMassScaleEf
KOd:__ZN5physx6shdfnd5ArrayINS_7PxPlaneENS0_19ReflectionAllocatorIS2_EEE8recreateEj
tmh:_StreamingContext__ctor_m3063421596_AdjustorThunk
P9d:__ZN13PhysicsModule17GetRigidBodyStateERK9RigidbodyPN8IPhysics14RigidBodyStateE
SPg:_ReadOnlyCollection_1_System_Collections_Generic_IListU3CTU3E_Insert_m3054305464_gshared
c0b:__ZN19LowerResBlitTexture13ApplySettingsEv
Szi:__ZL70IntPtr_t_CustomAttributesCacheGenerator_IntPtr_op_Explicit_m3896766622P21CustomAttributesCache
ZD:__ZN8Animator8TransferI14SafeBinaryReadEEvRT_
Vdl:__ZN15dense_hashtableINSt3__24pairIK10KeyWrapperIP11Il2CppClassES4_EES5_N6il2cpp8metadata16SZArrayClassHashEN14dense_hash_mapIS5_S4_SA_NS5_14EqualsComparerINS9_19SZArrayClassCompareEEENS0_9allocatorIS7_EEE9SelectKeyESE_SG_E4swapERSJ_
Xhb:__ZN17GlobalGameManager23VirtualRedirectTransferER18StreamedBinaryReadILb0EE
FIf:_Array_InternalArray__IndexOf_TisTypeTag_t141209596_m2882894956_gshared
dXj:_Slider_get_value_m4182660424
O5:__Z23AsyncReadForceCloseFileRKN4core12basic_stringIcNS_20StringStorageDefaultIcEEEE
xu:__ZN17AnimationPlayable34CollectAnimatorControllerPlayablesER13dynamic_arrayIP26AnimatorControllerPlayableLj4EE
MS:__ZN16BaseVideoTexture19UpdateVideoTexturesEv
zlb:__Z28BuildSingleStreamChannelInfo17ShaderChannelMaskRK20VertexChannelsLayoutS_S2_P11ChannelInfo
oua:__ZNK16LightmapSettings23HasLightProbeTetrahedraEv
n8d:__ZN13ProduceHelperI15CapsuleColliderLb0EE7ProduceE18MemLabelIdentifier18ObjectCreationMode
G_g:_Context_get_WriteSequenceNumber_m243492531
Ytb:__ZN6Sprite23VirtualRedirectTransferER19StreamedBinaryWriteILb0EE
NFi:__ZL51Assembly_t4268412390_CustomAttributesCacheGeneratorP21CustomAttributesCache
bQe:_String_LastIndexOfAny_m1473637802
Blc:__Z38Transform_CUSTOM_INTERNAL_set_positionP12Il2CppObjectRK8Vector3f
vCh:_Version_CompareTo_m596235198
ttg:_List_1_System_Collections_ICollection_CopyTo_m3062449209_gshared
u7k:__ZNK15dense_hashtableINSt3__24pairIK10KeyWrapperINS1_IPK9FieldInfoP11Il2CppClassEEEjEES9_17ReflectionMapHashIS8_EN14dense_hash_mapIS9_jSD_NS9_14EqualsComparerINS0_8equal_toIS8_EEEENS0_9allocatorISB_EEE9SelectKeyESI_SK_E5beginEv
rla:__ZNK9ShaderLab7Program19HasMatchingVariantsERK13dynamic_arrayI16ShaderKeywordSetLj4EE
XB:__ZN15SerializeTraitsIN4math4trsXEE8TransferI8BlobSizeEEvRS1_RT_
CFa:__ZN14DataBufferGLES11CopySubDataEPKS_jjj
Qe:_emscripten_glVertexPointer
POa:__ZNSt3__26__treeI20DeviceDepthStateGLES11memcmp_lessIS1_S1_ENS_9allocatorIS1_EEE7destroyEPNS_11__tree_nodeIS1_PvEE
tte:__ZN2UI13PrepareOutputERNS_7BatchesEjjNS_30AdditionalCanvasShaderChannelsE
Grg:_List_1_System_Collections_Generic_ICollectionU3CTU3E_get_IsReadOnly_m1614481629_gshared
E2k:__ZN6il2cpp2vm7Runtime47RaiseExecutionEngineExceptionIfMethodIsNotFoundEPK10MethodInfo
w2a:__Z17GetFrustumPortionPK8Vector3fffPS_
xTc:__ZNK5physx2Gu22SupportMapRelativeImplINS0_4BoxVEE18doWarmStartSupportEiRNS_6shdfnd3aos5Vec3VE
NBh:_UnauthorizedAccessException__ctor_m259001183
Xil:__ZN15dense_hashtableINSt3__24pairIK10KeyWrapperIP14Il2CppIUnknownEjEES5_N6il2cpp5utils11PointerHashIS3_EEN14dense_hash_mapIS5_jSB_NS5_14EqualsComparerINS0_8equal_toIS4_EEEENS0_9allocatorIS7_EEE9SelectKeyESG_SI_E14squash_deletedEv
Rlb:__ZN5Light13AwakeFromLoadE17AwakeFromLoadMode
Avk:_TouchScreenKeyboard_set_text_m3456054179
Maj:__ZL60MovedFromAttribute_t922195725_CustomAttributesCacheGeneratorP21CustomAttributesCache
n0e:_DefaultControls_CreateDropdown_m1384069408
dWe:_PointerEventData_get_clickCount_m4064532478
nOg:_ReadOnlyCollection_1_System_Collections_Generic_ICollectionU3CTU3E_get_IsReadOnly_m3508872969_gshared
Jsf:_CultureAwareComparer_Compare_m2587353351
lpk:_Rect_get_position_m24550734_AdjustorThunk
vLj:_CapsuleCollider__ctor_m1053705808
PFk:_UnityEvent_1_GetDelegate_m4062537313_gshared
NAf:_CCGregorianCalendar_is_leap_year_m567513478
b9g:_Oid_get_Value_m2271181078
Fcf:_Attribute_IsDefined_m2118467641
MUe:_ExecuteEvents_Execute_m898902863
z$h:__Z68RuntimeInvoker_Void_t1841601450_Int32_t2071877448_Color32_t874517518PFvvEPK10MethodInfoPvPS4_
D6j:_InternalEnumerator_1_System_Collections_IEnumerator_get_Current_m3125080595_gshared
BIg:_Collection_1_System_Collections_IList_Add_m2091889616_gshared
p7b:__ZN16StreamedResource8TransferI24GenerateTypeTreeTransferEEvRT_
J1e:_DropdownItem_OnPointerEnter_m761897861
rAj:_AnimationLayerMixerPlayable_INTERNAL_CALL_IsLayerAdditiveInternal_m364677421
HI:__Z90Register_UnityEngine_Animations_AnimatorControllerPlayable_INTERNAL_CALL_CrossFadeInternalv
fNc:__ZN5physx3Cct10Controller13onOriginShiftERKNS_6PxVec3E
ULa:__ZN10Matrix3x3f15InvertTransposeEv
RDf:_Array_InternalArray__ICollection_Remove_TisKeyValuePair_2_t1174980068_m2768765894_gshared
ICb:__ZN24GenerateTypeTreeTransfer8TransferINSt3__26vectorIN4core12basic_stringIcNS3_20StringStorageDefaultIcEEEE13stl_allocatorIS7_L18MemLabelIdentifier12ELi16EEEEEEvRT_PKc17TransferMetaFlags
TBj:_AnimatorControllerPlayable_GetFloat_m1229536053
jGg:_Collection_1_set_Item_m2199807215_gshared
eEd:__ZN5physx2Gu19_gjkRelativeRayCastINS0_9TriangleVENS0_11ConvexHullVEEEbRT_RT0_RKNS_6shdfnd3aos15PsMatTransformVERKNS9_6FloatVERKNS9_5Vec3VESI_RSD_RSG_SK_f
MIb:__Z29Transfer_Blittable_ArrayFieldI14SafeBinaryRead8Vector3fEvRT_R9ArrayInfoRK23StaticTransferFieldInfo
Azh:_UInt32_System_IConvertible_ToBoolean_m91295134
_th:_Monitor_Monitor_test_synchronised_m1542589500
cWi:__ZL85GameObject_t1756533147_CustomAttributesCacheGenerator_GameObject_get_layer_m725607808P21CustomAttributesCache
h2h:__Z66RuntimeInvoker_Void_t1841601450_Int32_t2071877448_Slot_t2022531261PFvvEPK10MethodInfoPvPS4_
tde:__ZN20TextRenderingPrivate8FontImpl18ResetCachedTextureEv
lzi:__ZL75String_t_CustomAttributesCacheGenerator_String_Concat_m626692867____values0P21CustomAttributesCache
mWi:__ZL98GameObject_t1756533147_CustomAttributesCacheGenerator_GameObject_SendMessage_m71956653____options2P21CustomAttributesCache
Jhg:_SymmetricTransform_TransformFinalBlock_m4192185386
MWf:_TextInfo__ctor_m1263401274
rJd:__ZNK5physx19ActorAABBUpdateTask7getNameEv
lHk:_ListPool_1_Release_m3047738410_gshared
yvk:_TouchScreenKeyboard_Open_m913506328
uvl:_GC_print_finalization_stats
u_g:_Context_get_SecurityProtocolFlags_m3295551796
spj:_ValueCollection__ctor_m927733289_gshared
ika:__ZN11NamedObject15ThreadedCleanupEv
BGj:_LowMemoryCallback__ctor_m4181659636
xck:_InternalEnumerator_1__ctor_m2981879621_AdjustorThunk
Iec:__Z53Register_UnityEngine_Behaviour_get_isActiveAndEnabledv
SUi:__ZL87Component_t3819376471_CustomAttributesCacheGenerator_Component_GetComponent_m4225719715P21CustomAttributesCache
g7g:_IPAddress_ToString_m267966740
iJk:_EqualityComparer_1__ctor_m3971803374_gshared
Ir:__ZNSt3__26vectorIN4core12basic_stringIcNS1_20StringStorageDefaultIcEEEENS_9allocatorIS5_EEE8__appendEj
L_h:__Z64RuntimeInvoker_Boolean_t3825574718_IntPtr_t_ObjectU26_t597476745PFvvEPK10MethodInfoPvPS4_
TAb:__ZN26PlayerSettingsSplashScreen8TransferI17RemapPPtrTransferEEvRT_
oak:_InternalEnumerator_1_get_Current_m3922357178_gshared
n1k:__ZN6il2cpp6icalls8mscorlib6SystemL17CollectTypeFieldsINS_5utils10functional10TrueFilterEEEvP11Il2CppClassPKS7_iRNSt3__26vectorIP9FieldInfoNSB_9allocatorISE_EEEERKT_
Pdj:__ZL72ColorBlock_t2652774230_CustomAttributesCacheGenerator_m_HighlightedColorP21CustomAttributesCache
ZTc:__ZN5physx3Scb5Scene20addArticulationJointERNS0_17ArticulationJointE
kxh:_Type_get_IsValueType_m1733572463
Qsd:__ZN5physx7NpScene14resetFilteringERNS_12PxRigidActorEPKPNS_7PxShapeEj
v_b:__Z13GetTagManagerv
C7j:_InternalEnumerator_1_Dispose_m1748410190_AdjustorThunk
CJj:_Collider__ctor_m1476559039
rEf:_Array_InternalArray__ICollection_Remove_TisUInt16_t986882611_m65494986_gshared
GOg:_ReadOnlyCollection_1_IndexOf_m3054637117_gshared
LSk:__ZL10roundUp128PyS_
CU:__ZN11UnityEngine15CloudWebService17CloudJobSchedulerD0Ev
YOe:_String_System_IConvertible_ToBoolean_m2696751322
r1d:__ZN15CapsuleCollider23VirtualRedirectTransferER14SafeBinaryRead
Osa:__ZN18LoadSceneOperation7PerformEv
qyd:__ZN5physx2Sc5Scene26setSimulationEventCallbackEPNS_25PxSimulationEventCallbackEh
vak:_InternalEnumerator_1__ctor_m3228997263_AdjustorThunk
yli:_GUILayer_INTERNAL_CALL_HitTest_m693512502
ase:__ZNK2UI11CanvasGroup22GetTypeVirtualInternalEv
lCc:__ZL30GeomMTDCallback_CapsuleCapsuleRN5physx6PxVec3ERfRKNS_10PxGeometryERKNS_11PxTransformES5_S8_
Hu:__ZN7mecanim9animation17DestroyClipOutputEPNS0_10ClipOutputERNS_6memory9AllocatorE
SJj:_Camera_get_pixelRect_m2084185953
CKc:__ZL18intersectAnyVsMeshILi0EEbPKN5physx2Gu6SphereEPKNS1_7CapsuleEPKNS1_3BoxERKNS1_13RTreeMidphaseERKNS0_11PxTransformERKNS0_11PxMeshScaleEP14LimitedResults
XZh:__Z163RuntimeInvoker_Void_t1841601450_RuntimeObject_Int32_t2071877448_SByte_t454417549_SByte_t454417549_SingleU26_t4173844468_SingleU26_t4173844468_SingleU26_t4173844468PFvvEPK10MethodInfoPvPS4_
Toc:__Z21CleanupGlobalGUIStatev
Ovh:_TimeSpan__ctor_m1888018443_AdjustorThunk
B4h:__Z74RuntimeInvoker_Int32_t2071877448_UIVertex_t1204258818_UIVertex_t1204258818PFvvEPK10MethodInfoPvPS4_
lmf:_SyncHashtable_get_Count_m3694444082
P_c:__ZN5physx14NpArticulation6wakeUpEv
I5k:__ZNSt3__26vectorINS_12basic_stringIcNS_11char_traitsIcEENS_9allocatorIcEEEENS4_IS6_EEE8allocateEj
WCh:__Z56RuntimeInvoker_RuntimeObject_RuntimeObject_RuntimeObjectPFvvEPK10MethodInfoPvPS4_
pNa:__ZN22VertexDeclarationCache5ClearEv
LQl:_emscripten_glUniform2i__wrapper
wbb:__ZN17PersistentManager12SetPathRemapERKN4core12basic_stringIcNS0_20StringStorageDefaultIcEEEES6_
Tw:__Z27ProcessRootMotionEmptyMixerP35AnimationPlayableEvaluationConstantP32AnimationPlayableEvaluationInputP33AnimationPlayableEvaluationOutput
c4a:__ZN6Camera24PrepareCullingParametersERK23CameraCullingParameters13RenderingPathR11CullResults
$9b:__Z12SetIUISystemP9IUISystem
_sa:__ZN19RuntimeSceneManager22EndIntegrateMainThreadEP10UnitySceneNS_11LoadingModeE
JLi:__ZL84Evidence_t1407710183_CustomAttributesCacheGenerator_Evidence_GetHashCode_m1260371757P21CustomAttributesCache
xOg:_ReadOnlyCollection_1_System_Collections_ICollection_get_IsSynchronized_m2344337514_gshared
eKb:__Z26Transfer_UnityEngineObjectI17RemapPPtrTransferLb0EEvRK29SerializationCommandArgumentsR31RuntimeSerializationCommandInfo
TZh:__Z34RuntimeInvoker_FitMode_t4030874534PFvvEPK10MethodInfoPvPS4_
lQe:_String_IsNullOrEmpty_m2802126737
qff:_Byte_Parse_m1442736478
I_f:_Int64_Parse_m3258022240
XPe:_String_IndexOfOrdinal_m3591623977
fvk:_Texture2D_get_whiteTexture_m1979591766
soh:_CryptoConfig_EncodeLongNumber_m2352037787
Qxh:_Type_GetMethod_m475234662
FOe:_Single_GetHashCode_m3102305584
Dlg:_KeyValuePair_2__ctor_m1877755778_AdjustorThunk
b0j:_ActivationServices_get_ConstructionActivator_m1726426854
nMb:__Z29Transfer_Blittable_ArrayFieldI24GenerateTypeTreeTransfer4AABBEvRT_R9ArrayInfoRK23StaticTransferFieldInfo
mOi:__ZL76Convert_t2607082565_CustomAttributesCacheGenerator_Convert_ToChar_m245844937P21CustomAttributesCache
HNi:__ZL52Activator_t1850728717_CustomAttributesCacheGeneratorP21CustomAttributesCache
wwl:_GC_adj_bytes_allocd
IXj:_SpriteState_t1353336012_marshal_pinvoke_cleanup
jKf:_Array_InternalArray__ICollection_Add_TisKeyframe_t1449471340_m887263954_gshared
rXd:__ZN5physx20InternalTriangleMesh16allocateVerticesEj
Iwk:_UIVertex__cctor_m803910084
QLf:_Array_InternalArray__Insert_TisDateTime_t693205669_m1484996356_gshared
ztg:_List_1_System_Collections_IList_Remove_m3933652540_gshared
arj:_Dictionary_2_System_Collections_IDictionary_GetEnumerator_m1484720898_gshared
t3f:_MonoIO_get_ConsoleInput_m2976499023
Tdi:_OpCode_get_Size_m481593949_AdjustorThunk
Hjf:_BitArrayEnumerator_checkVersion_m3839504595
Vaf:_Array_GetUpperBound_m1352329707
zHd:__ZN5physx6shdfnd5ArrayINS_17PxcBroadPhasePairENS0_19ReflectionAllocatorIS2_EEE8recreateEj
e1b:__ZNK17AnimationCurveTplIfE20FindIndexForSamplingERKNS0_5CacheEfRiS4_
Ja:invoke_fiiifii
bZg:_RecordProtocol__ctor_m168945279
Ruf:_DateTimeOffset_Equals_m3728302791_AdjustorThunk
OIc:__ZThn4_N16RayRTreeCallbackILi1ELb0EED1Ev
a6d:__ZN5physx7profile11EventBufferINS_24PxDefaultContextProviderENS_6shdfnd6MutexTINS0_26WrapperReflectionAllocatorIhEEEENS0_14ScopedLockImplIS7_EENS_24PxProfileNullEventFilterEE9sendEventINS0_10StartEventEEEvRNS0_11EventHeaderERT_
Upi:_GUIStyleState_t3801000545_marshal_pinvoke_back
h2a:__ZN20SphericalHarmonicsL219AddDirectionalLightERKN4math7_float3ERKNS0_7_float4E
$Vd:__ZN5physx13BigConvexDataD2Ev
Lwh:_TimeSpan_op_GreaterThanOrEqual_m3997050520
dPi:__ZL77Convert_t2607082565_CustomAttributesCacheGenerator_Convert_ToUInt16_m36213644P21CustomAttributesCache
waa:__Z26ScheduleJobForEachInternalR8JobFencePFvPvjES1_iPFvS1_E11JobPriority
m9g:_OidEnumerator_MoveNext_m1889267785
YTa:__ZZ23InitPlayerLoopCallbacksvEN41PostLateUpdateProfilerEndFrameRegistrator7ForwardEv
Hac:__ZN9Scripting18RaiseMonoExceptionEPKcz
q$i:__ZL76Physics_t634932869_CustomAttributesCacheGenerator_Physics_Raycast_m780162053P21CustomAttributesCache
Jqb:__ZN9Texture2D8TransferI19StreamedBinaryWriteILb0EEEEvRT_
Pmi:_GUISkin_set_box_m877476512
M1e:_OptionData__ctor_m3070653720
aHk:_TweenRunner_1_StartTween_m3792842064_gshared
s3b:__ZN9ShaderLab16FastPropertyName15InitBy28BitHashEj
fOe:_Single_System_IConvertible_ToInt32_m3269519527_AdjustorThunk
jVk:__ZN6il2cpp2vm5Class7GetNameEP11Il2CppClass
YIe:_SHA1Internal_ProcessBlock_m4070037334
Sxl:__ZN6il2cpp6icalls8mscorlib6System10Reflection14MonoMethodInfo15get_method_infoE12Il2CppIntPtrP16Il2CppMethodInfo
MWi:__ZL87RectOffset_t3387826427_CustomAttributesCacheGenerator_RectOffset_get_bottom_m4112328858P21CustomAttributesCache
XMf:_Array_InternalArray__set_Item_TisDouble_t4078015681_m24756265_gshared
hih:_ObjRef_GetObjectData_m3081609242
CJd:__ZN5physx20updateBodyShapeAABBsEPKjjS1_PKNS_17PxcAABBDataStaticEPNS_11IntegerAABBEj
J0b:__ZN13ProduceHelperIN2UI13RectTransformELb0EE7ProduceE18MemLabelIdentifier18ObjectCreationMode
Cwb:__ZN17PackedFloatVector12UnpackFloatsEPfiiii
rMi:__ZL113EncoderReplacementFallback_t4228544112_CustomAttributesCacheGenerator_EncoderReplacementFallback__ctor_m517300448P21CustomAttributesCache
VLg:_ReadOnlyCollection_1__ctor_m3671019970_gshared
Zz:__ZN17AnimationPlayable28UpdateInternalStateRecursiveILi3ELb0EEEvPK35AnimationPlayableEvaluationConstant
uDa:__ZN13GfxDeviceGLES21DestroyComputeProgramER12ObjectHandleI18ComputeProgram_TagPvE
Xpf:_Convert_ToDecimal_m2007036836
c8:__ZN17UniqueIDGenerator16DestroyPureIndexEj
m4:__ZL21AppendNestedClassName17ScriptingClassPtrRN4core17string_with_labelILi1EEE
qUb:__ZN14SafeBinaryRead21TransferSTLStyleArrayINSt3__26vectorIN9ShaderLab20SerializedSubProgram12UAVParameterENS1_9allocatorIS5_EEEEEEvRT_17TransferMetaFlags
i2j:_Context_NotifyDynamicSinks_m1367144344
Xjj:_Enumerator__ctor_m1897170543_AdjustorThunk
_Z:__ZNK13BaseAllocator10IsAssignedEv
LV:__ZN24TextDOMTransferWriteBaseI9JSONWriteE12PushMetaFlagEi
vdd:__ZN5physx7NpCloth22removeCollisionCapsuleEj
P2h:__Z87RuntimeInvoker_Void_t1841601450_AnimatorClipInfoU5BU5DU26_t3073013608_Int32_t2071877448PFvvEPK10MethodInfoPvPS4_
hZg:_TlsClientCertificateVerify__ctor_m110646389
ara:__ZN6prcoreL26RemapGenericIntegerToFloatI17TexFormatARGB888815TexFormatRFloatEEvPKNS_9InnerInfoE
QZ:__ZN5Mutex6UnlockEv
H0k:__ZN6il2cpp2vm10ThreadPool10InitializeEv
r2j:_Context_GetServerContextSinkChain_m390126977
v5k:__ZN6il2cpp2vm17TypeNameParseInfoD2Ev
DRd:__ZN5physx18PxsSolverStartTask16articulationTaskEv
G6i:__ZL89GUIStyle_t1799908754_CustomAttributesCacheGenerator_GUIStyle_set_imagePosition_m327170707P21CustomAttributesCache
a5f:_StringReader_Read_m513112775
qsb:__ZNK8Renderer8GetLayerEv
hVc:__ZN5physx6shdfnd4sortIPvNS0_4LessIS2_EENS0_19ReflectionAllocatorINS_2Cm5BlockIS2_Lj16EEEEEEEvPT_jRKT0_RKT1_j
eMc:__ZN5physx3Cct17CapsuleController18setNonWalkableModeENS_27PxControllerNonWalkableMode4EnumE
tVc:__ZN5physx2Sc11InteractionD2Ev
zkb:__ZN12FlareManager11DeleteFlareEi
NDg:_Collection_1_Add_m2613548553_gshared
cz:__ZN7mecanim9animation22DestroyBlendTreeOutputEPNS0_15BlendTreeOutputERNS_6memory9AllocatorE
B_a:__ZNK6Camera20GetReplacementShaderEv
X6c:__ZN18MultiQueryCallbackIN5physx12PxRaycastHitEE6invokeERfPKNS0_2Sq13PrunerPayloadEj
Bvf:_Decimal__ctor_m569480123_AdjustorThunk
z6g:_HttpWebRequest__cctor_m3013631978
uzl:__ZNSt3__26__treeINS_12__value_typeINS_12basic_stringIcNS_11char_traitsIcEENS_9allocatorIcEEEEPFvvEEENS_19__map_value_compareIS7_SA_NS_4lessIS7_EELb1EEENS5_ISA_EEE4findIS7_EENS_15__tree_iteratorISA_PNS_11__tree_nodeISA_PvEEiEERKT_
DUb:__ZNSt3__26vectorIN9ShaderLab20SerializedSubProgram14ConstantBufferENS_9allocatorIS3_EEE7reserveEj
dva:__ZL23stbir__calculate_memoryP11stbir__info
dLh:__Z83RuntimeInvoker_Void_t1841601450_Int64_t909078037_Int32_t2071877448_Int64_t909078037PFvvEPK10MethodInfoPvPS4_
O8k:__ZNK15dense_hashtableINSt3__24pairIK10KeyWrapperINS1_IPK10MethodInfoP11Il2CppClassEEEjEES9_17ReflectionMapHashIS8_EN14dense_hash_mapIS9_jSD_NS9_14EqualsComparerINS0_8equal_toIS8_EEEENS0_9allocatorISB_EEE9SelectKeyESI_SK_E12test_deletedERK24dense_hashtable_iteratorISB_S9_SD_SM_SI_SK_E
kfg:_KeyGeneratedEventHandler_EndInvoke_m1587195139
xod:__ZN5physx15NpActorTemplateINS_13PxRigidStaticEE13setActorFlagsENS_7PxFlagsINS_11PxActorFlag4EnumEtEE
VTj:_Scrollbar_FindSelectableOnRight_m3219495255
Iq:__ZN9Behaviour11FixedUpdateEv
Bwj:_EqualityComparer_1_System_Collections_IEqualityComparer_GetHashCode_m487741360_gshared
Tre:__ZNSt3__227__insertion_sort_incompleteIRPFbPN2UI6CanvasES3_EPS3_EEbT0_S8_T_
hzc:__ZNK9rapidjson12GenericValueINS_4UTF8IcEE13JSONAllocatorE6AcceptINS_12PrettyWriterI16TempBufferWriterS2_S2_S3_EEEEbRT_
Pld:__ZN5physx19NpRigidBodyTemplateINS_14PxRigidDynamicEE11attachShapeERNS_7PxShapeE
Syj:_UnityAnalyticsHandler_t3238795095_marshal_pinvoke_back
EWa:__ZNK6Camera18GetRenderRectangleEv
BZk:__ZN6il2cpp5utils13dynamic_arrayIPK10Il2CppTypeLj4EE7reserveEj
j7i:__ZL102GUIStyle_t1799908754_CustomAttributesCacheGenerator_GUIStyle_INTERNAL_CALL_SetMouseTooltip_m3411291301P21CustomAttributesCache
zLf:_Array_InternalArray__ICollection_CopyTo_TisVector3_t2243707580_m509487340_gshared
Y3e:_GridLayoutGroup_get_constraint_m1351424857
lI:__Z82AnimatorControllerPlayable_CUSTOM_INTERNAL_CALL_IsParameterControlledByCurveStringR9HPlayableP12Il2CppString
hxc:__ZL26Transfer_SimpleNativeClassI8JSONRead10RectOffsetLb1EEvRK29SerializationCommandArgumentsR31RuntimeSerializationCommandInfo
cve:__Z44CanvasRenderer_CUSTOM_INTERNAL_CALL_SetColorP12Il2CppObjectRK10ColorRGBAf
ASf:_Component_GetComponentInChildren_TisRuntimeObject_m1823576579_gshared
Xul:_GC_should_collect
e_d:__ZN5physx2Gu27computeBoundsAroundVerticesERNS_9PxBounds3EjPKNS_6PxVec3E
p0j:_UrlAttribute_Equals_m1587451932
bql:__ZNSt3__26__treeINS_12basic_stringIcNS_11char_traitsIcEENS_9allocatorIcEEEENS_4lessIS6_EENS4_IS6_EEE12__find_equalIS6_EERPNS_16__tree_node_baseIPvEESG_RKT_
luc:__Z18Transfer_BlittableI9JSONWriteLb1EsEvRK29SerializationCommandArgumentsR31RuntimeSerializationCommandInfo
Wrd:__ZNK5physx7NpScene9getLimitsEv
tye:__Z48UnityAnalyticsHandler_CUSTOM_SendCustomEventNameP12Il2CppObjectP12Il2CppString
uph:_DSAParameters_t1872138834_marshal_pinvoke_cleanup
kka:__ZN6ObjectD2Ev
pdc:__ZN9Transform16SetLocalRotationERK11Quaternionf
AEd:__ZNK5physx2Gu29EPASupportMapPairRelativeImplINS0_9TriangleVENS0_8CapsuleVEE9doSupportERKNS_6shdfnd3aos5Vec3VERS7_SA_SA_
DCj:_AnimatorControllerPlayable_INTERNAL_CALL_GetIntegerID_m1635852922
R9j:_InternalEnumerator_1_get_Current_m3206960238_AdjustorThunk
bVa:__ZN13RenderManager37RenderCamerasWithScriptableRenderLoopEi
sId:__ZN3MBP12updateObjectEjRK5IAABB
ahd:__ZN5physx22NpParticleBaseTemplateINS_15PxParticleFluidENS_15NpParticleFluidEE20lockParticleReadDataEv
jYc:__ZN5physx6shdfnd5ArrayINS_6PxVec3ENS0_19ReflectionAllocatorIS2_EEE15growAndPushBackERKS2_
r9:__ZN23InstancedPropInfoStaticL16RegisterCallbackEPv
rml:__ZN15dense_hashtableINSt3__24pairIK10KeyWrapperIP12Il2CppObjectEN6il2cpp2gc9CachedCCWEEES5_NS7_5utils11PointerHashIS3_EEN14dense_hash_mapIS5_S9_SD_NS5_14EqualsComparerINS0_8equal_toIS4_EEEENS0_9allocatorISA_EEE9SelectKeyESI_SK_E16reset_thresholdsEv
eC:__ZN7mecanim8skeleton25SkeletonPoseComputeLocalQEPKNS0_8SkeletonEPKNS0_13SkeletonPoseTIN4math4trsXEEEPS7_ii
o1i:__ZL85AudioClip_t1932558630_CustomAttributesCacheGenerator_AudioClip_get_length_m3881628918P21CustomAttributesCache
cnl:__ZN6il2cpp2os19ReleaseSocketHandleEj
GLi:__ZL59ApplicationTrust_t3968282840_CustomAttributesCacheGeneratorP21CustomAttributesCache
ICi:__ZL128SafeHandleZeroOrMinusOneIsInvalid_t1177681199_CustomAttributesCacheGenerator_SafeHandleZeroOrMinusOneIsInvalid__ctor_m3340306667P21CustomAttributesCache
qS:__ZN11AudioModule16GetDSPSampleRateEv
wrl:__ZN15dense_hashtableINSt3__24pairIK10KeyWrapperIPK19Il2CppGenericMethodEP10MethodInfoEES6_N6il2cpp8metadata23Il2CppGenericMethodHashEN14dense_hash_mapIS6_S9_SD_NS6_14EqualsComparerINSC_26Il2CppGenericMethodCompareEEENS0_9allocatorISA_EEE9SelectKeyESH_SJ_E5clearEv
b7b:__ZN16PropertyAccessor5ClearEv
Tvd:__ZN5physx2Sc5Scene20fireTriggerCallbacksEv
M9h:_TypeBuilder_get_next_table_index_m1415870184
OGl:___cxa_can_catch
lUg:_SequentialSearchPrimeGeneratorBase_GenerateNewPrime_m296245934
vgf:_Char_GetUnicodeCategory_m4273361321
czi:__ZL63String_t_CustomAttributesCacheGenerator_String_Split_m394273024P21CustomAttributesCache
pBd:__ZN5physx2Sq10AABBPrunerC2Eb
bse:__ZN2UI11CanvasGroup23VirtualRedirectTransferER19StreamedBinaryWriteILb0EE
PDd:__ZN5physx2Gu18GJKRelativeRayCastERNS0_8CapsuleVERNS0_4BoxVERKNS_6shdfnd3aos15PsMatTransformVERKNS6_6FloatVERKNS6_5Vec3VESF_RSA_RSD_SH_fb
U_a:__ZN6Camera28DefaultPerformRenderFunctionD0Ev
F6f:_Math_Round_m565516458
$1j:_Identity_get_ClientDynamicProperties_m767245959
B6j:_InternalEnumerator_1__ctor_m675130983_AdjustorThunk
xqj:_Dictionary_2_Clear_m899854001_gshared
jol:__ZN6il2cpp2os5posix15PosixWaitObjectC2ENS2_4TypeE
NYa:__ZN6Camera21PostMultiCustomRenderENS_10RenderFlagEb
w4i:__ZL83Canvas_t209405766_CustomAttributesCacheGenerator_Canvas_get_scaleFactor_m1115379735P21CustomAttributesCache
bei:_TypeBuilder_create_generic_class_m986834171
xWc:__ZN5physx15PxsArticulationD2Ev
SKa:__ZN12_GLOBAL__N_112UploadImagesEP7ApiGLESjji14GraphicsFormatPKhjS2_iiii16TextureUsageModePh
yya:__ZN23ShaderVariantCollection13WarmupShadersEv
t_g:_Context_set_ProtocolNegotiated_m1177527245
Ezh:_UInt32_System_IConvertible_ToChar_m1056040486
T3:__Z25GetCommonScriptingClassesv
a4g:_TlsStream_get_Length_m1562309511
pta:__Z27scripting_gc_collect_unsafei
vS:__ZN11AudioModule20SuspendVideoTexturesEv
Kjf:_CaseInsensitiveComparer__ctor_m1125492797
P2b:__ZN12CubemapArrayC2E18MemLabelIdentifier18ObjectCreationMode
N4h:__Z73RuntimeInvoker_DictionaryEntry_t3048875398_RuntimeObject_SByte_t454417549PFvvEPK10MethodInfoPvPS4_
Ind:__ZN5physx13NpRigidStaticC2ERKNS_11PxTransformE
vof:_Convert_ToByte_m395020137
Bvi:_Plane_ToString_m3541300360_AdjustorThunk
KLb:__Z26Transfer_UnityEngineObjectI24GenerateTypeTreeTransferLb0EEvRK29SerializationCommandArgumentsR31RuntimeSerializationCommandInfo
rne:_UNITY_FT_GlyphLoader_CheckPoints
kwg:_List_1_System_Collections_ICollection_CopyTo_m1995866425_gshared
Vpl:__ZN6il2cpp2vm6Method11GetFullNameEPK10MethodInfo
YFl:___cxa_get_globals_fast
$Dd:__ZN5physxL20PxcSweepBoxTrianglesERKNS_11PxsCCDShapeES2_RKNS_11PxTransformES5_S5_S5_fRNS_6PxVec3ES7_RNS_10PxcNpCacheERNS_18PxcNpThreadContextERKNS_2Cm23FastVertex2ShapeScalingERNS_2Gu9TriangleVEf
P5f:_TextWriter_WriteLine_m1754475888
vNc:__ZN5physx3Cct15ObstacleContextD0Ev
jwa:__ZN15SharedLightData7PrecalcEv
Iob:__ZN20ScriptPlayableOutputD0Ev
bua:__ZN10Matrix4x4fmLERKS_
IDk:_InvokableCall_1_Invoke_m769918017_gshared
er:__ZN4PPtrI9TransformE8TransferI18StreamedBinaryReadILb0EEEEvRT_
JRf:_Array_InternalArray__get_Item_TisDouble_t4078015681_m2215331088_gshared
PLi:__ZL57PrincipalPolicy_t289802916_CustomAttributesCacheGeneratorP21CustomAttributesCache
KOb:__Z35Transfer_Blittable_FixedBufferFieldI18StreamedBinaryReadILb1EEsEvRK29SerializationCommandArgumentsR31RuntimeSerializationCommandInfo
tHg:_Collection_1_ClearItems_m3446813399_gshared
pqj:_Dictionary_2_Init_m3666073812_gshared
Cxg:_List_1_AsReadOnly_m1681105545_gshared
CSa:__ZN15ArchiveReadFileD0Ev
Chg:_SymmetricTransform_TransformBlock_m1524716432
iti:_MeshCollider_get_convex_m2666654546
jHf:_Array_compare_TisColor32_t874517518_m3842009370_gshared
TVh:__Z105RuntimeInvoker_Boolean_t3825574718_RuntimeObject_Vector2_t2243707579_RuntimeObject_Vector2U26_t3911752445PFvvEPK10MethodInfoPvPS4_
Lze:__ZN11UnityEngine15PlatformWrapper18GetOperatingSystemEv
sIa:__ZNSt3__26vectorIP14DataBufferGLESNS_9allocatorIS2_EEE21__push_back_slow_pathIKS2_EEvRT_
Kwd:__ZN5physx3Scb9Aggregate9syncStateERNS0_5SceneE
rTi:__ZL61ExtensionAttribute_t1840441203_CustomAttributesCacheGeneratorP21CustomAttributesCache
ZQg:_ReadOnlyCollection_1_System_Collections_Generic_ICollectionU3CTU3E_Remove_m974176789_gshared
_wf:_Delegate_return_type_match_m4278947849
k8e:_InputField_GenerateHightlight_m1346735465
cek:_InternalEnumerator_1_MoveNext_m3226197392_AdjustorThunk
u1k:__ZN6il2cpp6icalls8mscorlib6System8MonoType19GetGenericArgumentsEP20Il2CppReflectionType
znk:_Uri_ParseNoExceptions_m1151989845
Onf:_GC_SuppressFinalize_m953228702
nne:_FT_MSB
oVg:_MD2__ctor_m3133818738
Api:_GUIStyle_get_clipping_m2754700641
Ejh:_SoapServices_PreLoad_m490411755
E4b:__ZZL23RegisterLightPropertiesR22GenericPropertyBindingEN29Wrapper_LightShadowNormalBias13GetFloatValueEPv
vIh:__Z63RuntimeInvoker_RuntimeObject_Int32_t2071877448_SByte_t454417549PFvvEPK10MethodInfoPvPS4_
Xzl:__ZN6il2cpp6icalls8mscorlib4Mono8Security12Cryptography18KeyPairPersistence10_CanSecureEP12Il2CppString
a8i:__ZL96CustomEventData_t1269126727_CustomAttributesCacheGenerator_CustomEventData_AddUInt16_m3349298376P21CustomAttributesCache
r2c:__ZN5physx7NpActor17resolveReferencesERNS_24PxDeserializationContextE
kae:__ZN9Rigidbody15InitializeClassEv
p4j:_Action_1_Invoke_m4180501989_gshared
NWj:_Slider__ctor_m3124136916
Ygk:_DefaultComparer__ctor_m3180706193_gshared
dyg:_List_1_System_Collections_Generic_IEnumerableU3CTU3E_GetEnumerator_m3625278020_gshared
aAa:__ZN13GfxDeviceGLES14SetRasterStateEPK17DeviceRasterState
NMh:__Z51RuntimeInvoker_Int16_t4041245914_Single_t2076509932PFvvEPK10MethodInfoPvPS4_
UGb:__Z30TransferField_LinearCollectionI14SafeBinaryReadEvRK29SerializationCommandArgumentsR31RuntimeSerializationCommandInfo
HQc:__ZN5physx6shdfnd8internal8HashBaseINS0_4PairIKPKNS_2Sc8ShapeSimENS4_10NPhaseCore16ClothListElementEEES7_NS0_4HashIS7_EENS1_11HashMapBaseIS7_SA_SD_NS0_9AllocatorEE6GetKeyESF_Lb1EE5eraseERS8_
a7e:_InputField_set_caretPositionInternal_m231166704
mQc:__ZN5physx5Elems17setStaticAABBDataEjRKNS_17PxcAABBDataStaticE
PZg:_TlsServerHello__ctor_m3032108168
Kia:__ZN14SafeBinaryRead11EndTransferEv
qFi:__ZL98ILGenerator_t99948092_CustomAttributesCacheGenerator_ILGenerator_Mono_GetCurrentOffset_m3553856682P21CustomAttributesCache
GLc:__ZN5physx11PxHitBufferINS_12PxRaycastHitEE14processTouchesEPKS1_j
hHb:__ZN14SafeBinaryRead8TransferI8MonoPPtrEEvRT_PKc17TransferMetaFlags
utj:_Dictionary_2_System_Collections_Generic_ICollectionU3CSystem_Collections_Generic_KeyValuePairU3CTKeyU2CTValueU3EU3E_Remove_m1705959559_gshared
_Sa:__ZN24dense_hashtable_iteratorINSt3__24pairIKN4core12basic_stringIcNS2_20StringStorageDefaultIcEEEEP20ArchiveStorageReaderEES6_20StringHash32FunctionIS6_EN14dense_hash_mapIS6_S9_SC_NS0_8equal_toIS6_EE13stl_allocatorISA_L18MemLabelIdentifier54ELi16EEE9SelectKeyESF_SI_EppEv
Lek:_InternalEnumerator_1_System_Collections_IEnumerator_get_Current_m1533037706_gshared
hYi:__ZL111MonoBehaviour_t1158329972_CustomAttributesCacheGenerator_MonoBehaviour_StartCoroutine_Auto_Internal_m1014513456P21CustomAttributesCache
CLa:__ZN21UniformBufferTFMethod13MapBoneBufferEj
F1g:_RecordProtocol_SendChangeCipherSpec_m3542001341
JNf:_Array_InternalArray__set_Item_TisVector3_t2243707580_m1390667454_gshared
Qyg:_List_1_Sort_m3574220472_gshared
tgl:__ZNSt3__26vectorIcNS_9allocatorIcEEEC2Ej
Dhc:__Z40Register_UnityEngine_Input_GetKeyDownIntv
zfg:_KeyPairPersistence_CanSecure_m2251009700
Ix:__ZN7mecanim5human14HumanPoseClearERNS0_9HumanPoseERKNS_6bitsetILj70EEE
REb:__ZN9TextAsset15ThreadedCleanupEv
ghh:_ReturnMessage_get_Properties_m531965085
Nbi:_GenericTypeParameterBuilder_IsSubclassOf_m563999142
x4:__ZN14SerializedFileD2Ev
Zde:__ZNSt3__26vectorIN20TextRenderingPrivate8FontImpl7IntRectE13stl_allocatorIS3_L18MemLabelIdentifier34ELi16EEE21__push_back_slow_pathIKS3_EEvRT_
xaa:__Z21CompleteFenceInternalR8JobFence
Npc:__Z30Event_Get_Custom_PropModifiersP12Il2CppObject
uWc:__ZN5physx6shdfnd5ArrayIPvNS0_16AlignedAllocatorILj64ENS0_9AllocatorEEEE15growAndPushBackERKS2_
x7k:__ZN30dense_hashtable_const_iteratorINSt3__24pairIK10KeyWrapperINS1_IPK9FieldInfoP11Il2CppClassEEEjEES9_17ReflectionMapHashIS8_EN14dense_hash_mapIS9_jSD_NS9_14EqualsComparerINS0_8equal_toIS8_EEEENS0_9allocatorISB_EEE9SelectKeyESI_SK_E30advance_past_empty_and_deletedEv
Mtj:_Dictionary_2_ContainsValue_m2375979648_gshared
Nu:__ZN7mecanim9animation16CreateClipOutputEPKNS0_4ClipERNS_6memory9AllocatorE
RLf:_Array_InternalArray__Insert_TisDecimal_t724701077_m1429254816_gshared
wHk:_ListPool_1_Get_m2998644518_gshared
hSb:__ZN18StreamedBinaryReadILb0EE21TransferSTLStyleArrayI13dynamic_arrayIyLj8EEEEvRT_17TransferMetaFlags
r6k:__ZN6il2cpp2vm10Reflection17GetAssemblyObjectEPK14Il2CppAssembly
Svh:_TimeSpan_get_Days_m1002111510
KMc:__ZN5physx3Cct12SweptCapsuleC2Ev
kTb:__ZN6Shader21AwakeFromLoadThreadedEv
cqa:__ZN6prcoreL17RemapGenericFloatI17TexFormatRGBFloat17TexFormatRGBAHalfEEvPKNS_9InnerInfoE
nfj:__ZL70InputField_t1631627530_CustomAttributesCacheGenerator_m_CharacterLimitP21CustomAttributesCache
Uyg:_List_1_get_Capacity_m2443158653_gshared
Uyc:__ZN8JSONRead21TransferSTLStyleArrayI13dynamic_arrayI8Vector2fLj4EEEEvRT_18MemLabelIdentifier17TransferMetaFlags
H7d:__ZN5physx24PxcContactBoxHeightFieldERKNS_2Gu13GeometryUnionES3_RKNS_11PxTransformES6_RKfRNS_10PxcNpCacheERNS0_13ContactBufferE
EEe:__ZN13RuntimeStaticINSt3__26vectorIjNS0_9allocatorIjEEEELb0EE16StaticInitializeEPv
iX:__ZN13UploadHandler10OnSentDataEj
hBl:__ZN6il2cpp2os9SemaphoreC2Eii
z6j:_InternalEnumerator_1_get_Current_m2960188445_AdjustorThunk
UQh:__Z56RuntimeInvoker_UriHostNameType_t2148127109_RuntimeObjectPFvvEPK10MethodInfoPvPS4_
jHb:__ZNSt3__26vectorI8MonoPPtr13stl_allocatorIS1_L18MemLabelIdentifier1ELi16EEE8__appendEj
mYj:_Text_set_alignByGeometry_m1514652028
qZa:__ZN14qsort_internal30FindAndMovePivotToLastPositionIP17RODataReplacementi19ROSorterReplacementEEvT_S4_T0_T1_
NLa:__ZN15UniformTFMethod20IsBoneCountSupportedEi
iJd:__ZNK5physx23AggregateAABBUpdateTask7getNameEv
$Ke:_X509Certificate_GetExpirationDateString_m2351894475
Qsi:_Mesh_DefaultDimensionForChannel_m153181993
Rpk:_Rect_Contains_m1334685291_AdjustorThunk
T1f:_FileStream_get_Position_m465478322
gYk:__ZN14dense_hash_setI10KeyWrapperIPK19Il2CppGenericMethodEN6il2cpp8metadata23Il2CppGenericMethodHashENS4_14EqualsComparerINS6_26Il2CppGenericMethodCompareEEENSt3__29allocatorIS4_EEEC2EjRKS7_RKSA_
fIl:dynCall_viidi
VLf:_Array_InternalArray__Insert_TisInt64_t909078037_m3039874636_gshared
Fdf:_Convert_ToInt16_m1787678274
YYj:_ToggleGroup_NotifyToggleOn_m997426227
mu:__ZN8Playable18OnApplicationPauseEb
P1g:_RSASslSignatureDeformatter_SetKey_m1150106904
r5i:__ZL74Event_t3028476042_CustomAttributesCacheGenerator_Event_Cleanup_m1195902101P21CustomAttributesCache
dtj:_Dictionary_2_ContainsKeyValuePair_m3818021458_gshared
L1:__ZN24ScriptingMethodFiltering17FilterOnSignatureENS_18MethodSearchFilterE
d9h:_TypeBuilder_get_Module_m1668298460
dVd:__ZN5physx13NpClothFabric16scaleRestlengthsEf
IR:__ZN13ProduceHelperI9AudioClipLb0EE7ProduceE18MemLabelIdentifier18ObjectCreationMode
rda:__ZN18ScreenManagerWebGL13SetLockCursorE14CursorLockMode
Lme:_cf2_arrstack_finalize
k8f:_MonoType_GetMethodsByName_m1854415088
jkj:_Enumerator_get_CurrentValue_m3147984131_gshared
V9h:_DerivedType_GetMethods_m165266904
hhg:_RSAManaged_EncryptValue_m4089823119
s0b:__ZN13MonoBehaviour19HandleNotificationsEPviR11MessageData
ppd:__ZN5physx6shdfnd5ArrayIPNS_2Sc17ParticleSystemSimENS0_19ReflectionAllocatorIS4_EEE8recreateEj
Duj:_DefaultComparer_GetHashCode_m926363525_gshared
joi:_GUIStyle_set_focused_m1547304893
Ond:__ZNK5physx13NpRigidStatic7getTypeEv
FUj:_ScrollRect_get_verticalScrollbar_m2455612493
H2f:_ReadDelegate_Invoke_m2091885836
cbi:_TypeBuilder_GetField_m2112455315
QLl:b58
RLl:b59
nUh:__Z80RuntimeInvoker_PlayableHandle_t213697122_PlayableGraph_t1041204988_RuntimeObjectPFvvEPK10MethodInfoPvPS4_
ELl:b52
FLl:b53
CLl:b50
DLl:b51
dNd:__ZN5physx9PxTaskMgrD0Ev
LLl:b57
GLl:b54
HLl:b55
ddg:_Kernel_Multiply_m3585610531
mXg:_CertificateSelectionCallback_EndInvoke_m3525317639
RFh:__Z51RuntimeInvoker_Decimal_t724701077_Int32_t2071877448PFvvEPK10MethodInfoPvPS4_
daj:__ZL116PlayableAsset_t2298101656_CustomAttributesCacheGenerator_PlayableAsset_Internal_GetPlayableAssetDuration_m1442951748P21CustomAttributesCache
Ysf:_DateTime__ctor_m3604679583_AdjustorThunk
l_i:__ZL96Transform_t3275118058_CustomAttributesCacheGenerator_Transform_INTERNAL_get_position_m1881704498P21CustomAttributesCache
Y7i:__ZL94CustomEventData_t1269126727_CustomAttributesCacheGenerator_CustomEventData_AddChar_m1103619816P21CustomAttributesCache
kcf:_SimpleEnumerator_Reset_m1341779532
S5k:__ZNSt3__214__split_bufferINS_12basic_stringIcNS_11char_traitsIcEENS_9allocatorIcEEEERNS4_IS6_EEEC2EjjS8_
wgg:_MACAlgorithm_Core_m2390605245
vdk:_InternalEnumerator_1_System_Collections_IEnumerator_get_Current_m30488070_gshared
l$b:__ZN10GameObject12CleanupClassEv
cak:_InternalEnumerator_1_System_Collections_IEnumerator_Reset_m2624612805_AdjustorThunk
eZc:__ZN5physx3Scb5Scene13addRigidNoSimINS0_11RigidStaticELb0ELb1EEEvRT_RNS0_13ObjectTrackerE
Tmb:__ZN15SerializeTraitsI13dynamic_arrayI11TetrahedronLj4EEE19ResizeSTLStyleArrayERS2_i18MemLabelIdentifier
GAa:__ZN9GfxDevice25SetShaderPropertiesSharedERK19ShaderPropertySheet
uGk:_IndexedSet_1_GetEnumerator_m3646001838_gshared
GGh:__Z96RuntimeInvoker_Int32_t2071877448_RuntimeObject_Int32_t2071877448_Int32_t2071877448_RuntimeObjectPFvvEPK10MethodInfoPvPS4_
AEb:__ZN10MonoScript17MainThreadCleanupEv
x_h:__Z39RuntimeInvoker_KeyValuePair_2_t38854645PFvvEPK10MethodInfoPvPS4_
UGa:__ZN18AsyncUploadManager19AsyncResourceUploadER9GfxDeviceii9TextureID
$Rj:_VertexHelper_AddUIVertexTriangleStream_m4009409241
Ehk:_Comparer_1__ctor_m844571340_gshared
a4b:__ZL25InitializeDefaultMaterialv
Cve:__Z53Register_UnityEngine_CanvasRenderer_get_materialCountv
HZg:_TlsStream_Write_m2055734301
cQa:__ZN19FileAccessorHandlerD2Ev
mik:_Comparer_1__ctor_m2941434245_gshared
AZj:_VertexHelper_AddVert_m3290455716
qLi:__ZL56SHA256Managed_t2029745292_CustomAttributesCacheGeneratorP21CustomAttributesCache
mFi:__ZL126GenericTypeParameterBuilder_t1370236603_CustomAttributesCacheGenerator_GenericTypeParameterBuilder_MakeGenericType_m2955814622P21CustomAttributesCache
E$i:__ZL95Physics_t634932869_CustomAttributesCacheGenerator_Physics_RaycastAll_m410413656____maxDistance1P21CustomAttributesCache
mxa:__ZN17PersistentManager12UnloadStreamERKN4core12basic_stringIcNS0_20StringStorageDefaultIcEEEEb
ida:__ZN13ScreenManager17RequestResolutionEiibi
IKc:__ZN26IntersectAnyVsMeshCallbackILi0ELb1EED2Ev
hnl:__ZNK6il2cpp2os6Socket12GetLastErrorEv
_3k:_il2cpp_unity_liveness_calculation_from_statics
jQf:_Dictionary_2_Do_CopyTo_TisDictionaryEntry_t3048875398_TisDictionaryEntry_t3048875398_m983412647_gshared
py:__ZNK26AnimatorControllerPlayable11DerivesFromE17ScriptingClassPtr
fvh:_Scheduler_get_Instance_m1989471839
j8g:_WebProxy_GetProxy_m1249556681
q8g:_WebRequest_System_Runtime_Serialization_ISerializable_GetObjectData_m3377822910
Psb:__ZN8Renderer8TransferI17RemapPPtrTransferEEvRT_
p5h:__Z76RuntimeInvoker_Boolean_t3825574718_UIVertex_t1204258818_UIVertex_t1204258818PFvvEPK10MethodInfoPvPS4_
KGg:_Collection_1_Contains_m1299140035_gshared
$Ll:_glBlitFramebuffer__wrapper
pKf:_Array_InternalArray__ICollection_Add_TisUICharInfo_t3056636800_m968274080_gshared
EHk:_ObjectPool_1__ctor_m1532275833_gshared
JDa:__ZN13GfxDeviceGLES19SetSinglePassStereoE16SinglePassStereo
g5h:__Z72RuntimeInvoker_Boolean_t3825574718_Color32_t874517518_Color32_t874517518PFvvEPK10MethodInfoPvPS4_
zBg:_Queue_1_System_Collections_ICollection_get_IsSynchronized_m3521628381_gshared
$Nk:__ZL24UnresolvedVirtualCall_71P12Il2CppObjectS0_S0_iS0_S0_S0_PK10MethodInfo
Lzi:__ZL64IntPtr_t_CustomAttributesCacheGenerator_IntPtr__ctor_m3803259710P21CustomAttributesCache
Ixg:_List_1_GetIndex_m3262928832_gshared
Ded:__ZNK5physx2Sc9ClothCore16getCollisionDataEPNS_22PxClothCollisionSphereEPjPNS_21PxClothCollisionPlaneES4_PNS_24PxClothCollisionTriangleE
z7a:__Z24LookRotationToQuaternionRK8Vector3fS1_P11Quaternionf
x7a:__ZN16ReflectionProbes9GetCameraEv
kEj:_AnimatorControllerPlayable_ResolveHash_m3629783965_AdjustorThunk
Qkd:__ZN5physx22NpParticleBaseTemplateINS_16PxParticleSystemENS_16NpParticleSystemEE14resetFilteringEv
Lkg:_ArgumentException__ctor_m2105824819
cue:__ZN2UI6Canvas17SetSortingLayerIDEi
BRj:_Navigation_t1571958496_marshal_pinvoke_back
SYe:_BaseMeshEffect_get_graphic_m3358796463
gol:__ZN6il2cpp2vm11MethodStack23CleanupForCurrentThreadEv
rCk:_Predicate_1_Invoke_m695569038_gshared
omg:_Enumerator_VerifyState_m825848279_AdjustorThunk
Xkb:__ZN20TierGraphicsSettings8TransferI24GenerateTypeTreeTransferEEvRT_
nZk:__ZN15dense_hashtableINSt3__24pairIK10KeyWrapperIN6il2cpp5utils13dynamic_arrayIPK10Il2CppTypeLj4EEEEPFvvEEESA_NS3_8metadata19Il2CppSignatureHashEN14dense_hash_mapISA_SD_SG_NSA_14EqualsComparerINSF_22Il2CppSignatureCompareEEENS0_9allocatorISE_EEE9SelectKeyESK_SM_E16reset_thresholdsEv
FEh:__Z77RuntimeInvoker_Int32_t2071877448_RuntimeObject_RuntimeObject_SByte_t454417549PFvvEPK10MethodInfoPvPS4_
TQ:__ZN13AudioPlayable25UpdateChannelGroupVisitorERK16AudioProcessData
aJd:__ZN5physx10BPWorkTaskD0Ev
EIb:__ZN14SafeBinaryRead21TransferSTLStyleArrayI13dynamic_arrayI4AABBLj4EEEEvRT_17TransferMetaFlags
xna:__ZN18UnityPropertySheet8TransferI19StreamedBinaryWriteILb0EEEEvRT_
b0g:_TlsServerCertificate_checkServerIdentity_m3836435780
kba:__ZNSt3__26__treeINS_12__value_typeIiN11TypeManager18TypeCallbackStructEEENS_19__map_value_compareIiS4_NS_4lessIiEELb1EEENS_9allocatorIS4_EEE7destroyEPNS_11__tree_nodeIS4_PvEE
jig:_PKCS12_Decrypt_m2353135969
jQj:_PersistentCallGroup_Initialize_m3908067069
pgi:_MonoEvent_ToString_m386956596
H8i:__ZL70RuntimePlatform_t1869584967_CustomAttributesCacheGenerator_FlashPlayerP21CustomAttributesCache
SOf:_Array_Sort_TisRuntimeObject_m3309514378_gshared
mWe:_PointerEventData_get_pointerPress_m880101744
aka:__ZL19GetCameraTargetRectRK6Camerabb
dyd:__ZN5physx20NpRigidActorTemplateINS_13PxRigidStaticEE14resetFilteringERNS_3Scb11RigidObjectEPKPNS_7PxShapeEj
Cmj:_Transform_1_BeginInvoke_m1786442111_gshared
N2i:__ZL137AnimatorControllerPlayable_t1744083903_CustomAttributesCacheGenerator_AnimatorControllerPlayable_PlayInFixedTime_m135407725____fixedTime2P21CustomAttributesCache
CYf:_Int32_GetFormatException_m1729046182
q8a:__ZN13dynamic_arrayIN10GameObject13ComponentPairELj4EE6insertEPS1_RKS1_
DCg:_Collection_1_get_Count_m3834276648_gshared
Jfb:__ZN21UnityDefaultAllocatorI17LowLevelAllocatorE10DeallocateEPv
$Kj:_CanvasRenderer_DisableRectClipping_m2720508088
ZY:__GLOBAL__sub_I_runtime_camera2_lump_cpp
omb:__ZN15SharedLightData22UpdateCookieTextureRefEv
Ps:__ZN15PackedIntVector8TransferI14SafeBinaryReadEEvRT_
Oei:_FieldInfo_get_IsLiteral_m267898096
R_i:__ZL105RectTransform_t3349966182_CustomAttributesCacheGenerator_RectTransform_INTERNAL_set_sizeDelta_m1402803191P21CustomAttributesCache
w0c:__ZNK5physx19NpArticulationJoint20getTangentialDampingEv
b3g:_SslStreamBase_EndNegotiateHandshake_m1732321201
_mj:_Transform_1_BeginInvoke_m1167293475_gshared
gL:__ZN13AudioListener8DoUpdateEv
xBc:__ZN5physx3Cct10Controller22setUpDirectionInternalERKNS_6PxVec3E
Kyi:__ZL71SByte_t454417549_CustomAttributesCacheGenerator_SByte_Parse_m1620039654P21CustomAttributesCache
qof:__Z13bankers_roundd
KAb:__ZN14SafeBinaryRead8TransferI5RectTIfEEEvRT_PKc17TransferMetaFlags
Zi:_emscripten_glGenFramebuffers
wlf:_Hashtable_CopyTo_m2778915805
fba:__ZN17BaseObjectManager16StaticInitializeEPv
j9h:_ConstructorBuilder_get_IsCompilerContext_m2796899803
_Ui:__ZL97Component_t3819376471_CustomAttributesCacheGenerator_Component_GetComponentsInChildren_m843288020P21CustomAttributesCache
YHf:_Array_IndexOf_TisUIVertex_t1204258818_m613887160_gshared
OBb:__ZN18StreamedBinaryReadILb0EE19TransferSTLStyleMapINSt3__28multimapIN4core12basic_stringIcNS4_20StringStorageDefaultIcEEEE4PPtrI6ObjectENS2_4lessIS8_EE13stl_allocatorINS2_4pairIKS8_SB_EEL18MemLabelIdentifier51ELi16EEEEEEvRT_17TransferMetaFlags
P$e:_FloatTween_GetDuration_m1757342579_AdjustorThunk
Rof:_DateTime_CoreParse_m2014268103
kvg:_List_1__ctor_m3698273726_gshared
vGj:_Application_InvokeOnBeforeRender_m799598445
Ngb:__ZN9Behaviour23VirtualRedirectTransferER17RemapPPtrTransfer
oxe:__ZN21UnityAnalyticsManager23VirtualRedirectTransferER19StreamedBinaryWriteILb0EE
Ruc:__Z18Transfer_BlittableI9JSONWriteLb0EyEvRK29SerializationCommandArgumentsR31RuntimeSerializationCommandInfo
gka:__ZN13RenderTexture15ThreadedCleanupEv
dEe:__ZNK20UnityWebRequestProtoI19TransportJavaScript16AtomicRefCounter14RedirectHelper14ResponseHelper15DownloadHandler13UploadHandler12HeaderHelper14AsyncOperationE19GetDownloadProgressEv
YGf:_Array_BinarySearch_TisRuntimeObject_m3361740551_gshared
mpb:__ZN12CubemapArray23VirtualRedirectTransferER14SafeBinaryRead
pfd:__ZNK5physx2Sc9ClothCore23getNbCollisionTrianglesEv
Qu:__ZN21AnimationClipPlayable16ProcessHumanPassEPK35AnimationPlayableEvaluationConstantPK32AnimationPlayableEvaluationInputP33AnimationPlayableEvaluationOutput
zbd:__ZN5physx7NpShape16setFlagsInternalENS_7PxFlagsINS_11PxShapeFlag4EnumEhEE
eRg:_ReadOnlyCollection_1_System_Collections_IList_Add_m616574295_gshared
Wbe:__Z48Register_UnityEngine_MeshCollider_get_sharedMeshv
DYf:_Int32_ProcessTrailingWhitespace_m2812079777
xta:__ZN18ProceduralMaterial9ReloadAllEbb
Xjc:__Z43RectTransform_CUSTOM_INTERNAL_set_sizeDeltaP12Il2CppObjectRK13Vector2fIcall
EJc:__ZN5physx2Gu30distanceSegmentTriangleSquaredERKNS_6shdfnd3aos5Vec3VES5_S5_S5_S5_RS3_S6_
e8g:_WebProxy__ctor_m3679722173
a9j:_InternalEnumerator_1_Dispose_m2743309309_AdjustorThunk
pkl:__ZN15dense_hashtableINSt3__24pairIK10KeyWrapperINS1_IPKcS4_EEEiEES6_24NamespaceAndNamePairHashN14dense_hash_mapIS6_iS9_NS6_14EqualsComparerI26NamespaceAndNamePairEqualsEENS0_9allocatorIS8_EEE9SelectKeyESD_SF_E6insertERKS8_
mja:__ZN24GenerateTypeTreeTransfer18BeginArrayTransferEPKcS1_Ri17TransferMetaFlags
f9d:__ZN14PhysicMaterial23GetInstantiatedMaterialEPS_R6Object
_Ga:__Z16DecompressCrunchPKhRjR13TextureFormatiiii18MemLabelIdentifier
Wzg:_List_1__ctor_m2082969060_gshared
Sm:___syscall51
Wm:___syscall54
$kl:__ZNSt3__26__treeINS_12__value_typeIP24Il2CppReflectionAssemblyPvEENS_19__map_value_compareIS3_S5_NS_4lessIS3_EELb1EEENS_9allocatorIS5_EEE12__find_equalIS3_EERPNS_16__tree_node_baseIS4_EESH_RKT_
YEk:_UnityAction_2_Invoke_m1994351568_gshared
Wyj:_UnityAnalyticsHandler_Dispose_m1048126775
vNb:__Z18Transfer_BlittableI19StreamedBinaryWriteILb0EELb1EjEvRK29SerializationCommandArgumentsR31RuntimeSerializationCommandInfo
XD:__ZNK8Animator20IsAnyRendererVisibleEv
KOk:__ZL25UnresolvedVirtualCall_108P12Il2CppObjectS0_28StreamingContext_t1417235061PK10MethodInfo
sne:_cff_builder_add_point1
jll:__ZN6il2cpp2vm5Image21GetCachedResourceDataEPK11Il2CppImageRKNSt3__212basic_stringIcNS5_11char_traitsIcEENS5_9allocatorIcEEEE
WVa:__ZN4Mesh10CreateMeshEv
MOh:__Z54RuntimeInvoker_TimeSpan_t3430258949_Double_t4078015681PFvvEPK10MethodInfoPvPS4_
bKf:_Array_InternalArray__ICollection_Add_TisUInt32_t2149682021_m2629016323_gshared
aGb:__Z18Transfer_BlittableI14SafeBinaryReadLb0E10ColorRGBAfEvRK29SerializationCommandArgumentsR31RuntimeSerializationCommandInfo
Fa:invoke_iiiiiiiiii
kR:__ZNK7Texture10GetVRUsageEv
JLf:_Array_InternalArray__Insert_TisKeyValuePair_2_t888819835_m975554221_gshared
bLh:__Z59RuntimeInvoker_RuntimeObject_Int64_t909078037_RuntimeObjectPFvvEPK10MethodInfoPvPS4_
Psa:__ZN18LoadSceneOperation19IntegrateTimeSlicedEi
qvh:_Scheduler_SchedulerThread_m2209572785
obg:_SortKeyBuffer_GetResultAndReset_m2516956577
XJ:__ZN4FMOD7SystemI11createSoundEPKcjP22FMOD_CREATESOUNDEXINFOPPNS_5SoundE
tdb:__ZN10FileSystem19SetCurrentDirectoryERKN4core12basic_stringIcNS0_20StringStorageDefaultIcEEEE
FHk:_ObjectPool_1_get_countAll_m4217365918_gshared
n4:__ZN16ScriptingManager24NotifyScriptCacheReleaseEi
oTi:__ZL85UriParser_t1012511323_CustomAttributesCacheGenerator_UriParser_OnRegister_m4010407891P21CustomAttributesCache
$Ei:__ZL63UnmanagedMemoryStream_t822875729_CustomAttributesCacheGeneratorP21CustomAttributesCache
zec:__Z47Register_UnityEngine_Coroutine_ReleaseCoroutinev
cZc:__ZN10ScSceneFnsIN5physx3Scb11RigidStaticEE6insertERNS0_2Sc5SceneERS2_
OL:__ZN15AudioReverbZone13SetFMODValuesEv
YMj:_Component_GetComponentInChildren_m3925629424
O0:__ZL19StaticDestroyShaderPv
Le:_glRenderbufferStorageMultisample
Qhh:_SoapTypeAttribute_get_XmlTypeName_m2546866572
$be:__Z49Register_UnityEngine_MeshCollider_set_inflateMeshv
vz:__ZN23AnimationPlayableOutput17SetTargetAnimatorEP8Animator
RMg:_ReadOnlyCollection_1_System_Collections_IList_get_IsFixedSize_m158012227_gshared
$Rh:__Z79RuntimeInvoker_Void_t1841601450_QuaternionU26_t4187826802_Vector3U26_t425862308PFvvEPK10MethodInfoPvPS4_
RIb:__Z35Transfer_Blittable_SingleValueFieldI14SafeBinaryReadfEvRT_R17GeneralMonoObjectRK23StaticTransferFieldInfo
w0g:_TlsServerHello_processProtocol_m1241336522
XJc:__ZN5physx2Gu20sweepCCTBoxTrianglesEjPKNS_10PxTriangleEbRKNS_13PxBoxGeometryERKNS_11PxTransformERKNS_6PxVec3EfRSA_SD_RfRjPKjfNS_7PxFlagsINS_9PxHitFlag4EnumEtEE
QDf:_Array_InternalArray__ICollection_Remove_TisKeyValuePair_2_t888819835_m1287715465_gshared
uDc:__ZN5physx2Gu15OBBTriangleTestC2ERKNS0_3BoxE
P2j:_ContextAttribute_IsContextOK_m3281216012
T3f:_PathTooLongException__ctor_m3212099251
UCl:_pad
ISl:_pthread_cond_broadcast__wrapper
Kdk:_InternalEnumerator_1_MoveNext_m3299881374_AdjustorThunk
cFc:__ZN5physx2Gu21computeMTD_SphereMeshERNS_6PxVec3ERfRKNS0_6SphereERKNS_22PxTriangleMeshGeometryERKNS_11PxTransformE
KBj:_AnimatorControllerPlayable_INTERNAL_CALL_CreateHandleInternal_m1836196929
Ys:__ZN17PackedFloatVector8TransferI18StreamedBinaryReadILb0EEEEvRT_
BWi:__ZL88Screen_t786852042_CustomAttributesCacheGenerator_Screen_t786852042____width_PropertyInfoP21CustomAttributesCache
Upb:__ZN7Cubemap23VirtualRedirectTransferER17RemapPPtrTransfer
N_d:__ZN5physx12SubSortQuick5sort4EPjjRNS_6shdfnd5ArrayINS_11RTreeNodeNQENS2_19ReflectionAllocatorIS4_EEEERjRNS_10PxBounds3VEj
jhc:__Z37Register_UnityEngine_Screen_get_widthv
uXc:__ZN5physx6shdfnd5ArrayIPNS_2Sc8BodyCoreENS0_19ReflectionAllocatorIS4_EEE15growAndPushBackERKS4_
x1e:_DropdownItem_get_image_m2752143412
QNk:__ZL24UnresolvedVirtualCall_60P12Il2CppObjectaPK10MethodInfo
g8b:__ZN22BlockMemoryCacheWriter11GetPathNameEv
Y2e:_Graphic_Rebuild_m2617722358
xHd:__ZN5physx16PxsBroadPhaseMBPC2ERNS_19PxcScratchAllocatorERNS_2Cm13EventProfilerERKNS_11PxSceneDescEPNS_14PxsAABBManagerE
IHi:__ZL86SafeHandle_t2733794115_CustomAttributesCacheGenerator_SafeHandle_SetHandle_m1980208835P21CustomAttributesCache
C2d:__ZN14PhysicsManager23VirtualRedirectTransferER14SafeBinaryRead
wuf:_DateTime_ToString_m3108726445_AdjustorThunk
PU:__ZN19CloudServiceHandlerD2Ev
sRf:_Array_InternalArray__get_Item_TisTableRange_t2011406615_m602485977_gshared
d8e:_InputField_Append_m2623574152
B4c:__ZN5physx7NpActor14onActorReleaseEPNS_7PxActorE
Ekg:_ApplicationException__ctor_m1120437222
Vgi:_MonoMethod__ctor_m4091684020
ZMc:__ZN5physx3Cct26CharacterControllerManager19computeInteractionsEfPNS_26PxControllerFilterCallbackE
nq:stackAlloc
MVc:__ZN5physx6shdfnd8PoolBaseINS_2Cm5BlockIhLj256EEENS0_19ReflectionAllocatorIS4_EEE12allocateSlabEv
Tec:__Z44Camera_CUSTOM_INTERNAL_CALL_ScreenPointToRayP12Il2CppObjectRK8Vector3fR3Ray
