fd:_glClearStencil
_Jf:_Array_InternalArray__ICollection_Add_TisMark_t2724874473_m1613484179_gshared
AHc:__ZN5physx2Gu19gjkLocalPenetrationINS0_8CapsuleVENS0_17ShrunkConvexHullVEEEjRKT_RKT0_RKNS_6shdfnd3aos6FloatVERNSB_5Vec3VESG_SG_RSC_PhSI_Rhb
Lej:__ZL80Graphic_t2426225576_CustomAttributesCacheGenerator_Graphic_OnFillVBO_m1723985607P21CustomAttributesCache
Wmh:_RuntimeTypeHandle_GetObjectData_m3567098501
HPb:__ZN18StreamedBinaryReadILb1EE21TransferSTLStyleArrayIN4core12basic_stringIcNS2_20StringStorageDefaultIcEEEEEEvRT_17TransferMetaFlags
gql:__ZN6il2cpp2vm5Array13GetByteLengthEP11Il2CppArray
QSj:_Raycast3DCallback_BeginInvoke_m3028685017
zGh:__Z79RuntimeInvoker_RuntimeObject_Int64_t909078037_Int64_t909078037_Int64_t909078037PFvvEPK10MethodInfoPvPS4_
Zuk:_TextGenerator_get_lineCount_m4287181941
FRk:_Comparison_1_Invoke_m353639462_gshared
BAh:_UInt64_System_IConvertible_ToDecimal_m4205696037
M2e:_GraphicRegistry_RegisterGraphicForCanvas_m2284226562
LHa:__Z21SourceMipLevelForBlitiiii
Glb:__ZN31CanvasBatchIntermediateRenderer15AddAsRenderNodeER15RenderNodeQueueRK20DeprecatedSourceData
hnf:_Enumerator_get_Key_m2908810861
sMf:_Array_InternalArray__Insert_TisKeyCode_t2283395152_m2243686093_gshared
sCj:_AnimatorControllerPlayable_SetBool_m1780824884_AdjustorThunk
lyd:__ZNK5physx2Sc5Scene24getContactModifyCallbackEv
CG:__ZN23AnimationOffsetPlayable11SetRotationE11Quaternionf
ht:__ZN11UnityEngine9Animation28GenericAnimationBindingCacheD2Ev
rBd:__ZN5physx2Sq10AABBPruner10addObjectsEPjPKNS_9PxBounds3EPKNS0_13PrunerPayloadEj
WAj:_AnimationOffsetPlayable_op_Explicit_m363086289
wxj:_EqualityComparer_1__cctor_m968537130_gshared
Oog:_List_1_System_Collections_IList_IndexOf_m39706221_gshared
trj:_Dictionary_2_Remove_m1849931834_gshared
Mpf:_Decimal_op_Implicit_m2971610317
hc:invoke_viiiifiiiiif
S7a:__Z18RestoreRenderStateR20CameraRenderOldStateR17ShaderPassContext
Oif:_SynchronizedArrayListWrapper_get_Item_m3309425850
UOb:__Z18Transfer_BlittableI18StreamedBinaryReadILb1EELb1E5RectTIfEEvRK29SerializationCommandArgumentsR31RuntimeSerializationCommandInfo
iLb:__Z18Transfer_BlittableI24GenerateTypeTreeTransferLb0E11ColorRGBA32EvRK29SerializationCommandArgumentsR31RuntimeSerializationCommandInfo
V3:__Z25scripting_class_from_name17ScriptingImagePtrPKcS1_
Lcl:__ZN14dense_hash_mapI10KeyWrapperINSt3__24pairIPK12PropertyInfoP11Il2CppClassEEEj17ReflectionMapHashIS8_ENS9_14EqualsComparerINS1_8equal_toIS8_EEEENS1_9allocatorINS2_IKS9_jEEEEE15set_deleted_keyERSH_
cEb:__Z29scripting_class_enum_basetype17ScriptingClassPtr
GQc:__ZN5physx6shdfnd8PoolBaseINS_2Sc10NPhaseCore16ClothListElementENS0_19ReflectionAllocatorIS4_EEE17releaseEmptySlabsEv
eSh:__Z111RuntimeInvoker_Void_t1841601450_Vector4_t2243707581_Vector4_t2243707581_Vector4_t2243707581_Vector4_t2243707581PFvvEPK10MethodInfoPvPS4_
oUd:__ZN5physx2Sc14ConstraintCore10breakApartEv
Eci:_GenericTypeParameterBuilder_GetHashCode_m867619899
FZd:__ZN5physx2Gu15EdgeListBuilderC2Ev
Pwj:_EqualityComparer_1__cctor_m3397254040_gshared
cea:__ZNK20LocalFileSystemPosix6ParentERK13FileEntryDataRN4core12basic_stringIcNS3_20StringStorageDefaultIcEEEE
c$d:__ZN5physx7Cooking20loadTriangleMeshDescERKNS_18PxTriangleMeshDescERNS_19TriangleMeshBuilderE
Tuk:_TextGenerator_get_verts_m3124035267
JTc:__ZN5physx9NpFactory21releaseConnectorArrayEPNS_16NpConnectorArrayE
brk:_Vector2_get_one_m3174311904
wPf:_Array_Sort_TisVector2_t2243707579_m1307634946_gshared
qxa:__ZN17PersistentManager22CheckInstanceIDsLoadedEPii
FFa:__ZN7ApiGLES17CopyBufferSubDataEjjlll
Job:__ZNK20ScriptPlayableOutput7GetTypeEv
BSk:_U3CCreateWhereIteratorU3Ec__Iterator1D_1_Reset_m1773515612_gshared
n$a:__ZN25CameraStackRenderingState20GetOrCreateBuiltinRTE24BuiltinRenderTextureTypeii17DepthBufferFormat19RenderTextureFormatj22RenderTextureReadWrite14VRTextureUsagei
GS:__ZN11AudioModule26SetDefaultMicrophoneDriverEPv
xIk:_AesManaged_CreateEncryptor_m1729287824
T3a:__ZN17PrePassRenderLoop14RenderBasePassEP13RenderTextureRK14LightingLayersR13dynamic_arrayI16RenderObjectDataLj4EERbR10MinMaxAABB
Tff:_Char_System_IConvertible_ToInt16_m2741348777_AdjustorThunk
Doc:__ZN5IMGUI18RepaintModalWindowER8GUIState
aMg:_ReadOnlyCollection_1_System_Collections_Generic_IListU3CTU3E_set_Item_m1547026160_gshared
jCi:__ZL61MarshalAsAttribute_t2900773360_CustomAttributesCacheGeneratorP21CustomAttributesCache
nub:__Z23SetSpriteMeshIndexCountP14SharedMeshDataj
vha:__ZN7Texture13SetFilterModeEi
Wdc:__Z46Register_UnityEngine_Application_get_isPlayingv
Krl:__ZN6il2cpp8metadata13GenericMethod9GetMethodEPK19Il2CppGenericMethod
Nr:__ZNSt3__26vectorIN4core12basic_stringIcNS1_20StringStorageDefaultIcEEEENS_9allocatorIS5_EEE7reserveEj
fsf:_Convert_ToUInt16_m2130758075
T8k:__ZN15dense_hashtableINSt3__24pairIK10KeyWrapperINS1_IPK11Il2CppImageP11Il2CppClassEEEjEES9_17ReflectionMapHashIS8_EN14dense_hash_mapIS9_jSD_NS9_14EqualsComparerINS0_8equal_toIS8_EEEENS0_9allocatorISB_EEE9SelectKeyESI_SK_E3endEv
kUh:__Z132RuntimeInvoker_Void_t1841601450_RuntimeObject_AnimatorStateInfo_t2577870592_Int32_t2071877448_AnimatorControllerPlayable_t1744083903PFvvEPK10MethodInfoPvPS4_
G9g:_X509BasicConstraintsExtension_Encode_m3505127076
wAa:__ZN13GfxDeviceGLES11SetViewportERK5RectTIiE
g5e:_Image_get_pixelsPerUnit_m4104195799
lZj:_Toggle_InternalToggle_m2323729210
Yvf:_Decimal_System_IConvertible_ToInt64_m2504363272
Zb:invoke_vifiiii
$af:_Array_GetValue_m3182152438
ye:_emscripten_glDepthRange
Woh:_DESTransform_CipherFunct_m3559419566
yCc:__ZN5physx2Gu24contactConvexHeightfieldERKNS0_13GeometryUnionES3_RKNS_11PxTransformES6_RKfRNS0_5CacheERNS0_13ContactBufferE
kVc:__ZN5physx6shdfnd5ArrayIPvNS0_19ReflectionAllocatorINS_2Cm5BlockIS2_Lj8EEEEEE15growAndPushBackERKS2_
kXe:_StandaloneInputModule_get_repeatDelay_m3025279
Xli:_GUILayoutGroup_CalcWidth_m4107152934
wUb:__Z14resize_trimmedINSt3__26vectorIN9ShaderLab20SerializedSubProgram12UAVParameterENS0_9allocatorIS4_EEEEEvRT_j
Pfh:_SerializationInfo_AddValue_m1781549036
AAj:_AnimationLayerMixerPlayable_SetLayerMaskFromAvatarMask_m2582039992_AdjustorThunk
uZg:_TlsServerKeyExchange_verifySignature_m3641534563
yac:__ZN13BuildSettings34ConvertScenePathToDisplayScenePathERKN4core12basic_stringIcNS0_20StringStorageDefaultIcEEEE
zXj:_Slider_FindSelectableOnLeft_m3136767885
jHa:__ZN4crndL20crnd_default_reallocEPvjPjbS0_
TGf:_Array_BinarySearch_TisInt32_t2071877448_m51233948_gshared
yFl:__ZNSt3__212basic_stringIcNS_11char_traitsIcEENS_9allocatorIcEEEC2ERKS5_
uJd:__ZN5physx24PxsComputeAABBLocalSpaceERKNS_18PxcAABBDataDynamicERNS_9PxBounds3E
zih:_ProviderData_CopyFrom_m431414335
evb:__ZN18SpriteAtlasManager19AddRequestingSpriteE4PPtrI6SpriteE
rsh:_UTF32Encoding_GetPreamble_m767706727
dlc:__Z33Texture_CUSTOM_Internal_GetHeightP12Il2CppObject
x9e:_LayoutGroup_get_preferredHeight_m3901163825
R6a:__ZN23ScriptableRenderContextC2Ev
xdc:__Z22InverseTransformVector23TransformAccessReadOnlyRKN4math7_float3E
wpf:_DateTime_AbsoluteDays_m3061694073
Jpe:_UNITY_FT_Stream_GetChar
rPb:__Z18Transfer_BlittableI18StreamedBinaryReadILb1EELb1EdEvRK29SerializationCommandArgumentsR31RuntimeSerializationCommandInfo
rlj:_Enumerator_System_Collections_IEnumerator_get_Current_m229223308_gshared
VBd:__ZN5physx6shdfnd8internal8HashBaseINS0_4PairIKNS_2Sq13PrunerPayloadEjEES5_NS0_4HashIS5_EENS1_11HashMapBaseIS5_jS9_NS0_9AllocatorEE6GetKeyESB_Lb1EE5eraseERS6_
lEb:__Z26BuildSerializationCacheFor17ScriptingClassPtrRb
TJa:__ZN7ApiGLES15BlitFramebufferEN2gl6HandleILNS0_10ObjectTypeE9EEENS0_15FramebufferReadES3_S3_iiiiiiiiNS0_15FramebufferTypeE
NVd:__ZN5physx13GuMeshFactory16createConvexMeshERNS_13PxInputStreamE
N4d:__ZN5physx6shdfnd8internal8HashBaseINS0_4PairIKPKcjEES5_NS0_4HashIS5_EENS1_11HashMapBaseIS5_jS9_NS_7profile26WrapperReflectionAllocatorIjEEE6GetKeyESD_Lb1EE6createERS6_Rb
GPh:__Z112RuntimeInvoker_RuntimeObject_RuntimeObject_RuntimeObject_RuntimeObject_RuntimeObject_RuntimeObject_RuntimeObjectPFvvEPK10MethodInfoPvPS4_
hPj:_Event_Init_m3901382626
xif:_FixedSizeArrayListWrapper_AddRange_m2071800418
SE:__ZN13ProduceHelperI8AnimatorLb0EE7ProduceE18MemLabelIdentifier18ObjectCreationMode
tfa:__Z9InitInputv
jMh:__Z85RuntimeInvoker_Boolean_t3825574718_Int64_t909078037_Int64_t909078037_SByte_t454417549PFvvEPK10MethodInfoPvPS4_
Bng:_Enumerator_VerifyState_m2358705882_AdjustorThunk
gMb:__Z29Transfer_Blittable_ArrayFieldI24GenerateTypeTreeTransfer11ColorRGBA32EvRT_R9ArrayInfoRK23StaticTransferFieldInfo
LVd:__ZNK5physx13GuMeshFactory15getConvexMeshesEPPNS_12PxConvexMeshEjj
PTj:_Selectable_Navigate_m915280351
eeb:__ZN16MemoryFileSystem6DeleteER13FileEntryDatab
Fxk:_Vector3_get_normalized_m936072361
Uua:__ZL21BlitScaleStbImageImplRK14ImageReferenceRS_NS_10ColorSpaceE
m8c:__ZN5physx10NpMaterial17setStaticFrictionEf
$3g:_TlsStream_set_Position_m378064217
Lsd:__ZNK5physx7NpScene19getFilterShaderDataEv
DHb:__Z29Transfer_Blittable_ArrayFieldI14SafeBinaryReadyEvRT_R9ArrayInfoRK23StaticTransferFieldInfo
fP:__ZN20SoundChannelInstance15setChannelGroupEPN4FMOD12ChannelGroupE
p3c:__ZN5physx2Sc19ShapeInstancePairLL26onPoseChangedWhileSleepingEv
jMe:_Evidence_Equals_m2325859915
CDd:__ZN5physx22PxcSweepCapsuleCapsuleERKNS_11PxsCCDShapeES2_PKNS_12PxsRigidBodyES5_RKNS_11PxTransformES8_S8_S8_fRNS_6PxVec3ESA_RNS_10PxcNpCacheERNS_18PxcNpThreadContextEf
O7h:_Default__ctor_m172834064
Uc:invoke_vifffii
dNj:_Component_GetComponents_m637589504
glk:_Regex_IsMatch_m2159202025
BMc:__ZNK5physx3Cct17CapsuleController21getHalfHeightInternalEv
wQa:__ZNK25MultiBlocksMemoryFileData5CloneEv
nxl:_GC_add_ext_descriptor
qfh:_RemotingServices_GetMethodBaseFromName_m3271095947
RSc:__ZL30GeomOverlapCallback_CapsuleBoxRKN5physx10PxGeometryERKNS_11PxTransformES2_S5_PNS_2Gu12TriggerCacheE
EHl:dynCall_iiiiiiiiiiii
pRe:_ASCIIEncoding_GetBytes_m3617160053
yYg:_CipherSuiteCollection_System_Collections_IList_RemoveAt_m143866082
h2j:_Context_get_HasGlobalDynamicSinks_m3205328884
NF:__ZN26AnimatorControllerPlayable26ParameterControlledByCurveEi
MYb:__ZL26KeywordSetToStringDontSortRKNSt3__26vectorIN4core12basic_stringIcNS1_20StringStorageDefaultIcEEEENS_9allocatorIS5_EEEERS5_
hye:__Z54Register_UnityEngine_Analytics_CustomEventData_AddCharv
Xpa:__ZN6prcoreL17RemapGenericFloatI16TexFormatRGFloat17TexFormatRGBAHalfEEvPKNS_9InnerInfoE
jK:__ZN12AudioManager22CreateFMODSoundFromWWWEP10IWWWStream15FMOD_SOUND_TYPE17FMOD_SOUND_FORMATjjbbP10SampleClip
q3b:__ZNK32RendererMaterialAnimationBinding15GenerateBindingERKN4core12basic_stringIcNS0_20StringStorageDefaultIcEEEEbRN11UnityEngine9Animation14GenericBindingE
j3:__ZN8Remapper23GetOrGenerateInstanceIDERK26SerializedObjectIdentifier
N4f:_StreamWriter_Flush_m3426120024
sSa:__ZN17FileSystemHandler10AtomicMoveER13FileEntryDataS1_
ib:invoke_iiiiiifffiiifii
q2f:_MemoryStream__ctor_m1489366847
EMe:_SecurityElement_IsValidTag_m64902195
ulj:_Enumerator_System_Collections_IEnumerator_get_Current_m229223308_AdjustorThunk
Fii:_PropertyInfo_SetValue_m2961483868
Ali:_GUILayoutEntry_set_style_m70917293
VWi:__ZL115TouchScreenKeyboard_t601950206_CustomAttributesCacheGenerator_TouchScreenKeyboard_Open_m3410222954____keyboardType1P21CustomAttributesCache
tug:_List_1_System_Collections_IList_Contains_m4193366963_gshared
hGk:_UnityEvent_3_FindMethod_Impl_m1889846153_gshared
k8h:_ConstructorInfo_Invoke_m2144827141
Aub:__ZN6Sprite8TransferI24GenerateTypeTreeTransferEEvRT_
lmc:__Z48Register_UnityEngine_Transform_SetAsFirstSiblingv
Qji:_Font_get_fontSize_m1732593415
Dub:__ZN7SubMesh8TransferI24GenerateTypeTreeTransferEEvRT_
Ihi:_MonoProperty_get_CanWrite_m2124922514
yBc:__ZN5physx3Cct10Controller6setPosERKNS_14PxExtendedVec3E
j1k:__ZN6il2cpp6icalls8mscorlib6SystemL16CheckMemberMatchI9FieldInfoNS_5utils10functional6FilterINSt3__212basic_stringIcNS8_11char_traitsIcEENS8_9allocatorIcEEEENS5_13VmStringUtils23CaseInsensitiveComparerEEEEEbPKT_PK11Il2CppClassSN_iRKT0_
FDc:__ZN5physx2GuL14testFaceNormalERKNS0_13PolygonalDataES3_PNS0_12SupportLocalES5_RKNS_6shdfnd3aos15PsMatTransformVESA_RKNS7_6FloatVERSB_RjRNS7_5Vec3VENS0_13FeatureStatusERSI_
BEl:_poll
c2f:_Stream_BeginRead_m1985960185
i0e:_Graphic_UnregisterDirtyVerticesCallback_m1526739224
w1b:__ZN13ProduceHelperI14Texture2DArrayLb0EE7ProduceE18MemLabelIdentifier18ObjectCreationMode
OVg:_MD4Managed_GG_m1462438360
jic:__Z46Mesh_CUSTOM_PrintErrorCantAccessMeshForIndicesP12Il2CppObject
vOf:_Array_Resize_TisColor32_t874517518_m2219502085_gshared
mdc:__ZN9Transform23SetSiblingIndexInternalEib
Mbg:_SimpleCollator_LastIndexOfOrdinal_m45234497
XSc:__ZL32GeomOverlapCallback_ConvexConvexRKN5physx10PxGeometryERKNS_11PxTransformES2_S5_PNS_2Gu12TriggerCacheE
hEl:___fseeko
KAa:__ZN13GfxDeviceGLES17DestroySubProgramEPN9ShaderLab10SubProgramE
Zu:__ZN7mecanim5human12HumanPoseSubERNS0_9HumanPoseERKS1_S4_
AVg:_MD4_Create_m2582504069
Lll:__ZN6il2cpp8metadata15GenericMetadata15GetGenericClassEiPK17Il2CppGenericInst
Edf:_Boolean_System_IConvertible_ToInt16_m977801621
rGb:__Z18Transfer_BlittableI14SafeBinaryReadLb0E10Matrix4x4fEvRK29SerializationCommandArgumentsR31RuntimeSerializationCommandInfo
hUa:__Z24GetFixedBehaviourManagerv
zYa:__ZN12FlareManager9UpdateJobEP25FlareManagerUpdateJobData
O0k:__ZN6il2cpp2vm10ThreadPool4WaitEP17Il2CppAsyncResultPPv
MCl:_vfprintf
kZa:__ZN20DynamicPropertySheetD0Ev
Fbb:__ZN14SafeBinaryRead17RegisterConverterEPKcS1_PFbPvRS_E
FZ:__ZN35RegisterRuntimeInitializeAndCleanup8RegisterEPFvPvES2_iS0_
q2d:__ZN14PhysicMaterial8TransferI18StreamedBinaryReadILb0EEEEvRT_
JRg:_ReadOnlyCollection_1_System_Collections_IList_Clear_m2600246370_gshared
dob:__ZN20SphericalHarmonicsL215AddAmbientLightERK10ColorRGBAf
ace:__Z47Register_UnityEngine_MeshCollider_get_skinWidthv
GDd:__ZN5physx25PxcSweepConvexHeightfieldERKNS_11PxsCCDShapeES2_PKNS_12PxsRigidBodyES5_RKNS_11PxTransformES8_S8_S8_fRNS_6PxVec3ESA_RNS_10PxcNpCacheERNS_18PxcNpThreadContextEf
cfg:_DSAManaged_NormalizeArray_m2287089393
ffk:_InternalEnumerator_1_System_Collections_IEnumerator_get_Current_m2389982234_AdjustorThunk
lUa:__ZN8Material26ResetAllCachedMaterialDataEP6Shader
Upe:_UNITY_TT_Get_MM_Var
YSk:__ZN6il2cpp6icalls8mscorlib6System7Decimal13decimal2Int64EP19il2cpp_decimal_reprPx
aa:invoke_diddi
mVe:_ExecuteEvents__cctor_m288775360
Dre:__ZNK2UI6Canvas13GetRenderModeEv
Bqf:_Double_TryParseStringConstant_m2585405703
LFb:__Z18Transfer_BlittableI14SafeBinaryReadLb0EiEvRK29SerializationCommandArgumentsR31RuntimeSerializationCommandInfo
C$k:__ZN6il2cpp2vm13MetadataCache30GetPropertyDefinitionFromIndexEi
XZj:_ResourceEnumerator__ctor_m1679839941
hHe:_RijndaelTransform_Clear_m1652144089
sld:__ZN5physx14NpRigidDynamic7releaseEv
G0f:_MonoIO_GetException_m2577367044
fBe:__ZN22BaseUnityConnectClient17InitializeSessionERKN4core12basic_stringIcNS0_20StringStorageDefaultIcEEEES6_N19CloudServiceHandler13InitModeFlagsE
Vnj:_Enumerator_MoveNext_m1404007384_gshared
x9f:_NumberFormatter_get_IsZero_m1325357749
Wzd:__ZN5physx6shdfnd8PoolBaseINS_21PxsBodyTransformVault13PxsBody2WorldENS0_19ReflectionAllocatorIS3_EEE15disposeElementsEv
nOl:_emscripten_glDeleteBuffers__wrapper
oWh:__Z121RuntimeInvoker_Void_t1841601450_Single_t2076509932_Single_t2076509932_Single_t2076509932_Single_t2076509932_RuntimeObjectPFvvEPK10MethodInfoPvPS4_
Mzf:_Enum_ToObject_m322320225
zbc:__ZN13MonoBehaviour34StopCoroutineFromEnumeratorManagedE18ScriptingObjectPtr
QKe:_X509Certificate__ctor_m3860837120
RAj:_AnimationOffsetPlayable_CreateHandle_m1204489623
Wji:_GameObject_Internal_CreateGameObject_m3428198595
g_h:__Z109RuntimeInvoker_RuntimeObject_Ray_t2469606224_Single_t2076509932_Int32_t2071877448_RuntimeObject_RuntimeObjectPFvvEPK10MethodInfoPvPS4_
iKj:_Camera_RaycastTry2D_m755036866
ERg:_ReadOnlyCollection_1_System_Collections_Generic_IListU3CTU3E_set_Item_m3663361643_gshared
HJc:__ZN5physx2Gu30computeCapsule_TriangleMeshMTDERKNS_22PxTriangleMeshGeometryERKNS_11PxTransformERNS0_8CapsuleVEffbRNS_10PxSweepHitE
$zc:__ZN11UnityEngine9Analytics18SceneLoadTimeEvent12SetSceneLoadERKN4core12basic_stringIcNS2_20StringStorageDefaultIcEEEEiyyyy
NCb:__ZN30RuntimeInitializeOnLoadManager8TransferI18StreamedBinaryReadILb0EEEEvRT_
Oai:_TypeBuilder_not_supported_m3178173643
Zhe:_UNITY_tt_face_load_pclt
jcc:__ZL34GetComponentsImplementationRecurseILb1ELi0ELi2EEbR10GameObjectbRK17CompareParametersRK39GetComponentsImplementation_ReturnValue
hrd:__ZThn8_N5physx2Sc19ShapeInstancePairLL10onActivateEj
Ozl:__ZN6il2cpp6icalls8mscorlib6System9Threading5Mutex20CreateMutex_internalEbP12Il2CppStringPb
eif:_ArrayListWrapper_Remove_m1105489978
AYa:__ZNK6Camera18WorldToScreenPointERK8Vector3fPb
MJd:__ZN5physx2Cm12DelegateTaskINS_10PxsContextEXadL_ZNS2_28mergeCMDiscreteUpdateResultsEPNS_10PxBaseTaskEEEE11runInternalEv
Qwe:__ZN14UnityAnalyticsD0Ev
_wk:_Vector2_ToString_m775491729
z_d:__ZN5physx19TriangleMeshBuilder10importMeshERKNS_18PxTriangleMeshDescERKNS_15PxCookingParamsEb
Ylf:_HashKeys_CopyTo_m3566668422
Hza:__Z18IsCompressedFormat14GraphicsFormat
qv:__ZN7mecanim9animation19AdjustPoseForMotionERKNS0_14AvatarConstantERKNS0_14SkeletonTQSMapERKN4math4trsXERNS_10ValueArrayERNS_8skeleton13SkeletonPoseTIS8_EESG_
$ff:_Convert_ToSByte_m2665932200
z2:__ZNSt3__227__insertion_sort_incompleteIRPFbRKN18AwakeFromLoadQueue4ItemES4_EPS2_EEbT0_S9_T_
J9h:_ILGenerator_label_fixup_m1325994348
GZk:__ZN14dense_hash_mapI10KeyWrapperIN6il2cpp5utils13dynamic_arrayIPK10Il2CppTypeLj4EEEEPFvvENS1_8metadata19Il2CppSignatureHashENS8_14EqualsComparerINSB_22Il2CppSignatureCompareEEENSt3__29allocatorINSG_4pairIKS8_SA_EEEEE15set_deleted_keyERSJ_
URj:_Navigation_Equals_m4214630671_AdjustorThunk
QOg:_ReadOnlyCollection_1_System_Collections_Generic_IListU3CTU3E_set_Item_m257196015_gshared
ted:__ZN5physx6shdfnd5ArrayINS_18PxClothFabricPhaseENS0_19ReflectionAllocatorIS2_EEE8recreateEj
Erb:__ZN26EnlightenSystemInformation8TransferI14SafeBinaryReadEEvRT_
ERf:_Array_InternalArray__get_Item_TisLink_t2723257478_m2281261655_gshared
DHj:_AudioClipPlayable_INTERNAL_CALL_GetIsPlayingInternal_m4246314919
Wtd:__ZN5physx2Sq17SceneQueryManager11shiftOriginERKNS_6PxVec3E
dyb:__ZN12MeshRendererD0Ev
LHc:__ZN5physx2Gu16sweepBoxTriangleERKNS_10PxTriangleERKNS_9PxBounds3ERKNS_6PxVec3ES9_RS7_SA_Rf
Zkf:_Hashtable__ctor_m2702360557
gi:_utime
j$d:__ZN5physx10writeChunkEaaaaRNS_14PxOutputStreamE
T0k:__ZN6il2cpp6icalls8mscorlib6System8MonoType18IsGenericParameterEPK10Il2CppType
mUg:_PrimalityTest_Invoke_m4058801829
Cn:FUNCTION_TABLE_viiiiif
hjh:_RemotingConfiguration_SetCustomErrorsMode_m1844153208
mo:FUNCTION_TABLE_viiiiii
g5c:__ZN5physx2Sc9RigidCore13onShapeChangeERNS0_9ShapeCoreENS_7PxFlagsINS0_21ShapeChangeNotifyFlag4EnumEjEENS4_INS_11PxShapeFlag4EnumEhEE
wRf:_Array_InternalArray__get_Item_TisChar_t3454481338_m3646615547_gshared
OD:__ZN7mecanim9animation22DestroyAvatarWorkspaceEPNS0_15AvatarWorkspaceERNS_6memory9AllocatorE
$Il:dynCall_viddi
Dsk:_ScriptableObject_CreateInstance_m3271154163
Sid:__ZN5physx6shdfnd5ArrayIPvNS0_15InlineAllocatorILj256ENS0_19ReflectionAllocatorINS_2Sc19ParticlePacketShapeEEEEEE15growAndPushBackERKS2_
jGd:__ZN5physx17solveContactBlockEPKNS_23PxcSolverConstraintDescEjRNS_16PxcSolverContextE
s$d:__ZN5physx6shdfnd10FoundationD2Ev
DIf:_Array_InternalArray__IndexOf_TisResourceCacheItem_t333236149_m761772858_gshared
yoc:__ZNSt3__210__list_impIN10GUIManager12SortedScriptE11memory_poolIS2_EE5clearEv
Hob:__ZN14PlayableOutput17SetSourcePlayableEP8Playable
DTh:__Z68RuntimeInvoker_RuntimeObject_Vector3_t2243707580_Vector3_t2243707580PFvvEPK10MethodInfoPvPS4_
yjh:_TrackingServices__cctor_m3639412334
brc:__Z32GUIStyle_Set_Custom_PropRichTextP12Il2CppObjecth
gD:__ZN7mecanim9animation29MotionOutputGetDeltaTransformEPKNS0_12MotionOutputE
WLe:_StrongNamePublicKeyBlob_Equals_m2407250401
_zc:__ZN27PerformanceReportingManager21OnSceneTimingCallbackERK15SceneLoadTimingRKN4core12basic_stringIcNS3_20StringStorageDefaultIcEEEE
zF:__ZN8Animator14OnAddComponentEPN5Unity9ComponentE
yAg:_List_1_CheckMatch_m1184924052_gshared
Glc:__Z43Transform_CUSTOM_INTERNAL_get_localRotationP12Il2CppObjectP11Quaternionf
rAd:__ZN5physx2Sc10NPhaseCoreD2Ev
UUc:__ZN5physx2Sc7BodySim18onConstraintDetachEv
l4b:__ZZL23RegisterLightPropertiesR22GenericPropertyBindingEN20Wrapper_LightColorr013SetFloatValueEPvf
Ki:_emscripten_glGetTexParameteriv
Rsd:__ZN5physx7NpScene8simulateEfPNS_10PxBaseTaskEPvjb
M9j:_InternalEnumerator_1_get_Current_m3206960238_gshared
JWg:_RSAManaged_ImportParameters_m3060955884
x0j:_ChannelData_CopyFrom_m4049054607
w$b:__Z13RegisterClassI4MeshEvv
fob:__ZN8PlayableD0Ev
DT:__Z84Register_UnityEngine_Audio_AudioMixerPlayable_INTERNAL_CALL_SetAutoNormalizeInternalv
AL:__ZN12AudioManager8TransferI19StreamedBinaryWriteILb0EEEEvRT_
J2f:_WriteDelegate_Invoke_m2103848735
hQb:__ZN18StreamedBinaryReadILb1EE21TransferSTLStyleArrayI13dynamic_arrayI11ColorRGBA32Lj4EEEEvRT_17TransferMetaFlags
MHk:_Locale_GetText_m512920887
ZQb:__Z18Transfer_BlittableI18StreamedBinaryReadILb0EELb0E8Vector2fEvRK29SerializationCommandArgumentsR31RuntimeSerializationCommandInfo
W1c:__ZN5physx18NpArticulationLink10clearForceENS_11PxForceMode4EnumE
Rih:_RemotingConfiguration_get_ProcessId_m3870172209
vEc:__ZN5physx2Gu30distanceSegmentTriangleSquaredERKNS_6PxVec3ES3_S3_S3_S3_PfS4_S4_
KWf:_SortKey_ToString_m2406913228
uea:__ZN22LocalFileSystemHandler9MakeLocalER13FileEntryDatab
stl:__ZN6il2cpp2vm8Profiler10AllocationEP12Il2CppObjectP11Il2CppClass
Hpf:_Convert_ToDateTime_m1020507389
sfe:__ZNSt3__23mapIN20TextRenderingPrivate7FontRefENS1_6OSFontENS_4lessIS2_EENS_9allocatorINS_4pairIKS2_S3_EEEEEixERS8_
fca:__Z13FormatOrderedPKcz
E0f:_Path_IsPathRooted_m1347207448
Kkh:_ObjectManager_RegisterObjectInternal_m879109503
BCf:_Array_get_swapper_TisVector4_t2243707581_m97441823_gshared
sxa:__ZNSt3__26__sortIRNS_4lessIiEEPiEEvT0_S5_T_
Ece:__ZN14SafeBinaryRead21TransferSTLStyleArrayI10vector_mapINSt3__24pairIttEEfN20TextRenderingPrivate8FontImpl14KerningCompareENS2_9allocatorINS3_IS4_fEEEEEEEvRT_17TransferMetaFlags
S$b:__Z13RegisterClassI15QualitySettingsEvv
$rl:__ZN6il2cpp2vm6String21InitializeEmptyStringEP11Il2CppClass
I3a:__ZN25DeferredRenderLoopScratchD0Ev
lx:__ZN27AnimationLayerMixerPlayable14SetInputWeightEif
Vu:__ZN7mecanim9animation17EvaluateHumanPoseERKNS0_18ClipMuscleConstantERKNS0_15ClipMuscleInputEPKfRKNS0_12MotionOutputERNS_5human9HumanPoseE
eUb:__ZN15dense_hashtableINSt3__24pairIKiN4core17string_with_labelILi1EEEEEi18SInt32HashFunctionN14dense_hash_mapIiS5_S7_NS0_8equal_toIiEE13stl_allocatorIS6_L18MemLabelIdentifier1ELi16EEE9SelectKeyESA_SD_E9copy_fromERKSG_j
Wja:__ZN6Camera11ResetAspectEv
kyh:_Type_get_IsGenericType_m3396841573
I9g:_X509BasicConstraintsExtension_get_HasPathLengthConstraint_m3788532759
Dlb:__ZNK17InstancedPropInfo22FillInstancePropertiesER19ShaderPropertySheetjPK17BatchInstanceDatajRK15RenderNodeQueue
vla:__ZN22CreateGpuProgramOutputD2Ev
QHi:__ZL58_AssemblyBuilder_t418776366_CustomAttributesCacheGeneratorP21CustomAttributesCache
BNc:__ZNK5physx3Cct15ObstacleContext14getNbObstaclesEv
zil:__ZN6il2cpp6icalls8mscorlib6System2IO6MonoIO9SetLengthE12Il2CppIntPtrxPi
jYd:__ZN5physx6shdfnd8PoolBaseINS_11NpAggregateENS0_19ReflectionAllocatorIS2_EEE12allocateSlabEv
Mjd:__ZN5physx7NpScene26removeFromParticleBaseListERNS_14PxParticleBaseE
tTf:_DateTimeFormatInfo_GetInstance_m3133223810
GTg:_ModulusRing_BarrettReduction_m2802101099
bfd:__ZN5physx2Sc9ClothCore23setSelfCollisionIndicesEPKjj
ZQa:__ZN12HandlerChain4OpenER13FileEntryData14FilePermission16FileAutoBehavior
o8k:__ZN15dense_hashtableINSt3__24pairIK10KeyWrapperINS1_IPK10MethodInfoP11Il2CppClassEEEjEES9_17ReflectionMapHashIS8_EN14dense_hash_mapIS9_jSD_NS9_14EqualsComparerINS0_8equal_toIS8_EEEENS0_9allocatorISB_EEE9SelectKeyESI_SK_E6insertERKSB_
hAc:__ZN27PerformanceReportingManager29OnSceneLoadedAfterAwakeStaticEPS_iR18AwakeFromLoadQueueN19RuntimeSceneManager11LoadingModeE
Wra:__ZN18AssetBundleManager55CollectPreloadObjectsFromAssetBundleLoadAssetOperationsER13dynamic_arrayIiLj4EE
n5:__ZN14FileCacherReadD2Ev
Lwa:__ZN13RendererScene23UpdatePreviousFrameDataEii
LIe:_RSAPKCS1SignatureDeformatter_VerifySignature_m1825067195
ZOk:__ZL25UnresolvedVirtualCall_123P12Il2CppObjectffPK10MethodInfo
Hfc:__Z50Register_UnityEngine_CullingGroup_FinalizerFailurev
Ulg:_KeyValuePair_2_ToString_m2613351884_gshared
Nmb:__ZN14SafeBinaryRead21TransferSTLStyleArrayI10vector_mapI7Hash128iNSt3__24lessIS2_EE13stl_allocatorINS3_4pairIS2_iEEL18MemLabelIdentifier80ELi16EEEEEvRT_17TransferMetaFlags
Era:__ZN27UnloadUnusedAssetsOperationD0Ev
Njb:__ZN6Camera15ThreadedCleanupEv
Rdj:__ZL69ColorBlock_t2652774230_CustomAttributesCacheGenerator_m_DisabledColorP21CustomAttributesCache
WSj:_Scrollbar__ctor_m2244981801
vil:__ZN6il2cpp6icalls8mscorlib6System2IO6MonoIO9GetLengthE12Il2CppIntPtrPi
jDd:__ZN5physx10PxsCCDPair12updateShapesEv
nJe:_SHA256Managed_HashCore_m4111458495
ZBf:_CultureInfo_get_CompareInfo_m3085280862
XCi:__ZL55Dictionary_2_t2276497324_CustomAttributesCacheGeneratorP21CustomAttributesCache
Ksb:__ZN15StaticBatchInfo8TransferI14SafeBinaryReadEEvRT_
d$j:_DllImportAttribute__ctor_m1165454237
Llh:_ObjectManager_RecordDelayedFixup_m1895730844
CJ:__ZN9AudioClip23VirtualRedirectTransferER18StreamedBinaryReadILb0EE
_Zg:_ClientSessionInfo_CheckDisposed_m1394638186
Lnh:_SByte_Parse_m2544167007
Bfd:__ZN5physx2Sc9ClothCore22removeCollisionCapsuleEj
rcg:_BigInteger__ctor_m2945783161
K$g:_TlsClientHello_Update_m1723542631
PXf:_IndexOutOfRangeException__ctor_m3497760912
aWc:__ZN5physx16PxsIslandManager25setArticulationLinkHandleEjPvRKNS_20PxsIslandManagerHookIjLj4294967295EEE
hk:_glCopyTexSubImage2D
Jih:_RealProxy_InternalGetTransparentProxy_m3415358600
wRl:_glActiveTexture__wrapper
dDk:_Predicate_1_Invoke_m3001657933_gshared
pda:__ZN18ScreenManagerWebGL13SetShowCursorEb
qtl:__ZN6il2cpp6icalls8mscorlib6System7Convert24InternalFromBase64StringEP12Il2CppStringb
qKe:_SymmetricAlgorithm_CreateDecryptor_m4240570785
JYj:_Text_get_preferredWidth_m3352156860
nue:__ZN2UI13CanvasManager14GetRenderOrderEPKNS_6CanvasE
R3c:__ZN5physx6shdfnd5ArrayIPNS_3Scb5ShapeENS0_15InlineAllocatorILj16ENS0_19ReflectionAllocatorIS4_EEEEE15growAndPushBackERKS4_
pGb:__Z18Transfer_BlittableI14SafeBinaryReadLb0E5RectTIfEEvRK29SerializationCommandArgumentsR31RuntimeSerializationCommandInfo
hDa:__ZN9GfxDevice18InsertCustomMarkerEi
UPg:_ReadOnlyCollection_1_System_Collections_Generic_IListU3CTU3E_RemoveAt_m878653284_gshared
zTf:_DateTimeFormatInfo_GetFormat_m3676195179
_Fa:__ZN14GfxContextGLES14GetFramebufferEv
Ioa:__ZN6prcoreL21CreateRemapAnyBlitterE13TextureFormatS0_
dac:__ZN17AnimationCurveTplIfE16StripInvalidKeysEv
BJf:_Array_InternalArray__ICollection_Add_TisKeyValuePair_2_t3716250094_m2381539361_gshared
Cjg:_X509Extension_WriteLine_m2850991173
gte:__ZNK2UI6Canvas17GetSortingLayerIDEv
SZb:__ZL12HashLen0to16PKcj
h4k:_il2cpp_method_has_attribute
X5b:__Z13RegisterClassI17GlobalGameManagerEvv
n6a:__ZN8Renderer24SetupNewRendererForSceneEv
A4k:_il2cpp_type_get_class_or_element_class
aEf:_Array_InternalArray__ICollection_Remove_TisInt64_t909078037_m2653583130_gshared
Bth:_Thread_get_ExecutionContext_m922067206
Rwc:__Z35Transfer_Blittable_FixedBufferFieldI8JSONReadtEvRK29SerializationCommandArgumentsR31RuntimeSerializationCommandInfo
GOd:__ZN5physx2Sc8ClothSim16addCollisionMeshEPKNS0_8ShapeSimE
U6b:__ZN14PlayableOutput6HandleEv
Xtb:__ZNK6Sprite22GetTypeVirtualInternalEv
go:FUNCTION_TABLE_iiiiiiiiiiiiii
PPh:__Z100RuntimeInvoker_Void_t1841601450_SByte_t454417549_SByte_t454417549_Int32_t2071877448_SByte_t454417549PFvvEPK10MethodInfoPvPS4_
JTd:__ZN5physx6shdfnd5ArrayIPKNS_10PxsCCDBodyENS0_19ReflectionAllocatorIS4_EEE8recreateEj
L3c:__ZN5physx6shdfnd4sortINS_2Cm19PreallocatingRegionENS0_4LessIS3_EENS0_19ReflectionAllocatorIS3_EEEEvPT_jRKT0_RKT1_j
$mb:__ZN11Tetrahedron8TransferI24GenerateTypeTreeTransferEEvRT_
Pie:_UNITY_tt_get_cmap_info
P9a:__ZN16ReflectionProbes8ScheduleEN18ReflectionProbeJob7JobTypeEP15ReflectionProbei
hJg:_Collection_1_IsFixedSize_m3675221982_gshared
Eog:_Enumerator_MoveNext_m3293920409_AdjustorThunk
Lea:__Z18IsDirectoryCreatedRKN4core12basic_stringIcNS_20StringStorageDefaultIcEEEE
l2h:__Z68RuntimeInvoker_Void_t1841601450_Int32_t2071877448_Double_t4078015681PFvvEPK10MethodInfoPvPS4_
mse:__ZN2UI13CanvasManagerD2Ev
Fhk:_Comparer_1__cctor_m3112251759_gshared
S8g:_X509KeyUsageExtension_ToString_m1992050580
Zee:_UNITY_FT_GlyphLoader_Done
Vlk:_BalancingGroup__ctor_m2474435406
g0j:_ConstructionCall__ctor_m1143766850
Xpi:_GUIStyleState_Init_m2434147050
Ghk:_Comparer_1_System_Collections_IComparer_Compare_m3203078743_gshared
swi:_PlayableHandle_IsValid_m1005197654_AdjustorThunk
SGd:__ZN5physx18ComputeSortedListsEPNS_2Cm10BitMapBaseINS_6shdfnd9AllocatorEEEjjPKjPPNS_8SapBox1DES7_PjSB_jRKNS_2Gu4AxesESB_RjSB_SG_RbSH_
DG:__ZN17AnimationPlayable8OwnAssetEP11NamedObject
Dje:_tt_cmap14_char_var_index
_Jj:_Camera_INTERNAL_CALL_ScreenPointToRay_m2752248646
ale:_psh_globals_new
x2f:_FileStream_Seek_m950719389
Tpf:_Decimal_stripStyles_m294582157
vFj:_AnimatorControllerPlayable_Play_m614561002
Rza:__ZN9GfxDevice20SetMaxBufferedFramesEi
Zug:_List_1_RemoveAll_m4125997475_gshared
UHh:__Z98RuntimeInvoker_Void_t1841601450_Int32_t2071877448_Int32_t2071877448_RuntimeObject_SByte_t454417549PFvvEPK10MethodInfoPvPS4_
WHl:dynCall_vdd
Lte:__ZN2UIL17UnloadAllCanvasesEv
_cb:__Z23ConvertIntegerToTypePtrIsEbPvR14SafeBinaryRead
ZHi:__ZL54_MethodBase_t1935530873_CustomAttributesCacheGeneratorP21CustomAttributesCache
__c:__ZNK5physx14NpArticulation17releaseDriveCacheERNS_24PxArticulationDriveCacheE
zKh:__Z96RuntimeInvoker_Void_t1841601450_SByte_t454417549_RuntimeObject_SByte_t454417549_SByte_t454417549PFvvEPK10MethodInfoPvPS4_
Bif:_FixedSizeArrayListWrapper_Remove_m1359458911
Qoa:__ZN6prcoreL29inner_stretch_rgb565_bilinearEPKNS_9InnerInfoE
cfd:__ZNK5physx2Sc9ClothCore25getSelfCollisionStiffnessEv
_ve:__Z33Canvas_Get_Custom_PropWorldCameraP12Il2CppObject
XXj:_Text_get_mainTexture_m813502234
vBl:__ZN6il2cpp8metadata19Il2CppSignatureHash4HashERKNS_5utils13dynamic_arrayIPK10Il2CppTypeLj4EEE
cZk:__ZNK15dense_hashtableINSt3__24pairIK10KeyWrapperIN6il2cpp5utils13dynamic_arrayIPK10Il2CppTypeLj4EEEEPFvvEEESA_NS3_8metadata19Il2CppSignatureHashEN14dense_hash_mapISA_SD_SG_NSA_14EqualsComparerINSF_22Il2CppSignatureCompareEEENS0_9allocatorISE_EEE9SelectKeyESK_SM_E12test_deletedEj
P2a:__ZNK14RenderSettings19GetFlatAmbientColorEv
Yua:__ZN6prcoreL10inner_flipILj4EEEvPhS1_j
mAb:__ZN18StreamedBinaryReadILb0EE21TransferSTLStyleArrayI10vector_mapIPKN5Unity4TypeE7Hash128NSt3__24lessIS6_EENS8_9allocatorINS8_4pairIS6_S7_EEEEEEEvRT_17TransferMetaFlags
jz:__ZNK27StateMachineBehaviourPlayer15IsSenderEnabledEv
FCj:_AnimatorControllerPlayable_SetInteger_m881630854
S5e:_InputField_get_shouldHideMobileInput_m3694613599
fmc:__Z40Register_UnityEngine_Transform_SetParentv
IOh:__Z56RuntimeInvoker_TimeSpan_t3430258949_TimeSpan_t3430258949PFvvEPK10MethodInfoPvPS4_
Qvb:__ZN14Texture2DArray17UploadToGfxDeviceEv
oPg:_ReadOnlyCollection_1_System_Collections_Generic_IListU3CTU3E_Insert_m4216310986_gshared
yLg:_ReadOnlyCollection_1_System_Collections_Generic_IListU3CTU3E_set_Item_m1532495847_gshared
fN:__Z14FMODMemoryFreePvjPKc
Uie:_tt_cmap0_validate
t5e:_Image_AddQuad_m1600600902
tme:_cf2_glyphpath_moveTo
Nwd:__ZN5physx3Scb4Body9syncStateEv
Guf:_DateTimeOffset__ctor_m1796624924
Zli:_GUILayoutUtility_get_spaceStyle_m1918520192
i3c:__ZN5physx12PxsRigidBody23updatePoseDependenciesVERNS_10PxsContextE
HTe:_BaseRaycaster_OnDisable_m1716508791
Sv:__ZN7mecanim23TransformValueArrayLoopEiiiRKN4math4trsXES3_RNS_10ValueArrayEf
nXd:__ZN5physx2Gu12TriangleMesh4loadERNS_13PxInputStreamE
vxl:_GC_is_heap_ptr
YGg:_Collection_1_IsValidItem_m429993695_gshared
igl:__GLOBAL__sub_I_Assembly_cpp
ora:__Z21PlayerStartFirstSceneb
uC:__ZN7mecanim5human10RetargetToEPKNS0_5HumanEPKNS0_9HumanPoseES6_RKN4math4trsXEPS4_PNS_8skeleton13SkeletonPoseTIS8_EESF_
Lv:__ZN7mecanim9animation8SeekClipERKNS0_12StreamedClipERNS0_18StreamedClipMemoryEf
Om:_emscripten_glIsTexture
asi:_Mathf_Clamp_m3542052159
hif:_ArrayListWrapper_CopyTo_m793444109
tl:_emscripten_glHint
Hpe:_ft_var_readpackeddeltas
Ztf:_DateTime_AddMilliseconds_m1813199744_AdjustorThunk
Kjc:__Z65PlayableOutputHandle_CUSTOM_INTERNAL_CALL_GetPlayableOutputTypeOfR15HPlayableOutput
gch:_X509ChainStatus_t4278378721_marshal_pinvoke
zWg:_RSAManaged__ctor_m1680944437
Rm:_SDL_UpperBlit
$oi:_GUIStyle_op_Implicit_m781448948
v3a:__Z35GetTextureDecodeValuesWithIntensity16TextureUsageMode17TextureColorSpace10ColorSpacef
lff:_Byte_GetHashCode_m2885528842_AdjustorThunk
Sad:__ZNK5physx7NpShape16getContactOffsetEv
NId:__ZN5physx14PxsAABBManager21processAggregatePairsEPKNS_19AggregateSortedDataE
Bqj:_Dictionary_2_OnDeserialization_m2092139626_gshared
T7d:_PxCreateCooking
FDb:__ZN14SafeBinaryRead20OverrideRootTypeNameEPKc
r5:__ZN14FileCacherRead16UnlockCacheBlockEj
oBh:_UIntPtr_get_Size_m537421489
Gig:_X509Certificate_GetUnsignedBigInteger_m3491353542
Sce:__ZNSt3__26vectorIN4core12basic_stringIcNS1_20StringStorageDefaultIcEEEE13stl_allocatorIS5_L18MemLabelIdentifier34ELi16EEE6assignINS_11__wrap_iterIPS5_EEEENS_9enable_ifIXaasr21__is_forward_iteratorIT_EE5valuesr16is_constructibleIS5_NS_15iterator_traitsISF_E9referenceEEE5valueEvE4typeESF_SF_
RHl:dynCall_iifii
rd:_emscripten_glUniform1f
yfe:__Z20ParseImageParametersR11UTF16StringRiRN20TextRenderingPrivate16TextFormatChangeE
wd:_emscripten_glUniform1i
xDb:__ZN13MonoBehaviour9CallAwakeEv
$6:__Z33UnregisterDeviceEventCallbackImplPFv23UnityGfxDeviceEventTypeE
rSd:__ZN5physx2Sc19ShapeInstancePairLL23postIslandGenSecondPassEv
TEj:_AnimatorControllerPlayable_CrossFade_m3391147919
y2d:__ZN14PhysicsManager23VirtualRedirectTransferER19StreamedBinaryWriteILb0EE
GVb:__ZN9ShaderLab16SerializedTagMapaSERKS0_
tV:__ZN11UnityEngine15CloudWebService16SessionContainer20RestoreSessionHeaderERKN4core12basic_stringIcNS2_20StringStorageDefaultIcEEEES8_RNS0_13SessionHeaderE
aCd:__ZN5physx2Sq16BucketPrunerCore12updateObjectERKNS_9PxBounds3ERKNS0_13PrunerPayloadE
ERd:__ZN5physx18PxsDynamicsContext23atomIntegrationParallelEfPKPNS_11PxsBodyCoreEPKPNS_12PxsRigidBodyEjPKNS_2Cm13SpatialVectorEPNS_13PxcSolverBodyEPNS_17PxcSolverBodyDataEPSA_RjSI_RNS_10PxBaseTaskE
CD:__ZN11UnityEngine9Animation27CreateAvatarBindingConstantER9TransformPKN7mecanim9animation14AvatarConstantERNS3_6memory9AllocatorE
kCb:__ZN14SafeBinaryRead21TransferSTLStyleArrayINSt3__26vectorIN30RuntimeInitializeOnLoadManager9ClassInfoE13stl_allocatorIS4_L18MemLabelIdentifier12ELi16EEEEEEvRT_17TransferMetaFlags
ZBh:_UnitySerializationHolder_GetObjectData_m2280028722
zAh:_UInt64_System_IConvertible_ToDateTime_m2412118561
Rcc:__ZN9BlobWriteC2ER13dynamic_arrayIhLj16EE24TransferInstructionFlags19BuildTargetPlatform
I3:__ZN14MessageHandler3GetEv
tni:_GUISkin_set_verticalScrollbarThumb_m2647835739
Kd:_emscripten_glAttachShader
fOg:_ReadOnlyCollection_1__ctor_m1539890895_gshared
Qza:__ZN9GfxDevice13SetActiveTierE12GraphicsTier
ong:_Enumerator_System_Collections_IEnumerator_get_Current_m3079057684_AdjustorThunk
oEf:_Array_InternalArray__ICollection_Remove_TisSingle_t2076509932_m2568053761_gshared
Wyb:__ZNSt3__26vectorIN4core12basic_stringIcNS1_20StringStorageDefaultIcEEEENS_9allocatorIS5_EEE6assignIPS5_EENS_9enable_ifIXaasr21__is_forward_iteratorIT_EE5valuesr16is_constructibleIS5_NS_15iterator_traitsISC_E9referenceEEE5valueEvE4typeESC_SC_
wfg:_KeyPairPersistence_get_UserPath_m3433052783
gLc:__ZN5physx2Gu19GetRaycastFuncTableEv
_be:__Z49Register_UnityEngine_MeshCollider_get_inflateMeshv
vzi:__ZL58Decimal_t724701077_CustomAttributesCacheGenerator_MinusOneP21CustomAttributesCache
_Fb:__Z18Transfer_BlittableI14SafeBinaryReadLb0E11QuaternionfEvRK29SerializationCommandArgumentsR31RuntimeSerializationCommandInfo
jSd:__ZN5physx17EdgeChangeManager23cleanupBrokenEdgeEventsEPKNS_4EdgeE
zRb:__Z18Transfer_BlittableI18StreamedBinaryReadILb0EELb1E12PropertyNameEvRK29SerializationCommandArgumentsR31RuntimeSerializationCommandInfo
o_:_tlsf_walk_heap
eig:_PKCS12_Decode_m731190390
D2k:__ZN6il2cpp2vm7Runtime6InvokeEPK10MethodInfoPvPS5_PP15Il2CppException
gsi:_Mathf_DeltaAngle_m1024687732
kCh:_Version_CheckedSet_m76493673
Bb:invoke_vif
Cb:invoke_vid
PFl:__ZNSt3__212basic_stringIcNS_11char_traitsIcEENS_9allocatorIcEEE6insertEjPKc
iMi:__ZL67UnverifiableCodeAttribute_t765455733_CustomAttributesCacheGeneratorP21CustomAttributesCache
Eb:invoke_vii
evd:__ZN5physx13NpVolumeCacheD2Ev
rYf:_Int16_System_IConvertible_ToUInt32_m883204517_AdjustorThunk
lfb:__ZN12TLSAllocatorI14StackAllocatorE16ThreadInitializeEP13BaseAllocator
Fhf:_ArrayList_Sort_m2778059513
K$e:_FloatTween_TweenValue_m3881535116_AdjustorThunk
ePd:__ZThn8_N5physx2Sc35ParticleElementRbElementInteraction12onDeactivateEj
k4e:_LayoutGroup_SetChildAlongAxis_m2732017156
fve:__Z41CanvasRenderer_CUSTOM_DisableRectClippingP12Il2CppObject
qVg:_MD2_Create_m539024737
XEd:__ZN5physx16PxsThreadContextC2EPNS_10PxsContextE
Vul:_GC_allochblk
RQh:__Z112RuntimeInvoker_Void_t1841601450_RuntimeObject_Int32_t2071877448_Int32_t2071877448_RuntimeObject_SByte_t454417549PFvvEPK10MethodInfoPvPS4_
MQa:__ZN25SingleBlockMemoryFileDataD0Ev
jhb:__ZNSt3__26vectorI14ConstantStringNS_9allocatorIS1_EEE6assignINS_11__wrap_iterIPS1_EEEENS_9enable_ifIXaasr21__is_forward_iteratorIT_EE5valuesr16is_constructibleIS1_NS_15iterator_traitsISA_E9referenceEEE5valueEvE4typeESA_SA_
zBc:__ZN5physx3Cct10Controller4moveERNS0_11SweptVolumeERKNS_6PxVec3EffRKNS_19PxControllerFiltersEPKNS_17PxObstacleContextEb
oV:__ZN11UnityEngine15CloudWebService16SessionContainer21ConvertFromFolderTimeERKN4core12basic_stringIcNS2_20StringStorageDefaultIcEEEEPjPt
xmd:__ZN5physx14NpRigidDynamic17setAngularDampingEf
uHb:__ZNSt3__26vectorI8GUIStyle13stl_allocatorIS1_L18MemLabelIdentifier1ELi16EEE7reserveEj
egl:__ZN6il2cpp6icalls8mscorlib6System9Threading6Thread27GetSerializedCurrentCultureEP12Il2CppThread
MIf:_Array_InternalArray__IndexOf_TisUInt32_t2149682021_m3231515987_gshared
p1b:__Z31CalculateHierarchyTransformType23TransformAccessReadOnly
L$b:__Z13RegisterClassI11TimeManagerEvv
XM:__ZN4FMOD8ChannelI11setPositionEjj
qJh:__Z136RuntimeInvoker_IntPtr_t_RuntimeObject_Int32_t2071877448_Int32_t2071877448_Int32_t2071877448_Int32_t2071877448_MonoIOErrorU26_t1029615899PFvvEPK10MethodInfoPvPS4_
Hng:_Enumerator_VerifyState_m4188527104_gshared
IXc:__ZN5physx6shdfnd8PoolBaseINS_2Sc12SimStateDataENS0_19ReflectionAllocatorIS3_EEE17releaseEmptySlabsEv
gba:__ZN17BaseObjectManager13StaticDestroyEPv
ouk:_TextGenerationSettings_CompareVector2_m592645251
hvf:_DBNull_System_IConvertible_ToChar_m3344298044
hXh:__Z65RuntimeInvoker_Boolean_t3825574718_RuntimeObject_Int64_t909078037PFvvEPK10MethodInfoPvPS4_
oFc:__ZN5physx2Gu22closestPtPointTriangleEPNS_6shdfnd3aos5Vec3VES4_S4_Rj
rjg:_X509Certificate_GetObjectData_m3888130484
GBb:__ZNSt3__26vectorIN15ResourceManager10DependencyE13stl_allocatorIS2_L18MemLabelIdentifier51ELi16EEEC2INS_11__wrap_iterIPS2_EEEET_SB_RKS5_PNS_9enable_ifIXaasr21__is_forward_iteratorISB_EE5valuesr16is_constructibleIS2_NS_15iterator_traitsISB_E9referenceEEE5valueEvE4typeE
D5c:__ZN5physx2Cm8PtrTableC2Ev
rik:_LinkStack_Push_m2660199875
RL:__ZN4FMOD6Reverb13setPropertiesEPK22FMOD_REVERB_PROPERTIES
UZa:__ZN9DepthPass13PrepareSubsetEjRK10RenderNodeifRK17ShaderReplaceData
fId:__ZN5physx16PxsBroadPhaseMBP6updateEjjRKNS_23PxcBroadPhaseUpdateDataEPNS_10PxBaseTaskE
r9c:__ZN5physx9NpPhysics18createRigidDynamicERKNS_11PxTransformE
xSc:__ZN5physx6shdfnd5ArrayIPvNS0_19ReflectionAllocatorINS_2Sc18TriggerInteractionEEEE15growAndPushBackERKS2_
Czk:_X509CertificateCollection_Add_m4008705157
G8b:__Z35SetMeshComponentFromArrayFromScriptR4Mesh30InternalScriptingShaderChannel34InternalScriptingVertexChannelTypei17ScriptingArrayPtri
_Pg:_ReadOnlyCollection_1_System_Collections_IList_Add_m3806843030_gshared
pGg:_Collection_1_IsFixedSize_m1816795498_gshared
IIc:__ZN5physx2Gu17intersectRayAABB2ERKNS_6shdfnd3aos5Vec3VES5_S5_S5_RKNS2_6FloatVERS6_S9_
Gr:__ZN4core20StringStorageDefaultIcE6assignEPKcj
zad:__ZNK5physx7NpShape17getSphereGeometryERNS_16PxSphereGeometryE
KKc:__ZL18intersectAnyVsMeshILi1EEbPKN5physx2Gu6SphereEPKNS1_7CapsuleEPKNS1_3BoxERKNS1_13RTreeMidphaseERKNS0_11PxTransformERKNS0_11PxMeshScaleEP14LimitedResults
Lml:__ZN15dense_hashtableINSt3__24pairIK10KeyWrapperIP12Il2CppObjectEN6il2cpp2gc9CachedCCWEEES5_NS7_5utils11PointerHashIS3_EEN14dense_hash_mapIS5_S9_SD_NS5_14EqualsComparerINS0_8equal_toIS4_EEEENS0_9allocatorISA_EEE9SelectKeyESI_SK_E3endEv
nCb:__Z14resize_trimmedINSt3__26vectorIi13stl_allocatorIiL18MemLabelIdentifier12ELi16EEEEEvRT_j
RWe:_MouseButtonEventData_ReleasedThisFrame_m482758300
wdl:__ZN15dense_hashtableINSt3__24pairIK10KeyWrapperINS1_IP11Il2CppClassjEEES4_EES6_N6il2cpp8metadata14ArrayClassHashEN14dense_hash_mapIS6_S4_SB_NS6_14EqualsComparerINSA_17ArrayClassCompareEEENS0_9allocatorIS8_EEE9SelectKeyESF_SH_E9copy_fromERKSK_j
QVc:__ZN5physx6shdfnd5ArrayIPvNS0_15InlineAllocatorILj256ENS0_19ReflectionAllocatorINS_2Cm5BlockIhLj128EEEEEEEE15growAndPushBackERKS2_
Gif:_ReadOnlyArrayListWrapper_set_Item_m2199017141
D7a:__ZN6Camera6SetFarEf
xzk:_DeriveBytes_DeriveIV_m3343375195
gLe:_X509Certificate_ToString_m1582581274
ZHe:_RNGCryptoServiceProvider_GetBytes_m167497991
ypa:__ZN6prcoreL12RemapGenericI17TexFormatABGR888817TexFormatARGB8888EEvPKNS_9InnerInfoE
Ihb:__ZN11GameManager17MainThreadCleanupEv
Mwe:__Z50Register_UnityEngine_UISystemProfilerApi_EndSamplev
wai:_TypeBuilder_get_Assembly_m492491492
bdd:__ZNK5physx7NpCloth24getParticleAccelerationsEPNS_6PxVec4E
uoe:_UNITY_tt_slot_init
TTa:__ZZ23InitPlayerLoopCallbacksvEN41PostLateUpdateUpdateResolutionRegistrator7ForwardEv
XFe:_HMACSHA512__cctor_m1167457383
QSb:__Z25scripting_array_class_get17ScriptingClassPtrj
cvc:__ZL22Transfer_ManagedObjectI9JSONWriteLb1EEvRK29SerializationCommandArgumentsR31RuntimeSerializationCommandInfo
kJ:__ZNK10SampleClip22GetTypeVirtualInternalEv
lBa:__ZN9GfxDevice20DestroyRenderSurfaceER12ObjectHandleI17RenderSurface_TagP17RenderSurfaceBaseE
Xba:__ZN18SpriteAtlasManagerC2Ev
BOa:__ZN9GfxDevice22UpdateComputeResourcesEjPK9TextureIDPK16TextureDimensionPKijPKjjPK15ComputeBufferIDS7_PK20ComputeBufferCounterjSC_S2_S5_S9_SF_
F5b:__ZN12_GLOBAL__N_15qAsinEff
hQf:_Dictionary_2_Do_ICollectionCopyTo_TisKeyValuePair_2_t3749587448_m2536766696_gshared
mfb:__ZN12TLSAllocatorI14StackAllocatorE13ThreadCleanupEv
OHf:_Array_IndexOf_TisRuntimeObject_m1815604637_gshared
$sl:__ZThn4_N6il2cpp2vm13ComObjectBase16MarshalInterfaceEP13Il2CppIStreamRK10Il2CppGuidPvjS7_j
Dwb:__ZN4Mesh27SwizzleVertexColorsIfNeededEb
Ufb:__Z27FindActiveTransformWithPathPKc
PKj:_CanvasGroup_get_alpha_m1304564441
Sqd:__ZN5physx16PxsIslandManager14setEdgeRigidCMERKNS_20PxsIslandManagerHookIjLj4294967295EEEPNS_17PxsContactManagerE
bia:__ZN7Texture5ResetEv
TGj:_AsyncOperation_Finalize_m67522446
Ljg:_SecurityParser_OnEndElement_m2909940377
GWd:__ZN5physx2Gu11HeightField7releaseEv
Q$a:__ZNK6Camera7GetNearEv
qJa:__ZN7ApiGLES11UnmapBufferEjN2gl12BufferTargetE
ktl:__ZN6il2cpp5utilsL24Utf32CharToSurrogatePairEjRA2_Ds
uqb:__Z25GetNextAllowedTextureSizeib13TextureFormat
rea:__ZN20LocalFileSystemWebGL4CopyER13FileEntryDataS1_
Svg:_List_1_CheckIndex_m4231572822_gshared
PX:__ZN19CloudServiceHandler6RetainEv
LMe:_StrongName_Equals_m67226644
$ib:__ZN12BaseRenderer20FlattenToRenderQueueER15RenderNodeQueueRK20DeprecatedSourceData
HOd:__ZN5physx2Sc8ClothSim23addCollisionHeightfieldEPKNS0_8ShapeSimE
i6f:_UnmanagedMemoryStream_get_Length_m587008850
dsa:__Z34scripting_liveness_calculation_endPv
Pol:__ZN6il2cpp2os6ThreadC2Ev
ANe:_SecurityFrame_InitFromRuntimeFrame_m45195821
gv:__ZN21AnimationClipPlayable22ProcessAnimationNoClipEPK35AnimationPlayableEvaluationConstantPK32AnimationPlayableEvaluationInputP33AnimationPlayableEvaluationOutput
XDf:_Array_InternalArray__ICollection_Remove_TisDateTime_t693205669_m1275668216_gshared
Dqe:__ZNK19TextRenderingModule8TMGenGetERK11UTF16StringPN13TextRendering4FontE10TextAnchor13TextAlignmentfffbb11ColorRGBA32fii
zwc:__Z18Transfer_BlittableI8JSONReadLb0E8Vector3fEvRK29SerializationCommandArgumentsR31RuntimeSerializationCommandInfo
B0j:_ChannelServices__cctor_m3534779830
Zel:__ZN6il2cpp2vm6Thread6DetachEP12Il2CppThread
kke:_Render_Single_Pass
Lqf:_Convert_ToInt16_m416789348
XJk:_EqualityComparer_1__cctor_m2666196678_gshared
pkj:_Enumerator_get_CurrentValue_m3147984131_AdjustorThunk
bli:_GUIStyle_Init_m3872198731
ID:__ZN7mecanim8skeleton30SkeletonBuildReverseIndexArrayEPiPKiPKNS0_8SkeletonES6_
Snc:__Z19GetGUIBlendMaterialv
JVh:__Z69RuntimeInvoker_Boolean_t3825574718_TextGenerationSettings_t2543476768PFvvEPK10MethodInfoPvPS4_
Bpl:__ZN6il2cpp2os10ThreadImpl5SleepEjb
tHd:__ZN5physx14SapPairManager12shrinkMemoryEv
nvc:__ZN9JSONWrite8TransferI13GUIStyleStateEEvRT_PKc17TransferMetaFlags
U_d:__ZN5physx6shdfnd8internal7median3IjKNS_19SortBoundsPredicateEEEvPT_iiRT0_
fRf:_PlayableExtensions_SetInputCount_TisPlayable_t1896841784_m86933189_gshared
O4g:_ListDictionary_FindEntry_m432748847
eOl:_glBindSampler__wrapper
wEk:_UnityAction_1_Invoke_m3523417209_gshared
qg:_emscripten_set_mouseup_callback
PTb:__Z14resize_trimmedINSt3__26vectorIN9ShaderLab14SerializedPassENS0_9allocatorIS3_EEEEEvRT_j
pMj:_Collision_get_gameObject_m1370363400
Etd:__ZN5physx7NpScene22removeBroadPhaseRegionEj
QSc:__ZL34GeomOverlapCallback_CapsuleCapsuleRKN5physx10PxGeometryERKNS_11PxTransformES2_S5_PNS_2Gu12TriggerCacheE
Ada:__ZNK18ScreenManagerWebGL8GetWidthEv
Msd:__ZNK5physx7NpScene23getFilterShaderDataSizeEv
jIl:dynCall_iiifii
T3e:_GridLayoutGroup_set_startAxis_m1635162426
hJ:__ZN10SampleClipD2Ev
h3j:_SynchronizationAttribute_EnterContext_m2984912761
jCf:_CultureInfo_construct_internal_locale_from_name_m971766383
rKf:_Array_InternalArray__ICollection_Add_TisUIVertex_t1204258818_m3869382594_gshared
zX:__ZN11UnityEngine15CloudWebService20WebRequestRestClientC2Ev
Qne:_cff_cmap_unicode_init
Bzf:_Enum_ToObject_m2460371738
odg:_PrimalityTests_Test_m1088386156
Rpc:__Z36Event_CUSTOM_Internal_SetNativeEvent13Il2Cpp_IntPtr
pEl:_readlink
Okk:_ExpressionAssertion__ctor_m2408911632
HOf:_Array_Resize_TisVector3_t2243707580_m893658391_gshared
d8j:_InternalEnumerator_1_System_Collections_IEnumerator_get_Current_m4259662004_AdjustorThunk
kSf:_Array_InternalArray__get_Item_TisKeyframe_t1449471340_m1003508933_gshared
izl:__ZN6il2cpp8metadata14Il2CppTypeHash4HashEPK10Il2CppType
IMh:__Z50RuntimeInvoker_Double_t4078015681_Int64_t909078037PFvvEPK10MethodInfoPvPS4_
_hg:_StrongName_get_PublicKeyToken_m1968460885
Myb:__ZNK6Sprite9GetBoundsE8Vector2fbb
JVa:__ZNK19RenderEventsContext21CleanupCommandBuffersEv
xEa:__ZN11ContextGLES6CreateEi
iKc:__ZN5physx6shdfnd5ArrayINS_10PxTriangleENS0_19ReflectionAllocatorIS2_EEE15growAndPushBackERKS2_
O$f:_BinaryReader_Dispose_m4249456877
Qpf:_Double_ToString_m1085043609
pSb:__Z19TransferField_ArrayI18StreamedBinaryReadILb0EE27Converter_SimpleNativeClassI17AnimationCurveTplIfEEEvRK23StaticTransferFieldInfoR31RuntimeSerializationCommandInfoRT0_
UXg:_CipherSuite_createEncryptionCipher_m1926075645
Zeb:__ZN14StackAllocator16FrameMaintenanceEb
AFc:__ZL11SweepBoxBoxPKN5physx3Cct9SweepTestEPKNS0_11SweptVolumeEPKNS0_11TouchedGeomERKNS_14PxExtendedVec3ERKNS_6PxVec3ERNS0_12SweptContactE
Ahb:__Z18ReadStringFromFilePN4core17string_with_labelILi1EEERKNS_12basic_stringIcNS_20StringStorageDefaultIcEEEE
d0:__ZNK10GameObject20QueryComponentByTypeEPKN5Unity4TypeE
tog:_Enumerator_MoveNext_m1367380970_AdjustorThunk
Mdi:_OpCode_GetHashCode_m2974727122
VXg:_CipherSuite_createDecryptionCipher_m1118350455
wjk:_PatternCompiler_EmitReference_m1381860071
mI:__Z78AnimatorControllerPlayable_CUSTOM_INTERNAL_CALL_IsParameterControlledByCurveIDR9HPlayablei
ryf:_Double_System_IConvertible_ToInt16_m4200640326
Tva:__ZN11TextureData5ResetEv
Tgc:__Z53Register_UnityEngine_GameObject_get_activeInHierarchyv
B1:__ZL30InitializeCoreScriptingClassesv
fJg:_Collection_1_CheckWritable_m3938993573_gshared
lh:_glBlitFramebuffer
Iyd:__ZNK5physx2Sc5Scene17prefetchForRemoveERKNS0_10StaticCoreE
wdg:_BigInteger_GeneratePseudoPrime_m2606361440
TIb:__Z35Transfer_Blittable_SingleValueFieldI14SafeBinaryReadhEvRT_R17GeneralMonoObjectRK23StaticTransferFieldInfo
jCe:__ZN22BaseUnityConnectClientC2ERN11UnityEngine7Connect20BasePersistentValuesE
phh:_RemotingServices_GetRealProxy_m620317996
i_a:__ZN13dynamic_arrayI11CulledLightLj4EE6insertEPS0_PKS0_S4_
Bjc:__Z81Register_UnityEngine_Playables_PlayableHandle_INTERNAL_CALL_SetInputCountInternalv
gpb:__ZNK12CubemapArray22GetTypeVirtualInternalEv
DCk:_Predicate_1_Invoke_m2060780095_gshared
hnb:__ZN11Tetrahedron8TransferI18StreamedBinaryReadILb0EEEEvRT_
Ko:FUNCTION_TABLE_vif
Lo:FUNCTION_TABLE_vid
No:FUNCTION_TABLE_vii
rsa:__Z40scripting_liveness_calculation_from_root18ScriptingObjectPtrPv
Bka:__ZN7Texture23VirtualRedirectTransferER24GenerateTypeTreeTransfer
cee:_UNITY_FT_Set_Transform
S4j:_ArrayReadOnlyList_1_Contains_m1266627404_gshared
pQh:__Z101RuntimeInvoker_OpFlags_t378191910_SByte_t454417549_SByte_t454417549_SByte_t454417549_SByte_t454417549PFvvEPK10MethodInfoPvPS4_
LNl:_glDeleteFramebuffers__wrapper
L4e:_Image_get_overrideSprite_m706080347
hgc:__Z36Register_UnityEngine_RectOffset_Initv
tTg:_BigInteger_ModInverse_m1881894572
B2k:__ZN6il2cpp2vm7Runtime17GetDelegateInvokeEP11Il2CppClass
Osg:_List_1_AddEnumerable_m3541747636_gshared
Grb:__ZN28EnlightenRendererInformation8TransferI14SafeBinaryReadEEvRT_
VOh:__Z88RuntimeInvoker_RuntimeObject_RuntimeObject_Int32_t2071877448_RuntimeObject_RuntimeObjectPFvvEPK10MethodInfoPvPS4_
cHi:__ZL69DefaultDependencyAttribute_t3858269114_CustomAttributesCacheGeneratorP21CustomAttributesCache
h6c:__ZN5physx12NpBatchQuery13getUserMemoryEv
sPa:__ZNK15Lz4Decompressor16DecompressMemoryEPKvPjPvS2_
Gie:_UNITY_tt_face_build_cmaps
gyi:_Ray_ToString_m2019179238
NQg:_ReadOnlyCollection_1_System_Collections_IList_get_Item_m887129009_gshared
aok:_Uri_GetOpaqueWiseSchemeDelimiter_m3686606461
Ivf:_Decimal_System_IConvertible_ToType_m3828527724_AdjustorThunk
The:_UNITY_tt_face_load_os2
AMd:__ZN5physx2GuL34fullContactsGenerationSphereConvexERKNS0_8CapsuleVERKNS0_11ConvexHullVERKNS_6shdfnd3aos12PsTransformVESB_PNS0_17PersistentContactERjRNS0_13ContactBufferEbRNS0_25PersistentContactManifoldERNS8_5Vec3VERKNS8_6FloatVEb
iVg:_HMAC_get_Key_m2528863640
TJg:_Collection_1_IsSynchronized_m1366278230_gshared
fH:__Z90Register_UnityEngine_Animations_AnimationOffsetPlayable_INTERNAL_CALL_CreateHandleInternalv
EVc:__ZN5physx6shdfnd8PoolBaseINS_2Sc19ConstraintGroupNodeENS0_19ReflectionAllocatorIS3_EEE17releaseEmptySlabsEv
uIb:__Z29Transfer_Blittable_ArrayFieldI14SafeBinaryRead8Vector4fEvRT_R9ArrayInfoRK23StaticTransferFieldInfo
pCf:_Array_get_swapper_TisInt32_t2071877448_m2837069166_gshared
k8k:__ZN6il2cpp2gc19AppendOnlyGCHashMapINSt3__24pairIPK10MethodInfoP11Il2CppClassEEP22Il2CppReflectionMethod17ReflectionMapHashIS9_ENS2_8equal_toIS9_EEE3AddERKS9_SB_
yqk:_RectTransform_INTERNAL_get_rect_m1177342209
jWe:_PointerEventData_IsScrolling_m1971908975
u9d:__ZNSt3__27__sort4IRNS_6__lessI24InterpolationDepthHandleS2_EEPS2_EEjT0_S6_S6_S6_T_
KTa:__ZZ23InitPlayerLoopCallbacksvEN51PostLateUpdateUpdateCustomRenderTexturesRegistrator7ForwardEv
GTh:__Z133RuntimeInvoker_Boolean_t3825574718_Vector3U26_t425862308_Vector3U26_t425862308_Single_t2076509932_Int32_t2071877448_Int32_t2071877448PFvvEPK10MethodInfoPvPS4_
Uvf:_Decimal_System_IConvertible_ToInt16_m3159038792
Ev:__ZN7mecanim9animation12EvaluateClipEPKNS0_4ClipEPKNS0_9ClipInputEPNS0_10ClipMemoryEPNS0_10ClipOutputE
MNc:__ZN5physx3Cct9SweepTest15onObstacleAddedEjPKNS_17PxObstacleContextERKNS_6PxVec3ES7_f
_gi:_MonoMethodInfo_GetReturnType_m2864247130
_5a:__ZN13RenderManager29SetCurrentCameraAndStackStateEP6CameraP25CameraStackRenderingState
Lel:__ZN15dense_hashtableINSt3__24pairIK10KeyWrapperINS1_IP11Il2CppClassjEEES4_EES6_N6il2cpp8metadata14ArrayClassHashEN14dense_hash_mapIS6_S4_SB_NS6_14EqualsComparerINSA_17ArrayClassCompareEEENS0_9allocatorIS8_EEE9SelectKeyESF_SH_E12resize_deltaEjj
zi:_JS_WebRequest_Release
$0f:_DirectoryNotFoundException__ctor_m2242202556
kvi:_Physics_Raycast_m2308457076
OV:__ZN11UnityEngine15CloudWebService14DataErrorEventD0Ev
WQe:_String_CreateString_m2448464375
Bch:_X509SubjectKeyIdentifierExtension__ctor_m2959112706
qkj:_Enumerator_Reset_m1147555085_AdjustorThunk
Pei:_FieldInfo_get_IsNotSerialized_m2322769148
Jwk:_Vector3_get_zero_m1527993324
ntd:__ZNK5physx7NpScene18getStaticStructureEv
_Cd:__ZN5physx13PxsCCDContext12postCCDSweepEPNS_10PxBaseTaskE
Vll:__ZN6il2cpp8metadata15GenericMetadata7InflateEPK19Il2CppGenericMethodPK20Il2CppGenericContext
SUa:__ZN19ShaderPropertySheet16SetArrayPropertyEN9ShaderLab16FastPropertyNameENS_12PropertyTypeEPKvj
Tgi:_MonoGenericCMethod_get_ReflectedType_m2689239043
UJg:_Collection_1_IsFixedSize_m499196375_gshared
b$e:_ColorTween_set_startColor_m3546206870_AdjustorThunk
A$d:__ZN5physx6shdfnd10Foundation19AlignCheckAllocator28deregisterAllocationListenerERNS_20PxAllocationListenerE
Sak:_InternalEnumerator_1_get_Current_m4083613828_gshared
lgg:_KeyPairPersistence_Save_m471726936
apc:__ZN8GUIState8EndOnGUIEv
ebg:_SimpleCollator_FilterOptions_m4044781893
kil:__ZN6il2cpp6icalls8mscorlib6System2IO6MonoIO16get_ConsoleErrorEv
Boe:_UNITY_TT_Get_VMetrics
A0f:_Path_InsecureGetFullPath_m2635272425
T$i:__ZL92Rigidbody_t4233889191_CustomAttributesCacheGenerator_Rigidbody_AddForce_m3219459786____mode1P21CustomAttributesCache
Etf:_DateTime_System_IConvertible_ToUInt32_m1363211018
mFd:__ZN5physx33solveContactCoulombBlockWriteBackEPKNS_23PxcSolverConstraintDescEjRNS_16PxcSolverContextEPNS_25PxcThresholdStreamElementEjPi
Hmh:_RuntimeMethodHandle__ctor_m1162528746
$Md:__ZN5physx9PxTaskMgr17submitUnnamedTaskERNS_6PxTaskENS_10PxTaskType4EnumE
sFf:_SetPropertyUtility_SetStruct_TisSingle_t2076509932_m3849235084_gshared
YGa:__ZN7Texture21GetMasterTextureLimitEv
H8a:__Z12CanAddScriptR10GameObject17ScriptingClassPtrPS1_S2_
fdl:__ZN6il2cpp2vm10Reflection12HasAttributeEP12Il2CppObjectP11Il2CppClass
Lyc:__ZN8JSONRead21TransferSTLStyleArrayI13dynamic_arrayI4AABBLj4EEEEvRT_18MemLabelIdentifier17TransferMetaFlags
m0:__ZN9ShaderLabL25StaticInitializeShaderLabEPv
Q1d:__ZN12MeshCollider23VirtualRedirectTransferER24GenerateTypeTreeTransfer
TAd:__ZNK5physx2Sq12BucketPruner5sweepERKNS0_9ShapeDataERKNS_6PxVec3ERfRNS0_14PrunerCallbackE
U:Math_max
n3k:_il2cpp_class_get_methods
D0f:_Path_CanonicalizePath_m383914732
xjj:_Enumerator_System_Collections_IEnumerator_get_Current_m1631145297_gshared
Khf:_ArrayList_Synchronized_m2395071980
Xol:__ZN6il2cpp2os6Thread16GetCurrentThreadEv
_5b:__ZN10GameObject13ComponentPair15SetComponentPtrEPN5Unity9ComponentE
X7d:__ZN5physx6shdfnd8internal8HashBaseINS0_4PairIKPKNS0_14NamedAllocatorEPKcEES6_NS0_4HashIS6_EENS1_11HashMapBaseIS6_S9_SC_NS0_20NonTrackingAllocatorEE6GetKeyESE_Lb1EE15reserveInternalEj
c6f:_UnexceptionalStreamWriter_Write_m3206913035
x$b:__Z13RegisterClassI10MeshFilterEvv
YF:__ZNK26AnimatorControllerPlayable24GetAnimatorClipInfoCountEib
Gib:__ZN10TagManager8TransferI19StreamedBinaryWriteILb0EEEEvRT_
dFb:__ZN11PreloadData23VirtualRedirectTransferER18StreamedBinaryReadILb0EE
MA:__Z17dynamic_pptr_castIP10MonoScript6ObjectET_RK4PPtrIT0_E
ODj:_AnimatorControllerPlayable_GetAnimatorTransitionInfo_m2080024628_AdjustorThunk
Zoh:_DESTransform_ProcessBlock_m2826669227
uYf:_Int16_CompareTo_m3493496879
Vyk:_GeneralNames_get_IPAddresses_m1712556836
pFj:_AnimatorControllerPlayable_Play_m3296663958_AdjustorThunk
Vtb:__ZN6Sprite17MainThreadCleanupEv
lO:__ZN10AudioMixer14UpdateMuteSoloEv
Pgl:__ZN6il2cpp2vm9Exception27RaiseNullReferenceExceptionEv
L8c:__ZN5physx6shdfnd5ArrayINS_3Scb13MaterialEventENS0_19ReflectionAllocatorIS3_EEE15growAndPushBackERKS3_
vRj:_MaskableGraphic_UnityEngine_UI_IClippable_get_gameObject_m954171032
nla:__ZN9ShaderLab10SubProgram7CompileEv
YFa:__ZN7ApiGLES16SetPatchVerticesEi
tXc:__ZN5physx2Sc5Scene11onBodySleepEPNS0_7BodySimE
SSa:__ZN10MemoryFileC2E18MemLabelIdentifierP14MemoryFileData14FilePermission
pih:_TrackingServices_NotifyUnmarshaledObject_m1794048369
jUk:__ZN6il2cpp2vm5Class20FromGenericParameterEPK22Il2CppGenericParameter
iCc:__ZL28GeomMTDCallback_PlaneCapsuleRN5physx6PxVec3ERfRKNS_10PxGeometryERKNS_11PxTransformES5_S8_
Iaa:__ZN15GlobalCallbacksC2Ev
eNf:_Array_InternalArray__set_Item_TisLabelFixup_t4090909514_m565370771_gshared
QI:__Z82Register_UnityEngine_Animations_AnimatorControllerPlayable_INTERNAL_CALL_SetBoolIDv
Cfe:_UNITY_FT_New_Memory_Face
IH:__Z81AnimatorControllerPlayable_CUSTOM_INTERNAL_CALL_GetAnimatorTransitionInfoInternalR9HPlayablei
vde:__ZN20TextRenderingPrivate21TextMeshGeneratorImpl5FlushEv
mza:__ZN26VertexDeclarationCacheGLES24DestroyVertexDeclarationEP17VertexDeclaration
DMe:__Z15CastclassSealedP12Il2CppObjectP11Il2CppClass
g9c:__ZN5physx9NpPhysics16createConvexMeshERNS_13PxInputStreamE
a7a:__ZN16ReflectionProbes40UpdateRealtimeReflectionProbesTimeslicedEv
GWc:__ZN5physx2Sq17SceneQueryManager8addShapeERKNS_7NpShapeERKNS_12PxRigidActorEbPNS_9PxBounds3E
bCb:__ZNK30RuntimeInitializeOnLoadManager22GetTypeVirtualInternalEv
$Yk:__ZN15dense_hashtableINSt3__24pairIK10KeyWrapperIN6il2cpp5utils13dynamic_arrayIPK10Il2CppTypeLj4EEEEPFvvEEESA_NS3_8metadata19Il2CppSignatureHashEN14dense_hash_mapISA_SD_SG_NSA_14EqualsComparerINSF_22Il2CppSignatureCompareEEENS0_9allocatorISE_EEE9SelectKeyESK_SM_E12resize_deltaEjj
V2b:__ZN16ReflectionProbes15InitializeClassEv
yyl:__ZN6il2cpp5utils5MatchENSt3__212basic_stringIcNS1_11char_traitsIcEENS1_9allocatorIcEEEEjRKS7_j
_fe:_UNITY_FT_Destroy_Class_psnames_module_class
_ik:_MRUList_Evict_m2430323183
NOg:_ReadOnlyCollection_1_System_Collections_Generic_ICollectionU3CTU3E_Remove_m1060547576_gshared
CXh:__Z68RuntimeInvoker_Boolean_t3825574718_Rect_t3681755626_SByte_t454417549PFvvEPK10MethodInfoPvPS4_
ORf:_Array_InternalArray__get_Item_TisRuntimeObject_m371871810_gshared
Kge:_ft_bitmap_glyph_bbox
SA:__ZN8Animator13BatchedFKPassERK13dynamic_arrayIP14PlayableOutputLj4EE
VMj:_Component_GetComponent_m4225719715
yjc:__Z75Register_UnityEngine_Playables_PlayableHandle_INTERNAL_CALL_SetTimeInternalv
VEd:__ZNK5physx2Gu29EPASupportMapPairRelativeImplINS0_8CapsuleVES2_E9doSupportERKNS_6shdfnd3aos5Vec3VERS6_S9_S9_
DPf:_Array_Sort_TisVector4_t2243707581_m474199742_gshared
$sg:_List_1_CheckIndex_m2247532995_gshared
L_d:__ZN5physx10SubSortSAH5sort4EPjjRNS_6shdfnd5ArrayINS_11RTreeNodeNQENS2_19ReflectionAllocatorIS4_EEEERjjPS4_
M5f:_TextWriter_Write_m576684782
Pxk:_Vector3_Max_m2105825185
wk:_glIsVertexArray
O3d:__ZN14SphereCollider16TransformChangedEi
GCb:__ZNSt3__26vectorIN4core12basic_stringIcNS1_20StringStorageDefaultIcEEEE13stl_allocatorIS5_L18MemLabelIdentifier12ELi16EEEC2INS_11__wrap_iterIPS5_EEEET_SE_RKS8_PNS_9enable_ifIXaasr21__is_forward_iteratorISE_EE5valuesr16is_constructibleIS5_NS_15iterator_traitsISE_E9referenceEEE5valueEvE4typeE
$Pa:__ZN25SingleBlockMemoryFileDataC2E18MemLabelIdentifierPvjb
ga:invoke_fff
nYj:_Text_get_fontSize_m3105730761
LKl:b14
s0g:_TlsServerHello_Update_m1740270635
e7d:__ZN5physx2Sc7PhysicsC2ERKNS_17PxTolerancesScaleERKNS_14PxvOffsetTableE
s9d:__ZNSt3__26__sortIRNS_6__lessI24InterpolationDepthHandleS2_EEPS2_EEvT0_S6_T_
mre:__ZN2UI6Canvas17MainThreadCleanupEv
gpa:__ZN6prcoreL12RemapGenericI17TexFormatARGB155517TexFormatRGBA8888EEvPKNS_9InnerInfoE
VUj:_ScrollRect_Rebuild_m3423824761
Dyg:_List_1_Find_m3862454845_gshared
Pik:_MatchCollection_get_Item_m2609281578
SMa:__ZN7ApiGLES13CreateProgramEv
Ckb:__ZN11HaloManager7AddHaloEv
Vsh:_UTF8Encoding__ctor_m100325490
iHa:__ZN4crnd12crn_unpackerD2Ev
SXj:_StencilMaterial_ClearAll_m1372779118
Jk:_emscripten_glTexImage2D
Rgh:_ObjRefSurrogate_SetObjectData_m1873902916
moe:_tt_driver_class_pic_init
r1:__ZN18ScriptingArguments9AddStringEPKc
zwl:_setup_header
QGl:runPostSets
UEd:__ZNK5physx2Gu29EPASupportMapPairRelativeImplINS0_8CapsuleVES2_E18doWarmStartSupportEiiRNS_6shdfnd3aos5Vec3VES7_S7_
cva:__ZL23stbir__resize_arbitraryPvPKviiiS_iiiffffPfiij14stbir_datatype12stbir_filterS4_10stbir_edgeS5_16stbir_colorspace
vug:_List_1_System_Collections_IList_Insert_m848656350_gshared
dLb:__Z18Transfer_BlittableI24GenerateTypeTreeTransferLb1E8Vector4fEvRK29SerializationCommandArgumentsR31RuntimeSerializationCommandInfo
UYf:_Int16_ToString_m3971652088_AdjustorThunk
Uk:_pthread_detach
_$k:__ZN6il2cpp2vm19SocketPollingThread7RunLoopEv
fgh:_MethodDictionary_AllocInternalProperties_m3261295876
bAd:__ZN5physx11EdgeManager6resizeEj
A6b:__ZN15DirectorManager20ScheduleGraphDestroyERK14HPlayableGraph
_xa:__ZNSt3__213__stable_sortIRN10vector_mapI17ScriptingClassPtrPKN5Unity4TypeENS_4lessIS2_EENS_9allocatorINS_4pairIS2_S6_EEEEE13value_compareENS_11__wrap_iterIPSB_EEEEvT0_SJ_T_NS_15iterator_traitsISJ_E15difference_typeEPNSM_10value_typeEi
sWb:__ZN9ShaderLab25SerializedTextureProperty8TransferI24GenerateTypeTreeTransferEEvRT_
BRk:_Comparison_1_Invoke_m2645957248_gshared
OSl:_emscripten_glIsShader__wrapper
Zal:__ZN6il2cpp2gc19AppendOnlyGCHashMapINSt3__24pairIPK14Il2CppAssemblyP11Il2CppClassEEP24Il2CppReflectionAssembly17ReflectionMapHashIS9_ENS2_8equal_toIS9_EEEC2Ev
Wmd:__ZN5physx2Sc5Scene12removeStaticERNS0_10StaticCoreERNS_6shdfnd11InlineArrayIPKNS0_9ShapeCoreELj64ENS4_19ReflectionAllocatorIS8_EEEEb
Yqc:__Z32GUIStyle_Get_Custom_PropFontSizeP12Il2CppObject
Qlh:_DelegatePInvokeWrapper_CallbackHandler_t362827733
pxc:__Z18Transfer_BlittableI8JSONReadLb1EyEvRK29SerializationCommandArgumentsR31RuntimeSerializationCommandInfo
pl:_emscripten_glMatrixMode
yt:__ZN8Animator23VirtualRedirectTransferER18StreamedBinaryReadILb0EE
BWd:__ZN5physx13GuMeshFactory17createHeightFieldERNS_13PxInputStreamE
dqd:__ZN5physx2Sc10NPhaseCore25createShapeInstancePairLLERNS0_8ShapeSimES3_NS_7PxFlagsINS_10PxPairFlag4EnumEtEE
Bgh:_MethodReturnDictionary__ctor_m756139344
iV:__ZN11UnityEngine15CloudWebService14DataDispatcher16PrepareDataBlockERNS0_16SessionContainerE
hNa:__ZN18GfxFramebufferGLES5ClearE13GfxClearFlagsRK10ColorRGBAffib
O_h:__Z70RuntimeInvoker_Void_t1841601450_Playable_t1896841784_Int32_t2071877448PFvvEPK10MethodInfoPvPS4_
ird:__ZThn8_N5physx2Sc19ShapeInstancePairLL12onDeactivateEj
n8b:__Z21CalculateClosestPointRK8Vector3fRK4AABBRS_Rf
ERb:__ZL26Transfer_SimpleNativeClassI18StreamedBinaryReadILb0EE10RectOffsetLb0EEvRK29SerializationCommandArgumentsR31RuntimeSerializationCommandInfo
Xfe:_UNITY_ft_destroy_default_module_classes
Ihg:_SymmetricTransform_FinalDecrypt_m3674669784
arg:_List_1_CheckMatch_m1772343151_gshared
DZa:__ZL12DepthPassJobPN21GfxDeviceAsyncCommand10ArgScratchEPKNS_3ArgE
VUb:__ZNSt3__26vectorIN9ShaderLab20SerializedSubProgram16TextureParameterENS_9allocatorIS3_EEE6assignINS_11__wrap_iterIPS3_EEEENS_9enable_ifIXaasr21__is_forward_iteratorIT_EE5valuesr16is_constructibleIS3_NS_15iterator_traitsISC_E9referenceEEE5valueEvE4typeESC_SC_
m$f:_IntPtr_Equals_m1214967011_AdjustorThunk
l0d:__ZN9Rigidbody16ApplyConstraintsEv
vxg:_List_1_Add_m3591975577_gshared
bve:__Z55Register_UnityEngine_CanvasGroup_get_ignoreParentGroupsv
Y$b:__Z13RegisterClassI19LowerResBlitTextureEvv
yn:FUNCTION_TABLE_iiiiiiiiiiii
Mid:__ZN5physx2Sc17ParticleSystemSim8setFlagsEj
ekb:__ZN16GraphicsSettingsD0Ev
LPl:_pthread_mutex_init__wrapper
C5a:__ZN15LODGroupManager21CalculateLODDataArrayERK13LODParametersPK6Cameraf
n:cttz_i8
fme:_UNITY_FT_GlyphLoader_Add
DZd:__ZN5physx2Gu15EdgeListBuilder18CreateEdgesToFacesEjPKjPKt
VJc:__ZN5physx11PxMeshQuery5sweepERKNS_6PxVec3EfRKNS_10PxGeometryERKNS_11PxTransformEjPKNS_10PxTriangleERNS_10PxSweepHitENS_7PxFlagsINS_9PxHitFlag4EnumEtEEPKjfb
Xik:_MRUList__ctor_m2726533367
aVf:_DateTimeFormatInfo_get_FullDateTimePattern_m2607507656
S0g:_HttpsClientStream_RaiseServerCertificateValidation_m3356770426
vxf:_DelegateSerializationHolder__ctor_m3915060553
JCb:__ZN15SerializeTraitsINSt3__26vectorIN30RuntimeInitializeOnLoadManager9ClassInfoE13stl_allocatorIS3_L18MemLabelIdentifier12ELi16EEEEE8TransferI24GenerateTypeTreeTransferEEvRS7_RT_
XPf:_Array_swap_TisUIVertex_t1204258818_TisUIVertex_t1204258818_m1163375424_gshared
lm:_emscripten_glViewport
Osl:__ZN6il2cpp6icalls8mscorlib6System15MonoCustomAttrs17IsDefinedInternalEP12Il2CppObjectP20Il2CppReflectionType
nwb:__ZN4Mesh21UnswizzleVertexColorsEb
xuf:_DateTime_ToString_m2276663647_AdjustorThunk
joe:_cff_parse_font_bbox
O2d:__ZThn28_N14PhysicsManagerD0Ev
hLc:__Z14raycast_sphereRKN5physx10PxGeometryERKNS_11PxTransformERKNS_6PxVec3ES8_fNS_7PxFlagsINS_9PxHitFlag4EnumEtEEjPNS_12PxRaycastHitEbPFbRSD_PvESG_
dt:__GLOBAL__sub_I_runtime_animation2_lump_cpp
xAb:__ZN14PlayerSettings23VirtualRedirectTransferER18StreamedBinaryReadILb0EE
sCf:_Array_get_swapper_TisCustomAttributeTypedArgument_t1498197914_m2780757375_gshared
FBl:__ZN6il2cpp2os5Event5ResetEv
Z2a:__Z26CombineDepthNormalsTextureRK17RenderLoopContextR13dynamic_arrayI16RenderObjectDataLj4EE
rIk:_AesManaged__ctor_m2322442838
Hll:__ZN6il2cpp8metadata15GenericMetadata17InflateParametersEPK13ParameterInfohPK20Il2CppGenericContextb
x_f:_Int64_System_IConvertible_ToUInt32_m850395426_AdjustorThunk
kbi:_TypeBuilder_GetMethodsByName_m229541072
FIj:_PCMReaderCallback_Invoke_m3610389815
UFe:_HMACSHA512__ctor_m2390736870
Cz:__ZNK17AnimationPlayable27GetNextCompatibleDescendantEi
gbi:_TypeBuilder_GetInterfaces_m1818658502
Tfa:__Z25SetNeedToPerformRenderingb
mhi:_MonoMethod_GetPseudoCustomAttributes_m466965107
k1a:__ZNSt3__227__insertion_sort_incompleteIR23CompareReflectionProbesP31RuntimeReflectionProbeBlendInfoEEbT0_S5_T_
SZa:__ZN14qsort_internal30FindAndMovePivotToLastPositionIP15RODataDepthPassi17ROSorterDepthPassEEvT_S4_T0_T1_
DDe:__ZN20UnityWebRequestProtoI19TransportJavaScript16AtomicRefCounter14RedirectHelper14ResponseHelper15DownloadHandler13UploadHandler12HeaderHelper14AsyncOperationE35Task_FinalizeAfterDHCompleteContentEPv
elj:_Enumerator_System_Collections_IDictionaryEnumerator_get_Value_m3005608231_gshared
MQj:_MaskUtilities_NotifyStencilStateChanged_m1527407683
XDd:__ZN5physxL27PxcSweepAnyShapeHeightfieldERKNS_11PxsCCDShapeES2_PKNS_12PxsRigidBodyES5_RKNS_11PxTransformES8_fRNS_6PxVec3ESA_RNS_10PxcNpCacheERNS_18PxcNpThreadContextE
WIh:__Z94RuntimeInvoker_Void_t1841601450_RuntimeObject_Int32_t2071877448_RuntimeObject_SByte_t454417549PFvvEPK10MethodInfoPvPS4_
O5a:__ZN12CullingGroup10SendEventsEPK17CullingGroupEventj
Yeg:_DSAManaged_GenerateKeyPair_m2711647034
ybb:__ZN13sorted_vectorINSt3__24pairIN4core12basic_stringIcNS2_20StringStorageDefaultIcEEEES6_EEN10vector_mapIS6_S6_27compare_tstring_insensitiveIS6_E13stl_allocatorIS7_L18MemLabelIdentifier37ELi16EEE13value_compareESD_E9erase_oneIS6_EEjRKT_
xsb:__ZThn32_NK8Renderer8GetLayerEv
UJf:_Array_InternalArray__ICollection_Add_TisResourceCacheItem_t333236149_m1151081240_gshared
w9b:__ZNK4Mesh17GetPrimitiveCountEv
bzd:__ZN5physx3Scb5SceneD2Ev
LP:__ZN17AudioClipPlayable12PrepareFrameERK19DirectorVisitorInfo
Cjh:_SoapServices_GetXmlTypeForInteropType_m3821579913
CQl:_emscripten_glTexParameterfv__wrapper
e4k:_il2cpp_method_get_param_count
r_b:__ZN10systeminfo19ISOToSystemLanguageERN4core12basic_stringIcNS0_20StringStorageDefaultIcEEEE
S9k:__ZNK15dense_hashtableINSt3__24pairIK10KeyWrapperINS1_IPK12PropertyInfoP11Il2CppClassEEEjEES9_17ReflectionMapHashIS8_EN14dense_hash_mapIS9_jSD_NS9_14EqualsComparerINS0_8equal_toIS8_EEEENS0_9allocatorISB_EEE9SelectKeyESI_SK_E3endEv
u0d:__Z16GetDynamicsScenev
Bke:_ps_dimension_done
FYe:_LayoutRebuilder_MarkLayoutForRebuild_m640589351
cre:__Z46Register_UnityEngine_TextGenerator_Dispose_cppv
lWe:_PointerEventData_get_pressEventCamera_m724559964
RLe:_String_IndexOfUnchecked_m3356721554
lrb:__ZN16LightmapSettings8TransferI14SafeBinaryReadEEvRT_
rIa:__ZN17BufferManagerGLES13ReleaseBufferEP14DataBufferGLES
MTc:__ZN5physx6shdfnd5ArrayIPvNS0_19ReflectionAllocatorINS_16NpConnectorArrayEEEE15growAndPushBackERKS2_
Lsi:_Mesh_CheckCanAccessSubmesh_m1826512193
lpd:__ZN5physx2Sc5Scene15prepareSimulateEv
mxc:__Z18Transfer_BlittableI8JSONReadLb1EjEvRK29SerializationCommandArgumentsR31RuntimeSerializationCommandInfo
qVc:__ZN5physx6shdfnd5ArrayIPNS_2Sc11InteractionENS0_19ReflectionAllocatorIS4_EEE8recreateEj
rzk:_PKCS12_Decrypt_m1557069392
FYj:_VertexHelper_AddUIVertexQuad_m280792808
Y7g:_WebHeaderCollection_ToString_m1246460752
R8j:_InternalEnumerator_1_System_Collections_IEnumerator_get_Current_m2842514953_AdjustorThunk
oq:stackSave
Xke:_ps_dimension_end
uic:__Z41Register_UnityEngine_Mesh_Internal_Createv
Fll:__ZNK15dense_hashtableI10KeyWrapperIP18Il2CppGenericClassES3_N6il2cpp8metadata22Il2CppGenericClassHashEN14dense_hash_setIS3_S6_NS3_14EqualsComparerINS5_25Il2CppGenericClassCompareEEENSt3__29allocatorIS3_EEE8IdentityESA_SD_E12test_deletedERK30dense_hashtable_const_iteratorIS3_S3_S6_SF_SA_SD_E
GHe:_RIPEMD160Managed_JJ_m2933451431
xbe:__Z63Register_UnityEngine_Physics_INTERNAL_CALL_Internal_RaycastTestv
jGe:_MACTripleDES_Initialize_m1318099802
WVg:_MD5SHA1_VerifySignature_m507888141
Aef:_Byte_System_IConvertible_ToChar_m4188836679
KUf:_NumberFormatter_InitDecHexDigits_m2036076025
Jlj:_Enumerator_get_CurrentKey_m3839846791_AdjustorThunk
$xc:__ZN8JSONRead21TransferSTLStyleArrayI13dynamic_arrayIaLj1EEEEvRT_18MemLabelIdentifier17TransferMetaFlags
K7a:__ZN6Camera9SetAspectEf
SDe:__ZN19TransportJavaScript9DoRequestERKN4core12basic_stringIcNS0_20StringStorageDefaultIcEEEEm21UnityWebRequestMethodS6_bbP12HeaderHelperP13UploadHandlerP15DownloadHandlerP14ResponseHelperP15UnityWebRequest
Ba:invoke_viiffiii
uTg:_Kernel_modInverse_m3230829577
ldj:__ZL79TouchInputModule_t2561058385_CustomAttributesCacheGenerator_m_ForceModuleActiveP21CustomAttributesCache
cSl:_emscripten_glBindVertexArray__wrapper
Osj:_Dictionary_2_InitArrays_m435313205_gshared
A8a:__ZN9Transform37InitializeTransformHierarchyRecursiveER18TransformHierarchyRii
o1b:__Z34DefaultPrepareDispatchBoundsUpdateR13RendererScene18MemLabelIdentifier
y2e:_Graphic_get_useLegacyMeshGeneration_m1366444625
hfj:__ZL65InputField_t1631627530_CustomAttributesCacheGenerator_m_InputTypeP21CustomAttributesCache
ldg:_ModulusRing_Pow_m1137250399
I3d:__ZN14SphereCollider23VirtualRedirectTransferER24GenerateTypeTreeTransfer
YVa:__ZN17MeshRenderingData4InitEP4MeshS1_iP15SharedGfxBufferS3_
glf:_Hashtable__cctor_m2952659675
jch:_X509ChainStatus__ctor_m3628359961_AdjustorThunk
aBb:__ZN10VRSettings8TransferI19StreamedBinaryWriteILb0EEEEvRT_
qod:__ZN5physx2Sc9StaticSim21postActor2WorldChangeEv
gMe:_Evidence_get_HostEvidenceList_m2095478124
Ylc:__Z57Register_UnityEngine_Transform_INTERNAL_set_localPositionv
$Yg:_Context_Clear_m4000337070
qDa:__ZN13GfxDeviceGLES26SetRandomWriteTargetBufferEi15ComputeBufferID
Veh:_IntervalCollection_Normalize_m538796191
xTa:__ZZ23InitPlayerLoopCallbacksvEN49EarlyUpdateResetFrameStatsAfterPresentRegistrator7ForwardEv
r4c:__ZN5physx6shdfnd4sortIPvNS0_4LessIS2_EENS0_19ReflectionAllocatorINS_2Cm5BlockIhLj256EEEEEEEvPT_jRKT0_RKT1_j
Mvk:_TrackedReference_op_Equality_m3491334086
p2e:_FontUpdateTracker_UntrackText_m3827316510
qXd:__ZN5physx20InternalTriangleMesh7releaseEv
CCd:__ZN5physx6shdfnd5ArrayINS_16PxsCCDBlockArrayINS_13PxsCCDOverlapELi128EE9BlockInfoENS0_19ReflectionAllocatorIS5_EEE15growAndPushBackERKS5_
FWc:__ZNK5physx7NpShape8getFlagsEv
Smg:_Enumerator_System_Collections_IEnumerator_Reset_m886102771_AdjustorThunk
Gac:__ZNK11ICallString6ToUTF8Ev
cmk:_CaptureAssertion_get_Alternate_m2729005740
Eul:_GC_number_stack_black_listed
TZa:__ZNSt3__211__sift_downIR17ROSorterDepthPassP15RODataDepthPassEEvT0_S5_T_NS_15iterator_traitsIS5_E15difference_typeES5_
V7h:_Default_SelectMethod_m3081239996
ded:__ZNK5physx7NpCloth16getContactOffsetEv
jB:__ZN8Animator17ApplyOnAnimatorIKEiRNS_11AnimatorJobE
C5:__ZN12FileAccessor4ReadEyyPvPy
kla:__ZN13dynamic_arrayI16ShaderKeywordSetLj4EE6insertEPS0_PKS0_S4_
ggh:_MethodDictionary_IsOverridenKey_m3922224650
vmf:_SyncHashtable_Contains_m3042906549
Lac:__Z21GetSceneHierarchyPathPK6Object
lAg:_List_1_System_Collections_IList_set_Item_m4016273526_gshared
Ach:_X509KeyUsageExtension_CopyFrom_m931530012
qAj:_AnimationLayerMixerPlayable_IsLayerAdditiveInternal_m3902226808
k7a:__ZN13RenderTexture9SetHeightEi
Ru:__ZN7mecanim9animation17ClearMotionOutputEPNS0_18AnimationNodeStateE
AQj:_LayoutUtility_U3CGetMinHeightU3Em__4_m1769295917
QMj:_Color32__ctor_m1932627809_AdjustorThunk
G3g:_SslStreamBase_Read_m1036897444
aFj:_AnimatorControllerPlayable_INTERNAL_CALL_PlayInFixedTimeInternal_m44271350
ASj:_RectMask2D_PerformClipping_m1232012832
lTf:_Resources_ConvertObjects_TisRuntimeObject_m2571720668_gshared
xmj:_Transform_1_Invoke_m4020530914_gshared
hje:_tt_cmap8_char_index
P1:__Z24scripting_class_get_name17ScriptingClassPtr
M7:__ZN13RuntimeStaticI15GUIEventManagerLb0EE13StaticDestroyEPv
Wli:_GUILayoutGroup_ResetCursor_m3160916532
fpl:__ZN6il2cpp2os6Thread15CurrentThreadIdEv
nyj:_CustomEventData_AddUInt16_m3349298376
FHb:__Z29Transfer_Blittable_ArrayFieldI14SafeBinaryReadjEvRT_R9ArrayInfoRK23StaticTransferFieldInfo
fKj:_Camera_FireOnPostRender_m94860165
Pe:_emscripten_set_keydown_callback
Slf:_Enumerator_get_Value_m3684748062
Hib:__ZN19StreamedBinaryWriteILb0EE21TransferSTLStyleArrayINSt3__26vectorI17SortingLayerEntryNS2_9allocatorIS4_EEEEEEvRT_17TransferMetaFlags
nzh:_UInt32_Parse_m3371984903
K5:__ZN12FileAccessorC2Ev
z9a:__ZN9Transform35SetLocalPositionWithoutNotificationERKN4math7_float3E
i$c:__ZN5physx2Sc15ArticulationSim12applyImpulseERNS0_8BodyCoreERKNS_9PxcFsDataERKNS_6PxVec3ES9_
Sjk:_PatternLinkStack_GetCurrent_m2994645935
y2k:__ZN6il2cpp2vm7Runtime12GetConfigDirEv
igh:_MethodDictionary_set_Item_m3475146889
D_c:__ZNK5physx14NpArticulation26getInternalDriveIterationsEv
VYj:_Toggle_PlayEffect_m3950629415
NHf:_Array_IndexOf_TisRuntimeObject_m214763038_gshared
nEb:__Z39WriteQueueForTransferSignatureIntoCacheRK31TransferFunctionScriptingTraitsRK24TransferRequestSignature17ScriptingClassPtrR23CachedSerializationDataRb
qta:__ZN13RenderManager18UpdateAllRenderersEv
BWh:__Z133RuntimeInvoker_Void_t1841601450_Rect_t3681755626_RuntimeObject_Int32_t2071877448_Int32_t2071877448_Int32_t2071877448_SByte_t454417549PFvvEPK10MethodInfoPvPS4_
Iye:__ZN22BaseUnityConnectClient30OnEnteringStatePausedOrStoppedEv
B9k:__ZN15dense_hashtableINSt3__24pairIK10KeyWrapperINS1_IPK12PropertyInfoP11Il2CppClassEEEjEES9_17ReflectionMapHashIS8_EN14dense_hash_mapIS9_jSD_NS9_14EqualsComparerINS0_8equal_toIS8_EEEENS0_9allocatorISB_EEE9SelectKeyESI_SK_E12resize_deltaEjj
cv:__ZN7mecanim5human12HumanPoseAddERNS0_9HumanPoseERKS1_S4_
HFj:_Animator_ResetTrigger_m865269317
MHg:_Collection_1_IsFixedSize_m218241296_gshared
v9a:__Z24MergeTransformComponentsR9TransformS0_b
iWc:__ZThn24_N5physx2Sc20ArticulationJointSimD0Ev
nEj:_AnimatorControllerPlayable_IsInTransition_m3708059860
t3d:__ZN14PhysicsManager32AddToTriggerStayStatesIfRequiredEPK9Rigidbody
y3f:_MonoIO_get_PathSeparator_m2635828107
ofk:_InternalEnumerator_1_get_Current_m889125315_gshared
I8f:_MonoType_get_Name_m865859211
LBf:_CultureInfo__cctor_m2290268677
Upf:_Decimal_ThrowAtPos_m3318712794
oQc:__ZN5physx14PxsAABBManager12createBPElemEv
Pih:_RemotingConfiguration__cctor_m2129988840
bGg:_Collection_1_Insert_m44548038_gshared
dbd:__ZThn12_N5physx7NpShape14onRefCountZeroEv
vCc:__ZL26GeomMTDCallback_ConvexMeshRN5physx6PxVec3ERfRKNS_10PxGeometryERKNS_11PxTransformES5_S8_
Qsl:__ZN6il2cpp2vm13ComObjectBase19GetRuntimeClassNameEPP15Il2CppHString__
uk:_emscripten_glVertexAttribPointer
slb:__ZNK20IntermediateRenderer12GetSceneMaskEv
vra:__ZN14PreloadManager26UpdatePreloadingSingleStepENS_21UpdatePreloadingFlagsEi
Bri:_Material__ctor_m1440882780
MJe:_SHA512Managed_Initialize_m891287980
FSd:__ZN18ScBeforeSolverTask11runInternalEv
_mb:__ZN26ProbeSetTetrahedralization8TransferI24GenerateTypeTreeTransferEEvRT_
uMe:_SecurityException__ctor_m1484114982
BBk:_X509Crl_GetHashName_m183504634
nbf:_Array_GetValue_m1507415734
akc:__Z57Register_UnityEngine_RectTransform_INTERNAL_set_anchorMinv
yTf:_Object_MemberwiseClone_m2655589444
SSc:__ZL33GeomOverlapCallback_CapsuleConvexRKN5physx10PxGeometryERKNS_11PxTransformES2_S5_PNS_2Gu12TriggerCacheE
Poa:__ZN6prcoreL25inner_stretch_i8_bilinearEPKNS_9InnerInfoE
Xra:__ZL30RegisterFilteredObjectCallbackPP12Il2CppObjectiPv
nMj:_Collision_get_transform_m4132935520
vhi:_MonoMethod_get_IsGenericMethod_m4276550811
Wmj:_Transform_1_BeginInvoke_m3826027984_gshared
EV:__ZN11UnityEngine15CloudWebService16SessionContainer24GetSessionHeaderJsonDataERKN4core12basic_stringIcNS2_20StringStorageDefaultIcEEEERNS2_13StringBuilderE
bqf:_Decimal_op_Implicit_m2149927308
x7:__ZN13RuntimeStaticI21AssetReferenceStorageLb0EE13StaticDestroyEPv
xXd:__ZN5physx20InternalTriangleMesh9loadRTreeERNS_13PxInputStreamEj
rrg:_List_1_set_Capacity_m895816763_gshared
Bol:__ZN6il2cpp6icalls8mscorlib6System9AppDomain22InternalGetProcessGuidEP12Il2CppString
H_b:__ZN15dense_hashtableINSt3__24pairIKN4core12basic_stringIcNS2_20StringStorageDefaultIcEEEE10vector_setI4PPtrI11SpriteAtlasENS0_4lessISB_EE13stl_allocatorISB_L18MemLabelIdentifier79ELi16EEEEES6_20StringHash32FunctionIS6_EN14dense_hash_mapIS6_SH_SK_NS0_8equal_toIS6_EESE_ISI_LSF_79ELi16EEE9SelectKeyESN_SO_E15insert_noresizeERKSI_
sjd:__ZN5physx2Sc18ParticleSystemCore16releaseParticlesEv
ufg:_KeyPairPersistence_get_UseMachineKeyStore_m560802076
XKc:__ZN5physx2Gu20intersectTriangleBoxERKNS_6shdfnd3aos5Vec3VES5_S5_S5_S5_
IQ:__ZN19AudioPlayableOutput19DeallocateResourcesEv
Fjj:_Enumerator_System_Collections_IDictionaryEnumerator_get_Entry_m345330700_AdjustorThunk
yLb:__Z18Transfer_BlittableI24GenerateTypeTreeTransferLb1EjEvRK29SerializationCommandArgumentsR31RuntimeSerializationCommandInfo
tVg:_MD2Managed_Padding_m410163267
Mbe:__Z49Register_UnityEngine_Collider_INTERNAL_get_boundsv
llb:__ZN11ColorRGBA328TransferI14SafeBinaryReadEEvRT_
B6d:__ZN5physx6shdfnd5ArrayIPvNS0_19ReflectionAllocatorINS_24NpPtrTableStorageManager8PtrBlockILi4EEEEEE15growAndPushBackERKS2_
_ua:__Z11IsHDRFormat13TextureFormat
sg:_emscripten_glClearDepth
a5b:__ZNK8GUILayer22GetTypeVirtualInternalEv
xtb:__ZN14SafeBinaryRead21TransferSTLStyleArrayINSt3__26vectorIN15QualitySettings14QualitySettingENS1_9allocatorIS4_EEEEEEvRT_17TransferMetaFlags
W8d:__Z13RegisterClassI12MeshColliderEvv
n1f:_File_OpenText_m4058508963
vMj:_Collision_get_frictionForceSum_m3438602686
iAb:__ZNSt3__26vectorINS_4pairIPKN5Unity4TypeE7Hash128EENS_9allocatorIS7_EEE8__appendEj
Ojh:_WellKnownClientTypeEntry__ctor_m670594074
Udl:__ZN15dense_hashtableINSt3__24pairIK10KeyWrapperIP11Il2CppClassES4_EES5_N6il2cpp8metadata16SZArrayClassHashEN14dense_hash_mapIS5_S4_SA_NS5_14EqualsComparerINS9_19SZArrayClassCompareEEENS0_9allocatorIS7_EEE9SelectKeyESE_SG_EC2ERKSJ_j
ttf:_DateTime_System_IConvertible_ToSingle_m3927769066_AdjustorThunk
vne:_cff_font_load
_0g:_RecordProtocol_SendRecord_m2977889250
Gdc:__Z13IsPathCreatedRKN4core12basic_stringIcNS_20StringStorageDefaultIcEEEE
qGd:__ZN5physx35solveContactPreBlock_ConcludeStaticEPKNS_23PxcSolverConstraintDescEjRNS_16PxcSolverContextE
iva:__ZL22stbir__encode_scanlineP11stbir__infoiPvPfiii
gFh:__Z61RuntimeInvoker_Double_t4078015681_RuntimeObject_RuntimeObjectPFvvEPK10MethodInfoPvPS4_
TKh:__Z136RuntimeInvoker_Void_t1841601450_Byte_t3683104436_RuntimeObject_Int64U26_t763825331_ObjectU26_t597476745_SerializationInfoU26_t4051840202PFvvEPK10MethodInfoPvPS4_
nce:__ZN20QuadTreeNodeRenderer13StaticDestroyEPv
AW:__ZN11UnityEngine15CloudWebService20WebRequestRestClient5AbortEv
sEf:_Array_InternalArray__ICollection_Remove_TisUInt32_t2149682021_m4198326168_gshared
b1b:__ZN9Transform12CleanupClassEv
oFh:__Z50RuntimeInvoker_Void_t1841601450_Double_t4078015681PFvvEPK10MethodInfoPvPS4_
Rxl:__ZN6il2cpp6icalls8mscorlib6System9Threading16NativeEventCalls19CloseEvent_internalE12Il2CppIntPtr
RA:__ZN11UnityEngine9Animation33SetGenericTransformPropertyValuesERKNS0_30AnimatorGenericBindingConstantERKN7mecanim10ValueArrayEP9Transformb
ZYg:_ClientContext_set_ClientHelloProtocol_m2246603449
eVc:__ZN5physx6shdfnd5ArrayIPvNS0_15InlineAllocatorILj256ENS0_19ReflectionAllocatorINS_2Cm5BlockIS2_Lj32EEEEEEEE15growAndPushBackERKS2_
FRd:__ZN5physx18PxsSolverStartTask13setupDescTaskEv
Ffe:_UNITY_FT_Set_Pixel_Sizes
K8e:_U3CMouseDragOutsideRectU3Ec__Iterator1_MoveNext_m2845491958
IVb:__ZNSt3__26vectorIN9ShaderLab19SerializedSubShaderENS_9allocatorIS2_EEE26__swap_out_circular_bufferERNS_14__split_bufferIS2_RS4_EE
aHh:__Z116RuntimeInvoker_RuntimeObject_RuntimeObject_Int32_t2071877448_RuntimeObject_RuntimeObject_RuntimeObject_RuntimeObjectPFvvEPK10MethodInfoPvPS4_
jTk:_AnalyticsTracker_TriggerEvent_m1494303835
wXe:_StandaloneInputModule_IsModuleSupported_m623598506
XAc:__ZN5physx3Cct13BoxController6resizeEf
Qnh:_SByte_ToString_m4105923225_AdjustorThunk
PBf:_CultureInfo_ConstructCurrentUICulture_m3363349599
xub:__ZN13dynamic_arrayI7SubMeshLj4EE18resize_initializedEjRKS0_12ResizePolicy
Jhj:__ZL75CanvasScaler_t2574720772_CustomAttributesCacheGenerator_m_FallbackScreenDPIP21CustomAttributesCache
f8f:_MonoType_GetEvent_m4160342003
kSj:_RawImage_set_texture_m2400157626
jTd:__ZN5physx6shdfnd5ArrayINS_2Cm12DelegateTaskINS_2Sc5SceneEXadL_ZNS5_19updateCCDSinglePassEPNS_10PxBaseTaskEEEEENS0_19ReflectionAllocatorIS8_EEE8recreateEj
jLk:_PrimeHelper_ToPrime_m1606935350_gshared
Alb:__Z30ProcessDynamicBatchGeometryJobP25DynamicVBOGeometryJobDataj
p_a:__ZNSt3__27__sort4IRNS_6__lessI11CulledLightS2_EEPS2_EEjT0_S6_S6_S6_T_
b5k:__ZN6il2cpp2vm14TypeNameParser26ParseArrayModifierOptionalEv
xHj:_AudioClipPlayable_INTERNAL_CALL_GetLoopedInternal_m3082735156
Hag:_MSCompatUnicodeTable_Level3_m260824928
a3:__Z26scripting_object_get_class18ScriptingObjectPtr
ngl:__ZN6il2cpp6icalls8mscorlib6System10Reflection8Assembly13get_code_baseEP24Il2CppReflectionAssemblyb
f5c:__ZN5physx34NpShapeGetScRigidObjectFromScbSLOWERKNS_3Scb5ShapeE
A0b:__ZNK28MonoBehaviourPropertyBinding15GenerateBindingERKN4core12basic_stringIcNS0_20StringStorageDefaultIcEEEEbRN11UnityEngine9Animation14GenericBindingE
tpi:_GUIStyle_CalcMinMaxWidth_m2027503105
OYf:_Int32_FindExponent_m3187554672
Gfg:_KeyPairPersistence_Load_m1355205585
QZf:_Int32_ToString_m2960866144_AdjustorThunk
dJh:__Z127RuntimeInvoker_Void_t1841601450_IntPtr_t_Int32_t2071877448_SByte_t454417549_Int32_t2071877448_SByte_t454417549_SByte_t454417549PFvvEPK10MethodInfoPvPS4_
CLk:_HashSet_1_Contains_m3626542335_gshared
YYc:__ZNK5physx21PxsBodyTransformVault12getTransformERKNS_11PxsBodyCoreE
Sql:__ZN6il2cpp6icalls8mscorlib6System11Environment15internalGetHomeEv
eKl:dynCall_iiiiiiffiiiiiiiiiffffiiii
JKd:__ZN5physx2Gu33MultiplePersistentContactManifold10fromBufferEPh
SCc:__ZN44ConvexVsHeightfieldContactGenerationCallback7onEventEjPj
zlh:__ZN21InterfaceFuncInvoker4IP12Il2CppObjectS1_P28SerializationInfo_t22898743028StreamingContext_t1417235061S1_E6InvokeEjP11Il2CppClassS1_S1_S3_S4_S1_
JHk:_ObjectPool_1_Get_m3724675538_gshared
cC:__ZN7mecanim8skeleton26SkeletonPoseComputeGlobalQEPKNS0_8SkeletonEPKNS0_13SkeletonPoseTIN4math4trsXEEEPS7_ii
_yc:__ZN8JSONRead21TransferSTLStyleArrayI13dynamic_arrayIfLj4EEEEvRT_18MemLabelIdentifier17TransferMetaFlags
wEd:__ZN5physx2Gu19_gjkRelativeRayCastINS0_9TriangleVENS0_8CapsuleVEEEbRT_RT0_RKNS_6shdfnd3aos15PsMatTransformVERKNS9_6FloatVERKNS9_5Vec3VESI_RSD_RSG_SK_f
Sug:_List_1_GetEnumerator_m2672519407_gshared
EB:__ZN9BlobWrite8TransferI22OffsetPtrArrayTransferIiEEEvRT_PKc17TransferMetaFlags
gLh:__Z82RuntimeInvoker_Boolean_t3825574718_SByte_t454417549_RuntimeObject_SByte_t454417549PFvvEPK10MethodInfoPvPS4_
rag:_ContractionComparer_Compare_m314873025
jul:__ZN6il2cpp6icalls8mscorlib6System7Runtime15InteropServices8GCHandle15GetTargetHandleEP12Il2CppObjectii
gEg:_Collection_1_IsFixedSize_m1690655146_gshared
TEf:_PlayableHandle_IsPlayableOfType_TisRuntimeObject_m4111068959_AdjustorThunk
iqi:_GUIUtility_EndGUIFromException_m2091524531
HZc:__ZN5physx6shdfnd5ArrayIPvNS0_15InlineAllocatorILj256ENS0_19ReflectionAllocatorINS_11NpAggregateEEEEEE15growAndPushBackERKS2_
g_f:_Int64_System_IConvertible_ToDouble_m638786774
Amd:__ZNK5physx14NpRigidDynamic21getMaxAngularVelocityEv
vN:__ZN4FMOD6System7releaseEv
wAd:__ZN5physx6shdfnd8PoolBaseINS_2Sc18TriggerInteractionENS0_19ReflectionAllocatorIS3_EEE15disposeElementsEv
f5:__Z18PathToAbsolutePathRKN4core12basic_stringIcNS_20StringStorageDefaultIcEEEE
emg:_Enumerator_MoveNext_m3078170540_AdjustorThunk
G7d:__ZN5physx28PxcContactCapsuleHeightFieldERKNS_2Gu13GeometryUnionES3_RKNS_11PxTransformES6_RKfRNS_10PxcNpCacheERNS0_13ContactBufferE
txe:__ZN21UnityAnalyticsManager15ThreadedCleanupEv
Vxl:__ZN6il2cpp6icalls8mscorlib6System10Reflection16MonoPropertyInfo16GetTypeModifiersEPvb
jIk:_Action_Invoke_m3801112262
NCc:__ZL31PointInConvexPolygon2D_OutCodesPKfjffffRh
AFh:__Z79RuntimeInvoker_Decimal_t724701077_RuntimeObject_Int32_t2071877448_RuntimeObjectPFvvEPK10MethodInfoPvPS4_
Pua:__ZL13BlitImageImplR14ImageReferenceiiRKS_NS_10ColorSpaceENS_8BlitModeEb
fqa:__ZN6prcoreL17RemapGenericFloatI18TexFormatRGBAFloat17TexFormatRGBFloatEEvPKNS_9InnerInfoE
qae:__ZN9Rigidbody12MoveRotationERK11Quaternionf
QEh:__Z64RuntimeInvoker_RuntimeObject_Int16_t4041245914_Int16_t4041245914PFvvEPK10MethodInfoPvPS4_
Gva:__ZN29SerializeTraitsForStringTypesIN4core12basic_stringIcNS0_20StringStorageDefaultIcEEEEE8TransferI24GenerateTypeTreeTransferEEvRS4_RT_
Zoi:_GUIUtility_Internal_GetHotControl_m2510727642
CL:__ZN12AudioManager29ShutdownReinitializeAndReloadEv
bzk:_NetscapeCertTypeExtension_Decode_m2210025005
tUd:__ZN5physx2Cm12DelegateTaskINS_2Sc5SceneEXadL_ZNS3_15postNarrowPhaseEPNS_10PxBaseTaskEEEE11runInternalEv
Z8d:__Z20ConvertContactToMonoP9Collision
Xqk:_RectTransform_GetLocalCorners_m1836626405
Xjh:_BaseFixupRecord_DoFixup_m1821597450
mUk:__ZN15dense_hashtableINSt3__24pairIK10KeyWrapperIPK22Il2CppGenericParameterEP11Il2CppClassEES6_N6il2cpp5utils11PointerHashIS4_EEN14dense_hash_mapIS6_S9_SE_NS6_14EqualsComparerINS0_8equal_toIS5_EEEENS0_9allocatorISA_EEE9SelectKeyESJ_SL_E6insertERKSA_
r1f:_FileLoadException__ctor_m1356374414
EFa:__ZN14DataBufferGLES16RecreateWithDataEjPKv
_cc:__Z29GetGlobalAllowNameConversionsv
MCc:__ZL17transformVerticesRfS_S_S_PfjPKN5physx6PxVec3EPKhRKNS1_7PxMat33E
L7d:__ZNK5physx2Gu15HeightFieldUtil31getFaceIndexAtShapePointNoTest2Ejff
nab:__ZN8Material8SetColorEN9ShaderLab16FastPropertyNameERK10ColorRGBAf
Ffi:_Module_GetCustomAttributes_m3581287913
xBd:__ZNK5physx2Sq10AABBPruner5sweepERKNS0_9ShapeDataERKNS_6PxVec3ERfRNS0_14PrunerCallbackE
$Lk:_Client_Start_m2062884450
T1:__ZL41AssemblyNameMatchesWithOrWithoutExtensionPKcS0_
vwd:__ZN5physx2Sc5Scene21fireCallBacksPostSyncEv
WJa:__ZN14GfxContextGLES43AddRenderSurfaceToDeferredFBOInvalidateListEPK17RenderSurfaceGLES
bDd:__ZN5physx17PxsCCDAdvanceTask11runInternalEv
uka:__ZN11NamedObject23VirtualRedirectTransferER14SafeBinaryRead
vfe:__ZNSt3__26vectorIN20TextRenderingPrivate8FontImpl13CharacterInfoE13stl_allocatorIS3_L18MemLabelIdentifier1ELi16EEE6insertENS_11__wrap_iterIPKS3_EERS9_
Fra:__ZN23PreloadManagerOperation6IsDoneEv
H2k:__ZN6il2cpp2vm7Runtime15InvokeWithThrowEPK10MethodInfoPvPS5_
ljg:_X509Certificate_get_RawData_m3000055075
J7b:__Z33GetHasChangedDeprecatedSystemMaskv
ssl:__ZN6il2cpp5utils11StringUtils11Utf16ToUtf8ERKNSt3__212basic_stringIDsNS2_11char_traitsIDsEENS2_9allocatorIDsEEEE
dNc:__ZN5physx3Cct26CharacterControllerManagerD2Ev
Qkj:_Enumerator_VerifyState_m1165543189_AdjustorThunk
$tf:_DateTime_AddSeconds_m722082155_AdjustorThunk
hjf:_SynchronizedArrayListWrapper_CopyTo_m956887031
g_k:__ZNSt3__213__lower_boundIRN6il2cpp5utils11collections13ArrayValueMapIPK10Il2CppType17Il2CppInteropData26InteropDataToTypeConverterNS1_8metadata14Il2CppTypeLessENSA_26Il2CppTypeEqualityComparerEE22LowerBoundFindComparerEPKS8_S7_EET0_SI_SI_RKT1_T_
fwa:__ZN21LightProbeProxyVolume18HasHardwareSupportEv
Koa:__ZN6prcoreL31inner_stretch_argb8888_bilinearEPKNS_9InnerInfoE
_Ob:__Z18Transfer_BlittableI18StreamedBinaryReadILb1EELb1E8BitFieldEvRK29SerializationCommandArgumentsR31RuntimeSerializationCommandInfo
xhe:_UNITY_FT_Outline_Decompose
j$g:_TlsClientCertificate_get_ClientCertificate_m3062440489
h8j:_InternalEnumerator_1_get_Current_m198513457_AdjustorThunk
ECd:__ZN5physx6shdfnd8internal8HashBaseINS0_4PairIKNS3_IPKNS_12PxsRigidCoreEPKNS_12PxsShapeCoreEEEPNS_11PxsCCDShapeEEESA_NS0_4HashISA_EENS1_11HashMapBaseISA_SD_SG_NS0_9AllocatorEE6GetKeyESI_Lb1EE15reserveInternalEj
pYa:__Z20scripting_object_new17ScriptingClassPtr
LWf:_TextInfo__ctor_m2782608694
nBg:_Queue_1_System_Collections_ICollection_CopyTo_m772787461_gshared
Imc:__Z58Register_UnityEngine_Object_Internal_CloneSingleWithParentv
UWf:_TextInfo_ToUpper_m299550697
lxd:__ZN5physx2Sc5Scene21setDominanceGroupPairEhhRKNS_20PxDominanceGroupPairE
H2a:__ZN18ShadowMapJobHeaderD0Ev
E2e:_Graphic_OnRectTransformDimensionsChange_m1610753363
_rf:_Convert_ToUInt16_m3265369225
P:Math_exp
M7f:_MonoEnumInfo_get_Cache_m3551569711
Qp:FUNCTION_TABLE_iiifi
pol:__ZN6il2cpp2os5posix13PosixAutoLockD2Ev
GDf:_Array_InternalArray__ICollection_Contains_TisVector3_t2243707580_m3625701788_gshared
Gya:__ZNSt3__26vectorINS_4pairIyP17VertexDeclarationEENS_9allocatorIS4_EEE6insertENS_11__wrap_iterIPKS4_EERS9_
Fle:_cff_get_advances
k8a:__ZN13MonoBehaviour9SetScriptERK4PPtrI10MonoScriptE18ScriptingObjectPtr
wDf:_Array_InternalArray__ICollection_Contains_TisPlayableBinding_t2498078091_m4267109606_gshared
dhe:_UNITY_FT_Create_Class_sfnt_module_class
Mod:__ZN5physx7NpScene12loadFromDescERKNS_11PxSceneDescE
twf:_Decimal_IsZero_m3557909184_AdjustorThunk
Ogf:_Char_ToString_m1401375624
rGe:_MD5CryptoServiceProvider__cctor_m3309191799
Qea:__ZNK10FileSystem16LastErrorMessageEv
Fnc:__ZN13ProduceHelperI18CrashReportManagerLb0EE7ProduceE18MemLabelIdentifier18ObjectCreationMode
rxi:_ScriptPlayableOutput__ctor_m3107656159
GXh:__Z74RuntimeInvoker_Vector2_t2243707579_Vector2_t2243707579_Vector2_t2243707579PFvvEPK10MethodInfoPvPS4_
S9b:__ZN11TimeManager16HasFixedTimeStepEv
Rng:_Enumerator_System_Collections_IEnumerator_Reset_m3052395060_gshared
CTg:_Kernel_DwordDivMod_m3728402123
YCb:__ZN13MonoBehaviour13AwakeFromLoadE17AwakeFromLoadMode
NJb:__ZL26Transfer_SimpleNativeClassI17RemapPPtrTransfer8GradientLb1EEvRK29SerializationCommandArgumentsR31RuntimeSerializationCommandInfo
X7b:__ZN12CachedWriter9InitWriteER15CacheWriterBase
v6b:__Z21UnsignedInt64ToStringy
Osh:_UTF7Decoder__ctor_m549434986
jxd:__ZN5physx14PxsAABBManager15createAggregateEPvb
Rek:_InternalEnumerator_1_get_Current_m1025321669_AdjustorThunk
Mic:__Z36MonoBehaviour_CUSTOM_InvokeRepeatingP12Il2CppObjectP12Il2CppStringff
Eyk:_WaitForSecondsRealtime_get_keepWaiting_m741039114
jmc:__Z66Register_UnityEngine_Transform_INTERNAL_CALL_InverseTransformPointv
eaa:__ZZN15DirectorManager15InitializeClassEvEN41FixedUpdateDirectorFixedUpdateRegistrator7ForwardEv
mb:invoke_iiiiifiiiif
KBk:_X509Crl_VerifySignature_m1390212587
ldh:_Group__ctor_m4103922028
DUa:__ZN6Camera26ClearIntermediateRenderersEj
rtk:_SphereCollider_INTERNAL_set_center_m3085859499
NRl:_glLinkProgram__wrapper
spa:__ZN6prcoreL12RemapGenericI17TexFormatARGB888815TexFormatBGR888EEvPKNS_9InnerInfoE
xGe:_MD5CryptoServiceProvider_ProcessFinalBlock_m1052610785
MH:__Z79AnimatorControllerPlayable_CUSTOM_INTERNAL_CALL_GetNextAnimatorClipInfoInternalR9HPlayablei
xjf:_BitArray_Set_m2878881714
wXf:_Guid_CompareTo_m2203922782_AdjustorThunk
_ad:__ZN5physx7NpShape8requiresERNS_23PxProcessPxBaseCallbackE
Tjl:__ZN6il2cpp6icalls8mscorlib6System13Globalization11CultureInfo35construct_internal_locale_from_nameEP17Il2CppCultureInfoP12Il2CppString
NLb:__ZL22Transfer_ManagedObjectI24GenerateTypeTreeTransferLb1EEvRK29SerializationCommandArgumentsR31RuntimeSerializationCommandInfo
iGc:__ZN24ConvexVsHeightfieldSweepC2ERN5physx2Gu15HeightFieldUtilERKNS1_14ConvexHullDataERKNS0_11PxMeshScaleERKNS0_11PxTransformESC_RKNS0_6PxVec3EfNS0_7PxFlagsINS0_9PxHitFlag4EnumEtEEfbb
L2j:_ContextAttribute_Equals_m53324298
QYd:__ZN5physx7Cooking14cookConvexMeshERKNS_16PxConvexMeshDescERNS_14PxOutputStreamEPNS_25PxConvexMeshCookingResult4EnumE
Ck:_emscripten_set_main_loop_timing
GCh:_WeakReference_AllocateHandle_m1783929473
TOf:_Array_Sort_TisRuntimeObject_m3674422195_gshared
tbe:__Z40CapsuleCollider_Set_Custom_PropDirectionP12Il2CppObjecti
I8d:__ZN14CompletionTask22ProcessAllPhysicsTasksEv
M9a:__ZN14ImageReference10FlipImageYEv
spc:__Z14GetDefaultSkini
bJ:__ZN4FMOD3DSP9setBypassEb
Deb:__Z19NormalizeWheelInputf
ODf:_Array_InternalArray__ICollection_Remove_TisLink_t865133271_m1984184141_gshared
bzc:__Z29Transfer_Blittable_ArrayFieldI8JSONReadhEvRT_R9ArrayInfoRK23StaticTransferFieldInfo
U9e:_LayoutRebuilder_IsDestroyed_m3442208294
Iac:__ZN11MonoManager25GetImageFromAssemblyIndexEi
rkj:_Enumerator_VerifyState_m1547102902_AdjustorThunk
zfd:__ZN5physx2Sc9ClothCore17addCollisionPlaneERKNS_21PxClothCollisionPlaneE
PVa:__ZN22RenderingCommandBuffer20CleanupCommandBufferEv
wLh:__Z165RuntimeInvoker_Void_t1841601450_UInt32U26_t2197289955_Int32_t2071877448_UInt32U26_t2197289955_Int32_t2071877448_Int32_t2071877448_Int32_t2071877448_Int32_t2071877448PFvvEPK10MethodInfoPvPS4_
ruc:__Z18Transfer_BlittableI9JSONWriteLb1EtEvRK29SerializationCommandArgumentsR31RuntimeSerializationCommandInfo
gbe:__Z34MeshCollider_Get_Custom_PropConvexP12Il2CppObject
s1f:_FileLoadException__ctor_m918124939
Wk:___syscall85
KWd:__ZNK5physx13PxHeightField8isKindOfEPKc
EXa:__ZNSt3__26__sortIRPFbP10GUIElementS2_EPS2_EEvT0_S7_T_
jUg:_SequentialSearchPrimeGeneratorBase_GenerateSearchBase_m2930465198
zfe:__Z14ValidateFormatR13dynamic_arrayIN20TextRenderingPrivate16TextFormatChangeELj4EE
gpl:__ZN6il2cpp2os6Thread19DetachCurrentThreadEv
HUk:__ZN6il2cpp2vmL21SetupInterfacesLockedEP11Il2CppClassRKNS_2os12FastAutoLockE
qFb:__ZN11MonoManager23VirtualRedirectTransferER24GenerateTypeTreeTransfer
rnb:__ZN19StreamedBinaryWriteILb0EE8TransferI13dynamic_arrayI8Vector3fLj4EEEEvRT_PKc17TransferMetaFlags
Oz:__ZN23AnimationPlayableOutput17SetSourcePlayableEP8Playable
Nch:_Capture__ctor_m885749277
woi:_GUIStyle_set_clipOffset_m3871613343
L5e:_SubmitEvent__ctor_m222860306
KLc:__ZN16ControllerFilter9preFilterERKN5physx12PxFilterDataEPKNS0_7PxShapeEPKNS0_12PxRigidActorERNS0_7PxFlagsINS0_9PxHitFlag4EnumEtEE
AV:__ZN11UnityEngine15CloudWebService14DataDispatcher15SetupWebRequestEv
D5f:_TextWriter__cctor_m4047845042
Bze:__ZN11UnityEngine15PlatformWrapper13GetShaderCapsEv
wId:__ZN16MBPOS_TmpBuffers16allocateSleepingEjj
Yzj:_AnimationClipPlayable_SetApplyFootIK_m4007156901_AdjustorThunk
d6e:_InputField_CaretBlink_m3960486606
egg:_SmallXmlParser_ReadCharacters_m1966365555
e3g:_InternalAsyncResult_get_CompletedWithError_m3993955322
Q5b:__ZN21FixedBehaviourManager6UpdateEv
ndc:__ZN9Transform9SetParentEPS_NS_15SetParentOptionE
R3e:_GridLayoutGroup_set_startCorner_m1660251450
O$:__ZN19ShaderPropertySheet8SetFloatEN9ShaderLab16FastPropertyNameEfNS_8SetFlagsE
ifj:__ZL68InputField_t1631627530_CustomAttributesCacheGenerator_m_AsteriskCharP21CustomAttributesCache
Tsa:__ZN19RuntimeSceneManager24BeginIntegrateMainThreadEP10UnityScene
E_c:__ZN5physx14NpArticulation26setExternalDriveIterationsEj
oDc:__ZN16RayRTreeCallbackILi0ELb0EED0Ev
$qk:_Transform_TransformPoint_m3272254198
UNd:__ZN5physx20PxsParticleSystemSim23scheduleCollisionUpdateERNS_10PxBaseTaskE
$pl:__ZNSt3__2plIcNS_11char_traitsIcEENS_9allocatorIcEEEENS_12basic_stringIT_T0_T1_EERKS9_S6_
u6f:_LocalDataStoreSlot__cctor_m1192669356
nVb:__ZN9ShaderLab20SerializedSubProgramaSERKS0_
hHl:_roundf
YQe:_String_CreateString_m2556700934
Fib:__ZN18StreamedBinaryReadILb0EE21TransferSTLStyleArrayINSt3__26vectorI17SortingLayerEntryNS2_9allocatorIS4_EEEEEEvRT_17TransferMetaFlags
Gt:__ZN8Animator15SetPrepareStageEv
rXj:_Slider_get_axis_m162140813
IUk:__ZN6il2cpp2vmL24SetupTypeHierarchyLockedEP11Il2CppClassRKNS_2os12FastAutoLockE
Keb:__ZL11TextHandleriPK23EmscriptenKeyboardEventPv
W0a:__Z20CalculateLightMatrixRK15SharedLightDataP10Matrix4x4f
PVj:_ScrollRect_SetLayoutHorizontal_m3486408020
Vee:_destroy_face
_jj:_Enumerator_VerifyState_m1547102902_gshared
JNl:_glBlendEquationSeparate__wrapper
oyl:__ZN6il2cpp6icalls8mscorlib6System8Security12Cryptography24RNGCryptoServiceProvider13RngInitializeEP11Il2CppArray
P6g:_IPAddress__cctor_m3624830012
YMc:__ZN5physx3Cct26CharacterControllerManager21createObstacleContextEv
I3i:__ZL115AnimatorStateInfo_t2577870592_CustomAttributesCacheGenerator_AnimatorStateInfo_t2577870592____nameHash_PropertyInfoP21CustomAttributesCache
H8g:_AsnEncodedData_EnhancedKeyUsageExtension_m1452131166
kgj:__ZL69Scrollbar_t3248359358_CustomAttributesCacheGenerator_m_OnValueChangedP21CustomAttributesCache
ZPb:__Z19TransferField_ArrayI18StreamedBinaryReadILb1EE27Converter_SimpleNativeClassI17AnimationCurveTplIfEEEvRK23StaticTransferFieldInfoR31RuntimeSerializationCommandInfoRT0_
dGa:__ZN18GfxFramebufferGLES22MakeCurrentFramebufferENS_7BuiltinE
Tdh:_Interpreter_Close_m1500459069
Yqd:__ZN5physx6shdfnd5ArrayIPNS_2Sc19ShapeInstancePairLLENS0_19ReflectionAllocatorIS4_EEE15growAndPushBackERKS4_
Bva:__ZN12CachedReader4ReadEPvj
$le:_cf2_blues_init
S2c:__ZN5physx2Sc8BodyCore24clearSpatialAccelerationEbb
tyj:_CustomEventData_Add_m881214524
l8j:_InternalEnumerator_1_System_Collections_IEnumerator_get_Current_m3600601141_gshared
aJe:_SHA1Internal_HashFinal_m3188468925
_xk:_Vector3_op_Inequality_m799191452
m0a:__Z24CalculateLightShadowFadeRK6CamerafffR8Vector4f
Y1:__ZN19RuntimeSceneManagerD2Ev
w0j:_ChannelData_get_CustomProperties_m1470957369
h7j:_InternalEnumerator_1_System_Collections_IEnumerator_get_Current_m1313308902_AdjustorThunk
iQf:_Dictionary_2_Do_ICollectionCopyTo_TisRuntimeObject_m545661084_gshared
QW:__ZN11UnityEngine15CloudWebService25WebRequestDownloadHandler17OnCompleteContentEv
Joa:__ZN6prcore17GetIntegerBlitterE13TextureFormatS0_N14ImageReference8BlitModeE
Rqd:__ZN5physx10PxsContext20createContactManagerERKNS_24PxvManagerDescRigidRigidEPNS_18PxsMaterialManagerE
Q8k:__ZN6il2cpp2gc19AppendOnlyGCHashMapINSt3__24pairIPK11Il2CppImageP11Il2CppClassEEP22Il2CppReflectionModule17ReflectionMapHashIS9_ENS2_8equal_toIS9_EEE11TryGetValueERKS9_PSB_
nlj:_Enumerator_VerifyState_m3173176371_AdjustorThunk
NUc:__ZN5physx2Sc5Scene31removeActiveBreakableConstraintEPNS0_13ConstraintSimE
T5g:_TypeConverterAttribute__cctor_m506796812
Zcc:__ZN9BlobWrite14ReduceCopyImplERK14ReduceCopyDataj
qhk:_Comparer_1_System_Collections_IComparer_Compare_m1790257529_gshared
mvd:__ZN5physx6shdfnd5ArrayINS_12PxActorShapeENS0_19ReflectionAllocatorIS2_EEE15growAndPushBackERKS2_
xQa:__ZN25MultiBlocksMemoryFileData17AdjustBlocksCountEj
Agl:__ZNSt3__214__split_bufferIN6il2cpp2vm22EmbeddedResourceRecordERNS_9allocatorIS3_EEED2Ev
eZg:_TlsClientHello__ctor_m1699671541
bde:__ZN13TextRendering4Font8TransferI24GenerateTypeTreeTransferEEvRT_
iBj:_AnimationOffsetPlayable_GetRotation_m3608800497_AdjustorThunk
Efc:__Z27CullingGroup_CUSTOM_DisposeP12Il2CppObject
Wxi:_Random_Range_m2884721203
Pfl:__ZN6il2cpp6icalls8mscorlib6SystemL23CheckWideningConversionEjjj
gWa:__ZN13ComputeShader15SetTextureParamEjRKN9ShaderLab16FastPropertyNameE9TextureID16TextureDimension
IWj:_Shadow_set_effectDistance_m1951993364
Kli:_GUILayoutEntry_ApplyStyleSettings_m371609721
A7c:__ZN5physx2Sc14ConstraintCore8setFlagsENS_7PxFlagsINS_16PxConstraintFlag4EnumEtEE
en:_glStencilMask
Dpl:__ZN6il2cpp2os10ThreadImpl16GetCurrentThreadEv
EVd:__ZNK5physx2Sc15ClothFabricCore20getNbParticleIndicesEv
Feb:__ZN15GUIEventManager10QueueEventERK10InputEvent
Ukj:_Enumerator_System_Collections_IEnumerator_get_Current_m2010873149_gshared
ihj:__ZL74SpriteState_t1353336012_CustomAttributesCacheGenerator_m_HighlightedSpriteP21CustomAttributesCache
wih:_RealProxy__ctor_m2505535530
Rvl:_GC_push_conditional_with_exclusions
Zzh:_UInt32_System_IConvertible_ToUInt16_m2798641702_AdjustorThunk
skh:_BinaryFormatter_get_DefaultSurrogateSelector_m219714691
DC:__ZN12_GLOBAL__N_121ProcessAnimationBeginER35AnimationPlayableEvaluationConstantR32AnimationPlayableEvaluationInputR33AnimationPlayableEvaluationOutput
HEj:_AnimatorControllerPlayable_CrossFadeInFixedTime_m3016214003
RHh:__Z136RuntimeInvoker_Void_t1841601450_Int32_t2071877448_RuntimeObject_RuntimeObject_RuntimeObject_RuntimeObject_RuntimeObject_SByte_t454417549PFvvEPK10MethodInfoPvPS4_
_hi:_MonoProperty_GetOptionalCustomModifiers_m3827844355
mEl:_strrchr
dUc:__ZN5physx2Sc7BodySim6wakeUpEv
iDj:_AnimatorControllerPlayable_IsParameterControlledByCurve_m3990583163_AdjustorThunk
nbg:_SimpleCollator_GetSortKey_m2188419329
Hqd:__ZN5physx6shdfnd8PoolBaseINS_2Gu30LargePersistentContactManifoldENS0_19ReflectionAllocatorIS3_EEE17releaseEmptySlabsEv
AUc:__ZN5physx2Sc21ConstraintInteraction7destroyEv
L3d:__ZN14SphereCollider6CreateEPK9Rigidbody
aij:__ZL56LayoutElement_t2808691390_CustomAttributesCacheGeneratorP21CustomAttributesCache
Ojc:__Z33Register_UnityEngine_Random_Rangev
bob:__ZN14RenderSettings27UpdateIndirectSpecularColorEv
UAb:__ZN14PlayerSettings8TransferI18StreamedBinaryReadILb0EEEEvRT_
B1k:__ZN6il2cpp6icalls8mscorlib6System8MonoType16GetMethodsByNameEP20Il2CppReflectionTypeP12Il2CppStringibS5_
lsd:__ZNK5physx7NpScene16getNbConstraintsEv
ied:__ZN5physx7NpCloth14setWakeCounterEf
QQj:_Mask_IsRaycastLocationValid_m62488857
Lya:__ZNSt3__27__sort3IRNS_4lessIN22BuiltinResourceManager8ResourceEEEPS3_EEjT0_S7_S7_T_
Egk:_DefaultComparer_Compare_m3472472212_gshared
S1f:_MonoIO_GetLength_m2812344043
Jke:_ps_hints_t2mask
ywk:_RequestAtlasCallback_Invoke_m2414509569
Bxb:__ZN10BlendShape8TransferI19StreamedBinaryWriteILb0EEEEvRT_
rwk:_Transform_IsChildOf_m10844547
j$f:__Z21il2cpp_codegen_sizeofP11Il2CppClass
tga:__Z19GetTimeSinceStartupv
GNe:_SecurityFrame_get_Assembly_m2816566490
Wei:_FieldInfo_GetPseudoCustomAttributes_m2500972355
NPc:__ZN5physx3Scb5Scene10getPxSceneEv
_pe:_TT_Load_Composite_Glyph
_Vk:_NetFxCoreExtensions_CreateDelegate_m2492743074
Obf:_Array_Sort_m2994254654
Xzg:_List_1__ctor_m593058937_gshared
G_a:__ZN29RenderNodeQueuePrepareContextC2Ev
pR:__ZN10SampleClipC2E18MemLabelIdentifier18ObjectCreationMode
nWb:__ZN9ShaderLab20SerializedSubProgram16TextureParameter8TransferI24GenerateTypeTreeTransferEEvRT_
eJl:dynCall_viiiiiiiiiiiii
Szl:__ZN6il2cpp2os11MutexHandle4WaitEj
_bc:__ZL34GetComponentsImplementationRecurseILb1ELi1ELi1EEbR10GameObjectbRK17CompareParametersRK39GetComponentsImplementation_ReturnValue
Rzl:__ZN6il2cpp2os11MutexHandle4WaitEv
hhf:_ArrayList_set_Capacity_m592558035
Cqa:__ZN6prcoreL17RemapGenericFloatI15TexFormatRGHalf18TexFormatARGBFloatEEvPKNS_9InnerInfoE
gnc:__ZN18CrashReportManager23VirtualRedirectTransferER14SafeBinaryRead
lga:__Z18SimulateMouseInputi
f_f:_Int64_System_IConvertible_ToDecimal_m3390697048_AdjustorThunk
dVa:__ZN13RenderManager23AddRemoveCamerasDelayedEv
vvc:__ZN9JSONWrite8TransferI13dynamic_arrayIdLj8EEEEvRT_PKc17TransferMetaFlags
hEf:_Array_InternalArray__ICollection_Remove_TisILTokenInfo_t149559338_m1523907845_gshared
yxe:__ZN11UnityEngine9Analytics15AnalyticsConfigC2Ev
N8d:__ZNK5Unity5Joint16GetCurrentForcesER8Vector3fS2_
XKk:_Enumerator_CheckState_m1761755727_gshared
vlf:_Hashtable_Rehash_m2877670513
T5h:__Z98RuntimeInvoker_RuntimeObject_UIVertex_t1204258818_UIVertex_t1204258818_RuntimeObject_RuntimeObjectPFvvEPK10MethodInfoPvPS4_
j7a:__ZN13RenderTexture8SetWidthEi
b8e:_InputField_Insert_m1593238693
aqe:_UNITY_FT_GlyphLoader_CheckSubGlyphs
enb:__ZN18StreamedBinaryReadILb0EE21TransferSTLStyleArrayI10vector_mapI7Hash128iNSt3__24lessIS3_EE13stl_allocatorINS4_4pairIS3_iEEL18MemLabelIdentifier80ELi16EEEEEvRT_17TransferMetaFlags
j0k:__ZN6il2cpp2vm21ThreadPoolCompartment20SpawnNewWorkerThreadEv
PJf:_Array_InternalArray__ICollection_Add_TisCustomAttributeTypedArgument_t1498197914_m3260005285_gshared
Q0a:__Z25SetupObjectBakedOcclusionbRK15SharedLightDataRK26SharedLightmapSettingsDataRK15LightmapIndicesR17ShaderPassContext
kmf:_SyncHashtable_GetObjectData_m3774367030
zXf:_Guid_GetHashCode_m1401300871
Vzj:_AnimationClipPlayable_GetApplyFootIK_m3962677322_AdjustorThunk
csc:__Z42Register_UnityEngine_GUIStyle_set_fontSizev
had:__ZNK5physx9NpFactory11getNbShapesEv
SI:__Z82Register_UnityEngine_Animations_AnimatorControllerPlayable_INTERNAL_CALL_GetBoolIDv
VA:__ZN8Animator9BuildJobsERK13dynamic_arrayIP14PlayableOutputLj4EERS0_INS_11AnimatorJobELj4EEPS7_bb
jti:_MeshCollider_set_convex_m2548365563
c$:__ZN9ShaderLab16FastPropertyName4InitEPKc
U$b:__Z13RegisterClassIN2UI13RectTransformEEvv
Lag:_MSCompatUnicodeTable_ToWidthCompat_m2299599532
bo:FUNCTION_TABLE_iiiii
k0d:__ZN5physx14PxRigidBodyExt23setMassAndUpdateInertiaERNS_11PxRigidBodyEfPKNS_6PxVec3Eb
w9f:_NumberFormatter_get_IsFloatingSource_m2830957202
Wha:__ZN13RenderTexture9SetMipMapEb
PUj:_ScrollRect_set_verticalScrollbarSpacing_m2356851539
gOd:__ZN5physx2Sc10ClothShape21updateBoundsInAABBMgrEv
Mwi:_PlayableHandle_INTERNAL_CALL_SetTimeInternal_m3873000891
dag:_OperatingSystem_GetObjectData_m2276196875
OGj:_AssetBundleRequest_get_allAssets_m3314852268
Elc:__Z38Transform_CUSTOM_INTERNAL_get_rotationP12Il2CppObjectP11Quaternionf
L5k:__ZNSt3__26vectorIN6il2cpp2vm17TypeNameParseInfoENS_9allocatorIS3_EEE8allocateEj
F8k:__ZNK15dense_hashtableINSt3__24pairIK10KeyWrapperINS1_IPK10MethodInfoP11Il2CppClassEEEjEES9_17ReflectionMapHashIS8_EN14dense_hash_mapIS9_jSD_NS9_14EqualsComparerINS0_8equal_toIS8_EEEENS0_9allocatorISB_EEE9SelectKeyESI_SK_E5beginEv
qIa:__ZN7ApiGLES19UploadBufferSubDataEjN2gl12BufferTargetEllPKv
nCd:__ZN5physx2Sc5Scene17createClothSolverEv
pca:__ZNSt3__216__rotate_forwardINS_11__wrap_iterIPN4core12basic_stringIcNS2_20StringStorageDefaultIcEEEEEEEET_S9_S9_S9_
dPe:_String_System_IConvertible_ToInt32_m1927223638
voh:_CryptographicException__ctor_m406825529
zKj:_Canvas_set_sortingOrder_m2922819993
o5d:__ZThn116_N5physx7profile8ZoneImplINS_28PxProfileNameProviderForwardEE12removeClientERNS_19PxProfileZoneClientE
LMj:_Color_get_red_m2410286591
LHd:__ZN15MBP_PairManager17removeMarkedPairsEPK10MBP_ObjectPN5physx16PxsBroadPhaseMBPERK8BitArrayS8_
cIj:_AudioMixerPlayable_Create_m3525453973
lRe:_ASCIIEncoding__ctor_m4127831672
lHb:__Z19TransferField_ArrayI14SafeBinaryRead27Converter_SimpleNativeClassI8GUIStyleEEvRK23StaticTransferFieldInfoR31RuntimeSerializationCommandInfoRT0_
VEb:__ZN9TextAsset23VirtualRedirectTransferER19StreamedBinaryWriteILb0EE
Nqh:_UTF8Encoding__ctor_m3336862259
vyl:__ZN6il2cpp5utils10MemoryPoolC2Ej
abh:_X509Chain_GetAuthorityKeyIdentifier_m2607407678
ryl:__ZN6il2cpp5utils10MemoryPoolC2Ev
Gnb:__ZN14RenderSettings5ResetEv
E_b:__ZN6Sprite9BindAtlasERK4PPtrI11SpriteAtlasE
G9c:__ZN5physx9NpPhysics33unregisterDeletionListenerObjectsERNS_18PxDeletionListenerEPKPKNS_6PxBaseEj
ggd:__ZNK5physx2Sc9ClothCore22getAngularInertiaScaleEv
ZE:__ZZN8Animator15InitializeClassEvEN37FunctorImpl_421kDidModifyOverrideClip4CallEPviR11MessageData
p1c:__ZN5physx20NpRigidActorTemplateINS_18PxArticulationLinkEE12setActorFlagENS_11PxActorFlag4EnumEb
rdk:_InternalEnumerator_1_get_Current_m3724267862_AdjustorThunk
BQf:_Dictionary_2_Do_ICollectionCopyTo_TisKeyValuePair_2_t3716250094_m1740410536_gshared
Mki:_GUI_CallWindowDelegate_m2039577415
khg:_RSAManaged_Dispose_m3018788098
ctc:__ZN8Gradient8TransferI9JSONWriteEEvRT_
ifb:__ZNK12TLSAllocatorI14StackAllocatorE22GetAllocatedMemorySizeEv
YFi:__ZL54AssemblyName_t894705941_CustomAttributesCacheGeneratorP21CustomAttributesCache
lsf:_Convert_ToUInt32_m3394039268
Mac:__Z32GetSceneHierarchyPathDescriptivePK6Object
mRa:__ZN12HandlerChain4NameEv
rn:FUNCTION_TABLE_fiiiiiifiiiiiif
uzb:__ZNSt3__26vectorI9InputAxisNS_9allocatorIS1_EEE10deallocateEv
_Qd:__ZN5physx37setupFinalizeSolverConstraintsCoulombERNS_13PxcNpWorkUnitERKNS_2Gu13ContactBufferERKNS_27PxcCorrelationBufferCoulombERKNS_11PxTransformESB_bPhRKNS_13PxcSolverBodyESF_RKNS_17PxcSolverBodyDataESI_ffjffff
xYf:_Int16_Equals_m3925135434_AdjustorThunk
Ove:__Z44Register_UnityEngine_CanvasRenderer_get_cullv
HDi:__ZL60IHashCodeProvider_t1980576455_CustomAttributesCacheGeneratorP21CustomAttributesCache
p0b:__ZN13ProduceHelperI13MonoBehaviourLb0EE7ProduceE18MemLabelIdentifier18ObjectCreationMode
fng:_Enumerator_VerifyState_m1677639504_AdjustorThunk
oYg:_CipherSuiteCollection_get_Item_m280627160
JFb:__Z44InitializeTransferFunctionScriptingTraitsForI17RemapPPtrTransferEvR31TransferFunctionScriptingTraits
Ffh:_SerializationInfoEnumerator_MoveNext_m1876990879
qwh:_TimeSpan_Duration_m4205681645
Gab:__ZN14UnityWebStream24UpdateAllUnityWebStreamsEv
zMk:_Seek_And_Flee_GetSteering_m3198197608
hCi:__ZL60ObsoleteAttribute_t3878847927_CustomAttributesCacheGeneratorP21CustomAttributesCache
ffh:_CostDelegate_BeginInvoke_m1628968398
rLf:_Array_InternalArray__ICollection_CopyTo_TisRaycastHit2D_t4063908774_m3837098618_gshared
MGd:__ZN5physx31ComputeCreatedDeletedPairsListsEPKjS1_jRPNS_17PxcBroadPhasePairERjS5_S4_S5_S5_RNS_14SapPairManagerE
Rsa:__ZN18LoadSceneOperation21MustCompleteNextFrameEv
vUe:_EventTrigger_OnScroll_m626934407
vUi:__ZL48Camera_t189460977_CustomAttributesCacheGeneratorP21CustomAttributesCache
gMk:_CollisionAvoidance__ctor_m214831029
J6a:__ZNSt3__26vectorI11CameraStackNS_9allocatorIS1_EEE8__appendEj
OLd:__ZN5physx2Gu16pcmContactBoxBoxERKNS0_13GeometryUnionES3_RKNS_11PxTransformES6_RKfRNS0_5CacheERNS0_13ContactBufferE
k7e:_InputField_OnDisable_m1865339380
Wzh:_UInt32_System_IConvertible_ToType_m747769316
Xu:__ZN7mecanim9animation12GetHumanPoseERKNS0_18ClipMuscleConstantEPKNS0_10ValueDeltaERNS_5human9HumanPoseE
ixe:__ZN11UnityEngine9Analytics15UserCustomEvent12CustomParams6InsertEPKcRNS1_11CustomValueE
Cw:__ZN22AnimationMixerPlayable17ProcessRootMotionEP35AnimationPlayableEvaluationConstantP32AnimationPlayableEvaluationInputP33AnimationPlayableEvaluationOutput
l5:__Z13GetFileSystemv
L4b:__ZZL23RegisterLightPropertiesR22GenericPropertyBindingEN29Wrapper_LightColorTemperature13SetFloatValueEPvf
C6:__ZNK5Unity4Type21FindAllDerivedClassesER13dynamic_arrayIPKS0_Lj4EENS0_17TypeFilterOptionsE
L7:__ZN13RuntimeStaticI15GUIEventManagerLb0EE16StaticInitializeEPv
Fqj:_Dictionary_2_ToTKey_m2900575080_gshared
tVf:_DaylightTime_get_Delta_m2316831491
r4d:__ZN15RaycastCallback14processTouchesEPKN5physx12PxRaycastHitEj
CDf:_Array_InternalArray__ICollection_Contains_TisUILineInfo_t3621277874_m1175659630_gshared
Sui:_Physics_INTERNAL_get_gravity_m3802008392
Gvh:_WaitHandle_WaitOne_m370363697
gdh:_FactoryCache_Lookup_m1681894361
tuf:_DateTime_Subtract_m698282245_AdjustorThunk
gYd:__ZN5physx2Gu5RTree15exportExtraDataERNS_22PxSerializationContextE
kQb:__Z29Transfer_Blittable_ArrayFieldI18StreamedBinaryReadILb1EE5RectTIfEEvRT_R9ArrayInfoRK23StaticTransferFieldInfo
uWa:__ZN19ShaderPropertySheet9SetMatrixEN9ShaderLab16FastPropertyNameERK10Matrix4x4fNS_8SetFlagsE
vHe:_RIPEMD160Managed_Initialize_m3365407578
A8b:__Z29GetTextureSizeAllowedMultiple13TextureFormat
O6g:_IPAddress_HostToNetworkOrder_m1092199707
wBd:__ZNK5physx2Sq10AABBPruner7overlapERKNS0_9ShapeDataERNS0_14PrunerCallbackE
HFf:_SetPropertyUtility_SetStruct_TisSpriteState_t1353336012_m2898060836_gshared
KLe:_SecurityAttribute__ctor_m3425755778
n6b:__ZN21IntermediateRenderers3AddEP20IntermediateRenderer
b3k:_il2cpp_array_element_size
SPj:_InvokableCall__ctor_m738302370
Iqd:__ZN5physx6shdfnd5ArrayIPvNS0_19ReflectionAllocatorINS_2Gu30LargePersistentContactManifoldEEEE4copyINS0_15InlineAllocatorILj256ES6_EEEEvRKNS1_IS2_T_EE
Fg:_glCheckFramebufferStatus
LLk:_Arrival__ctor_m2398571552
ZGf:_Array_compare_TisInt32_t2071877448_m840310202_gshared
bgk:_InternalEnumerator_1_System_Collections_IEnumerator_get_Current_m442726479_AdjustorThunk
_X:__ZN19CloudServiceHandler20StartEventDispatcherERKN11UnityEngine15CloudWebService18CloudServiceConfigERNS1_23WebRequestRestHeaderMapE
jek:_InternalEnumerator_1_System_Collections_IEnumerator_get_Current_m790514740_AdjustorThunk
yTd:__ZN5physx2Cm12DelegateTaskINS_2Sc5SceneEXadL_ZNS3_19updateCCDSinglePassEPNS_10PxBaseTaskEEEE11runInternalEv
OOc:__ZN5physx6string9sprintf_sEPcjPKcz
a$d:__ZThn8_N5physx19TriangleMeshBuilderD1Ev
zag:__Z37il2cpp_codegen_get_executing_assemblyPK10MethodInfo
THc:__ZN5physx2Gu16intersectRayAABBERKNS_6PxVec3ES3_S3_S3_RfS4_
hu:__ZN21AnimationClipPlayable7SetTimeEd
Qpi:_GUIStyle_Internal_DrawPrefixLabel_m1693575069
dIf:_Array_InternalArray__IndexOf_TisByte_t3683104436_m3605266236_gshared
Npi:_GUIStyle_set_richText_m1853532836
w4b:__ZZL23RegisterLightPropertiesR22GenericPropertyBindingEN22Wrapper_LightIntensity13GetFloatValueEPv
TSj:_RaycastAllCallback_Invoke_m981876639
zqh:_UnicodeEncoding__ctor_m72484327
gRd:__ZN5physx30setupFinalizeSolverConstraintsERNS_13PxcNpWorkUnitERKNS_2Gu13ContactBufferERKNS_20PxcCorrelationBufferERKNS_11PxTransformESB_bPhRKNS_13PxcSolverBodyESF_RKNS_17PxcSolverBodyDataESI_ffffff
Uil:__ZN14dense_hash_mapI10KeyWrapperIP14Il2CppIUnknownEjN6il2cpp5utils11PointerHashIS1_EENS3_14EqualsComparerINSt3__28equal_toIS2_EEEENS9_9allocatorINS9_4pairIKS3_jEEEEE15set_deleted_keyERSF_
t7:__ZN22BuiltinResourceManager16StaticInitializeEPv
v6c:__ZN5physx7NpScene17releaseBatchQueryEPNS_12PxBatchQueryE
gbl:__ZN13Il2CppHashMapIPK14Il2CppAssemblyPK22Il2CppMonoAssemblyNameN6il2cpp5utils11PointerHashIS1_EENSt3__28equal_toIS2_EENSA_9allocatorINSA_4pairIK10KeyWrapperIS2_ES5_EEEEEC2EjRKS9_RKSC_
zQd:__ZN5physx26solveVBlockDefaultFrictionEPNS_13PxsSolverCoreEfjjPNS_13PxcSolverBodyEPNS_17PxcSolverBodyDataEjjPNS_25PxcArticulationSolverDescEjPNS_23PxcSolverConstraintDescEjS9_jRNS_6shdfnd5ArrayINS_24PxsConstraintBatchHeaderENSA_19ReflectionAllocatorISC_EEEESG_PNS_2Cm13SpatialVectorEPNS_25PxcThresholdStreamElementEjRj
Pbk:_InternalEnumerator_1_System_Collections_IEnumerator_get_Current_m3576641073_AdjustorThunk
j_g:_ClientSessionInfo_SetContext_m2649357891
oZf:_Int32_System_IConvertible_ToInt64_m3790029067_AdjustorThunk
ZTe:_RaycasterManager_GetRaycasters_m1154876874
w3g:_SslStreamBase_InternalReadCallback_m2524917586
g6:__ZN8Remapper6RemoveEi
esg:_List_1_CheckCollection_m2608305187_gshared
HFd:__ZN5physx11writeBack1DERKNS_23PxcSolverConstraintDescERNS_16PxcSolverContextERNS_17PxcSolverBodyDataES6_
Bfe:__ZL36CleanupTextRenderingScriptingClassesv
tDc:__ZThn4_N16RayRTreeCallbackILi0ELb0EED0Ev
f7a:__ZN15ReflectionProbe17UseRendererResultEP13ProbeRenderer
ubf:_Array_BinarySearch_m3270245097
mic:__Z34Mesh_CUSTOM_SetArrayForChannelImplP12Il2CppObject30InternalScriptingShaderChannel34InternalScriptingVertexChannelTypeiP11Il2CppArrayi
e1f:_MonoIO_DeleteFile_m3273821223
vcg:_BigInteger_GenerateRandom_m2507308768
jtf:_DateTime_System_IConvertible_ToDouble_m1431748426_AdjustorThunk
mDf:_Array_InternalArray__ICollection_Contains_TisUInt16_t986882611_m510319131_gshared
Jwf:_Decimal_ToString_m541380585
mBj:_AnimationOffsetPlayable_SetRotation_m1448934280_AdjustorThunk
t3k:_il2cpp_class_is_valuetype
JE:__ZN11UnityEngine9Animation28GenericAnimationBindingCache25RegisterIAnimationBindingEPKN5Unity4TypeEiP17IAnimationBinding
CAd:__ZN5physx2Gu17GetGeomSweepFuncsEv
sWc:__ZN5physx6shdfnd8PoolBaseINS_15PxsArticulationENS0_16AlignedAllocatorILj64ENS0_9AllocatorEEEE17releaseEmptySlabsEv
Nzf:_Enum_ToObject_m2601523252
exf:_Delegate_CreateDelegate_m1706525923
Swe:__ZN14UnityAnalytics25UnregisterGlobalCallbacksEv
h5a:__Z40ProcessCameraIndexListIsNodeVisibleInOutRK22SceneCullingParametersPK9SceneNodePK4AABBR9IndexList
Zkb:__ZN16GraphicsSettings8TransferI17RemapPPtrTransferEEvRT_
m4f:_StreamReader__ctor_m2654332332
qte:__ZN2UI6Canvas13UpdateBatchesEb
Lz:__ZNK23AnimationPlayableOutput11DerivesFromE17ScriptingClassPtr
uMl:_glGetShaderInfoLog__wrapper
kqg:_List_1_CheckCollection_m3968030679_gshared
nbd:__ZN5physx2Gu5Debug9visualizeERKNS_13PxBoxGeometryERNS_2Cm12RenderOutputERKNS5_8Matrix34ERKNS_9PxBounds3Eyfj
urh:_StringBuilder_ToString_m617673931
QBc:__ZN5physx6shdfnd5ArrayIPKvNS0_19ReflectionAllocatorIS3_EEE6resizeEjRKS3_
_ze:__ZN11UnityEngine7Connect13ConfigHandler12GetListenersERKN4core12basic_stringIcNS2_20StringStorageDefaultIcEEEE
CBa:__ZN9GfxDevice18AllocRenderSurfaceEb
mRd:__ZN5physx31setupFinalizeSolverConstraints4EPNS_21PxcSolverContact4DescERNS_18PxcNpThreadContextEPhffRKNS_6shdfnd3aos5Vec4VES9_S9_S9_
Wsd:__ZN5physx7NpScene5flushEb
y_b:__ZN10TagManager32GetSortingLayerUniqueIDFromValueEi
Dlk:_AnchorInfo_get_IsComplete_m1247624133
f1e:_Dropdown_Show_m324374589
C1:__ZL27CleanupCoreScriptingClassesv
gIh:__Z68RuntimeInvoker_RuntimeObject_RuntimeObject_DSAParameters_t1872138834PFvvEPK10MethodInfoPvPS4_
eIj:_AudioMixerPlayable_INTERNAL_CALL_CreateAudioMixerPlayableInternal_m3355685531
KYk:__ZNSt3__27__sort3IRN6il2cpp5utils11collections13ArrayValueMapIPK10Il2CppType17Il2CppInteropData26InteropDataToTypeConverterNS1_8metadata14Il2CppTypeLessENSA_26Il2CppTypeEqualityComparerEE12SortComparerEPS8_EEjT0_SH_SH_T_
xCc:__ZN5physx2Gu13GeometryUnion3setERKNS_10PxGeometryE
_Zh:__Z101RuntimeInvoker_Void_t1841601450_RuntimeObject_Int32_t2071877448_Single_t2076509932_Single_t2076509932PFvvEPK10MethodInfoPvPS4_
jFj:_AnimatorControllerPlayable_PlayInFixedTime_m1932606764_AdjustorThunk
qWe:_RaycastResult_get_isValid_m2482925612
$hc:__Z26AnimationCurve_CUSTOM_InitP12Il2CppObjectP11Il2CppArray
iQl:_glUniform1uiv__wrapper
Tal:__ZN6il2cpp2vm10Reflection7IsEventEP12Il2CppObject
I2:__ZN17PersistentManager26GetStreamNameSpaceInternalEi
PJ:__ZN4FMOD6System11createSoundEPKcjP22FMOD_CREATESOUNDEXINFOPPNS_5SoundE
rLj:_CanvasRenderer_get_cull_m3577089379
_o:FUNCTION_TABLE_iiifiiii
rui:_Object_Destroy_m4145850038
k6k:__ZN6il2cpp2vm4Type14IsSystemDBNullEPK10Il2CppType
I5d:__ZThn128_N5physx7profile8ZoneImplINS_28PxProfileNameProviderForwardEED1Ev
j0:__ZN9ShaderLab19CommonPropertyNames13StaticCleanupEPv
hBj:_AnimationOffsetPlayable_INTERNAL_CALL_GetRotationInternal_m3411582030
P3:__Z31scripting_method_get_returntype18ScriptingMethodPtr
XUj:_ScrollRect_UpdateBounds_m3266596336
SBd:__ZN5physx2Sq17AABBTreeUpdateMap10invalidateEjjRNS0_8AABBTreeE
Jrb:__ZN15SerializeTraitsI12LightmapDataE8TransferI24GenerateTypeTreeTransferEEvRS0_RT_
tQj:_LayoutUtility_GetFlexibleWidth_m1731978987
BQd:__ZN5physx28solveParallelDefaultFrictionERNS_18PxsDynamicsContextEjjPNS_13PxcSolverBodyEPNS_17PxcSolverBodyDataEjjPNS_25PxcArticulationSolverDescEjPNS_23PxcSolverConstraintDescEjS9_jPiSA_SA_SA_SA_SA_PNS_25PxcThresholdStreamElementEjSA_PNS_2Cm13SpatialVectorEPKPNS_11PxsBodyCoreERNSD_10BitMapBaseINS_6shdfnd9AllocatorEEEPKPNS_15PxsArticulationEjPViRNSL_5ArrayINS_24PxsConstraintBatchHeaderENSL_19ReflectionAllocatorISW_EEEES10_RNSV_IjNSX_IjEEEES13_PPNS_12PxsRigidBodyEj
AMl:_glStencilOpSeparate__wrapper
K8b:__ZN4Mesh5SetUvEiPKfjj
tta:__ZN7Texture13SetAnisoLimitENS_20AnisotropicFilteringE
Nta:__ZN28LightProbeProxyVolumeManager25UpdateSHCoeffsTextureDataER21LightProbeProxyVolume
oPa:__Z18CreateDecompressor15CompressionType18MemLabelIdentifier
lS:__ZN11AudioModule16SetListenerPauseEb
wi:_emscripten_glCompressedTexSubImage2D
KJa:__ZN13GfxDeviceGLES22MemoryBarrierImmediateEyN2gl17MemoryBarrierTypeE
aca:__ZZN18SpriteAtlasManagerC1EvEN46EarlyUpdateSpriteAtlasManagerUpdateRegistrator7ForwardEv
sm:_abort
Ghl:__ZN6il2cpp6icalls8mscorlib6System4Type18internal_from_nameEP12Il2CppStringbb
Qqa:__ZN6prcoreL26RemapGenericFloatToIntegerI18TexFormatARGBFloat17TexFormatARGB8888EEvPKNS_9InnerInfoE
Yrl:__ZN6il2cpp6icalls8mscorlib6System10Reflection9MonoField16GetValueInternalEP21Il2CppReflectionFieldP12Il2CppObject
v8b:__Z46GetShaderModelNumericValueFromRequirementsMask18ShaderRequirements
hoe:_cff_ps_has_glyph_names
gEk:_InvokableCall_1__ctor_m2837611051_gshared
f$d:__ZN5physx15writeWordBufferEPKtjbRNS_14PxOutputStreamE
pjk:_PatternCompiler_EmitPosition_m3013268572
Ech:_X509SubjectKeyIdentifierExtension__ctor_m1109455121
cJg:_Collection_1_SetItem_m2707773254_gshared
r3e:_Graphic_CreateColorFromAlpha_m2614574534
osc:__Z44Register_UnityEngine_GUIStyle_SetDefaultFontv
kpl:__GLOBAL__sub_I_ThreadImpl_cpp
oOb:__Z18Transfer_BlittableI18StreamedBinaryReadILb1EELb1EiEvRK29SerializationCommandArgumentsR31RuntimeSerializationCommandInfo
CB:__ZN9BlobWrite8TransferI22OffsetPtrArrayTransferIKN4math7_float3EEEEvRT_PKc17TransferMetaFlags
FKe:_TripleDES_IsWeakKey_m483013953
T9g:_X509Certificate2_get_PrivateKey_m2662162956
I9k:__ZN15dense_hashtableINSt3__24pairIK10KeyWrapperINS1_IPK12PropertyInfoP11Il2CppClassEEEjEES9_17ReflectionMapHashIS8_EN14dense_hash_mapIS9_jSD_NS9_14EqualsComparerINS0_8equal_toIS8_EEEENS0_9allocatorISB_EEE9SelectKeyESI_SK_E12maybe_shrinkEv
yOh:__Z75RuntimeInvoker_RuntimeObject_RuntimeObject_Single_t2076509932_RuntimeObjectPFvvEPK10MethodInfoPvPS4_
fUc:__ZN5physx2Sc7BodySim37checkSleepReadinessBesidesWakeCounterEv
JOb:__Z18Transfer_BlittableI18StreamedBinaryReadILb1EELb1EsEvRK29SerializationCommandArgumentsR31RuntimeSerializationCommandInfo
ly:__ZN26AnimatorControllerPlayable17IsMultithreadableEv
yZh:__Z54RuntimeInvoker_Void_t1841601450_ColorBlock_t2652774230PFvvEPK10MethodInfoPvPS4_
iOe:_Single_System_IConvertible_ToSByte_m3757385387
e2f:_StreamAsyncResult_SetComplete_m2141125667
zta:__ZL21SetAnisoLimitEnumImplN7Texture20AnisotropicFilteringEb
Fye:__ZN22BaseUnityConnectClient17OnEnterStateReadyEv
eqd:__ZN5physx2Sc10NPhaseCore24createTriggerInteractionERNS0_8ShapeSimES3_NS_7PxFlagsINS_10PxPairFlag4EnumEtEE
rwa:__ZN14GrowableBufferD2Ev
rhc:__Z29Input_CUSTOM_GetMouseButtonUpi
wEc:__ZN5physx2Gu12selectNormalEhff
$1k:__ZN6il2cpp6icalls8mscorlib6System8MonoType16InternalGetEventEP20Il2CppReflectionTypeP12Il2CppStringi
Gxi:_Quaternion_INTERNAL_CALL_Internal_ToEulerRad_m1077217777
Wth:_Interlocked_CompareExchange_m3339239614
She:_UNITY_tt_face_load_maxp
Chc:__Z46Input_CUSTOM_INTERNAL_set_compositionCursorPosRK13Vector2fIcall
bu:__ZN7mecanim5human12FullBodyMaskEv
tjd:__ZN5physx3Scb14ParticleSystem16releaseParticlesEjRKNS_16PxStrideIteratorIKjEE
J$:__ZN19ShaderPropertySheet11ComputeHashEv
uYk:__ZN30dense_hashtable_const_iteratorI10KeyWrapperIPK19Il2CppGenericMethodES4_N6il2cpp8metadata23Il2CppGenericMethodHashEN14dense_hash_setIS4_S7_NS4_14EqualsComparerINS6_26Il2CppGenericMethodCompareEEENSt3__29allocatorIS4_EEE8IdentityESB_SE_EppEv
dwd:__ZN5physx2Sc5Scene21processLostTouchPairsEv
zW:__ZN11UnityEngine15CloudWebService20WebRequestRestClient6IsDoneEv
rj:_llvm_fabs_f32
OZe:_CanvasScaler_HandleScaleWithScreenSize_m80056230
cW:__ZN11UnityEngine15CloudWebService16SessionContainer16GetJsonDataBlockEjRKN4core12basic_stringIcNS2_20StringStorageDefaultIcEEEERS6_PjSA_
Bnh:_SByte_System_IConvertible_ToUInt64_m2174352876_AdjustorThunk
uKd:__ZN5physx22PxcContactConvexConvexERKNS_2Gu13GeometryUnionES3_RKNS_11PxTransformES6_RKfRNS_10PxcNpCacheERNS0_13ContactBufferE
Fsh:_UTF7Encoding_InternalGetBytes_m2772055844
ODc:__ZNK5physx2Gu11ConvexHullV12HillClimbingERKNS_6shdfnd3aos5Vec3VE
Pqj:_Dictionary_2_System_Collections_IDictionary_set_Item_m2290664072_gshared
nKh:__Z76RuntimeInvoker_Void_t1841601450_Int64_t909078037_ResourceInfoU26_t3126209420PFvvEPK10MethodInfoPvPS4_
Xag:_SimpleCollator__cctor_m2693747668
Cwf:_Decimal_CompareTo_m2454501434_AdjustorThunk
W2:__ZN14SafeBinaryReadD2Ev
Hyh:_UInt16_System_IConvertible_ToChar_m4055364664
hjd:__ZN5physx2Sc18ParticleSystemCore10setDampingEf
N$b:__Z13RegisterClassI7TextureEvv
XPb:__ZN8Gradient8TransferI18StreamedBinaryReadILb1EEEEvRT_
RQc:__ZN5physx2Sc10NPhaseCore16deleteFilterPairEPNS0_10FilterPairE
_rc:__Z45Register_UnityEngine_GUIStyle_SetFontInternalv
Jhl:__ZN6il2cpp6icalls8mscorlib6System4Type15MakeGenericTypeEP20Il2CppReflectionTypeP11Il2CppArray
gTb:__ZN6ShaderD2Ev
Sj:_SDL_PauseAudio
y3k:_il2cpp_class_from_type
acf:_Array_Sort_m2323017822
zTj:_Scrollbar_UpdateDrag_m3839695926
mmi:_GUILayoutUtility__cctor_m2957755459
RUc:__ZN5physx2Sc5Scene28addActiveBreakableConstraintEPNS0_13ConstraintSimE
i0:__ZN9ShaderLab19CommonPropertyNames16StaticInitializeEPv
P7c:__ZN5physx6shdfnd8PoolBaseINS_16NpParticleSystemENS0_19ReflectionAllocatorIS2_EEE15disposeElementsEv
T6f:_MissingMemberException__ctor_m3710131950
Ixi:_Quaternion_Euler_m3586339259
BD:__ZN7mecanim9animation18CreateAvatarOutputEPKNS0_14AvatarConstantEbbRNS_6memory9AllocatorE
c6d:__ZN5physx7profile11EventBufferINS_24PxDefaultContextProviderENS_6shdfnd6MutexTINS0_26WrapperReflectionAllocatorIhEEEENS0_14ScopedLockImplIS7_EENS_24PxProfileNullEventFilterEE10eventValueEtyx
ysc:__Z45GUIUtility_CUSTOM_Internal_GetKeyboardControlv
oPh:__Z91RuntimeInvoker_Void_t1841601450_RuntimeObject_Int32_t2071877448_RuntimeObject_RuntimeObjectPFvvEPK10MethodInfoPvPS4_
Aoh:_CspParameters__ctor_m2546931874
PHc:__ZN5physx2Gu11getBoxEdgesEv
Exe:__ZN14UnityAnalytics15SendCustomEventERN11UnityEngine9Analytics15UserCustomEventE
Hvb:__ZN14Texture2DArray23VirtualRedirectTransferER14SafeBinaryRead
h0a:__ZNK6Camera21CalculateCanDoShadowsEv
Eud:__ZNK5physx2Sc5Scene17getBroadPhaseCapsERNS_16PxBroadPhaseCapsE
D4c:__ZN5physx9NpFactory14onActorReleaseEPNS_7PxActorE
v3e:_Graphic__cctor_m1643894470
$ol:__ZN6il2cpp2os6Thread12SetStackSizeEj
yEh:__Z99RuntimeInvoker_Void_t1841601450_Int32_t2071877448_RuntimeObject_Int32_t2071877448_Int32_t2071877448PFvvEPK10MethodInfoPvPS4_
nah:_X509ChainElementEnumerator_get_Current_m2232618221
TWc:__ZN5physx2Sc5Actor15onElementAttachERNS0_7ElementE
kZe:_U3COnFinishSubmitU3Ec__Iterator0_Reset_m2080388334
d9b:__ZNK8Renderer16IsVisibleInSceneEv
_Ij:_Behaviour_get_isActiveAndEnabled_m3838334305
RUj:_ScrollRect_set_onValueChanged_m3957749575
X_:__Z13VFormatBufferPciPKcz
Uid:__ZN5physx2Sc18ParticleSystemCore23setSimulationFilterDataERKNS_12PxFilterDataE
QQb:__Z18Transfer_BlittableI18StreamedBinaryReadILb0EELb1EhEvRK29SerializationCommandArgumentsR31RuntimeSerializationCommandInfo
ASk:_U3CCreateWhereIteratorU3Ec__Iterator1D_1_Dispose_m1879652802_gshared
o5e:_Image_GenerateSimpleSprite_m4275440988
QOj:_Display_get_systemHeight_m3377672024
wzh:_UInt16_ToString_m3280699191
Uqa:__ZN6prcoreL27StretchGenericFloatBilinearI15TexFormatRFloatEEvPKNS_9InnerInfoE
MAd:__ZN5physx6shdfnd8internal8HashBaseINS0_4PairIKNS_2Sq13PrunerPayloadEjEES5_NS0_4HashIS5_EENS1_11HashMapBaseIS5_jS9_NS0_9AllocatorEE6GetKeyESB_Lb1EE15reserveInternalEj
eIi:__ZL56_PropertyInfo_t1567586598_CustomAttributesCacheGeneratorP21CustomAttributesCache
Hw:__Z24ProcessAnimationMixBeginP35AnimationPlayableEvaluationConstantP32AnimationPlayableEvaluationInputP33AnimationPlayableEvaluationOutput
Vpk:_Rect_Overlaps_m4145874649
PHf:_Array_IndexOf_TisCustomAttributeNamedArgument_t94157543_m745056346_gshared
UHa:__Z14PadImageBorderR14ImageReferenceii
l8k:__ZN15dense_hashtableINSt3__24pairIK10KeyWrapperINS1_IPK10MethodInfoP11Il2CppClassEEEjEES9_17ReflectionMapHashIS8_EN14dense_hash_mapIS9_jSD_NS9_14EqualsComparerINS0_8equal_toIS8_EEEENS0_9allocatorISB_EEE9SelectKeyESI_SK_E4findERSA_
vWh:__Z116RuntimeInvoker_Void_t1841601450_Rect_t3681755626_SByte_t454417549_SByte_t454417549_SByte_t454417549_SByte_t454417549PFvvEPK10MethodInfoPvPS4_
Z4j:_ArrayReadOnlyList_1_ReadOnlyError_m2289309720_gshared
ix:__ZN27AnimationLayerMixerPlayableD2Ev
n2k:__ZN6il2cpp2vm8basepathEPKc
xEd:__ZN5physx2Gu22gjkRelativePenetrationINS0_9TriangleVENS0_8CapsuleVEEEjRKT_RKT0_RKNS_6shdfnd3aos15PsMatTransformVERKNSB_6FloatVERNSB_5Vec3VESJ_SJ_RSF_PhSL_Rh
w0d:__ZN9Rigidbody14SetIsKinematicEb
fWg:_PKCS1_Verify_v15_m478274703
HL:__ZN12AudioManager39HandlePendingAudioConfigurationCallbackEv
Pk:_emscripten_glIsFramebuffer
E5b:__ZN12_GLOBAL__N_16qAtan2Eff
sae:__Z13RegisterClassI9RigidbodyEvv
vrf:_Convert_ToInt64_m954367741
Tk:_JS_Sound_SetLoopPoints
$gf:_ArrayList__ctor_m1467563650
CP:__ZN12AudioManager17ShouldSourcePauseEb
Myl:__ZN6il2cpp2vm26MetadataAllocGenericMethodEv
jMa:__ZN19ConstantBuffersGLES12RecordRenderEv
oAd:__ZN5physx13ActorAABBTaskD2Ev
Xvk:_Transform_INTERNAL_set_rotation_m3703763817
ovc:__ZN9JSONWrite8TransferI10RectOffsetEEvRT_PKc17TransferMetaFlags
AHa:__ZN4crnd12symbol_codec11decode_bitsEj
Bme:_cf2_doFlex
hPf:_Array_Sort_TisRaycastResult_t21186376_TisRaycastResult_t21186376_m38820193_gshared
IFj:_Animator_ResetTriggerString_m1445965342
anb:__ZN10Matrix3x4f8TransferI24GenerateTypeTreeTransferEEvRT_
o1f:_StreamReader__ctor_m3454466728
LL:__ZN4FMOD6System12createReverbEPPNS_6ReverbE
irk:_Vector2_get_Item_m2792130561
ax:__ZN7mecanim19ValueArrayBlendNodeILb1EEEvRKNS_10ValueArrayERKNS_14ValueArrayMaskERS1_RS4_RNS_16ValueArrayWeightEf
bsa:__Z16MarkDependenciesR27GarbageCollectorThreadStatej
fch:_X509ChainElementEnumerator_Reset_m3832280427
qCj:_AnimatorControllerPlayable_SetBoolString_m4011560969
$8f:_MulticastDelegate_RemoveImpl_m2024746777
YZe:_CanvasUpdateRegistry_ParentCount_m2367607495
V8f:_MulticastDelegate_Equals_m3064081489
gkg:_Activator_CreateInstance_m1465989661
e0:__ZNK9Transform11GetPositionEv
Jwi:_PlayableHandle_SetPlayStateInternal_m3829195293
lXa:__ZN23SharedMeshRenderingData18UnloadVertexStreamEi
fyk:_Vector4_set_Item_m3077071044
INc:__ZN5physx3Cct13HandleManager3AddEPv
m6b:__ZN31CanvasBatchIntermediateRenderer11AddSubBatchERK16DrawBuffersRangePK19ShaderPropertySheet
DGh:__Z99RuntimeInvoker_Void_t1841601450_RuntimeObject_Int32_t2071877448_Int32_t2071877448_Int32_t2071877448PFvvEPK10MethodInfoPvPS4_
O4b:__ZN19RenderEventsContextC2Ei
lU:__Z6simd4fRKf
kLf:_Array_InternalArray__ICollection_CopyTo_TisColor32_t874517518_m379086718_gshared
pXj:_Slider_ClampValue_m2851810895
ul:_emscripten_glEnable
Mmi:_GUISkin_set_font_m4009958323
NFk:_UnityEvent_1_FindMethod_Impl_m3813546_gshared
Jml:__ZN6il2cpp2gc16GarbageCollector29RegisterFinalizerForNewObjectEP12Il2CppObject
Hgk:_DefaultComparer_Compare_m3319119721_gshared
iib:__ZN10TagManager23VirtualRedirectTransferER14SafeBinaryRead
FVd:__ZNK5physx2Sc15ClothFabricCore9getNbSetsEv
mhe:_UNITY_FT_Init_Class_ft_grays_raster
$2a:__Z15InitLightMeshesv
DNi:__ZL97WaitHandle_t677569169_CustomAttributesCacheGenerator_WaitHandle_t677569169____Handle_PropertyInfoP21CustomAttributesCache
Ltd:__ZNK5physx7NpScene26getNbContactDataBlocksUsedEv
hlg:_KeyValuePair_2_ToString_m1391611625_AdjustorThunk
to:FUNCTION_TABLE_iifiii
sJc:__ZN5physx2Gu29computeCapsule_HeightFieldMTDERKNS_21PxHeightFieldGeometryERKNS_11PxTransformERNS0_8CapsuleVEffbjRNS_10PxSweepHitE
YWd:__ZN5physx2Gu11HeightField15exportExtraDataERNS_22PxSerializationContextE
SVa:__ZN22RenderingCommandBuffer36AcquireAndRegisterSharedMaterialDataEP8Material
LMb:__Z18Transfer_BlittableI19StreamedBinaryWriteILb0EELb1E8Vector2fEvRK29SerializationCommandArgumentsR31RuntimeSerializationCommandInfo
hme:_cf2_arrstack_init
nHi:__ZL65ClassInterfaceAttribute_t910653559_CustomAttributesCacheGeneratorP21CustomAttributesCache
z6k:__ZN15dense_hashtableINSt3__24pairIK10KeyWrapperINS1_IPK14Il2CppAssemblyP11Il2CppClassEEEjEES9_17ReflectionMapHashIS8_EN14dense_hash_mapIS9_jSD_NS9_14EqualsComparerINS0_8equal_toIS8_EEEENS0_9allocatorISB_EEE9SelectKeyESI_SK_E15insert_noresizeERKSB_
J_:__Z15CleanLogHandler7LogTypePKcz
QWb:__ZN9ShaderLab19SerializedSubShader8TransferI19StreamedBinaryWriteILb0EEEEvRT_
Q9c:__ZN5physx10NpMaterialC2ERKNS_2Sc12MaterialCoreE
pNd:__ZN5physx9PxTaskMgr10resolveRowEjb
ksh:_UTF32Encoding_GetBytes_m2290150495
tDb:__ZN6Camera17RemoveImageFilterERK11ImageFilter
gJa:__ZNSt3__218__insertion_sort_3IR25ValueParameterArraySorterPN20GpuProgramParameters14ValueParameterEEEvT0_S6_T_
Qjf:_CaseInsensitiveHashCodeProvider_AreEqual_m2456617355
nQj:_LayoutUtility_GetLayoutProperty_m4052007472
kEk:_InvokableCall_1_Invoke_m3239892614_gshared
UWa:__ZNSt3__214__split_bufferI20ComputeShaderVariantRNS_9allocatorIS1_EEED2Ev
Rce:__ZNSt3__26vectorIN4core12basic_stringIcNS1_20StringStorageDefaultIcEEEE13stl_allocatorIS5_L18MemLabelIdentifier34ELi16EEE7reserveEj
H_g:_Context_set_WriteSequenceNumber_m3356252710
Yte:__ZN2UI26InitializeDeviceForOverlayEi
$Ud:__ZNK5physx13NpClothFabric13getRestvaluesEPfj
z0:__Z27LogRepeatingStringWithFlagsRKN4core12basic_stringIcNS_20StringStorageDefaultIcEEEE15LogMessageFlagsi
JGc:__ZN5physx2Gu16_gjkLocalRayCastINS0_9TriangleVENS0_11ConvexHullVEEEbRT_RT0_RKNS_6shdfnd3aos6FloatVERKNS9_5Vec3VESF_RSA_RSD_SH_f
hog:_Enumerator_MoveNext_m3483405135_gshared
Cu:__ZN17AnimationPlayable28ComputeNeedsBindingRebuildedEv
aVc:__ZN5physx6shdfnd8PoolBaseINS_2Cm5BlockIPvLj32EEENS0_19ReflectionAllocatorIS5_EEE17releaseEmptySlabsEv
CGd:__ZN5physx23PxsBroadPhaseContextSap21batchUpdateFewUpdatesEjRPNS_17PxcBroadPhasePairERjS4_
ZJc:__ZN5physx3Cct17getSceneTimestampEPKNS0_30InternalCBData_FindTouchedGeomE
fBb:__ZN15ResourceManagerD0Ev
P9g:_X509ExtensionCollection__ctor_m1324282194
Tui:_Physics_Raycast_m2874007225
ZAe:__ZN18UnityConnectClient33OnPlayerSessionStateChangedStaticEPS_jyy
lDi:__ZL74CaseInsensitiveHashCodeProvider_t2307530285_CustomAttributesCacheGeneratorP21CustomAttributesCache
a6j:_InternalEnumerator_1_get_Current_m1943362081_gshared
TEa:__ZN7ApiGLES4LoadE16GfxDeviceLevelGL
Wrb:__ZN18StreamedBinaryReadILb0EE21TransferSTLStyleArrayI13dynamic_arrayI31EnlightenSystemAtlasInformationLj8EEEEvRT_17TransferMetaFlags
Z8c:__ZN5physx9NpPhysics15createAggregateEjb
tHa:__ZN4crnd12crn_unpacker22decode_color_endpointsEv
Qll:__ZN15dense_hashtableI10KeyWrapperIP18Il2CppGenericClassES3_N6il2cpp8metadata22Il2CppGenericClassHashEN14dense_hash_setIS3_S6_NS3_14EqualsComparerINS5_25Il2CppGenericClassCompareEEENSt3__29allocatorIS3_EEE8IdentityESA_SD_E15insert_noresizeERKS3_
lNg:_ReadOnlyCollection_1_System_Collections_IList_Clear_m3006875897_gshared
k3b:__ZZL31RegisterOtherRendererPropertiesR22GenericPropertyBindingEN30Wrapper_RendererReceiveShadows13GetFloatValueEPv
j3d:__ZN9Rigidbody5ResetEv
zog:_Enumerator_System_Collections_IEnumerator_get_Current_m3866069145_gshared
avi:_Physics_Raycast_m2994111303
Pga:__ZN8Material11SetPassFastEPN9ShaderLab4PassER17ShaderPassContextP6Shaderib
XAe:__ZN11UnityEngine7Connect20BasePersistentValues10SaveValuesER9JSONWrite
vpk:_Rect_get_max_m96665935_AdjustorThunk
ZUe:_ExecuteEvents_get_pointerDownHandler_m1172742772
gNd:__ZN5physx9PxTaskMgr12addReferenceEj
Cbh:_X509CertificateEnumerator_System_Collections_IEnumerator_MoveNext_m3708362145
dZa:__Z12SetupLODFadeR9GfxDeviceR17ShaderPassContextf
Fob:__ZNK14PlayableOutput7GetTypeEv
NHh:__Z203RuntimeInvoker_Boolean_t3825574718_RuntimeObject_Int32U26_t455636984_Int32_t2071877448_Int32_t2071877448_RuntimeObject_SByte_t454417549_Int32_t2071877448_ContractionU26_t2019974048_ContextU26_t3131521781PFvvEPK10MethodInfoPvPS4_
nAk:_X501_ToString_m3328169518
O2a:__ZL24CollectForwardObjectsJobP27CollectForwardObjectsHeader
Ejj:_Enumerator_System_Collections_IDictionaryEnumerator_get_Entry_m345330700_gshared
C6a:__ZNK25CameraStackRenderingState24ResolveTempToEyeTexturesEv
F4a:__Z13IsNodeVisibleRK9SceneNodeRK4AABBRK22SceneCullingParameters
Uve:__Z57RectTransformUtility_CUSTOM_INTERNAL_CALL_PixelAdjustRectP12Il2CppObjectS0_R5RectTIfE
$jh:_DelayedFixupRecord_FixupImpl_m4249966635
pSl:_emscripten_glStencilMask__wrapper
kYk:__ZN15dense_hashtableI10KeyWrapperIPK19Il2CppGenericMethodES4_N6il2cpp8metadata23Il2CppGenericMethodHashEN14dense_hash_setIS4_S7_NS4_14EqualsComparerINS6_26Il2CppGenericMethodCompareEEENSt3__29allocatorIS4_EEE8IdentityESB_SE_EC2ERKSH_j
KZk:__ZN15dense_hashtableINSt3__24pairIK10KeyWrapperIN6il2cpp5utils13dynamic_arrayIPK10Il2CppTypeLj4EEEEPFvvEEESA_NS3_8metadata19Il2CppSignatureHashEN14dense_hash_mapISA_SD_SG_NSA_14EqualsComparerINSF_22Il2CppSignatureCompareEEENS0_9allocatorISE_EEE9SelectKeyESK_SM_EC2EjRKSG_RKSK_RKSO_
Hcg:_BigInteger_ToString_m3837784224
tVa:__ZN15RenderNodeQueue7CleanupEv
_Oc:__ZN16NovodexAllocator8allocateEjPKcS1_i
m2a:__Z17PrepareShadowMapsRK11CullResultsRK11ActiveLightRK10MinMaxAABB
Ith:_NativeEventCalls_CreateEvent_internal_m1605829321
J8i:__ZL73RuntimePlatform_t1869584967_CustomAttributesCacheGenerator_MetroPlayerX64P21CustomAttributesCache
Jak:_InternalEnumerator_1_System_Collections_IEnumerator_get_Current_m3239681450_AdjustorThunk
L2a:__ZN9ShaderLab10GrabPassesD2Ev
Mti:_MonoBehaviour_set_useGUILayout_m2666356651
Svb:__ZN14Texture2DArray13UploadTextureEv
Aje:_tt_cmap14_done
Usa:__ZN18AwakeFromLoadQueue25RegisterObjectInstanceIDsEv
sef:_Buffer_BlockCopy_m1586717258
nKi:__ZL93X509Certificate_t283079845_CustomAttributesCacheGenerator_X509Certificate_GetName_m2354987368P21CustomAttributesCache
vbd:__ZNK5physx2Gu10ConvexMesh14debugVisualizeERNS_2Cm12RenderOutputERKNS2_8Matrix34ERKNS_9PxBounds3Eyfj
nx:__ZNK27AnimationLayerMixerPlayable11DerivesFromE17ScriptingClassPtr
Lde:__ZN20TextRenderingPrivate19NativeTextGenerator15InsertCharacterEiPj
wud:__ZN5physx2Sc5Scene22removeBroadPhaseRegionEj
SR:__ZN13ProduceHelperI13AudioListenerLb0EE7ProduceE18MemLabelIdentifier18ObjectCreationMode
_Nc:__ZN5physx2Cm12RenderBuffer5clearEv
wgl:__ZNSt3__26vectorIN6il2cpp2vm22EmbeddedResourceRecordENS_9allocatorIS3_EEE21__push_back_slow_pathIS3_EEvOT_
wBf:_CompareInfo_GetSortKey_m3691382873
igd:__ZNK5physx2Sc9ClothCore21getStiffnessFrequencyEv
wvf:_DBNull_ToString_m3228904745
U7g:_WebHeaderCollection_AddWithoutValidate_m1479880592
NCd:__ZN5physx13PxsCCDContext14postCCDAdvanceEPNS_10PxBaseTaskE
wWg:_RC4_get_IV_m506011366
wBk:_X509Crl__ctor_m2469408229
Rjj:_Enumerator_get_CurrentValue_m3562053380_AdjustorThunk
Kch:_X509SubjectKeyIdentifierExtension_CopyFrom_m136762226
dBj:_AnimationOffsetPlayable_INTERNAL_CALL_SetPositionInternal_m3711322547
wmg:_Enumerator_System_Collections_IEnumerator_Reset_m610822832_AdjustorThunk
Dil:__ZN6il2cpp6icalls8mscorlib6System2IO6MonoIO20GetFileSystemEntriesEP12Il2CppStringS6_iiPi
Wic:__Z41MonoBehaviour_Set_Custom_PropUseGUILayoutP12Il2CppObjecth
Fee:_UNITY_FT_Open_Face
QNl:_glGenRenderbuffers__wrapper
zJj:_Bounds_ToString_m1966597703
Cdg:_BigInteger_op_Division_m1581119694
VSb:__ZN16ScriptingManagerD0Ev
yyj:_UnityAnalyticsHandler_CustomEvent_m2884790978
mlh:_CallbackHandler_Invoke_m1498072969
fph:_DSACryptoServiceProvider__ctor_m701823690
bJd:__ZNK5physx10BPWorkTask7getNameEv
fmi:_Mathf_Clamp_m2354025655
q8h:_CustomAttributeData_GetCustomAttributes_m2421330738
j5c:__ZN5physx2Sc8ShapeSim16onResetFilteringEv
mxh:_Type_get_IsEnum_m313908919
wfc:__Z44Register_UnityEngine_Component_get_transformv
HFg:_Collection_1_System_Collections_ICollection_CopyTo_m1335644572_gshared
GC:__ZN12_GLOBAL__N_120ProcessPlayableGraphERN8Animator11AnimatorJobER35AnimationPlayableEvaluationConstantR32AnimationPlayableEvaluationInputR33AnimationPlayableEvaluationOutputPFvS4_R17AnimationPlayableEPFvS4_S6_S8_EPFvS8_S4_S6_S8_fESE_MS9_FvPS3_PS5_PS7_E
Nvg:_List_1_CheckMatch_m2830747427_gshared
hPa:__ZN17ArchiveFileSystem12MountArchiveEPKcS1_
uuc:__Z18Transfer_BlittableI9JSONWriteLb1E8Vector4fEvRK29SerializationCommandArgumentsR31RuntimeSerializationCommandInfo
xAj:_AnimationLayerMixerPlayable_SetLayerMaskFromAvatarMask_m2582039992
no:FUNCTION_TABLE_viififiii
nse:__ZN2UI13CanvasManagerD0Ev
zkj:_Enumerator_System_Collections_IEnumerator_Reset_m70453843_gshared
Asb:__ZThn32_NK8Renderer14GetSubsetIndexEi
sKh:__Z58RuntimeInvoker_Byte_t3683104436_IntPtr_t_Int32_t2071877448PFvvEPK10MethodInfoPvPS4_
tQf:_Dictionary_2_Do_CopyTo_TisKeyValuePair_2_t1174980068_TisRuntimeObject_m3279061992_gshared
sxk:_Vector3_get_Item_m3616014016
W1b:__ZN13ProduceHelperI15ResourceManagerLb0EE7ProduceE18MemLabelIdentifier18ObjectCreationMode
vCa:__ZN9GfxDevice15ImmediateVertexEfff
v$b:__Z13RegisterClassI8MaterialEvv
frb:__ZNK16LightmapSettings22GetTypeVirtualInternalEv
CAf:_FieldAccessException__ctor_m3893881490
cAa:__ZN13GfxDeviceGLES15SetStencilStateEPK18DeviceStencilStatei
WRh:__Z107RuntimeInvoker_Void_t1841601450_Single_t2076509932_Single_t2076509932_Single_t2076509932_Single_t2076509932PFvvEPK10MethodInfoPvPS4_
pDl:_cycle
Quk:_TextGenerator_Populate_m4139823822
ne:_emscripten_glUniform1iv
MYj:_Text_get_preferredHeight_m452532789
bPe:_String_System_IConvertible_ToDouble_m3860911722
Ddb:__ZN16MemoryFileSystemD2Ev
jfk:_InternalEnumerator_1_get_Current_m3732458101_AdjustorThunk
QUg:_ARC4Managed__ctor_m2922048522
Wde:__Z17dynamic_pptr_castIP9Texture2D7TextureET_RK4PPtrIT0_E
COg:_ReadOnlyCollection_1_System_Collections_IList_set_Item_m1272038804_gshared
b6j:_InternalEnumerator_1_System_Collections_IEnumerator_get_Current_m1931522460_AdjustorThunk
GLe:_SecurityPermission_IsEmpty_m1869313067
vbh:_X509CertificateCollection__ctor_m3709509050
afc:__Z37Register_UnityEngine_Camera_get_depthv
Pgg:_EncryptedPrivateKeyInfo_get_Salt_m2734354394
vJj:_Bounds_SetMinMax_m1523110422
yQg:_ReadOnlyCollection_1_System_Collections_Generic_IListU3CTU3E_set_Item_m1918537449_gshared
jEg:_Collection_1_System_Collections_ICollection_CopyTo_m3896480607_gshared
DVe:_PointerEventData_set_position_m794507622
e5d:__ZN5physx7profile8ZoneImplINS_28PxProfileNameProviderForwardEE10startEventEty
sba:__ZN15dense_hashtableINSt3__24pairIKPKcPK4RTTIEES3_N11TypeManager23ConstCharPtrHashFunctorEN14dense_hash_mapIS3_S7_SA_NS9_19ConstCharPtrEqualToE13stl_allocatorIS8_L18MemLabelIdentifier6ELi16EEE9SelectKeyESC_SF_E12resize_deltaEjj
fDd:__ZN5physx10PxsCCDPair17sweepAdvanceToToiEfb
$cb:__Z23ConvertIntegerToTypePtrItEbPvR14SafeBinaryRead
hD:__ZN7mecanim5human29HumanGetGoalOrientationOffsetENS0_4GoalE
mFb:__ZNK11MonoManager22GetTypeVirtualInternalEv
l4c:__ZN5physx6shdfnd8PoolBaseINS_2Cm5BlockIhLj384EEENS0_19ReflectionAllocatorIS4_EEE17releaseEmptySlabsEv
gTd:__ZN5physx16PxsIslandManager11freeBuffersEv
shi:_MonoMethod_MakeGenericMethod_impl_m2063853616
WYc:__ZN5physx2Cm12DelegateTaskINS_2Sc17ParticleSystemSimEXadL_ZNS3_21prepareCollisionInputEPNS_10PxBaseTaskEEEE11runInternalEv
xNe:__Z46il2cpp_codegen_get_marshal_directive_exceptionPKc
UXb:__ZN9ShaderLab20SerializedSubProgram14AddMatrixParamEPKcii15ShaderParamTypei
Ke:_glGetActiveUniformBlockName
rw:__ZN7mecanim13CopyValueMaskILb0EEEvPKNS_14ValueArrayMaskEPS1_
FG:__ZN26AnimatorControllerPlayable23ValidateParameterStringE17GetSetValueResultRKN4core12basic_stringIcNS1_20StringStorageDefaultIcEEEE
FXf:_Guid_AppendByte_m2890893073
adi:_MethodBuilder_Invoke_m1874904900
Eff:_Char_System_IConvertible_ToType_m3106771703_AdjustorThunk
Neh:_Interval_Intersects_m3480157390_AdjustorThunk
Uhc:__Z39Quaternion_CUSTOM_INTERNAL_CALL_InverseRK11QuaternionfRS_
n$j:_GCHandle_Alloc_m1063472408
DM:__ZN4FMOD7Channel20set3DConeOrientationEP11FMOD_VECTOR
eo:FUNCTION_TABLE_iiifii
noh:_CryptoConfig_CreateFromName_m391442950
Unl:__ZN6il2cpp2vm12GenericClass11SetupEventsEP11Il2CppClass
Ipe:_tt_delta_interpolate
tje:_tt_cmap12_get_info
Dmf:_SortedList__ctor_m3698381356
$Ej:_AnimatorControllerPlayable_PlayInFixedTimeInternal_m3876843019
vjl:__ZN6il2cpp2vm15ReboxIReferenceEP14Il2CppIUnknownP11Il2CppClass
R4f:_StreamWriter_LowLevelWrite_m4205372900
NSk:__ZN6il2cpp6icalls8mscorlib6System7Decimal14decimalCompareEP19il2cpp_decimal_reprS5_
Ztl:__ZThn4_N6il2cpp2vm13CachedCCWBaseINS0_13ManagedObjectEE7ReleaseEv
t$c:__ZN5physx26PxcFsComputeJointLoadsSimdERKNS_9PxcFsDataEPKNS_12PxcFsInertiaEPNS_6shdfnd3aos6Mat33VEPKfjjNS_21PxcFsScratchAllocatorE
hkf:_CollectionBase_System_Collections_IList_get_Item_m2370387510
$od:__ZN5physx6shdfnd8SyncImpl7getSizeEv
gPl:_glCopyTexImage2D__wrapper
esk:_ResourceRequest__ctor_m3340010930
T8e:_LayoutElement__ctor_m789941073
cKj:_Camera_FireOnPreCull_m1679634170
sUf:_NumberFormatter_CountTrailingZeros_m2398864634
soa:__Z18ClearByDrawingQuad13GfxClearFlagsRK10ColorRGBAffjR17ShaderPassContext
_1j:_DynamicPropertyCollection_FindProperty_m1233265924
rqa:__ZN6prcoreL17RemapGenericFloatI14TexFormatRHalf15TexFormatRFloatEEvPKNS_9InnerInfoE
TYa:__Z16ShouldUseShadowsb
P9:__ZN15DirectorManager21RebuildStageCallbacksEv
c4g:_TlsStream_SetLength_m1460039587
sra:__ZN19RuntimeSceneManager9LoadSceneERKN4core12basic_stringIcNS0_20StringStorageDefaultIcEEEES6_S6_RK9UnityGUIDiNS_11LoadingModeE
jIa:__ZN7ApiGLES10DrawArraysE16GfxPrimitiveTypejjj
CPj:_Event_PopEvent_m1952528237
GCj:_AnimatorControllerPlayable_SetIntegerString_m3665225671
qK:__ZN10SampleClip13LoadBaseSoundEv
rHc:__ZN5physx2Gu22gjkRelativePenetrationINS0_17ShrunkConvexHullVES2_EEjRKT_RKT0_RKNS_6shdfnd3aos15PsMatTransformVERKNSA_6FloatVERNSA_5Vec3VESI_SI_RSE_PhSK_Rh
Xml:__ZN15dense_hashtableINSt3__24pairIK10KeyWrapperIP12Il2CppObjectEN6il2cpp2gc9CachedCCWEEES5_NS7_5utils11PointerHashIS3_EEN14dense_hash_mapIS5_S9_SD_NS5_14EqualsComparerINS0_8equal_toIS4_EEEENS0_9allocatorISA_EEE9SelectKeyESI_SK_E15insert_noresizeERKSA_
RIg:_Collection_1_Contains_m643401393_gshared
eUd:__ZN5physx2Sc19ParticlePacketShapeC2ERNS0_17ParticleSystemSimEjPNS_16PxvParticleShapeE
roa:__ZN22DeviceMVPMatricesStateC2ER9GfxDevice
hlk:_Regex_IsMatch_m1286520424
$8c:__ZN5physx9NpPhysics18createTriangleMeshERNS_13PxInputStreamE
vo:FUNCTION_TABLE_iiiiifiiiif
VOe:_String__ctor_m372528291
Ln:FUNCTION_TABLE_iifii
eH:__Z64AnimationOffsetPlayable_CUSTOM_INTERNAL_CALL_SetRotationInternalR9HPlayableRK11Quaternionf
iub:__ZNSt3__26vectorI13dynamic_arrayI8Vector2fLj4EENS_9allocatorIS3_EEE6assignINS_11__wrap_iterIPS3_EEEENS_9enable_ifIXaasr21__is_forward_iteratorIT_EE5valuesr16is_constructibleIS3_NS_15iterator_traitsISC_E9referenceEEE5valueEvE4typeESC_SC_
WBj:_AnimatorControllerPlayable_GetFloat_m1229536053_AdjustorThunk
Dsa:__ZNSt3__26__treeIiNS_4lessIiEE13stl_allocatorIiL18MemLabelIdentifier1ELi16EEE7destroyEPNS_11__tree_nodeIiPvEE
Qc:invoke_viiifi
Q7f:_LongComparer_Compare_m3981323622
Awj:_EqualityComparer_1__cctor_m3033994022_gshared
Mxa:__ZNK11AssetBundle14GetPreloadDataEiR13dynamic_arrayIiLj4EE
Xhg:_EncryptedData_get_EncryptedContent_m2732115576
Uf:_JS_Sound_SetPosition
Fkk:_Assertion_set_FalseExpression_m1781616372
Gch:_X509SubjectKeyIdentifierExtension_FromHexChars_m2515150420
rha:__ZN19RenderBufferManager13GetTempBufferEii17DepthBufferFormat19RenderTextureFormatj22RenderTextureReadWrite14VRTextureUsagei23RenderTextureMemoryless
__k:__ZL13GetSharedInstPK17Il2CppGenericInst
ZBi:__ZL51IReflect_t3412036974_CustomAttributesCacheGeneratorP21CustomAttributesCache
DXe:_StandaloneInputModule_SendSubmitEventToSelectedObject_m3421155293
yji:_RenderPipelineManager_CleanupRenderPipeline_m2242901458
cXk:__ZNK15dense_hashtableINSt3__24pairIK10KeyWrapperIPKcEP11Il2CppClassEES5_N6il2cpp5utils11StringUtils12StringHasherIS4_EEN14dense_hash_mapIS5_S8_SE_NS5_14EqualsComparerINSB_13VmStringUtils21CaseSensitiveComparerEEENS0_9allocatorIS9_EEE9SelectKeyESJ_SL_E3endEv
$Mj:_Component_GetComponentsInChildren_m908027537
Nye:__ZN22BaseUnityConnectClient17SaveSessionValuesEv
N3j:_CallContextRemotingData_Clone_m2226242476
w2:__Z63ThreadAndSerializationSafeCheckSetMonoBehaviourBeingTransferredP13MonoBehaviour
xcd:__ZNK5physx7NpCloth14getNbParticlesEv
XQc:__ZN5physx2Sc10NPhaseCore24releaseShapeInstancePairEPNS0_19ShapeInstancePairLLEjj
R2a:__Z24SetupActiveLightsContextR21ActiveLightingContextRK12ActiveLightsRK11CullResultsP14ShadowMapCacheRK10MinMaxAABB
Mkc:__Z38Sprite_CUSTOM_INTERNAL_get_textureRectP12Il2CppObjectP5RectTIfE
svf:_DBNull_System_IConvertible_ToUInt32_m2681284284
Ubl:__ZNK15dense_hashtableINSt3__24pairIK10KeyWrapperIPK22Il2CppGenericParameterEPK24MonoGenericParameterInfoEES6_N6il2cpp5utils11PointerHashIS4_EEN14dense_hash_mapIS6_SA_SF_NS6_14EqualsComparerINS0_8equal_toIS5_EEEENS0_9allocatorISB_EEE9SelectKeyESK_SM_E3endEv
i7b:__ZN9TextAsset7SetTextERKN4core12basic_stringIcNS0_20StringStorageDefaultIcEEEE
zjb:__ZN6Camera8TransferI24GenerateTypeTreeTransferEEvRT_
rxj:_EqualityComparer_1__cctor_m416314417_gshared
Sa:invoke_iiiiiiif
La:invoke_iiiiiiii
Psi:_Mesh_GetUVChannel_m364477864
Zah:_X509ChainElementCollection_Contains_m3599995067
m6a:__ZN8Renderer17PendingAddToSceneEv
U4c:__ZN5physx7NpActor18releaseConstraintsERNS_12PxRigidActorE
eOc:__ZN5physx6shdfnd5ArrayINS_11PxDebugLineENS0_19ReflectionAllocatorIS2_EEE8recreateEj
qDj:_AnimatorControllerPlayable_GetLayerName_m1429074517_AdjustorThunk
uRl:b124
uSl:b127
tSl:b126
wSl:b129
_jc:__Z52Register_UnityEngine_RectTransform_INTERNAL_get_rectv
X3e:_GridLayoutGroup_set_spacing_m118889422
KHi:__ZL70TypeLibImportClassAttribute_t2390314680_CustomAttributesCacheGeneratorP21CustomAttributesCache
YAb:__ZN18StreamedBinaryReadILb0EE21TransferSTLStyleArrayI13dynamic_arrayI16SplashScreenLogoLj4EEEEvRT_17TransferMetaFlags
Mmd:__ZNK5physx14NpRigidDynamic25getContactReportThresholdEv
uOe:_Single_CompareTo_m2081476257
nEf:_Array_InternalArray__ICollection_Remove_TisX509ChainStatus_t4278378721_m4127982424_gshared
kfc:__Z47Register_UnityEngine_Camera_get_allCamerasCountv
iwf:_Decimal_GetBits_m3520401316
Qye:__ZN22BaseUnityConnectClient20StartEventDispatcherEv
T8b:__ZNSt3__26vectorIj13stl_allocatorIjL18MemLabelIdentifier1ELi16EEE6assignIPKtEENS_9enable_ifIXaasr21__is_forward_iteratorIT_EE5valuesr16is_constructibleIjNS_15iterator_traitsIS9_E9referenceEEE5valueEvE4typeES9_S9_
YB:__ZN7mecanim9animation16EvaluateAvatarIKEPKNS0_14AvatarConstantEPKNS0_11AvatarInputEPNS0_12AvatarOutputEPNS0_12AvatarMemoryEPNS0_15AvatarWorkspaceEb
MIa:__ZL25ProgramUniformMatrix4x3fvPK7ApiGLESjiihPKv
IPd:__Z22updateIslandsToProcessRKN5physx2Cm10BitMapBaseINS_6shdfnd9AllocatorEEEPKjRKNS_11NodeManagerERS4_
mwi:_PlayableGraph_INTERNAL_CALL_CreateScriptOutputInternal_m348659249
zUa:__ZN12InputManager13InputEndFrameEv
imf:_SyncHashtable__ctor_m2029869827
efl:__ZN6il2cpp2vm6Thread5SetupEP12Il2CppThread
i0d:__ZN8Collider30GetRelativePositionAndRotationERK9TransformR10Matrix4x4f
lDd:__ZN5physx35PxcSweepEstimateAnyShapeHeightfieldERKNS_11PxsCCDShapeES2_PKNS_12PxsRigidBodyES5_RKNS_11PxTransformES8_f
NRg:_ReadOnlyCollection_1_System_Collections_IList_Remove_m2200089035_gshared
zOc:__ZN5physx3Cct13BoxControllerC2ERKNS_16PxControllerDescERNS_9PxPhysicsEPNS_7PxSceneE
eEg:_Collection_1_CheckWritable_m2756357359_gshared
uEl:___munmap
m6e:_InputField_get_characterLimit_m2386380888
Qdj:__ZL68ColorBlock_t2652774230_CustomAttributesCacheGenerator_m_PressedColorP21CustomAttributesCache
hrf:_Convert_ToInt64_m1722087499
Lg:_localtime_r
fWa:__ZN22RenderingCommandBuffer13GetAndCheckRTE24BuiltinRenderTextureTypeRKN9ShaderLab16FastPropertyNameEPKcPP13RenderTexture
vwi:_PlayableHandle_GetInputCount_m3249715311
hQ:__ZN4FMOD5Sound11getDefaultsEPfS1_S1_Pi
wHi:__ZL65InterfaceTypeAttribute_t4113096249_CustomAttributesCacheGeneratorP21CustomAttributesCache
Ng:_strftime
Bha:__ZN7Texture33SetStoredColorSpaceNoDirtyNoApplyE17TextureColorSpace
L5:__ZN12FileAccessorD2Ev
vwb:__ZN14VertexDataInfoC2Ev
xAf:_Exception_GetObjectData_m2653827630
zxk:_Vector3_Equals_m2692262876_AdjustorThunk
s9j:_InternalEnumerator_1_get_Current_m2415979394_gshared
uPb:__ZL17Transfer_GUIStyleI18StreamedBinaryReadILb1EELb1EEvRK29SerializationCommandArgumentsR31RuntimeSerializationCommandInfo
BUj:_ScrollRect_SetDirtyCaching_m1491302821
zwi:_PlayableHandle_SetInputCount_m2001045454
R1k:__ZN6il2cpp6icalls8mscorlib6SystemL9IsPrivateEPK12PropertyInfo
rDd:__ZNK5physx18PxcConvexTriangles16getPolygonNormalEj
DNh:__Z72RuntimeInvoker_DateTime_t693205669_DateTime_t693205669_Int32_t2071877448PFvvEPK10MethodInfoPvPS4_
s8h:_CustomAttributeData_GetCustomAttributes_m3258419955
u0:__ZN9shadertag10InitializeEv
fZa:__ZN13BatchRenderer20RenderSingleWithPassER17ShaderPassContextPK18SharedMaterialDataP6ShaderPN9ShaderLab4PassEiPKNS7_10GrabPassesEjib15BatchBreakCause
v6d:__ZN5physx24NpPtrTableStorageManager8canReuseEjj
Itb:__ZN15QualitySettings14QualitySetting8TransferI24GenerateTypeTreeTransferEEvRT_
YKf:_Array_InternalArray__ICollection_CopyTo_TisParameterModifier_t1820634920_m4127516211_gshared
DRe:_DecoderReplacementFallback__ctor_m2344783488
v6h:_OutOfMemoryException__ctor_m239206850
Crd:__ZN5physx2Sc27ConstraintProjectionManager33processConstraintForGroupBuildingEPNS0_13ConstraintSimERNS0_20ScratchAllocatorListIS3_Lj64EEE
H2e:_GraphicRegistry_UnregisterGraphicForCanvas_m820096873
Mqe:__Z28Font_Get_Custom_PropMaterialP12Il2CppObject
Jxl:__ZN6il2cpp6icalls8mscorlib6System9Threading16NativeEventCalls19ResetEvent_internalE12Il2CppIntPtr
mPh:__Z88RuntimeInvoker_RuntimeObject_RuntimeObject_RuntimeObject_RuntimeObject_Int32_t2071877448PFvvEPK10MethodInfoPvPS4_
eGg:_Collection_1_Remove_m4136193368_gshared
sXd:__ZN5physx20InternalTriangleMesh17allocateTrianglesEjb
rUe:_EventTrigger_OnPointerUp_m2791622548
KWj:_Shadow_set_useGraphicAlpha_m141905402
d8b:__ZN22BlockMemoryCacheWriter14LockCacheBlockEjPPhS1_
Hpd:__ZN5physx2Cm29ConstraintImmediateVisualizer19visualizeDoubleConeERKNS_11PxTransformEfb
Rxc:__Z22TransferField_NonArrayI8JSONRead27Converter_SimpleNativeClassI8GUIStyleEEvRK23StaticTransferFieldInfoR31RuntimeSerializationCommandInfoRT0_
TBc:__ZN5physx6shdfnd5ArrayINS_13PxExtendedBoxENS0_19ReflectionAllocatorIS2_EEE8recreateEj
VId:__ZN5physx20ProcessBPResultsTask11runInternalEv
fVc:__ZN5physx6shdfnd5ArrayIPvNS0_19ReflectionAllocatorINS_2Cm5BlockIS2_Lj16EEEEEE4copyINS0_15InlineAllocatorILj256ES7_EEEEvRKNS1_IS2_T_EE
rh:_llvm_eh_typeid_for
V5b:__Z13RegisterClassI10GameObjectEvv
rZk:__ZNK15dense_hashtableINSt3__24pairIK10KeyWrapperIN6il2cpp5utils13dynamic_arrayIPK10Il2CppTypeLj4EEEEPFvvEEESA_NS3_8metadata19Il2CppSignatureHashEN14dense_hash_mapISA_SD_SG_NSA_14EqualsComparerINSF_22Il2CppSignatureCompareEEENS0_9allocatorISE_EEE9SelectKeyESK_SM_E5beginEv
BDi:__ZL53HashValues_t2390200547_CustomAttributesCacheGeneratorP21CustomAttributesCache
J9g:_X509BasicConstraintsExtension_get_PathLengthConstraint_m3004531343
XCj:_AnimatorControllerPlayable_INTERNAL_CALL_ResetTriggerString_m2112584758
Kz:__ZNK23AnimationPlayableOutput7GetTypeEv
isd:__ZN5physx7NpScene19getActiveTransformsERjh
spk:_Rect_get_max_m96665935
YQc:__ZN5physx2Sc10NPhaseCore39pool_deleteParticleElementRbElementPairEPNS0_35ParticleElementRbElementInteractionEjj
Z6f:_MissingMemberException__ctor_m4277447068
fCd:__ZN5physx6shdfnd8internal8HashBaseIjjNS0_4HashIjEENS1_11HashSetBaseIjS4_NS0_9AllocatorELb0EE6GetKeyES6_Lb0EE6createERKjRb
Jii:_StrongNameKeyPair_System_Runtime_Serialization_ISerializable_GetObjectData_m1693082120
pRb:__Z18Transfer_BlittableI18StreamedBinaryReadILb0EELb1E8Vector4fEvRK29SerializationCommandArgumentsR31RuntimeSerializationCommandInfo
Ppl:__ZN6il2cpp2vm6Method8GetParamEPK10MethodInfoj
A_f:_Int64_CompareTo_m1953686218
QQf:_BaseInvokableCall_ThrowOnInvalidArg_TisSingle_t2076509932_m3470174535_gshared
yil:__ZN6il2cpp6icalls8mscorlib6System2IO6MonoIO4ReadE12Il2CppIntPtrP11Il2CppArrayiiPi
RRl:_glBindVertexArray__wrapper
Q_d:__ZN5physx6shdfnd5ArrayINS_11RTreeNodeNQENS0_19ReflectionAllocatorIS2_EEE19resizeUninitializedEj
TRc:__ZNK5physx2Sc16InteractionScene18getLLIslandManagerEv
bph:_DSA_Create_m3450041777
kma:__ZN8Material8TransferI14SafeBinaryReadEEvRT_
QCd:__ZN5physx17PxcNpMemBlockPool34acquireExceptionalConstraintMemoryEj
vpb:__ZN12CubemapArray17UploadToGfxDeviceEv
bVj:_ScrollRect_AdjustBounds_m1033723448
Eqa:__ZN6prcoreL17RemapGenericFloatI15TexFormatRGHalf17TexFormatRGBAHalfEEvPKNS_9InnerInfoE
vng:_Enumerator_System_Collections_IEnumerator_Reset_m2200349770_gshared
q6h:_OrdinalComparer__ctor_m2952942058
aEd:__ZN5physxL23PxcSweepConvexTrianglesERKNS_11PxsCCDShapeES2_RKNS_11PxTransformES5_S5_S5_fRNS_6PxVec3ES7_RNS_10PxcNpCacheERNS_18PxcNpThreadContextERKNS_2Cm23FastVertex2ShapeScalingERNS_2Gu9TriangleVEf
Bad:__ZNK5physx7NpShape16getPlaneGeometryERNS_15PxPlaneGeometryE
vah:_X509Chain_CheckRevocationOnChain_m2441901351
Stl:__ZN6il2cpp2vm13ManagedObject14QueryInterfaceERK10Il2CppGuidPPv
__d:__ZN5physx27InternalTriangleMeshBuilder14fillRemapTableEv
MK:__ZN11AudioSource4StopEb
sZc:__ZN5physx6shdfnd8PoolBaseINS_13NpRigidStaticENS0_19ReflectionAllocatorIS2_EEE17releaseEmptySlabsEv
oIb:__ZN14SafeBinaryRead21TransferSTLStyleArrayI13dynamic_arrayI10Matrix4x4fLj4EEEEvRT_17TransferMetaFlags
SJg:_Collection_1_CheckWritable_m732350052_gshared
Fef:_Byte_System_IConvertible_ToDecimal_m1036493607
vga:__Z25GetSplashScreenBackgroundRK5RectTIfE
rba:__ZN14dense_hash_mapIPKcPK4RTTIN11TypeManager23ConstCharPtrHashFunctorENS5_19ConstCharPtrEqualToE13stl_allocatorINSt3__24pairIKS1_S4_EEL18MemLabelIdentifier6ELi16EEEixERSB_
VBe:__ZN13RuntimeStaticI19UnityConnectServiceLb0EE16StaticInitializeEPv
Xgk:_DefaultComparer_Compare_m1247109616_gshared
Yii:_ResourceManager__ctor_m498829021
TMa:__ZN18GlslGpuProgramGLESD2Ev
tab:__ZN13RenderTexture14SetVolumeDepthEi
p5d:__ZThn116_NK5physx7profile8ZoneImplINS_28PxProfileNameProviderForwardEE10hasClientsEv
jMd:__ZN5physx2Gu20pcmContactCapsuleBoxERKNS0_13GeometryUnionES3_RKNS_11PxTransformES6_RKfRNS0_5CacheERNS0_13ContactBufferE
t0h:__Z88RuntimeInvoker_Int32_t2071877448_UIVertex_t1204258818_UIVertex_t1204258818_RuntimeObjectPFvvEPK10MethodInfoPvPS4_
nlh:_SerializationCallbacks__ctor_m722356782
vyc:__ZN10Matrix4x4f8TransferI8JSONReadEEvRT_
Uxf:_StackTrace__ctor_m772333217
k2:__ZN17PersistentManager18ReadObjectThreadedEi
gEa:__ZN25TransformFeedbackSkinning31CleanupTransformFeedbackShadersEv
lul:__ZN6il2cpp6icalls8mscorlib6System7Runtime16CompilerServices14RuntimeHelpers15InitializeArrayEP11Il2CppArray12Il2CppIntPtr
iYa:__Z22scripting_object_unbox18ScriptingObjectPtr
Nde:__ZNK20TextRenderingPrivate8FontImpl19GetCharacterAdvanceEjijfPj
_zl:__ZN6il2cpp6icalls8mscorlib4Mono8Security12Cryptography18KeyPairPersistence16_IsUserProtectedEP12Il2CppString
X5g:_DefaultUriParser__ctor_m4218024811
S9h:_DerivedType_GetField_m3960169619
Vvf:_Decimal_System_IConvertible_ToInt16_m3159038792_AdjustorThunk
Nub:__ZN10VertexData8TransferI18StreamedBinaryReadILb0EEEEvRT_
gZc:__ZN5physx2Sc5Scene9addStaticERNS0_10StaticCoreEPKPvjj
Aig:_PKCS12_GetExistingParameters_m2413397265
fCk:_Nullable_1_get_Value_m1743067844_gshared
Fab:__ZN14PreloadManager16UpdatePreloadingEv
Fmb:__ZN14SafeBinaryRead21TransferSTLStyleArrayI19StaticArrayTransferIiLi4EEEEvRT_17TransferMetaFlags
Qyd:__ZN5physx2Sc5Scene9addShapesEPKPvjjRNS0_8RigidSimEPNS_12PxsRigidBodyERPNS0_8ShapeSimEPNS_9PxBounds3E
nkl:__ZNK15dense_hashtableINSt3__24pairIK10KeyWrapperINS1_IPKcS4_EEEiEES6_24NamespaceAndNamePairHashN14dense_hash_mapIS6_iS9_NS6_14EqualsComparerI26NamespaceAndNamePairEqualsEENS0_9allocatorIS8_EEE9SelectKeyESD_SF_E10test_emptyEj
nrl:__ZN14dense_hash_mapI10KeyWrapperIPK19Il2CppGenericMethodEP10MethodInfoN6il2cpp8metadata23Il2CppGenericMethodHashENS4_14EqualsComparerINS8_26Il2CppGenericMethodCompareEEENSt3__29allocatorINSD_4pairIKS4_S6_EEEEEC2EjRKS9_RKSC_
$Kd:__ZN5physx23PxcPCMContactConvexMeshERKNS_2Gu13GeometryUnionES3_RKNS_11PxTransformES6_RKfRNS_10PxcNpCacheERNS0_13ContactBufferE
Kfb:__ZNK21UnityDefaultAllocatorI17LowLevelAllocatorE8ContainsEPKv
Ai:_emscripten_get_main_loop_timing
W0f:_DirectoryInfo__ctor_m3750996792
WYe:_BaseMeshEffect_ModifyMesh_m2134816219
Htb:__ZN24GenerateTypeTreeTransfer21TransferSTLStyleArrayINSt3__26vectorIN15QualitySettings14QualitySettingENS1_9allocatorIS4_EEEEEEvRT_17TransferMetaFlags
fSf:_Array_InternalArray__get_Item_TisAnimatorClipInfo_t3905751349_m2163447872_gshared
qzb:__ZNSt3__26vectorI9InputAxisNS_9allocatorIS1_EEE6resizeEj
mZa:__ZN13BatchRendererC2ER15RenderLoopStatsRK15RenderNodeQueuebbb
NLe:_SecurityElement_IsValidAttributeValue_m483287146
_Yb:__ZNK2UI13RectTransform22GetTypeVirtualInternalEv
tq:getTempRet0
jLd:__ZN5physx2Gu33MultiplePersistentContactManifold24addManifoldContactPointsEPNS0_21MeshPersistentContactEjPPNS0_15PCMContactPatchEjRKNS_6shdfnd3aos6FloatVESB_h
w5e:_Image_AddQuad_m1603575622
rWg:_PrivateKeyInfo_RemoveLeadingZero_m3396807048
$fl:__ZN6il2cpp6icalls8mscorlib6System9ThreadingL21lookup_cached_cultureEP12Il2CppThreadi
O3a:__ZN18DeferredRenderLoopD2Ev
Wia:__ZNK16TypeTreeIterator4NameEv
j5:__ZN15FileSystemEntry3SetEPKc
cSd:__ZN5physx6shdfnd5ArrayIPNS_13PxcNpMemBlockENS0_19ReflectionAllocatorIS3_EEE6resizeEjRKS3_
dGe:_MACTripleDES__ctor_m884945242
mM:__ZN20SoundChannelInstance15ParameterBuffer5ApplyEPN4FMOD7ChannelE
Kde:__ZN20TextRenderingPrivate19NativeTextGenerator9InsertTabEv
hpk:_Rect_set_y_m4294916608
X4d:__ZN5physx7profile8ZoneImplINS_28PxProfileNameProviderForwardEE21setProfileZoneManagerEPNS_20PxProfileZoneManagerE
bze:__ZN11UnityEngine15PlatformWrapper24GetRuntimePlatformStringEv
jj:_glIsEnabled
$Lc:__ZN5physx3Cct17CapsuleController15setFootPositionERKNS_14PxExtendedVec3E
xJc:__ZN5physx2Gu33PCMCapsuleVsMeshContactGeneration13generateEEMTDERKNS_6shdfnd3aos5Vec3VES6_RKNS3_6FloatVES6_jS6_S6_PNS0_21MeshPersistentContactERj
_Db:__Z25scripting_class_get_image17ScriptingClassPtr
nj:_emscripten_glDrawElementsInstanced
By:__ZN26AnimatorControllerPlayable27SetupStateMachineBehavioursEv
TUg:_ARC4Managed_Dispose_m4102232694
lVg:_HMAC_Initialize_m3052649104
Ool:__GLOBAL__sub_I_Thread_cpp_38978
Iwa:__ZN18JobBatchDispatcherD2Ev
VYb:__ZN9Transform17MainThreadCleanupEv
vwl:_GC_clear_hdr_marks
xMl:_glScissor__wrapper
NSl:_emscripten_glCreateShader__wrapper
Lle:_cff_fd_select_get
bHi:__ZL73CompilationRelaxationsAttribute_t238494011_CustomAttributesCacheGeneratorP21CustomAttributesCache
tCe:__ZN11UnityEngine15PlatformWrapper23GetApplicationBuildGUIDEv
QJe:_SHA512Managed_processBlock_m3220567420
k5g:_NameObjectCollectionBase_get_Keys_m446053925
xj:_emscripten_glGetShaderiv
oN:__ZN4FMOD6System10getVersionEPj
ZSd:__ZN5physx2Sc7BodySim10sleepCheckEffb
GIf:_Array_InternalArray__IndexOf_TisSByte_t454417549_m1427585061_gshared
tre:__ZN2UI6Canvas23VirtualRedirectTransferER24GenerateTypeTreeTransfer
oof:_Decimal_u64_m3991988111
MCk:_Predicate_1_BeginInvoke_m2959352225_gshared
Etj:_Dictionary_2_CopyToCheck_m2147716750_gshared
Ezk:_X509Certificate_Parse_m1764345628
sce:__ZN13TextRendering4Font13AwakeFromLoadE17AwakeFromLoadMode
lSl:_emscripten_glCullFace__wrapper
cBa:__ZN9GfxDevice21ReleaseSharedMeshDataEP14SharedMeshData
fAb:__ZNSt3__27__sort5IRNS_6__lessINS_4pairIPKN5Unity4TypeE7Hash128EES8_EEPS8_EEjT0_SC_SC_SC_SC_T_
Imf:_Enumerator_Reset_m466659019
Cvl:_GC_unreachable_finalize_mark_proc
Jg:___syscall192
YZh:__Z70RuntimeInvoker_Single_t2076509932_Int32_t2071877448_Single_t2076509932PFvvEPK10MethodInfoPvPS4_
Fk:_emscripten_glGetProgramiv
X3j:_ConstructionCall_GetObjectData_m3974358557
Sjc:__Z43RectTransform_CUSTOM_INTERNAL_get_anchorMaxP12Il2CppObjectP13Vector2fIcall
nFh:__Z50RuntimeInvoker_Void_t1841601450_Single_t2076509932PFvvEPK10MethodInfoPvPS4_
C5c:__ZN5physx14NpShapeManagerC2Ev
Zla:__ZN8Material28UpdateHashesOnPropertyChangeEN9ShaderLab16FastPropertyNameE
Ekc:__Z53Register_UnityEngine_SortingLayer_GetLayerValueFromIDv
Njf:_CaseInsensitiveComparer_Compare_m1192858479
oGb:__Z18Transfer_BlittableI14SafeBinaryReadLb1E8Vector4fEvRK29SerializationCommandArgumentsR31RuntimeSerializationCommandInfo
R9e:_LayoutRebuilder_Clear_m2390054824
lDa:__ZN13GfxDeviceGLES20SetComputeBufferDataE15ComputeBufferIDPKvjj
c8h:_Default_SelectMethod_m622251293
xt:__ZN8Animator23VirtualRedirectTransferER19StreamedBinaryWriteILb0EE
fA:__ZN11UnityEngine9Animation32CreateAnimatorGenericBindingsOptERKNS0_20AnimationSetBindingsER9TransformPKN7mecanim9animation14AvatarConstantEPKNS0_21AvatarBindingConstantEbRNS6_6memory9AllocatorER8Animator
bkl:__ZN6il2cpp2vm5Image13ClassFromNameEPK11Il2CppImagePKcS6_
aIl:dynCall_vdddddd
bWb:__ZN24GenerateTypeTreeTransfer21TransferSTLStyleArrayINSt3__26vectorIN9ShaderLab14SerializedPassENS1_9allocatorIS4_EEEEEEvRT_17TransferMetaFlags
e1:__ZL32MarkLevelGameManagerDependenciesR27GarbageCollectorThreadState
sDa:__ZNK13GfxDeviceGLES26HasActiveRandomWriteTargetEv
bEe:__ZN20UnityWebRequestProtoI19TransportJavaScript16AtomicRefCounter14RedirectHelper14ResponseHelper15DownloadHandler13UploadHandler12HeaderHelper14AsyncOperationE5BeginEv
oNl:_glGetActiveUniformsiv__wrapper
Bkc:__Z43Register_UnityEngine_Material_EnableKeywordv
vBc:__ZNK5physx3Cct10Controller16getInternalStateERNS_17PxControllerStateE
o3:__ZN13MonoBehaviour19SetupScriptingCacheE17ScriptingClassPtrP10MonoScript
HSk:__ZL9rshift128PyS_
As:__Z20AnimationEventToMonoRK14AnimationEventR18MonoAnimationEvent
$lj:_ShimEnumerator_get_Current_m3610131784_gshared
Qxd:__ZN5physx10PxsContext15setScratchBlockEPvj
qRh:__Z132RuntimeInvoker_Void_t1841601450_Vector3U26_t425862308_Vector3U26_t425862308_ColorU26_t3402129837_Single_t2076509932_SByte_t454417549PFvvEPK10MethodInfoPvPS4_
F9i:__ZL74UnityEventBase_t828812576_CustomAttributesCacheGenerator_m_PersistentCallsP21CustomAttributesCache
kaa:__ZZN15DirectorManager15InitializeClassEvEN52PreLateUpdateDirectorUpdateAnimationBeginRegistrator7ForwardEv
ail:__ZN6il2cpp2vm13LivenessState18ShouldProcessValueEP12Il2CppObjectP11Il2CppClass
Zai:_EnumBuilder_GetElementType_m1228393631
vQc:__ZN5physx2Cm27getDynamicGlobalPoseAlignedERKNS_11PxTransformES3_S3_RS1_
xwi:_PlayableHandle_GetInputCountInternal_m2692879798
zVb:__ZNSt3__26vectorIN9ShaderLab14SerializedPassENS_9allocatorIS2_EEE8__appendEj
HYd:__ZN5physx6shdfnd5ArrayIPvNS0_19ReflectionAllocatorIN17PxcPoolMallocData10PoolData32EEEE15growAndPushBackERKS2_
RUb:__ZNSt3__26vectorIN9ShaderLab20SerializedSubProgram13BufferBindingENS_9allocatorIS3_EEEC2INS_11__wrap_iterIPS3_EEEET_SB_RKS5_PNS_9enable_ifIXaasr21__is_forward_iteratorISB_EE5valuesr16is_constructibleIS3_NS_15iterator_traitsISB_E9referenceEEE5valueEvE4typeE
o4b:__ZZL23RegisterLightPropertiesR22GenericPropertyBindingEN20Wrapper_LightColorb213GetFloatValueEPv
e_h:__Z133RuntimeInvoker_RuntimeObject_Vector2_t2243707579_Vector2_t2243707579_Single_t2076509932_Int32_t2071877448_RuntimeObject_RuntimeObjectPFvvEPK10MethodInfoPvPS4_
Pqb:__ZN9Texture2D23VirtualRedirectTransferER18StreamedBinaryReadILb0EE
Cyf:_Double_System_IConvertible_ToUInt16_m286326038_AdjustorThunk
xjh:_TypeInfo__ctor_m1475908211
xib:__ZNSt3__26__treeINS_12__value_typeIN4core12basic_stringIcNS2_20StringStorageDefaultIcEEEEjEENS_19__map_value_compareIS6_S7_NS_4lessIS6_EELb1EEE13stl_allocatorIS7_L18MemLabelIdentifier6ELi16EEE7destroyEPNS_11__tree_nodeIS7_PvEE
W3:__ZN16ScriptingManager27NativeTypeForScriptingClassE17ScriptingClassPtr
wah:_X509Chain_WrapUp_m1072032285
_Ak:_X509CertificateEnumerator_System_Collections_IEnumerator_MoveNext_m1448966539
Nie:_get_sfnt_table
SEg:_Collection_1_IsSynchronized_m3261594010_gshared
gpi:_GUIStyle_GetNumCharactersThatFitWithinWidth_m3760066083
s$b:__Z13RegisterClassI5LightEvv
FVe:_PointerEventData_set_pressPosition_m2094137883
Loh:_DES_get_Key_m2584608215
a5a:__ZL22ScheduleSceneNodesJobsP25ScheduleSceneNodesJobDataj
tGd:__ZN5physx22concludeContactCoulombERKNS_23PxcSolverConstraintDescERNS_16PxcSolverContextE
ml:_emscripten_set_canvas_size
Ohd:__ZNK5physx15NpParticleFluid12getStiffnessEv
flf:_Hashtable__ctor_m741952536
nik:_Comparer_1__cctor_m2253684996_gshared
hVb:__ZNSt3__26vectorIN9ShaderLab20SerializedSubProgramENS_9allocatorIS2_EEE8__appendEj
UZ:__ZN20DynamicHeapAllocatorI17LowLevelAllocatorE8AllocateEji
exe:__ZN11UnityEngine9Analytics15UserCustomEvent12ToJsonStringER9JSONWrite
OZa:__ZN20DynamicPropertySheet15SetVectorQueuedERKN9ShaderLab16FastPropertyNameERK8Vector4fN19ShaderPropertySheet8SetFlagsE
BQe:_String_Format_m1263743648
vPg:_ReadOnlyCollection_1_System_Collections_IEnumerable_GetEnumerator_m4248982967_gshared
gB:__ZN7mecanim9animation22EvaluateAvatarRetargetEPKNS0_14AvatarConstantEPKNS0_11AvatarInputEPNS0_12AvatarOutputEPNS0_12AvatarMemoryEPNS0_15AvatarWorkspaceEb
Inb:__ZN14RenderSettings23VirtualRedirectTransferER19StreamedBinaryWriteILb0EE
Juc:__ZL26Transfer_SimpleNativeClassI9JSONWrite10RectOffsetLb0EEvRK29SerializationCommandArgumentsR31RuntimeSerializationCommandInfo
rxe:__ZN21UnityAnalyticsManager23VirtualRedirectTransferER24GenerateTypeTreeTransfer
FGa:__ZN17GenericDynamicVBO10AllocateVBEjR21DynamicVBOChunkHandle
trg:_List_1_get_Item_m1547593893_gshared
Fsl:__ZN4utf88internal14get_sequence_4IPKcEENS0_9utf_errorERT_S5_Rj
H0f:_Path_GetPathRoot_m1269357080
zKd:__ZL27PxcTestFacesSepAxesBackfaceRKN5physx2Gu13PolygonalDataES3_RKNS_2Cm8Matrix34ES7_RKNS4_23FastVertex2ShapeScalingESA_S7_RKNS_6PxVec3ERfRSB_RjPjSG_fSD_
Cll:__ZN30dense_hashtable_const_iteratorI10KeyWrapperIP18Il2CppGenericClassES3_N6il2cpp8metadata22Il2CppGenericClassHashEN14dense_hash_setIS3_S6_NS3_14EqualsComparerINS5_25Il2CppGenericClassCompareEEENSt3__29allocatorIS3_EEE8IdentityESA_SD_EppEv
WTe:_EventSystem_SetSelectedGameObject_m2211816110
z_k:__ZNK15dense_hashtableI10KeyWrapperIPK17Il2CppGenericInstES4_N6il2cpp8metadata21Il2CppGenericInstHashEN14dense_hash_setIS4_S7_NS4_14EqualsComparerINS6_24Il2CppGenericInstCompareEEENSt3__29allocatorIS4_EEE8IdentityESB_SE_E4findERKS4_
Kl:_glMapBufferRange
Hqb:__ZN9Texture2D8TransferI18StreamedBinaryReadILb0EEEEvRT_
qhc:__Z31Input_CUSTOM_GetMouseButtonDowni
ujc:__Z75Register_UnityEngine_Playables_PlayableHandle_INTERNAL_CALL_IsValidInternalv
K6b:__ZN13PlayableGraph4PlayEv
$cd:__ZNK5physx7NpCloth23getExternalAccelerationEv
IXa:__ZNK9Transform16GetLocalPositionEv
Rxa:__ZN13LoadOperation19IntegrateTimeSlicedEi
M4j:_ArrayReadOnlyList_1_get_Item_m176001975_gshared
THd:__ZN5physx16PxsBroadPhaseMBP9updatePPUEPNS_10PxBaseTaskE
fjg:_X501__cctor_m3795360380
DDa:__ZN13GfxDeviceGLES22DispatchComputeProgramE12ObjectHandleI18ComputeProgram_TagPvE15ComputeBufferIDj
Epi:_GUIStyle_set_contentOffset_m2138084868
WEg:_Collection_1_System_Collections_ICollection_CopyTo_m4193844941_gshared
arf:_Convert_ToInt32_m2297793940
Zva:__Z17TransformAABBSlowRK4AABBRK10Matrix4x4fRS_
Crb:__ZN15SerializeTraitsI13dynamic_arrayI7Hash128Lj8EEE19ResizeSTLStyleArrayERS2_i18MemLabelIdentifier
Qcl:__ZN13Il2CppHashMapINSt3__24pairIPK9FieldInfoP11Il2CppClassEEj17ReflectionMapHashIS7_ENS0_8equal_toIS7_EENS0_9allocatorINS1_IK10KeyWrapperIS7_EjEEEEEC2EjRKS9_RKSB_
TTb:__ZN9ShaderLab21SerializedShaderState8TransferI14SafeBinaryReadEEvRT_
$El:_ftruncate
PIe:_RSAPKCS1SignatureFormatter_SetKey_m2365816458
Ime:_cf2_stack_pushInt
Xjd:__ZN5physx6shdfnd8PoolBaseINS_16NpParticleSystemENS0_19ReflectionAllocatorIS2_EEE12allocateSlabEv
wth:_CompressedStack__ctor_m276924800
jVe:_ExecuteEvents_get_cancelHandler_m1964324668
fna:__ZN15SerializeTraitsINSt3__24pairIN4core12basic_stringIcNS2_20StringStorageDefaultIcEEEES6_EEE8TransferI24GenerateTypeTreeTransferEEvRS7_RT_
isi:_Matrix4x4__ctor_m2771358574_AdjustorThunk
yNl:b81
xNl:b80
KKa:__ZN7ApiGLES19CreateSparseTextureEjj14GraphicsFormatiiiiRiS1_S1_
A4:__ZN18ResourceImageGroup7CleanupEv
MOl:b85
jTc:__ZN5physx2Gu36closestPtPointTetrahedronTesselationEPNS_6shdfnd3aos5Vec3VES4_S4_RjRS3_S6_
OOl:b87
NOl:b86
OKd:__ZN5physx25PxcPCMContactSphereConvexERKNS_2Gu13GeometryUnionES3_RKNS_11PxTransformES6_RKfRNS_10PxcNpCacheERNS0_13ContactBufferE
W3b:__ZN13ProduceHelperI4MeshLb0EE7ProduceE18MemLabelIdentifier18ObjectCreationMode
pWg:_PrivateKeyInfo_Decode_m1053025782
iig:_PKCS12_Decrypt_m2457743414
uob:__ZN8Playable19SetOutputConnectionEPS_i
xWk:__ZN15dense_hashtableINSt3__24pairIK10KeyWrapperIPK11Il2CppClassEPKcEES6_N6il2cpp5utils11PointerHashIS3_EEN14dense_hash_mapIS6_S9_SE_NS6_14EqualsComparerINS0_8equal_toIS5_EEEENS0_9allocatorISA_EEE9SelectKeyESJ_SL_EC2ERKSO_j
ym:_glDeleteShader
jM:__ZN11SoundHandle8Instance15UpdateLoadStateEv
sAf:_Exception_GetType_m3898489832
zqa:__ZN6prcoreL17RemapGenericFloatI15TexFormatRGHalf16TexFormatRGFloatEEvPKNS_9InnerInfoE
T7c:__ZN5physx6shdfnd8PoolBaseINS_10NpMaterialENS0_19ReflectionAllocatorIS2_EEE15disposeElementsEv
XBg:_Stack_1_Peek_m1548778538_gshared
Umg:_Enumerator_System_Collections_IEnumerator_get_Current_m2408426667_AdjustorThunk
HWj:_Shadow_set_effectColor_m3110056844
Occ:__Z27scripting_add_internal_callPKcPKv
nMf:_Array_InternalArray__Insert_TisUriScheme_t1876590943_m2728325409_gshared
Acl:__ZN13Il2CppHashMapINSt3__24pairIPK9EventInfoP11Il2CppClassEEj17ReflectionMapHashIS7_ENS0_8equal_toIS7_EENS0_9allocatorINS1_IK10KeyWrapperIS7_EjEEEEEC2EjRKS9_RKSB_
gml:__GLOBAL__sub_I_GarbageCollector_cpp
OCc:__ZL21ContactReductionAllInRN5physx2Gu13ContactBufferEjjRKNS_7PxMat33EPKNS_6PxVec3EPKh
lBk:_X509Store_CheckStore_m1027496478
Ot:__ZN26AnimatorControllerPlayable18SetLayerAutoWeightEv
gc:invoke_vffff
BFl:__ZNSt3__212basic_stringIcNS_11char_traitsIcEENS_9allocatorIcEEEC2ERKS5_jjRKS4_
kQe:_String_Contains_m4017059963
Bgk:_DefaultComparer_Compare_m1606207039_gshared
Gte:__ZN2UI14CanvasRenderer12SyncMaterialENS0_8SyncFlagE
Nzl:__ZN6il2cpp2vm9Parameter30GetDefaultParameterValueObjectEPK10MethodInfoPK13ParameterInfoPb
I_b:__ZN15dense_hashtableINSt3__24pairIKN4core12basic_stringIcNS2_20StringStorageDefaultIcEEEE10vector_setI4PPtrI11SpriteAtlasENS0_4lessISB_EE13stl_allocatorISB_L18MemLabelIdentifier79ELi16EEEEES6_20StringHash32FunctionIS6_EN14dense_hash_mapIS6_SH_SK_NS0_8equal_toIS6_EESE_ISI_LSF_79ELi16EEE9SelectKeyESN_SO_E12maybe_shrinkEv
dNf:_Array_InternalArray__set_Item_TisLabelData_t3712112744_m2253365137_gshared
tti:_MonoBehaviour_Invoke_m666563676
zwf:_Decimal_decimalDiv_m900036616
Y4f:_StringReader__ctor_m643998729
S6g:_IPv6Address_TryParse_m2220524278
Eie:_UNITY_tt_face_done_kern
R1j:_Context_get_DefaultContext_m2211922324
mrc:__Z59GUIStyle_CUSTOM_Internal_GetNumCharactersThatFitWithinWidth13Il2Cpp_IntPtrP12Il2CppStringf
Ywb:__ZN12BoneWeights48TransferI24GenerateTypeTreeTransferEEvRT_
GWg:_RSAManaged_GetPaddedValue_m2972141669
nH:__Z62AnimationPlayableOutput_CUSTOM_INTERNAL_CALL_InternalSetTargetR15HPlayableOutputP12Il2CppObject
Ifa:__Z19scripting_gc_enablev
JDe:__ZN20UnityWebRequestProtoI19TransportJavaScript16AtomicRefCounter14RedirectHelper14ResponseHelper15DownloadHandler13UploadHandler12HeaderHelper14AsyncOperationE9DoRequestEv
rTa:__ZZ23InitPlayerLoopCallbacksvEN41InitializationPlayerUpdateTimeRegistrator7ForwardEv
ylk:_AnchorInfo__ctor_m617409099
e6d:__ZN5physx7profile11EventBufferINS_24PxDefaultContextProviderENS_6shdfnd6MutexTINS0_26WrapperReflectionAllocatorIhEEEENS0_14ScopedLockImplIS7_EENS_24PxProfileNullEventFilterEE9stopEventEty
Ave:__Z55Register_UnityEngine_CanvasRenderer_DisableRectClippingv
Reh:_Interval_CompareTo_m2909556284_AdjustorThunk
rwb:__ZN14SafeBinaryRead21TransferSTLStyleArrayI13dynamic_arrayI11ColorRGBA32Lj4EEEEvRT_17TransferMetaFlags
iHj:_AudioClip_get_length_m3881628918
Idh:_Interpreter_GetLastDefined_m2450713313
Pkk:_Parser_ParseAssertionType_m3316669790
DXb:__ZN9ShaderLab7Program27CreateFromSerializedProgramERKNS_17SerializedProgramE10ShaderTypeiP16PropertyNamesSetPK6Shader
iWj:_Selectable_get_isPointerDown_m774209881
PYb:__ZNSt3__27__sort4IRNS_6__lessIN4core12basic_stringIcNS2_20StringStorageDefaultIcEEEES6_EEPS6_EEjT0_SA_SA_SA_T_
HIl:dynCall_viiiifii
cbl:__ZN6il2cpp2gc19AppendOnlyGCHashMapINSt3__24pairIPK11Il2CppImageP11Il2CppClassEEP22Il2CppReflectionModule17ReflectionMapHashIS9_ENS2_8equal_toIS9_EEEC2Ev
h2:__Z20GetPersistentManagerv
Vpe:_UNITY_TT_Set_Var_Design
_ca:__ZN21SystemInfoStringCache16StaticInitializeEPv
bYg:_TlsStream__ctor_m4117943603
R7k:__ZN15dense_hashtableINSt3__24pairIK10KeyWrapperIPK10Il2CppTypeEjEES6_N6il2cpp8metadata14Il2CppTypeHashEN14dense_hash_mapIS6_jSB_NS6_14EqualsComparerINSA_26Il2CppTypeEqualityComparerEEENS0_9allocatorIS8_EEE9SelectKeyESF_SH_E12maybe_shrinkEv
gNf:_Array_InternalArray__set_Item_TisParameterModifier_t1820634920_m3126548327_gshared
QRc:__ZN5physx2Sc7BodySim18internalWakeUpBaseEf
Gql:__ZN6il2cpp2gc16GarbageCollector23MakeDescriptorForObjectEPji
xii:_ParameterModifier_t1820634920_marshal_pinvoke
aDb:__ZNK13MonoBehaviour7GetNameEv
hsa:__ZN19ScriptingInvocation28AdjustArgumentsToMatchMethodEv
Oll:__ZN15dense_hashtableI10KeyWrapperIP18Il2CppGenericClassES3_N6il2cpp8metadata22Il2CppGenericClassHashEN14dense_hash_setIS3_S6_NS3_14EqualsComparerINS5_25Il2CppGenericClassCompareEEENSt3__29allocatorIS3_EEE8IdentityESA_SD_E6insertERKS3_
$P:__Z15_CheckFMODError11FMOD_RESULTPKciS1_
tlb:__Z20RenderMultipleMeshesRK15RenderNodeQueueRK18RenderMultipleData17ShaderChannelMask
Z5k:__ZN6il2cpp2vm4Type19GetGenericParameterEPK10Il2CppType
ave:__Z51Register_UnityEngine_CanvasGroup_get_blocksRaycastsv
Wek:_InternalEnumerator_1_get_Current_m2826780083_gshared
cRl:b119
c2j:_Context_UnregisterDynamicProperty_m4064851633
syc:__ZN8JSONRead21TransferSTLStyleArrayI13dynamic_arrayI11ColorRGBA32Lj4EEEEvRT_18MemLabelIdentifier17TransferMetaFlags
YVd:__ZN5physx13BigConvexData5VLoadERNS_13PxInputStreamE
l9k:__ZNK15dense_hashtableINSt3__24pairIK10KeyWrapperINS1_IPK11Il2CppImageP11Il2CppClassEEEjEES9_17ReflectionMapHashIS8_EN14dense_hash_mapIS9_jSD_NS9_14EqualsComparerINS0_8equal_toIS8_EEEENS0_9allocatorISB_EEE9SelectKeyESI_SK_E3endEv
be:_glBeginQuery
S6h:_Assembly_GetCustomAttributes_m95309865
_ki:_GUILayoutUtility_INTERNAL_CALL_Internal_GetWindowRect_m3236664463
_zd:__ZN5physx11NodeManager6resizeEj
kVa:__ZN6Camera12RenderStereoENS_10RenderFlagE8CullFlagPNS_24PerformEyeRenderFunctionE
RUg:_RC4__ctor_m1585026462
Zda:__ZN20LocalFileSystemPosix10ToAbsoluteEPKc
jlb:__ZN20TierGraphicsSettings8TransferI19StreamedBinaryWriteILb0EEEEvRT_
zbk:_InternalEnumerator_1_get_Current_m2286118957_AdjustorThunk
HIf:_Array_InternalArray__IndexOf_TisX509ChainStatus_t4278378721_m1338369069_gshared
ytd:__ZNK5physx7NpScene28getSceneQueryStaticTimestampEv
gn:f0
Thf:_ArrayListWrapper_set_Capacity_m2792463350
SDl:_getcwd
Q2d:__ZNSt3__26vectorI9CollisionNS_9allocatorIS1_EEE21__push_back_slow_pathIKS1_EEvRT_
hCj:_AnimatorControllerPlayable_GetBool_m3606320557
tfb:__ZN25ThreadsafeLinearAllocatorD2Ev
zBd:__ZN5physx2Sq10AABBPruner11preallocateEj
fga:__Z21SendMessageToEveryoneRK17MessageIdentifier11MessageData
XPl:b116
h8:__ZN21BillboardBatchManager16StaticInitializeEPv
Gni:_Object_get_name_m2079638459
b$:__ZN12_GLOBAL__N_138ArchiveRedirectFileSystemStaticDestroyEPv
jAf:_EventHandler_Invoke_m1137722757
spb:__ZN12CubemapArray34UpdateFileTextureUploadInstructionEP26FileAssetUploadInstructionj
Zqd:__ZN5physx2Sc19ShapeInstancePairLLC2ERNS0_8ShapeSimES3_RNS0_9ActorPairENS_7PxFlagsINS_10PxPairFlag4EnumEtEE
u8f:_MonoType_IsSubclassOf_m2211166238
Ffl:__ZN6il2cpp6icalls8mscorlib6System5Array9GetLengthEP11Il2CppArrayi
re:_emscripten_glUniform3iv
sGg:_Collection_1_System_Collections_ICollection_CopyTo_m2859266050_gshared
JKa:__Z23CreateSparseTextureGLES9TextureIDii14GraphicsFormati
Fwl:_GC_continue_reclaim
Rhf:_ArrayListWrapper_get_Count_m2207944952
bch:_X509ChainElementCollection_System_Collections_IEnumerable_GetEnumerator_m2559704689
r9g:_PublicKey_get_Key_m126090744
Dee:__ZNSt3__23mapIN20TextRenderingPrivate7FontRefEP11FT_FaceRec_NS_4lessIS2_EENS_9allocatorINS_4pairIKS2_S4_EEEEEixERS9_
mPa:__ZN17ArchiveFileSystem10AddStorageEP20ArchiveStorageReader
Kfd:__ZN5physx2Sc9ClothCore16setStretchConfigENS_22PxClothFabricPhaseType4EnumERKNS_20PxClothStretchConfigE
GMj:_Color_Equals_m661618137
nLj:_CanvasRenderer_SplitIndicesStreamsInternal_m817541557
_7d:_PxCreateFoundation
mwj:_EqualityComparer_1_System_Collections_IEqualityComparer_GetHashCode_m1203798961_gshared
AUk:__ZN6il2cpp2vm5Class15GetEnumBaseTypeEP11Il2CppClass
ivi:_Physics_Raycast_m2009151399
$pb:__ZNK9Texture2D16GetNpotTexelSizeEv
FQj:_Mask_get_rectTransform_m3304369086
nvk:_TooltipAttribute__ctor_m2640804852
L8d:__ZN13dynamic_arrayItLj2EE6insertEPtPKtS3_
KGa:__ZN9GfxDevice22GetDefaultVertexBufferE26GfxDefaultVertexBufferTypej
UEg:_Collection_1__ctor_m3903788797_gshared
SOg:_ReadOnlyCollection_1_System_Collections_ICollection_CopyTo_m1129689124_gshared
iEl:___fseeko_unlocked
qPl:_glGetActiveUniform__wrapper
aEl:_sscanf
iOc:__ZN5physx3Cct17CapsuleControllerC2ERKNS_16PxControllerDescERNS_9PxPhysicsEPNS_7PxSceneE
Lwb:__ZN14SafeBinaryRead21TransferSTLStyleArrayINSt3__26vectorI17BlendShapeChannelNS1_9allocatorIS3_EEEEEEvRT_17TransferMetaFlags
voa:__Z17BeginSplashScreenv
JNj:_ControllerColliderHit_get_moveDirection_m3053186297
OWb:__ZN9ShaderLab16SerializedShader8TransferI19StreamedBinaryWriteILb0EEEEvRT_
ozh:_UInt32_Parse_m2400360707
yD:__ZN7mecanim9animation18CreateAvatarMemoryEPKNS0_14AvatarConstantERNS_6memory9AllocatorE
Bnf:_Stack_Pop_m3788808882
Ujj:_Enumerator_VerifyCurrent_m4246196125_AdjustorThunk
Auf:_DateTime_op_Equality_m1867073872
qC:__ZN7mecanim8skeleton16SkeletonPoseCopyIN4math4trsXENS2_7affineXEEEvPKNS0_13SkeletonPoseTIT_EEPNS5_IT0_EE
pGa:__ZN18GfxFramebufferGLES18GetFramebufferNameERK20GfxRenderTargetSetup
m5k:__ZN6il2cpp2vm14TypeNameParser12ParseVersionERKNSt3__212basic_stringIcNS2_11char_traitsIcEENS2_9allocatorIcEEEERtSB_SB_SB_
uil:__ZN6il2cpp6icalls8mscorlib6System2IO6MonoIO11GetFileTypeE12Il2CppIntPtrPi
Opc:__Z30Event_Get_Custom_PropCharacterP12Il2CppObject
L9:__ZN13PlayableGraph27SchedulePlayableDestructionERK9HPlayable
tKc:__ZN5physx6shdfnd5ArrayINS_12PxDebugPointENS0_19ReflectionAllocatorIS2_EEE15growAndPushBackERKS2_
rMl:_glGetFramebufferAttachmentParameteriv__wrapper
JCe:__Z13RegisterClassI20UnityConnectSettingsEvv
kHb:__Z22scripting_array_length17ScriptingArrayPtr
JLe:_SecurityElement_GetAttribute_m4288291176
dfk:_InternalEnumerator_1_System_Collections_IEnumerator_get_Current_m2389982234_gshared
U0d:__ZN8Collider13AwakeFromLoadE17AwakeFromLoadMode
zGk:_IndexedSet_1_get_Count_m2839545138_gshared
yva:__ZN14SafeBinaryRead20TransferTypelessDataEjPvi
wji:_RenderPipelineManager_get_currentPipeline_m679160301
bpd:__ZN5physx6shdfnd13ReadWriteLockC2Ev
Btc:__ZN9rapidjson13GenericReaderINS_4UTF8IcEES2_13JSONAllocatorE10ParseFalseILj1ENS_25GenericInsituStringStreamIS2_EENS_15GenericDocumentIS2_S3_S3_EEEEvRT0_RT1_
Wzj:_AnimationClipPlayable_INTERNAL_CALL_SetApplyFootIKInternal_m4116451205
GP:__ZN13dynamic_arrayI12SoundChannelLj4EE9push_backERKS0_
R$:__Z19GetActiveColorSpacev
Fwj:_EqualityComparer_1__cctor_m1672307556_gshared
Shh:_SoapTypeAttribute_get_IsInteropXmlElement_m2941294827
Uyb:__ZN14SpriteRenderer18UpdateCachedSpriteEv
dog:_Enumerator_System_Collections_IEnumerator_get_Current_m3542273247_gshared
igf:_Char_System_IConvertible_ToUInt32_m1557991717_AdjustorThunk
Eqh:_Encoding_get_UTF8Unmarked_m628720656
oUf:_NumberFormatter_RoundBits_m1545255255
y0:__Z6StrCmpPKcS0_
lYb:__Z21CheckGpuProgramUsable20ShaderGpuProgramType
N7h:_Binder__cctor_m3736115807
Ypl:__ZN6il2cpp2os9Directory20GetFileSystemEntriesERKNSt3__212basic_stringIcNS2_11char_traitsIcEENS2_9allocatorIcEEEESA_iiPi
p0h:__Z84RuntimeInvoker_Int32_t2071877448_Color32_t874517518_Color32_t874517518_RuntimeObjectPFvvEPK10MethodInfoPvPS4_
s4c:__ZN5physx6shdfnd5ArrayIPvNS0_19ReflectionAllocatorINS_2Cm5BlockIhLj128EEEEEE4copyINS0_15InlineAllocatorILj256ES7_EEEEvRKNS1_IS2_T_EE
Cde:__ZN20TextRenderingPrivate19NativeTextGenerator5SetupEv
Z7c:__ZN5physx6shdfnd8PoolBaseINS_16NpConnectorArrayENS0_19ReflectionAllocatorIS2_EEE15disposeElementsEv
WAb:__ZN12AspectRatios8TransferI18StreamedBinaryReadILb0EEEEvRT_
h9d:__ZN14PhysicsManager19CreatePvdConnectionEv
d6b:__ZN10GameObject14CopyPropertiesERS_
Rrc:__Z44Register_UnityEngine_GUIStyle_get_fixedWidthv
iIe:_RSACryptoServiceProvider_Common_m2581564813
Mzk:_X509CertificateEnumerator_MoveNext_m4060814498
QDj:_AnimatorControllerPlayable_INTERNAL_CALL_GetCurrentAnimatorClipInfoInternal_m3360626147
Y2f:_MemoryStream_CheckIfClosedThrowDisposed_m2253054610
i5j:_ArrayReadOnlyList_1_GetEnumerator_m634288642_gshared
abb:__ZNK13ScreenManager12IsFullScreenEv
DEl:_rand
UMl:_emscripten_glFramebufferRenderbuffer__wrapper
P7j:_InternalEnumerator_1_get_Current_m2345377791_AdjustorThunk
g7c:__ZNK5physx12NpConstraint9getActorsERPNS_12PxRigidActorES3_
Uql:__ZN6il2cpp5utils9PathUtils7CombineIcEENSt3__212basic_stringIT_NS3_11char_traitsIS5_EENS3_9allocatorIS5_EEEERKNS0_10StringViewIS5_EERKSA_
_Hb:__ZN14SafeBinaryRead21TransferSTLStyleArrayINSt3__26vectorI17AnimationCurveTplIfE13stl_allocatorIS4_L18MemLabelIdentifier1ELi16EEEEEEvRT_17TransferMetaFlags
sec:__Z60Register_UnityEngine_AsyncOperation_set_allowSceneActivationv
BYd:__ZN5physx6shdfnd8PoolBaseIN17PxcPoolMallocData10PoolData16ENS0_19ReflectionAllocatorIS3_EEE15disposeElementsEv
z0d:__ZN9Rigidbody23UpdateInterpolationNodeEv
Jkh:_ObjectManager_RegisterObject_m872610295
I4a:__Z22PrepareOptimizedPlanesPK5PlaneiPKN4math7_float4E
eqk:_RectOffset_t3387826427_marshal_pinvoke
C2e:_Graphic_SetVerticesDirty_m1607014370
vY:__ZN11UnityEngine15CloudWebService17WebFileDownloaderINS0_20WebRequestRestClientENS0_23WebRequestRestHeaderMapEE10InitializeERKN4core12basic_stringIcNS5_20StringStorageDefaultIcEEEE
f8:__ZN17UniqueIDGenerator15CreatePureIndexEv
lsc:__Z59Register_UnityEngine_GUIStyle_Internal_GetCursorFlashOffsetv
it:__ZN11UnityEngine9Animation28GenericAnimationBindingCache15DidReloadDomainEv
tkg:_AppDomain_InternalGetProcessGuid_m1278588156
R7e:_InputField_MoveRight_m386206014
Wvk:_Transform_set_eulerAngles_m2881310872
vGh:__Z116RuntimeInvoker_Boolean_t3825574718_RuntimeObject_Int32_t2071877448_RuntimeObject_Int32_t2071877448_Int32_t2071877448PFvvEPK10MethodInfoPvPS4_
Z$f:_BinaryReader_ReadBoolean_m2892291883
QTk:__ZN15dense_hashtableINSt3__24pairIK10KeyWrapperIPK22Il2CppGenericParameterEP11Il2CppClassEES6_N6il2cpp5utils11PointerHashIS4_EEN14dense_hash_mapIS6_S9_SE_NS6_14EqualsComparerINS0_8equal_toIS5_EEEENS0_9allocatorISA_EEE9SelectKeyESJ_SL_E14squash_deletedEv
IBb:__ZNSt3__26__treeINS_12__value_typeIN4core12basic_stringIcNS2_20StringStorageDefaultIcEEEE4PPtrI6ObjectEEENS_19__map_value_compareIS6_SA_NS_4lessIS6_EELb1EEE13stl_allocatorISA_L18MemLabelIdentifier51ELi16EEE7destroyEPNS_11__tree_nodeISA_PvEE
uWh:__Z139RuntimeInvoker_Void_t1841601450_IntPtr_t_Rect_t3681755626_RuntimeObject_SByte_t454417549_SByte_t454417549_SByte_t454417549_SByte_t454417549PFvvEPK10MethodInfoPvPS4_
z4b:__ZZL23RegisterLightPropertiesR22GenericPropertyBindingEN18Wrapper_LightRange13SetFloatValueEPvf
$$g:_TlsServerCertificate_validateCertificates_m1988583701
pnk:_Uri__ctor_m3927533881
f0:__ZNK9Transform18TransformDirectionERK8Vector3f
uUd:__ZN5physx21PxsBodyTransformVault6updateEv
Ili:_GUILayoutEntry_SetHorizontal_m1828181654
nSl:_emscripten_glClearStencil__wrapper
nCc:__ZL29GeomMTDCallback_CapsuleConvexRN5physx6PxVec3ERfRKNS_10PxGeometryERKNS_11PxTransformES5_S8_
l_k:__ZN15dense_hashtableINSt3__24pairIK10KeyWrapperIPK11Il2CppClassEPKcEES6_N6il2cpp5utils11PointerHashIS3_EEN14dense_hash_mapIS6_S9_SE_NS6_14EqualsComparerINS0_8equal_toIS5_EEEENS0_9allocatorISA_EEE9SelectKeyESJ_SL_E12resize_deltaEjj
mGl:__ZNK10__cxxabiv120__si_class_type_info27has_unambiguous_public_baseEPNS_19__dynamic_cast_infoEPvi
yKl:_glTexSubImage3D__wrapper
ddh:_FactoryCache_Add_m2602974721
JGa:__Z30AddDefaultStreamsToMeshBuffersR9GfxDeviceR11MeshBuffersj17ShaderChannelMaskS3_
d7:__ZL16GetInterfaceImpl18UnityInterfaceGUID
jWf:_RegionInfo_construct_internal_region_from_name_m3316088619
TUk:__ZN6il2cpp2vmL17SetupFieldOffsetsENS0_15FieldLayoutKindEP11Il2CppClassjRKNSt3__26vectorIjNS4_9allocatorIjEEEE
Spg:_List_1_System_Collections_IList_get_Item_m936612973_gshared
Nsl:__ZN6il2cpp6icalls8mscorlib6System15MonoCustomAttrs27GetCustomAttributesInternalEP12Il2CppObjectP20Il2CppReflectionTypeb
Wyc:__ZN8JSONRead21TransferSTLStyleArrayI13dynamic_arrayI8Vector3fLj4EEEEvRT_18MemLabelIdentifier17TransferMetaFlags
EEa:__Z24PluginsSetGraphicsDevicePvi18GfxDeviceEventType
Tkh:_ObjectReader_ReadAssembly_m869834280
ura:__ZN14PreloadManager35WaitForAllAsyncOperationsToCompleteEv
rld:__ZN5physx14NpRigidDynamicC2ERKNS_11PxTransformE
EKg:_Collection_1_IsSynchronized_m971497175_gshared
aGc:__Z27sweepCCTBox_HeightFieldGeomRKN5physx10PxGeometryERKNS_11PxTransformERKNS_2Gu3BoxERKNS_6PxVec3EfRNS_10PxSweepHitENS_7PxFlagsINS_9PxHitFlag4EnumEtEEf
VUe:_ExecuteEvents_Execute_m1617536317
WXj:_Text_get_cachedTextGeneratorForLayout_m1357670532
JL:__ZL31InitializeAudioScriptingClassesv
DXa:__Z14SortGUIByDepthP10GUIElementS0_
XYf:_NumberFormatter_NumberToString_m126384393
wOl:_emscripten_glVertexAttrib4fv__wrapper
k4j:_LogicalCallContext__ctor_m3173272863
ZC:__ZN12_GLOBAL__N_120ProcessRootMotionMixER33AnimationPlayableEvaluationOutputR35AnimationPlayableEvaluationConstantR32AnimationPlayableEvaluationInputS1_f
XBc:__ZN5physx3Cct9SweepTest18updateTouchedGeomsEPKNS0_30InternalCBData_FindTouchedGeomERKNS0_13UserObstaclesERKNS_17PxExtendedBounds3ERKNS_19PxControllerFiltersERKNS_6PxVec3E
g7f:_MonoCustomAttrs__cctor_m2608447972
KYf:_Int32_FindSign_m3803672540
Bkj:_Enumerator_System_Collections_IEnumerator_Reset_m70453843_AdjustorThunk
l6d:_PxCloseExtensions
Jea:__ZNK20LocalFileSystemPosix21GetAvailableDiskSpaceEPKcRy
bda:__ZNSt3__26__treeIiNS_4lessIiEENS_9allocatorIiEEE7destroyEPNS_11__tree_nodeIiPvEE
TXg:_CipherSuite_InitializeCipher_m229247572
M9g:_X509Certificate2__ctor_m1095336775
qAa:__ZNK9GfxDevice14GetWorldMatrixEv
Ohi:_MonoProperty_GetGetMethod_m1100580870
W6a:__Z19scripting_array_new17ScriptingClassPtrjj
zP:__ZN11SoundHandle13CreateChannelEb
qKh:__Z90RuntimeInvoker_Void_t1841601450_IntPtr_t_Int32_t2071877448_RuntimeObject_Int32_t2071877448PFvvEPK10MethodInfoPvPS4_
orb:__ZN14SafeBinaryRead21TransferSTLStyleArrayI13dynamic_arrayI12LightmapDataLj4EEEEvRT_17TransferMetaFlags
Nkg:_ArgumentException__ctor_m3312963299
oVb:__ZNSt3__26vectorIN9ShaderLab20SerializedSubProgram16TextureParameterENS_9allocatorIS3_EEE6assignIPS3_EENS_9enable_ifIXaasr21__is_forward_iteratorIT_EE5valuesr16is_constructibleIS3_NS_15iterator_traitsISA_E9referenceEEE5valueEvE4typeESA_SA_
RYk:__ZN13Il2CppHashMapIN6il2cpp5utils13dynamic_arrayIPK10Il2CppTypeLj4EEEPFvvENS0_8metadata19Il2CppSignatureHashENS9_22Il2CppSignatureCompareENSt3__29allocatorINSC_4pairIK10KeyWrapperIS6_ES8_EEEEEC2EjRKSA_RKSB_
Vhc:__Z51Quaternion_CUSTOM_INTERNAL_CALL_Internal_ToEulerRadRK11QuaternionfR8Vector3f
Kbl:__ZN15dense_hashtableINSt3__24pairIK10KeyWrapperIPK22Il2CppGenericParameterEPK24MonoGenericParameterInfoEES6_N6il2cpp5utils11PointerHashIS4_EEN14dense_hash_mapIS6_SA_SF_NS6_14EqualsComparerINS0_8equal_toIS5_EEEENS0_9allocatorISB_EEE9SelectKeyESK_SM_E15set_deleted_keyERKSB_
VZb:__ZN6prcoreL11inner_clearILj2EEEvPhjjj
Ich:_X509SubjectKeyIdentifierExtension__ctor_m3887138480
lmg:_Enumerator_System_Collections_IEnumerator_get_Current_m2853089017_AdjustorThunk
wfd:__ZNK5physx2Sc9ClothCore20getNbCollisionPlanesEv
ph:_emscripten_exit_fullscreen
Ryd:__ZN5physx6shdfnd5ArrayINS_9PxBounds3ENS0_15InlineAllocatorILj192ENS0_19ReflectionAllocatorIS2_EEEEE8recreateEj
AWd:__ZNK5physx13GuMeshFactory17getNbHeightFieldsEv
P5e:_InputField_get_mesh_m3276583786
q$j:_GCHandle_Free_m1639542352_AdjustorThunk
Kol:__ZN6il2cpp6icalls8mscorlib6System6String19InternalAllocateStrEi
Qyc:__Z29Transfer_Blittable_ArrayFieldI8JSONRead11QuaternionfEvRT_R9ArrayInfoRK23StaticTransferFieldInfo
NBd:__ZNK5physx2Gu12OBBAABBTestsILb1EEclENS_6shdfnd3aos5Vec3VES5_
gfc:__Z45Register_UnityEngine_Camera_get_targetDisplayv
C3b:__ZNK24RendererAnimationBinding15GenerateBindingERKN4core12basic_stringIcNS0_20StringStorageDefaultIcEEEEbRN11UnityEngine9Animation14GenericBindingE
ykb:__Z15GetFlareManagerv
qBc:__ZN5physx3Cct9SweepTestD2Ev
dA:__ZN8Animator13GetAvatarRootEv
GNj:_ControllerColliderHit_get_transform_m3183428555
CCl:___toread
gY:__ZN19CloudServiceHandler10QueueEventEPN11UnityEngine15CloudWebService14CloudEventInfoE
PGl:___cxa_is_pointer_type
CQe:_String_Concat_m56707527
$C:__ZN7mecanim9animation16EvaluateAvatarDXEPKNS0_14AvatarConstantEPKNS0_11AvatarInputEPNS0_12AvatarMemoryEPNS0_15AvatarWorkspaceEPNS0_12AvatarOutputE
YJa:__ZN4gles20DestroyRenderSurfaceEP7ApiGLESP17RenderSurfaceGLES
kmg:_Enumerator_System_Collections_IEnumerator_get_Current_m2853089017_gshared
Slc:__Z34Transform_CUSTOM_SetAsFirstSiblingP12Il2CppObject
Una:__ZN17PersistentManager40GlobalToLocalSerializedFileIndexInternalERK26SerializedObjectIdentifier
wV:__ZN11UnityEngine15CloudWebService17SessionEventQueue14ParseEventDataERKN4core12basic_stringIcNS2_20StringStorageDefaultIcEEEE
FSe:_BaseEventData_get_selectedObject_m3551206992
zbg:_SimpleCollator_CompareOrdinal_m2176988387
YAf:_CCGregorianCalendar_GetYear_m1289900195
I6c:__ZN12GeomQueryAnyIN5physx10PxSweepHitEE7geomHitERKNS0_2Sq17SceneQueryManagerERKNS0_15MultiQueryInputERKNS3_9ShapeDataERKNS0_10PxGeometryERKNS0_11PxTransformENS0_7PxFlagsINS0_9PxHitFlag4EnumEtEEjPS1_fbPNS0_9PxBounds3E
VYf:_Int16_ToString_m2592645088
VEa:__ZN13TranslateGLES4InitERK12GraphicsCaps16GfxDeviceLevelGL
sEc:__ZN43CapsuleHeightfieldContactGenerationCallback7onEventEjPj
kT:__Z60AudioClipPlayable_CUSTOM_INTERNAL_CALL_GetPauseDelayInternalR9HPlayable
c4d:__ZThn4_N12MemoryStream4readEPvj
qmh:_SerializationInfoEnumerator_Reset_m2206466680
jnc:__ZN18CrashReportManager12CloseServiceEv
SMl:_emscripten_glGetShaderPrecisionFormat__wrapper
$xe:__Z32CustomEventData_CUSTOM_AddUInt32P12Il2CppObjectP12Il2CppStringj
UKk:_GenericEqualityComparer_1_Equals_m1934771410_gshared
Vzl:__ZN6il2cpp5utils9Exception26FormatInvalidCastExceptionEPK11Il2CppClassS4_
uCb:__ZNSt3__26vectorIN30RuntimeInitializeOnLoadManager15ClassMethodInfoE13stl_allocatorIS2_L18MemLabelIdentifier12ELi16EEE8__appendEj
H1b:__ZN13ProduceHelperI10TagManagerLb0EE7ProduceE18MemLabelIdentifier18ObjectCreationMode
wAl:__ZN6il2cpp2os6Memory12AlignedAllocEjj
nul:__ZN6il2cpp8metadataL7CompareEPK10Il2CppTypeS3_
n9h:_TypeBuilder_get_is_created_m736553860
hki:_GameObject_set_layer_m2712461877
yWg:_RSAManaged__ctor_m1370411656
kpb:__ZN12CubemapArray23VirtualRedirectTransferER17RemapPPtrTransfer
ccc:__ZL27GetComponentsImplementationILb0ELi0EEbR10GameObjectbRK17CompareParametersRK39GetComponentsImplementation_ReturnValue
Z7g:_WebHeaderCollection_GetObjectData_m3940120977
JDb:__ZN9Scripting36IsSystemCollectionsGenericDictionaryE17ScriptingClassPtr
RSj:_Raycast3DCallback_EndInvoke_m3234280377
s5c:__ZN5physx12NpConstraint12actorDeletedEPNS_12PxRigidActorE
q$e:_ColorTweenCallback__ctor_m3619686788
d5:__ZL16ReadTypeTreeImplILb0EEbR8TypeTreeRK16TypeTreeIteratorRPKhS6_i
Gjc:__Z28PlayableOutputValidityChecksRK15HPlayableOutput
Uy:__ZN27AnimationLayerMixerPlayable16SetLayerMaskCopyEjRKN7mecanim6bitsetILj70EEEPKNS0_8skeleton12SkeletonMaskE
cQc:__ZN5physx2Sc8ShapeSim18reinsertBroadPhaseEv
Znb:__ZNK22BuiltinResourceManager21GetResourceInstanceIDEPKN5Unity4TypeERKN4core12basic_stringIcNS4_20StringStorageDefaultIcEEEE
LCa:__ZN9GfxDevice15BeginFrameStatsEv
qgc:__Z42Register_UnityEngine_RectOffset_set_bottomv
bif:_ArrayListWrapper_IndexOf_m3574835167
NG:__Z92Register_UnityEngine_Animations_AnimationClipPlayable_INTERNAL_CALL_GetAnimationClipInternalv
c_a:__ZN28LightProbeProxyVolumeContext8CopyFromERKS_
bqi:_GUIUtility_TakeCapture_m3115231813
z6a:__ZN23TransformChangeDispatch32QueueTransformChangeIfHasChangedER18TransformHierarchy
Y2a:__ZN18DeferredRenderLoop15RenderFinalPassEP13RenderTextureS1_
ZJa:__ZN7ApiGLES18DeleteRenderbufferERj
OTc:__ZN5physx6shdfnd5ArrayIPvNS0_15InlineAllocatorILj256ENS0_19ReflectionAllocatorINS_16NpConnectorArrayEEEEEE15growAndPushBackERKS2_
NIa:__ZL23ProgramUniformMatrix4fvPK7ApiGLESjiihPKv
yza:__ZN7ApiGLES13CreateTextureEjj14GraphicsFormatiiiii
d4b:__ZN13ProduceHelperI11LightProbesLb0EE7ProduceE18MemLabelIdentifier18ObjectCreationMode
yJd:__ZN5physx14SingleAABBTaskC2Ev
YUb:__ZN9ShaderLab20SerializedSubProgram15MatrixParameter8TransferI14SafeBinaryReadEEvRT_
ecc:__ZL27GetComponentsImplementationILb0ELi1EEbR10GameObjectbRK17CompareParametersRK39GetComponentsImplementation_ReturnValue
dpe:_Round_Down_To_Grid
oth:_UTF8Decoder__ctor_m1460357288
Mja:__ZN13RenderTexture7ReleaseEv
Wxb:__ZN10MeshFilter23VirtualRedirectTransferER14SafeBinaryRead
uof:_Convert_ToByte_m1201588964
eyb:__ZN12MeshRenderer17MainThreadCleanupEv
gec:__Z36AsyncOperation_Get_Custom_PropIsDoneP12Il2CppObject
FMa:__ZN22CreateGpuProgramOutput12CreateParamsEv
j2c:__ZNK5physx18NpArticulationLink11getChildrenEPPNS_18PxArticulationLinkEj
NEa:__ZNK14GfxContextGLES13GetDefaultFBOEv
mEf:_Array_InternalArray__ICollection_Remove_TisSByte_t454417549_m2474211570_gshared
TRd:__Z15atomIntegrationfPKPN5physx11PxsBodyCoreEPKPNS_12PxsRigidBodyEjPKNS_2Cm13SpatialVectorEPNS_13PxcSolverBodyEPNS_17PxcSolverBodyDataEPS9_RjSH_
rga:__ZN14GraphicsHelper5ClearE13GfxClearFlagsRK10ColorRGBAffjR17ShaderPassContext
dod:__ZN5physx13NpRigidStatic11createShapeERKNS_10PxGeometryEPKPNS_10PxMaterialEtNS_7PxFlagsINS_11PxShapeFlag4EnumEhEE
B8b:__Z13GetImagePixelI10ColorRGBAfET_PKhii13TextureFormat15TextureWrapModeS5_ii
B3k:_il2cpp_class_is_enum
kfl:__ZN6il2cpp2vm6Thread49CheckCurrentThreadForInterruptAndThrowIfNecessaryEv
Vla:__ZNSt3__23mapIN9ShaderLab16FastPropertyNameEN18UnityPropertySheet11UnityTexEnvENS_4lessIS2_EENS_9allocatorINS_4pairIKS2_S4_EEEEEixERS9_
zza:__ZNK13TranslateGLES25GetTextureTargetDimensionEj
QXc:__ZN5physx11NpAggregate22removeActorAndReinsertERNS_7PxActorEb
Q6e:_InputField_SetToCustom_m250029371
tZd:__ZZL19ExtractHullPolygonsRjRN5physx2Gu9ContainerERKNS0_17ConvexHullBuilderEPS2_S3_EN5Local9FloodFillES3_PKNS0_11AdjTriangleEjPb
Ijk:_PatternCompiler_EmitInfo_m597931026
PTg:_ModulusRing_Multiply_m3113924743
hlc:__Z47Texture2D_CUSTOM_INTERNAL_CALL_GetPixelBilinearP12Il2CppObjectffR10ColorRGBAf
Jte:__ZZN2UI6Canvas15InitializeClassEvEN39FunctorImpl_1413kCanvasHierarchyChanged4CallEPviR11MessageData
oj:_emscripten_glVertexAttrib4f
zng:_Enumerator_System_Collections_IEnumerator_get_Current_m3461301268_AdjustorThunk
dMg:_ReadOnlyCollection_1_System_Collections_IEnumerable_GetEnumerator_m531171980_gshared
MXb:__ZNSt3__26vectorIN20GpuProgramParameters14ConstantBufferENS_9allocatorIS2_EEE8__appendEj
rPf:_Array_Sort_TisUILineInfo_t3621277874_m3105833015_gshared
To:FUNCTION_TABLE_vf
Q8f:_MonoType_GetGenericArguments_m2708198481
Ypg:_List_1_AddEnumerable_m2489692396_gshared
y_c:__ZN5physx14NpArticulation26setMaxProjectionIterationsEj
zNc:__ZN5physx3Cct15ObstacleContext14removeObstacleEj
Dyk:_WaitForSecondsRealtime__ctor_m1734539010
ey:__ZN7mecanim12statemachine24CreateStateMachineMemoryEPKNS0_20StateMachineConstantERNS_6memory9AllocatorE
Ynj:_Enumerator_get_Current_m419581838_AdjustorThunk
QCa:__ZN9GfxDevice18SetGlobalDepthBiasEff
Q0k:__ZN6il2cpp6icalls8mscorlib6System8MonoType12get_AssemblyEP20Il2CppReflectionType
MIk:_EqualityComparer_1__cctor_m3664711181_gshared
h8d:__ZN15CapsuleCollider9SetCenterERK8Vector3f
Bj:_emscripten_glGetPointerv
QC:__ZN8Animator22ApplyBuiltinRootMotionEv
S4d:__ZN5physx7profile8ZoneImplINS_28PxProfileNameProviderForwardEE17handleBufferFlushEPKhj
NXc:__ZN5physx2Sc5ActorC2ERNS0_16InteractionSceneEhNS0_14IslandNodeInfo4TypeE
r$c:__ZN5physx21PxcArticulationHelper16prepareDataBlockERNS_9PxcFsDataEPKNS_19PxsArticulationLinkEtPNS_11PxTransformEPNS_12PxcFsInertiaEPNS_30PxcArticulationJointTransformsEj
gjl:__ZN30dense_hashtable_const_iteratorINSt3__24pairIK10KeyWrapperIP14Il2CppIUnknownEjEES5_N6il2cpp5utils11PointerHashIS3_EEN14dense_hash_mapIS5_jSB_NS5_14EqualsComparerINS0_8equal_toIS4_EEEENS0_9allocatorIS7_EEE9SelectKeyESG_SI_EppEv
vgd:__ZN5physx15NpActorTemplateINS_7PxClothEED2Ev
rai:_DerivedType_get_UnderlyingSystemType_m3904230233
_ed:__ZN5physx2Sc9ClothCore16setRestPositionsEPKNS_6PxVec4E
kXa:__Z27ConvertSubMeshesToTrianglesR13dynamic_arrayI7SubMeshLj4EERS_ItLj2EE
Uoc:__ZN5IMGUI14GUIWindowStateD2Ev
kbh:_X509Certificate2Collection__ctor_m819526826
qL:__ZN12AudioManager5ResetEv
i6h:__Z75RuntimeInvoker_RuntimeObject_Single_t2076509932_RuntimeObject_RuntimeObjectPFvvEPK10MethodInfoPvPS4_
aVg:_KeyBuilder_Key_m3814433741
Okg:_ArgumentException__ctor_m158205422
OLe:_SecurityElement_Unescape_m1089723634
zHf:_Array_compare_TisVector3_t2243707580_m3709184876_gshared
s4e:_HorizontalLayoutGroup_SetLayoutHorizontal_m3237355818
Lqa:__ZN6prcoreL17RemapGenericFloatI17TexFormatRGBAHalf15TexFormatRGHalfEEvPKNS_9InnerInfoE
Rql:__ZN6il2cpp6icalls8mscorlib6System11Environment20GetWindowsFolderPathEi
yhj:__ZL60AspectRatioFitter_t3114550109_CustomAttributesCacheGeneratorP21CustomAttributesCache
Qw:__ZN7mecanim5human18HumanPoseBlendNodeERNS0_9HumanPoseEPS1_f
Vke:_UNITY_FT_RoundFix
VXb:__ZN9ShaderLab20SerializedSubProgram15AddTextureParamEPKcii16TextureDimension
jGc:__ZNK5physx2Gu15HeightFieldUtil12traceSegmentI24ConvexVsHeightfieldSweepLb0ELb0ELb1EEEvRKNS_6PxVec3ES6_PT_PS5_
zQ:__ZNK18AudioMixerPlayable11DerivesFromE17ScriptingClassPtr
cWd:__ZNK5physx12PxConvexMesh19getConcreteTypeNameEv
gyb:__ZNK12MeshRenderer22GetTypeVirtualInternalEv
KGc:__ZN5physx2Gu19gjkLocalPenetrationINS0_9TriangleVENS0_17ShrunkConvexHullVEEEjRKT_RKT0_RKNS_6shdfnd3aos6FloatVERNSB_5Vec3VESG_SG_RSC_PhSI_Rhb
VN:__ZN4FMOD6System17setSoftwareFormatEi17FMOD_SOUND_FORMATii18FMOD_DSP_RESAMPLER
qIc:__ZN5physx2Gu15GJKLocalRayCastERNS0_9TriangleVERNS0_4BoxVERKNS_6shdfnd3aos6FloatVERKNS6_5Vec3VESC_RS7_RSA_SE_fb
aQc:__ZN5physx2Sc13ShapeIterator4initERKNS0_8ActorSimE
mma:__ZN14SafeBinaryRead19TransferSTLStyleMapINSt3__23mapIN4core12basic_stringIcNS3_20StringStorageDefaultIcEEEES7_NS1_4lessIS7_EE13stl_allocatorINS1_4pairIKS7_S7_EEL18MemLabelIdentifier1ELi16EEEEEEvRT_17TransferMetaFlags
nte:__ZN2UI6Canvas27UpdateEventIndexesRecursiveERi
CV:__ZN11UnityEngine15CloudWebService16SessionContainer21PrepareDataErrorEventERN4core12basic_stringIcNS2_20StringStorageDefaultIcEEEE
Wge:_UNITY_FT_Outline_New
fDe:__ZN16UploadHandlerRaw13TransmitBytesEPvjj
NNb:__Z19TransferField_ArrayI19StreamedBinaryWriteILb0EE27Converter_SimpleNativeClassI8GUIStyleEEvRK23StaticTransferFieldInfoR31RuntimeSerializationCommandInfoRT0_
_9c:__ZN5physx14NpArticulationC2Ev
PEj:_AnimatorControllerPlayable_CrossFade_m1077061813_AdjustorThunk
mjh:_RemotingServices_RegisterInternalChannels_m1827304423
coi:_GUIStyle_get_onNormal_m1675201777
Es:__ZL32CleanupAnimationScriptingClassesv
qwc:__Z35Transfer_Blittable_FixedBufferFieldI8JSONReadiEvRK29SerializationCommandArgumentsR31RuntimeSerializationCommandInfo
V$k:__ZNSt3__213__vector_baseIN6il2cpp2os19SocketHandleWrapperENS_9allocatorIS3_EEED2Ev
KQ:__ZNK19AudioPlayableOutput11DerivesFromE17ScriptingClassPtr
_pi:_GUIStyleState_Cleanup_m705006206
RPh:__Z77RuntimeInvoker_RuntimeObject_Int32_t2071877448_RuntimeObject_SByte_t454417549PFvvEPK10MethodInfoPvPS4_
Lc:invoke_viiffi
hWf:_RegionInfo_GetByTerritory_m3452395101
jbb:__ZN13sorted_vectorINSt3__24pairIN4core12basic_stringIcNS2_20StringStorageDefaultIcEEEEPK17MessageIdentifierEEN10vector_mapIS6_S9_NS0_4lessIS6_EENS0_9allocatorISA_EEE13value_compareESF_E10insert_oneERKSA_
Cuh:_Thread_GetCachedCurrentUICulture_m5590127
Hxk:_Vector3_Dot_m3161182818
u_e:_ColorBlock_set_pressedColor_m587704489_AdjustorThunk
Bzg:_List_1_CheckMatch_m4018158235_gshared
mrd:__ZN5physx6shdfnd8PoolBaseINS_2Sc9ActorPairENS0_19ReflectionAllocatorIS3_EEE12allocateSlabEv
VZk:__ZN6il2cpp2vm13MetadataCache38GetMethodInfoFromMethodDefinitionIndexEi
Def:_Byte_System_IConvertible_ToDateTime_m1583041031
Xic:__Z39MonoBehaviour_CUSTOM_GetScriptClassNameP12Il2CppObject
YNk:__ZL24UnresolvedVirtualCall_68P12Il2CppObjectS0_iS0_S0_S0_S0_S0_S0_PK10MethodInfo
Eub:__ZN10VertexData8TransferI24GenerateTypeTreeTransferEEvRT_
lrl:__ZN13Il2CppHashMapIPK19Il2CppGenericMethodP10MethodInfoN6il2cpp8metadata23Il2CppGenericMethodHashENS6_26Il2CppGenericMethodCompareENSt3__29allocatorINS9_4pairIK10KeyWrapperIS2_ES4_EEEEEC2EjRKS7_RKS8_
oxj:_EqualityComparer_1_System_Collections_IEqualityComparer_Equals_m1089835085_gshared
k4a:__ZL10CullLightsRK22SceneCullingParametersR11CullResults
B1e:_Dropdown__cctor_m264401557
Ebf:_Array_IndexOf_m2819632474
fik:_Comparer_1__cctor_m3996541505_gshared
$x:__ZN7mecanim12statemachine20GetBlendTreeConstantERKNS0_13StateConstantEi
psd:__ZN5physx7NpScene21setDominanceGroupPairEhhRKNS_20PxDominanceGroupPairE
n7b:__Z40GetTemporaryCachePathApplicationSpecificv
ZAa:__ZN9GfxDevice16EndAsyncJobFrameEv
Qhe:_UNITY_tt_face_load_hhea
aQj:_PersistentCall__ctor_m2079279187
Unf:_Convert_ToBase64String_m1936815455
vl:___syscall3
yl:___syscall6
Al:___syscall4
BW:__ZN11UnityEngine15CloudWebService20WebRequestRestClient17GetResponseStatusEv
gZe:_ColorBlock_get_fadeDuration_m987725262
eoh:_CryptographicException__ctor_m2415891459
Uzc:__ZN27PerformanceReportingManager23VirtualRedirectTransferER14SafeBinaryRead
qcc:__ZN9Scripting25BroadcastScriptingMessageER10GameObjectPKc18ScriptingObjectPtr
Pl:_emscripten_glShaderBinary
Gaf:_Array_InternalArray__RemoveAt_m1126483634
hKj:_Camera_INTERNAL_CALL_RaycastTry_m1030092423
xea:__ZNK20LocalFileSystemPosix6ExistsERK13FileEntryData
TVc:__ZN5physx35NpArticulationJointGetBodiesFromScbERNS_3Scb17ArticulationJointERPNS0_4BodyES5_
dv:__ZN7mecanim5human19MaskHasLeftFootGoalERKNS_6bitsetILj70EEE
xVd:__ZNK5physx2Sc15ClothFabricCore16getTetherLengthsEPfj
C0h:__Z101RuntimeInvoker_Int32_t2071877448_RuntimeObject_Color32_t874517518_Int32_t2071877448_Int32_t2071877448PFvvEPK10MethodInfoPvPS4_
Zsi:_Mesh_get_colors32_m4153271224
Kwe:__Z58Register_UnityEngine_Canvas_GetETC1SupportedCanvasMaterialv
_Pb:__ZN17AnimationCurveTplIfE8TransferI18StreamedBinaryReadILb1EEEEvRT_
Vuf:_DateTimeOffset_GetHashCode_m3312197462_AdjustorThunk
pAe:__ZN18UnityConnectClientD2Ev
T2k:_il2cpp_set_data_dir
exd:__ZN5physx2Sc13ConstraintSim8getForceERNS_6PxVec3ES3_
HMh:__Z51RuntimeInvoker_Double_t4078015681_Int32_t2071877448PFvvEPK10MethodInfoPvPS4_
Enk:_Uri_get_IsUnc_m2111738174
Jtk:_DataUtility_INTERNAL_CALL_GetPadding_m1621366113
ZBc:__ZN5physx15PxGeometryQuery18computePenetrationERNS_6PxVec3ERfRKNS_10PxGeometryERKNS_11PxTransformES6_S9_
qei:_TypeBuilder_IsValueTypeImpl_m1499671481
Aze:__ZN11UnityEngine15PlatformWrapper30GetGraphicsDriverLibraryStringEv
F9d:__ZN5Unity12PhysicsQueryC2Ev
iWg:_EncryptedPrivateKeyInfo_Decode_m1706190306
dRb:__Z18Transfer_BlittableI18StreamedBinaryReadILb0EELb0E4AABBEvRK29SerializationCommandArgumentsR31RuntimeSerializationCommandInfo
EE:__ZN16MecanimAnimation24DeleteAnimatedPropertiesERP26IAnimatedPropertyEvaluator
asf:_Convert_ToUInt16_m1665900934
gWf:_RegionInfo__ctor_m2058831971
LUa:__Z14DrawGUITextureRK5RectTIfEP7Texture11ColorRGBA32P8Materiali
bYj:_Text_get_supportRichText_m3291105891
krk:_RectTransform_GetParentSize_m1571597933
DB:__ZN9BlobWrite8TransferI22OffsetPtrArrayTransferIKN4math7_float4EEEEvRT_PKc17TransferMetaFlags
V8e:_LayoutElement_set_ignoreLayout_m1530090081
hja:__ZN15TextureSettings8TransferI24GenerateTypeTreeTransferEEvRT_
Sik:_MatchCollection_GetEnumerator_m3516985966
cwc:__ZN9JSONWrite8TransferI4AABBEEvRT_PKc17TransferMetaFlags
Cqh:_UTF7Encoding__ctor_m2365939916
uQa:__ZN25MultiBlocksMemoryFileData9SetLengthEy
ruk:_TextGenerationSettings_Equals_m3944651893_AdjustorThunk
hOj:_DelegatePInvokeWrapper_StateChanged_t2480912210
WQj:_MatEntry__ctor_m3650167335
ESd:__ZNK18ScBeforeSolverTask7getNameEv
ACb:__ZNSt3__26vectorIN30RuntimeInitializeOnLoadManager9ClassInfoE13stl_allocatorIS2_L18MemLabelIdentifier12ELi16EEE8__appendEj
Rpb:__ZNK9Texture2D20GetRuntimeMemorySizeEv
xyh:_TypeInitializationException__ctor_m2993591639
OFd:__ZN5physx14solve1D4_BlockEPKNS_23PxcSolverConstraintDescEjRNS_16PxcSolverContextE
Ym:_emscripten_glUniform2iv
wCc:__ZL33GeomMTDCallback_ConvexHeightFieldRN5physx6PxVec3ERfRKNS_10PxGeometryERKNS_11PxTransformES5_S8_
ssi:_Matrix4x4_ToString_m1982554457_AdjustorThunk
oee:_UNITY_FT_Outline_Transform
blc:__Z60Register_UnityEngine_Sprites_DataUtility_Internal_GetMinSizev
fVk:__ZN6il2cpp2vm5Class10GetMethodsEP11Il2CppClassPPv
X$a:__Z30AddDefaultStreamsToMeshBuffersR9GfxDeviceR11MeshBuffersRK16DrawBuffersRange17ShaderChannelMaskS6_
sMe:_Hash_GetObjectData_m315532943
CJa:__ZN7ApiGLES17DeleteFramebufferERN2gl6HandleILNS0_10ObjectTypeE9EEES3_
JLa:__ZN15UniformTFMethod13MapBoneBufferEj
vZg:_RecordProtocol_SendAlert_m2816808523
pse:__ZN2UI14CanvasRendererD2Ev
VKd:__ZN5physx26PxcPCMContactCapsuleConvexERKNS_2Gu13GeometryUnionES3_RKNS_11PxTransformES6_RKfRNS_10PxcNpCacheERNS0_13ContactBufferE
Kfl:__ZN6il2cpp6icalls8mscorlib6System5Array8SetValueEP11Il2CppArrayP12Il2CppObjectS5_
j5f:_SynchronizedReader_Read_m1399666181
ogi:_MonoEvent_get_Name_m2796714646
Ecl:__ZN15dense_hashtableINSt3__24pairIK10KeyWrapperINS1_IPK9EventInfoP11Il2CppClassEEEjEES9_17ReflectionMapHashIS8_EN14dense_hash_mapIS9_jSD_NS9_14EqualsComparerINS0_8equal_toIS8_EEEENS0_9allocatorISB_EEE9SelectKeyESI_SK_E15set_deleted_keyERKSB_
rfa:__Z9SetupArgviPPKc
bWe:_PointerEventData_set_worldNormal_m2025727441
vtl:__ZN6il2cpp2vm4Enum21GetEnumValuesAndNamesEP11Il2CppClassPP11Il2CppArrayS6_
C_g:_Context_get_SentConnectionEnd_m3114190867
RYc:__ZN5physx10PxsContext17addParticleSystemEPNS_15PxsParticleDataERKNS_26PxvParticleSystemParameterEb
NWc:__ZN5physx3Scb5Scene13addRigidNoSimINS0_4BodyELb1ELb1EEEvRT_RNS0_13ObjectTrackerE
lpb:__ZN12CubemapArray23VirtualRedirectTransferER24GenerateTypeTreeTransfer
J5:__ZN12FileAccessor4OpenER15FileSystemEntry14FilePermission16FileAutoBehavior
DNg:_ReadOnlyCollection_1__ctor_m2364452928_gshared
Xpl:__ZN6il2cpp2os9Directory6CreateERKNSt3__212basic_stringIcNS2_11char_traitsIcEENS2_9allocatorIcEEEEPi
uFj:_AnimatorControllerPlayable_Play_m1490151611_AdjustorThunk
IHc:__ZL19sweepBoxVsTrianglesjPKN5physx10PxTriangleERKNS_2Gu3BoxERKNS_6PxVec3EfRNS_10PxSweepHitENS_7PxFlagsINS_9PxHitFlag4EnumEtEEbPKj
y6a:__ZN23TransformChangeDispatch32QueueTransformChangeIfHasChangedERK15TransformAccess
GVe:_PointerEventData_set_clickTime_m3931922487
kX:__ZNSt3__24listIP19CloudServiceHandler13stl_allocatorIS2_L18MemLabelIdentifier86ELi16EEE6removeERKS2_
gUf:_NumberFormatter_AppendNonNegativeNumber_m629862866
y4d:__ZN9Rigidbody18AddForceAtPositionERK8Vector3fS2_i
k_j:_ResourceInfo__ctor_m2401359321_AdjustorThunk
qql:__ZN6il2cpp2os26LibraryNamePrefixAndSuffixC2EPKcS3_
_kf:_Hashtable__ctor_m392789568
euh:_Mutex_CreateMutex_internal_m2352956576
Ash:_UTF7Encoding__cctor_m4192443836
Vqc:__Z31GUIStyle_CUSTOM_SetFontInternalP12Il2CppObjectS0_
B:tempValue
kYf:_Int16_System_IConvertible_ToSingle_m3277935657
N1:__Z29scripting_class_from_fullnamePKcS0_S0_
PSj:_Raycast3DCallback_Invoke_m2271859924
zy:__ZN26AnimatorControllerPlayable18DeallocateBindingsEv
FCc:__ZN5physx2Gu29ConvexVsMeshContactGeneration20generateLastContactsEv
AFj:_AnimatorControllerPlayable_HasState_m3003093532
Die:_UNITY_FT_Stream_ReadAt
$hd:__ZN5physx2Sc17ParticleSystemSim16getParticleStateEv
KRd:__ZN5physx6shdfnd5ArrayINS_25PxsCompoundContactManagerENS0_19ReflectionAllocatorIS2_EEE8recreateEj
okj:_Enumerator_get_CurrentKey_m2387752419_AdjustorThunk
Doi:_GUIStyle_get_lineHeight_m2132859383
NI:__Z87Register_UnityEngine_Animations_AnimatorControllerPlayable_INTERNAL_CALL_GetFloatStringv
eZk:__ZN15dense_hashtableINSt3__24pairIK10KeyWrapperIN6il2cpp5utils13dynamic_arrayIPK10Il2CppTypeLj4EEEEPFvvEEESA_NS3_8metadata19Il2CppSignatureHashEN14dense_hash_mapISA_SD_SG_NSA_14EqualsComparerINSF_22Il2CppSignatureCompareEEENS0_9allocatorISE_EEE9SelectKeyESK_SM_E9set_valueEPSE_RKSE_
kOg:_ReadOnlyCollection_1_System_Collections_Generic_IListU3CTU3E_RemoveAt_m2137782652_gshared
iWf:_RegionInfo__ctor_m997788172
iji:_UnityEvent_FindMethod_Impl_m3303953986
vj:_glReadBuffer
Dyh:_UInt16_System_IConvertible_ToBoolean_m887616848
GId:__ZN5physx14PxsAABBManagerC2ERNS_2Cm13EventProfilerERNS_19PxcScratchAllocatorE
xS:__ZN11AudioModule22CreateAudioClipFromWWWEP10IWWWStreamPKcbbi
qrh:_StringBuilder_set_Length_m3039225444
CIg:_Collection_1_System_Collections_IList_Contains_m3870109702_gshared
tDf:_Array_InternalArray__ICollection_Contains_TisRaycastResult_t21186376_m3188614988_gshared
Lsf:_CultureAwareComparer_GetHashCode_m3681260951
lue:__Z13RegisterClassIN2UI11CanvasGroupEEvv
XZb:__ZN6prcoreL11inner_clearILj4EEEvPhjjj
Zf:_emscripten_glClear
YSj:_Selectable__ctor_m1440593935
n1a:__ZN15SHConstantCacheC2ER13BatchRendererR15RenderLoopStats
Pwl:_GC_initialize_offsets
K9:__ZNK8Playable6HandleEv
_0a:__Z30SetupBakedOcclusionForGeometrybRK26SharedLightmapSettingsDataRK15LightmapIndicesR17ShaderPassContext
S3:__ZN14MessageHandler28MessageIDToMessageIdentifierEi
u6g:_HttpRequestCreator_Create_m3607509610
$ub:__ZNK11SpriteAtlas20GetRuntimeRenderDataEPK6Sprite
Eyl:__ZN6il2cpp2vm10WaitHandle19NewManualResetEventEb
Gwk:_UISystemProfilerApi_EndSample_m2059427490
WOg:_ReadOnlyCollection_1_System_Collections_IList_Contains_m3707723158_gshared
ACh:_Version_GetHashCode_m880841176
qw:__ZN7mecanim14ValueArrayCopyILb0EEEvPKNS_10ValueArrayEPS1_
Myj:_CustomEventData_Add_m4160204358
vH:__Z51Register_UnityEngine_Animator_get_hasBoundPlayablesv
pCk:_Nullable_1_ToString_m1238126148_AdjustorThunk
oe:emscriptenWebGLGetUniform
Bp:FUNCTION_TABLE_iiiiiiiiiii
MJc:__ZN5physx2Gu19sweepCapsuleCapsuleERKNS0_7CapsuleES3_RKNS_6PxVec3EfRfRS4_S8_jRt
T5a:__ZL10CleanUpJobP20CullingGroupsJobData
ngf:_Char_CompareTo_m3044885427_AdjustorThunk
UEc:__ZN5physx2Gu22computeMTD_PlaneConvexERNS_6PxVec3ERfRKNS_7PxPlaneERKNS_20PxConvexMeshGeometryERKNS_11PxTransformE
hck:_InternalEnumerator_1_System_Collections_IEnumerator_get_Current_m2035754659_AdjustorThunk
Vxb:__ZN10MeshFilter23VirtualRedirectTransferER24GenerateTypeTreeTransfer
XVd:__ZN5physx13BigConvexData4LoadERNS_13PxInputStreamE
CUa:__ZN13RenderManager15BatchModeUpdateEv
gub:__ZN14SafeBinaryRead21TransferSTLStyleArrayI13dynamic_arrayI8Vector2fLj4EEEEvRT_17TransferMetaFlags
Tna:__ZN17PersistentManager51InstanceIDToLocalSerializedObjectIdentifierInternalEiR31LocalSerializedObjectIdentifier
W3c:__ZN5physx2Sc8ActorSim24postDominanceGroupChangeEv
Sd:_glVertexAttribIPointer
qFe:_HMAC_set_HashName_m457235014
h9b:__ZNK6Sprite10GetPaddingE20SpriteRenderDataMode
iUk:__ZN6il2cpp2vm5Class11GetPtrClassEPK10Il2CppType
O4c:__ZN5physx2Cm8PtrTable5clearERNS0_22PtrTableStorageManagerE
DCf:_Array_InternalArray__ICollection_Contains_TisTableRange_t2011406615_m605506746_gshared
wqj:_Dictionary_2_Add_m1296007576_gshared
Krf:_Decimal_op_Explicit_m729046406
wNc:__ZN5physx3Cct15ObstacleContext7releaseEv
V2e:_Graphic_OnEnable_m2900261811
sFd:__ZN5physx27solveFrictionBlockWriteBackEPKNS_23PxcSolverConstraintDescEjRNS_16PxcSolverContextEPNS_25PxcThresholdStreamElementEjPi
roh:_CryptographicUnexpectedOperationException__ctor_m3552441227
Zhf:_ArrayListWrapper_Clear_m321161741
V7e:_InputField_LineDownCharacterPosition_m2690468785
Cie:_UNITY_ft_glyphslot_alloc_bitmap
vPf:_Array_Sort_TisVector2_t2243707579_TisVector2_t2243707579_m2582252549_gshared
DAh:_UInt64_System_IConvertible_ToDouble_m2828923873
M0b:__ZZN2UI13RectTransform15InitializeClassEvEN31FunctorImpl_62kTransformChanged4CallEPviR11MessageData
Avg:_List_1_System_Collections_IList_set_Item_m1129584681_gshared
Yje:_ft_raster1_render
ckc:__Z57Register_UnityEngine_RectTransform_INTERNAL_set_anchorMaxv
uqg:_List_1_set_Capacity_m491101164_gshared
wFl:__ZNKSt3__221__basic_string_commonILb1EE20__throw_length_errorEv
Orh:_StringBuilder_Insert_m1733097906
Mj:_JS_SystemInfo_GetMemory
j3g:_SslStreamBase_get_HashStrength_m480059173
mKa:__ZN18GfxFramebufferGLES13ReadbackImageER14ImageReferenceiiiiii
Goj:_ValueCollection_System_Collections_Generic_ICollectionU3CTValueU3E_Clear_m3271993638_gshared
Fnf:_Enumerator_MoveNext_m1419609883
zM:__ZN4FMOD7Channel19setReverbPropertiesEPK29FMOD_REVERB_CHANNELPROPERTIES
q3:__ZN13MonoBehaviour22GetScriptFullClassNameEv
RRd:__ZN5physx6shdfnd4sortIPNS_15PxsContactPatchENS_27SortBoundsPredicateManifoldENS0_19ReflectionAllocatorIS3_EEEEvPT_jRKT0_RKT1_j
nxk:_Vector2__cctor_m3670745621
E6g:_ServicePointManager_FindServicePoint_m3137356168
hua:__ZN20SphericalHarmonicsL211AddWeightedERKS_f
tWe:_PointerInputModule_GetPointerData_m1695674453
emi:__Z14bankers_roundff
tLh:__Z90RuntimeInvoker_Void_t1841601450_RuntimeObject_RuntimeObject_RuntimeObject_SByte_t454417549PFvvEPK10MethodInfoPvPS4_
mKb:__Z19TransferField_ArrayI17RemapPPtrTransfer27Converter_SimpleNativeClassI8GUIStyleEEvRK23StaticTransferFieldInfoR31RuntimeSerializationCommandInfoRT0_
Gsf:_Convert_ToUInt64_m345450801
sCk:_Predicate_1_BeginInvoke_m2559992383_gshared
dtc:__ZN9JSONWrite8TransferI10ColorRGBAfEEvRT_PKc17TransferMetaFlags
uOj:_Debug_Log_m920475918
RMc:__ZN5physx3Cct26CharacterControllerManager16createControllerERKNS_16PxControllerDescE
M3:__Z25scripting_method_get_name18ScriptingMethodPtr
lkc:__Z35Register_UnityEngine_Resources_Loadv
NIb:__Z19TransferField_ArrayI14SafeBinaryRead16Converter_StringEvRK23StaticTransferFieldInfoR31RuntimeSerializationCommandInfoRT0_
SEl:_rename
Rwl:_GC_exit_check
pwk:_Transform_INTERNAL_CALL_TransformDirection_m2899991790
g9f:_NotSupportedException__ctor_m3232764727
U5g:_TypeConverterAttribute_Equals_m2330345916
yDc:__ZNK5physx2Gu15OBBTriangleTest10obbTriTestERKNS_6PxVec3ES4_S4_
rQh:__Z90RuntimeInvoker_Boolean_t3825574718_Int32_t2071877448_Int32U26_t455636984_Int32_t2071877448PFvvEPK10MethodInfoPvPS4_
R9g:_X509Certificate2_get_NotAfter_m3430171627
uuf:_DateTime_ToString_m1117481977
M0f:_MonoIO_CreateDirectory_m379525469
uB:__ZN9BlobWrite8TransferI22OffsetPtrArrayTransferI9OffsetPtrIN7mecanim12statemachine18StateMachineMemoryEEEEEvRT_PKc17TransferMetaFlags
dge:_UNITY_ft_smooth_renderer_class_pic_free
kyg:_List_1_System_Collections_IList_Remove_m3763718607_gshared
PQ:__ZN19AudioPlayableOutput22OnConnectionHashChangeEv
xPe:_String_Concat_m2000667605
S$k:__ZN6il2cpp2os19SocketHandleWrapperC2ERKS1_
dsl:__ZN6il2cpp2vm6String8NewUtf16EPKDsi
upl:__ZN6il2cpp2os10ThreadImpl12QueueUserAPCEPFvPvES2_
wee:__ZN20TextRenderingPrivate15DynamicFontData36GetFaceForCharacterIfAvailableInFontERKNS_7FontRefERKNSt3__26vectorI4PPtrIN13TextRendering4FontEE13stl_allocatorIS9_L18MemLabelIdentifier34ELi16EEEEj
hWk:_ExecuteEvents_GetEventHandler_TisRuntimeObject_m3333041576_gshared
rJc:__ZNK5physx2Gu15HeightFieldUtil12traceSegmentI25CapsuleTraceSegmentReportLb0ELb0ELb1EEEvRKNS_6PxVec3ES6_PT_PS5_
xpe:_UNITY_FT_Hypot
UJd:__ZN5physx10PxsContext23prepareCMDiscreteUpdateEPNS_10PxBaseTaskE
Tcf:_BitConverter_ToInt64_m1329623425
t1b:__ZN8RendererC2E12RendererType18MemLabelIdentifier18ObjectCreationMode
p4c:__ZN5physx6shdfnd5ArrayIPvNS0_19ReflectionAllocatorINS_2Cm5BlockIhLj256EEEEEE4copyINS0_15InlineAllocatorILj256ES7_EEEEvRKNS1_IS2_T_EE
hg:_emscripten_glGetError
nbl:__ZN15dense_hashtableINSt3__24pairIK10KeyWrapperIPK14Il2CppAssemblyEPK22Il2CppMonoAssemblyNameEES6_N6il2cpp5utils11PointerHashIS4_EEN14dense_hash_mapIS6_SA_SF_NS6_14EqualsComparerINS0_8equal_toIS5_EEEENS0_9allocatorISB_EEE9SelectKeyESK_SM_E14squash_deletedEv
mN:__Z14FMOD_FILE_SeekPvjS_
Vfh:_MethodCall_get_Properties_m1893707917
V7c:__ZN5physx6shdfnd8PoolBaseINS_11NpAggregateENS0_19ReflectionAllocatorIS2_EEE15disposeElementsEv
Rlj:_ShimEnumerator_get_Entry_m2387156530_gshared
EZk:__ZN14dense_hash_mapI10KeyWrapperIN6il2cpp5utils13dynamic_arrayIPK10Il2CppTypeLj4EEEEPFvvENS1_8metadata19Il2CppSignatureHashENS8_14EqualsComparerINSB_22Il2CppSignatureCompareEEENSt3__29allocatorINSG_4pairIKS8_SA_EEEEEC2EjRKSC_RKSF_
fye:__Z56Register_UnityEngine_Analytics_CustomEventData_AddStringv
q7a:__ZNK13RenderTexture32CalculateNeedsInvertedProjectionEv
kNc:__ZN5physx2Gu17RadixSortBuffered4SortEPKfj
pg:emscriptenWebGLGet
_pk:_Rect_GetHashCode_m559954498_AdjustorThunk
T5:__Z19CanReplaceComponentRN5Unity9ComponentEPKNS_4TypeEPN4core12basic_stringIcNS5_20StringStorageDefaultIcEEEE
F2b:__ZN12CubemapArray11InitTextureEiii13TextureFormatb
Gpa:__ZN6prcoreL18BlitIntegerToFloatERK14ImageReferenceRS0_
Obc:__Z17GetSceneBuildInfoRKN4core12basic_stringIcNS_20StringStorageDefaultIcEEEEiR14SceneBuildInfo
LYk:__ZNSt3__27__sort4IRN6il2cpp5utils11collections13ArrayValueMapIPK10Il2CppType17Il2CppInteropData26InteropDataToTypeConverterNS1_8metadata14Il2CppTypeLessENSA_26Il2CppTypeEqualityComparerEE12SortComparerEPS8_EEjT0_SH_SH_SH_T_
cti:_Mesh_SetUVs_m841280343
W9g:_X509Certificate2_get_SignatureAlgorithm_m3069898012
_Sc:__ZN27ConvexVsMeshOverlapCallbackC2ERKN5physx2Gu10ConvexMeshERKNS0_11PxMeshScaleERKNS0_2Cm23FastVertex2ShapeScalingERKNS0_11PxTransformESE_bRKNS1_3BoxE
mpi:_GUIStyle_INTERNAL_CALL_Internal_CalcSizeWithConstraints_m1203344891
bC:__ZN7mecanim5human13HumanFixTwistEPKNS0_5HumanEPNS_8skeleton13SkeletonPoseTIN4math4trsXEEES9_iiRKf
F0a:__ZL24AssignProjectorQueuesJobP30AssignProjectorQueuesJobHeader
Uvh:_TimeSpan_get_Hours_m3804628138
jml:__ZN14dense_hash_mapI10KeyWrapperIP12Il2CppObjectEN6il2cpp2gc9CachedCCWENS4_5utils11PointerHashIS1_EENS3_14EqualsComparerINSt3__28equal_toIS2_EEEENSB_9allocatorINSB_4pairIKS3_S6_EEEEEC2EjRKS9_RKSE_
kZk:__ZN15dense_hashtableINSt3__24pairIK10KeyWrapperIN6il2cpp5utils13dynamic_arrayIPK10Il2CppTypeLj4EEEEPFvvEEESA_NS3_8metadata19Il2CppSignatureHashEN14dense_hash_mapISA_SD_SG_NSA_14EqualsComparerINSF_22Il2CppSignatureCompareEEENS0_9allocatorISE_EEE9SelectKeyESK_SM_E4swapERSP_
SXb:__ZN9ShaderLab20SerializedSubProgram14SetConstBufferEPKci
Skg:_ArgumentNullException__ctor_m911049464
O9d:__ZN13PhysicsModule17SetRigidBodyStateER9RigidbodyRKN8IPhysics14RigidBodyStateE
mIk:_Check_Source_m3385315029
tRk:_Comparison_1_Invoke_m345024424_gshared
Yle:_cf2_getStdVW
cQg:_ReadOnlyCollection_1_System_Collections_IList_Insert_m3936197025_gshared
H_:__Z40DebugStringToFilePostprocessedStacktraceRK21DebugStringToFileData
WAd:__ZN5physx2Sq12BucketPruner11shiftOriginERKNS_6PxVec3E
Zxc:__Z29Transfer_Blittable_ArrayFieldI8JSONReadjEvRT_R9ArrayInfoRK23StaticTransferFieldInfo
oWc:__ZN5physx6shdfnd5ArrayIPNS_2Sc16ArticulationCoreENS0_19ReflectionAllocatorIS4_EEE15growAndPushBackERKS4_
Eui:_Object_GetInstanceID_m1920497914
Jbk:_InternalEnumerator_1_get_Current_m314017974_AdjustorThunk
Wg:__setLetterbox
qQd:__ZN5physx19normalizePartitionsERNS_6shdfnd5ArrayIjNS0_19ReflectionAllocatorIjEEEEPNS_23PxcSolverConstraintDescEPKNS_13PxcSolverBodyEjjS5_
Ouk:_TextGenerator_Populate_Internal_m1817393161
tEc:__ZN18ContactCapsuleMesh20processTriangleCacheILj16EEEbRN5physx2Gu13TriangleCacheIXT_EEE
Pwb:__ZNSt3__26vectorI17BlendShapeChannelNS_9allocatorIS1_EEE6assignINS_11__wrap_iterIPS1_EEEENS_9enable_ifIXaasr21__is_forward_iteratorIT_EE5valuesr16is_constructibleIS1_NS_15iterator_traitsISA_E9referenceEEE5valueEvE4typeESA_SA_
c9e:_LayoutElement_set_preferredWidth_m3072758716
F8g:_AsnEncodedData_ToString_m724151831
aVa:__ZN11TimeManager11GetRealtimeEv
XRc:__ZN5physx2Sc16InteractionScene25removeFromActiveActorListERNS0_5ActorE
GDe:__ZN20UnityWebRequestProtoI19TransportJavaScript16AtomicRefCounter14RedirectHelper14ResponseHelper15DownloadHandler13UploadHandler12HeaderHelper14AsyncOperationE26Job_ExecuteUnityWebRequestEPS8_
zN:__ZN29AudioEffectInternalDefinitionC2EP26UnityAudioEffectDefinitionb
agi:_MonoMethodInfo_GetDeclaringType_m4186531677
Uhh:_SoapTypeAttribute_SetReflectionObject_m1566293812
tOc:__ZN5physx3Ext21InertiaTensorComputer6rotateERKNS_7PxMat33E
_Kk:_Enumerator_System_Collections_IEnumerator_Reset_m2573763156_AdjustorThunk
qjh:_RemotingServices_CreateClientProxy_m1631035355
hBh:_UInt64_ToString_m2892887310
vPd:__ZN5physx22PxcDiscreteNarrowPhaseERNS_18PxcNpThreadContextERNS_13PxcNpWorkUnitE
bva:_stbir_resize
srl:__ZN15dense_hashtableINSt3__24pairIK10KeyWrapperIPK19Il2CppGenericMethodEP10MethodInfoEES6_N6il2cpp8metadata23Il2CppGenericMethodHashEN14dense_hash_mapIS6_S9_SD_NS6_14EqualsComparerINSC_26Il2CppGenericMethodCompareEEENS0_9allocatorISA_EEE9SelectKeyESH_SJ_EC2ERKSM_j
UKd:__ZN5physx23PxcPCMContactCapsuleBoxERKNS_2Gu13GeometryUnionES3_RKNS_11PxTransformES6_RKfRNS_10PxcNpCacheERNS0_13ContactBufferE
UPa:__Z37ReadDirectoryInfo_UnityWebAndUnityRawR12FileAccessorRKN20ArchiveStorageHeader6HeaderERNS1_13DirectoryInfoE
s0:__ZNSt3__26__treeINS_12__value_typeIPKciEENS_19__map_value_compareIS3_S4_15compare_tstringIS3_ELb1EEENS_9allocatorIS4_EEE7destroyEPNS_11__tree_nodeIS4_PvEE
Ttj:_Dictionary_2_ToTValue_m1381983709_gshared
_8f:_MulticastDelegate_KPM_m1592985119
hti:_MeshCollider_set_sharedMesh_m4192566451
nLg:_Collection_1_ConvertItem_m3941916604_gshared
PZa:__ZN20DynamicPropertySheet14SetValueQueuedEN9ShaderLab16FastPropertyNameEN19ShaderPropertySheet12PropertyTypeEjNS2_8SetFlagsE
_se:__ZN2UI6Canvas26MarkAllNestedCanvasesDirtyEv
ujl:__ZN6il2cpp2vm12ReboxIfBoxedEP14Il2CppIUnknownP11Il2CppClass
iMa:__ZN16GeometryJobTasks20ScheduleGeometryJobsER9GfxDevicePFvP15GeometryJobDataEPK22GeometryJobInstructionjb
ddb:__ZN25PathNamePersistentManagerD2Ev
j2:__ZN17PersistentManager48IntegrateObjectAndUnlockIntegrationMutexInternalEi
Wca:__ZZ29InitializeSortingGroupManagerPvEN44PostLateUpdateSortingGroupsUpdateRegistrator7ForwardEv
yq:__ZN6Object12SetHideFlagsENS_9HideFlagsE
p3d:__ZN9Rigidbody23VirtualRedirectTransferER14SafeBinaryRead
VMl:_emscripten_glGetFramebufferAttachmentParameteriv__wrapper
iVa:__ZN13RendererScene15InitializeUmbraEv
dGj:_AnimatorTransitionInfo_IsName_m2561957738_AdjustorThunk
Tta:__Z28CalculateGlobalMatrixInverse23TransformAccessReadOnly
hvc:__ZN4PPtrI6ObjectE8TransferI9JSONWriteEEvRT_
nCi:__ZL60SecurityAttribute_t2016950496_CustomAttributesCacheGeneratorP21CustomAttributesCache
Fwb:__ZN13dynamic_arrayI12BoneWeights4Lj16EE18resize_initializedEjRKS0_12ResizePolicy
oWe:_PointerEventData_ToString_m1218584363
Ish:_UTF7Encoding_GetCharCount_m2589913583
nid:__ZNK5physx15PxsParticleData15getWorldBoundsVEv
j1d:__ZN15CapsuleCollider13AwakeFromLoadE17AwakeFromLoadMode
n3:__ZN13MonoBehaviour19ReleaseMonoInstanceEv
j3f:_MemoryStream_CalculateNewCapacity_m3533542025
pKc:__ZN12_GLOBAL__N_124HfTrianglesEntityReport27onEventEjPj
O$c:__ZNK5physx2Sc15ArticulationSim16createDriveCacheEfj
twh:_TimeSpan_Equals_m4102942751_AdjustorThunk
Foj:_ValueCollection_System_Collections_Generic_ICollectionU3CTValueU3E_Add_m1903672223_gshared
o3c:__ZN5physx17PxsContactManager16resetCachedStateEv
HDe:__ZN12HeaderHelper14SetUnvalidatedERKN4core12basic_stringIcNS0_20StringStorageDefaultIcEEEES6_b
UJ:__ZN4FMOD6SoundI7releaseEv
knd:__ZN5physx20NpRigidActorTemplateINS_14PxRigidDynamicEE15setActorSimFlagEb
IQa:__ZN10MemoryFile9SetLengthEy
tzh:_UInt16_ToString_m2038947049_AdjustorThunk
dEj:_AnimatorControllerPlayable_GetNextAnimatorClipInfoInternal_m1102604948
ZDb:__Z28scripting_class_is_interface17ScriptingClassPtr
ji:_glTexStorage2D
wMf:_Array_InternalArray__Insert_TisRaycastHit2D_t4063908774_m3174907903_gshared
GXb:__ZNK9ShaderLab10SubProgram14EnsureCompiledEv
YCh:__Z79RuntimeInvoker_Boolean_t3825574718_RuntimeObject_RuntimeObject_SByte_t454417549PFvvEPK10MethodInfoPvPS4_
Mlh:_ObjectManager_RecordFixup_m3572285566
i6d:__ZN5physx7profile10DataBufferINS_6shdfnd6MutexTINS0_26WrapperReflectionAllocatorIhEEEENS0_14ScopedLockImplIS6_EEE17handleBufferFlushEPKhj
Cmf:_SortedList_InitTable_m460350503
C3:__Z18BuildScriptClassId17ScriptingClassPtr
B8j:_InternalEnumerator_1_get_Current_m4279678504_AdjustorThunk
j3b:__ZN8Renderer28HandleParentHierarchyChangesEPK23TransformAccessReadOnlyj
Tea:__ZL31DeleteLastPathNameComponentImplRKN4core12basic_stringIcNS_20StringStorageDefaultIcEEEEPKc
g$b:__Z13RegisterClassI18DelayedCallManagerEvv
sAe:__ZN18UnityConnectClient15GetCloudServiceEv
AKb:__Z18Transfer_BlittableI24GenerateTypeTreeTransferLb0EiEvRK29SerializationCommandArgumentsR31RuntimeSerializationCommandInfo
bTd:__ZN5physx20PxsConstraintProjectEPKNS_13PxsConstraintEbf
Vad:__ZN5physx7NpShape7setFlagENS_11PxShapeFlag4EnumEb
TDb:__ZL28SerializationCommandGroupForRK31TransferFunctionScriptingTraits17ScriptingClassPtr17ScriptingFieldPtrRK20CoreScriptingClasses
kib:__ZN10TagManager32RegisterDefaultTagsAndLayerMasksEv
TIf:_Array_InternalArray__IndexOf_TisKeyCode_t2283395152_m1857821576_gshared
Swi:_PlayableHandle_SetDuration_m1990009798_AdjustorThunk
_Od:__ZN5physx2Sc35ParticleElementRbElementInteraction12onDeactivateEj
r_k:__ZN15dense_hashtableINSt3__24pairIK10KeyWrapperIPKcEP11Il2CppClassEES5_N6il2cpp5utils11StringUtils12StringHasherIS4_EEN14dense_hash_mapIS5_S8_SE_NS5_14EqualsComparerINSB_13VmStringUtils21CaseSensitiveComparerEEENS0_9allocatorIS9_EEE9SelectKeyESJ_SL_E15insert_noresizeERKS9_
puh:_SynchronizationLockException__ctor_m549086841
nye:__Z56Register_UnityEngine_Analytics_CustomEventData_AddUInt32v
vhf:_ArrayList_InsertRange_m1478230997
UEa:__ZN4gles8InitCapsEP7ApiGLESP12GraphicsCapsR16GfxDeviceLevelGL
Hoa:__ZN6prcore14BlitImageFloatERK14ImageReferenceRS0_NS0_8BlitModeE
lwa:__Z24CalculateVertexLightDataRK15SharedLightDataR14GfxVertexLight
nsi:_Matrix4x4_Equals_m1321236479_AdjustorThunk
Ti:_glEnable
Sra:__ZN15dense_hashtableINSt3__24pairIKiiEEi21InstanceIDHashFunctorN14dense_hash_mapIiiS4_NS0_8equal_toIiEE13stl_allocatorIS3_L18MemLabelIdentifier1ELi16EEE9SelectKeyES7_SA_E12maybe_shrinkEv
OXa:__ZNK25CameraStackRenderingState21GetImageEffectTextureEb
Lmh:_RuntimeMethodHandle__ctor_m2437574937_AdjustorThunk
Gwd:__ZN5physx2Sq8AABBTreeC2Ev
Ttc:__Z35Transfer_Blittable_FixedBufferFieldI9JSONWriteiEvRK29SerializationCommandArgumentsR31RuntimeSerializationCommandInfo
Uyh:_UInt16_System_IConvertible_ToInt64_m2835280558_AdjustorThunk
ITi:__ZL53g_UnityEngine_Assembly_CustomAttributesCacheGeneratorP21CustomAttributesCache
aDk:_Predicate_1_BeginInvoke_m3926587117_gshared
BBb:__ZNSt3__26vectorI4PPtrI6ObjectE13stl_allocatorIS3_L18MemLabelIdentifier51ELi16EEE6assignINS_11__wrap_iterIPS3_EEEENS_9enable_ifIXaasr21__is_forward_iteratorIT_EE5valuesr16is_constructibleIS3_NS_15iterator_traitsISD_E9referenceEEE5valueEvE4typeESD_SD_
ry:__ZN26AnimatorControllerPlayable17ProcessRootMotionEP35AnimationPlayableEvaluationConstantP32AnimationPlayableEvaluationInputP33AnimationPlayableEvaluationOutput
ntg:_List_1_get_Item_m1231764300_gshared
oDh:__Z94RuntimeInvoker_Boolean_t3825574718_Int32_t2071877448_SByte_t454417549_ExceptionU26_t1467204777PFvvEPK10MethodInfoPvPS4_
e0e:_DefaultControls_CreateToggle_m1568873127
Dtj:_Dictionary_2_InitArrays_m2270022740_gshared
aze:__ZN11UnityEngine7Connect15DeviceInfoEvent16CollectExtraInfoEv
ztl:__ZN6il2cpp2os11Environment22SetEnvironmentVariableERKNSt3__212basic_stringIcNS2_11char_traitsIcEENS2_9allocatorIcEEEESA_
dWd:__ZN5physx2Gu10ConvexMeshD2Ev
Zrh:_UnicodeEncoding_GetChars_m3765282346
e$f:_IntPtr__ctor_m4104029105
ebl:__ZN6il2cpp2gc19AppendOnlyGCHashMapIPK10Il2CppTypeP20Il2CppReflectionTypeNS_8metadata14Il2CppTypeHashENS7_26Il2CppTypeEqualityComparerEEC2Ev
Vck:_InternalEnumerator_1_System_Collections_IEnumerator_get_Current_m771161214_AdjustorThunk
Y7f:_MonoType_get_attributes_m1493788675
Hyl:__ZN6il2cpp6icalls8mscorlib6System10Reflection9FieldInfo25internal_from_handle_typeE12Il2CppIntPtrS5_
Dqf:_Convert_ToDouble_m4236754739
u1e:_Dropdown_CreateItem_m2702141380
JDi:__ZL48Stack_t1043988394_CustomAttributesCacheGeneratorP21CustomAttributesCache
Gp:FUNCTION_TABLE_viifi
Jp:FUNCTION_TABLE_viiff
FT:__Z75AudioPlayableGraphExtensions_CUSTOM_INTERNAL_CALL_InternalCreateAudioOutputR14HPlayableGraphP12Il2CppStringP15HPlayableOutput
gQc:__ZNK5physx2Sc8ShapeSim10getBodySimEv
lgi:_MonoEvent_GetAddMethod_m4289563120
PBi:__ZL37Type_t_CustomAttributesCacheGeneratorP21CustomAttributesCache
Mpe:_UNITY_tt_face_free_hdmx
X4k:__ZN6il2cpp2vm14TypeNameParser5ParseEb
DSj:_ReflectionMethodsCache__ctor_m1835220
BMk:_RefreshScene_Refresh_m2563309098
t4c:__ZN5physx6shdfnd5ArrayIPvNS0_19ReflectionAllocatorINS_2Cm5BlockIhLj128EEEEEE15growAndPushBackERKS2_
HCe:__ZN23UnityPurchasingSettingsC2Ev
Ryf:_Double_ToString_m1864290157
vyb:__ZNK9Transform13GetWorldScaleEv
Bbd:__ZN5physx14NpShapeManager15setupSceneQueryERNS_2Sq17SceneQueryManagerERKNS_12PxRigidActorERKNS_7NpShapeE
hva:__ZL37stbir__resample_horizontal_downsampleP11stbir__infoiPf
osa:__ZNK5Unity9Component38MarkGameObjectAndComponentDependenciesER27GarbageCollectorThreadState
JFj:_Animator_get_hasBoundPlayables_m3670407842
W_:__ZL16OutOfMemoryErrorjj18MemLabelIdentifieriPKc
eYc:__ZNK5physx2Sc9ClothCore23getExternalAccelerationEv
Zif:_SynchronizedArrayListWrapper_Contains_m2259439339
b4:__ZNK11TypeManager15ClassNameToRTTIEPKcb
cIc:__ZN5physx2Gu13coarseCullingERKNS_6PxVec3ES3_ffRKNS_10PxTriangleE
QRb:__Z18Transfer_BlittableI18StreamedBinaryReadILb0EELb1EdEvRK29SerializationCommandArgumentsR31RuntimeSerializationCommandInfo
aXf:_Guid__ctor_m2599802704
K1f:_FileStream_get_CanRead_m4148920720
APd:__ZN5physx2Sc5Scene29processNarrowPhaseTouchEventsEv
xHa:__ZN4crnd12symbol_codec32decode_receive_static_data_modelERNS_25static_huffman_data_modelE
H0b:__ZN18ScriptingArguments8AddFloatEf
vVf:_GregorianCalendar_set_CalendarType_m2438362222
FDf:_Array_InternalArray__ICollection_Contains_TisVector2_t2243707579_m3625698589_gshared
h_c:__ZN5physx6shdfnd5ArrayIPvNS0_15InlineAllocatorILj256ENS0_19ReflectionAllocatorINS_18NpArticulationLinkEEEEEE15growAndPushBackERKS2_
Luc:__Z18Transfer_BlittableI9JSONWriteLb0EaEvRK29SerializationCommandArgumentsR31RuntimeSerializationCommandInfo
YU:__ZN11UnityEngine15CloudWebService14DataDispatcher34OnSessionContainerArchivedAndReadyERNS0_16SessionContainerE
eWf:_NumberFormatInfo_GetFormat_m3247563525
CNc:__ZNK5physx3Cct15ObstacleContext11getObstacleEj
mYg:_CipherSuiteCollection__ctor_m2154226461
IMb:__Z18Transfer_BlittableI19StreamedBinaryWriteILb0EELb0E8Vector3fEvRK29SerializationCommandArgumentsR31RuntimeSerializationCommandInfo
hqk:_RectOffset__ctor_m2227510254
RTb:__ZN14SafeBinaryRead19TransferSTLStyleMapINSt3__23mapIN4core12basic_stringIcNS3_20StringStorageDefaultIcEEEEiNS1_4lessIS7_EENS1_9allocatorINS1_4pairIKS7_iEEEEEEEEvRT_17TransferMetaFlags
the:_gray_move_to
sph:_DSAParameters_t1872138834_marshal_pinvoke
P3j:_ConstructionCall_InitDictionary_m4046452035
$9k:__ZN6il2cpp2vm10Reflection14GetEventObjectEP11Il2CppClassPK9EventInfo
FZg:_TlsStream_Write_m2271546135
Gbc:__Z30RegisterValidateMethodCallbackiPF18ScriptingMethodPtrS_17ScriptingClassPtrP6ObjectEPKc
OBf:_CultureInfo_ConstructInternalLocaleFromCurrentLocale_m1342751405
crh:_Latin1Encoding_GetString_m3553289597
eAd:__ZN5physx13IslandManager6resizeEj
Rie:_tt_cmap_init
Ta:invoke_viidi
Tll:__ZN15dense_hashtableI10KeyWrapperIP18Il2CppGenericClassES3_N6il2cpp8metadata22Il2CppGenericClassHashEN14dense_hash_setIS3_S6_NS3_14EqualsComparerINS5_25Il2CppGenericClassCompareEEENSt3__29allocatorIS3_EEE8IdentityESA_SD_E12maybe_shrinkEv
l0b:__ZN9TextAssetC2E18MemLabelIdentifier18ObjectCreationMode
$Uc:__ZN5physx6shdfnd8PoolBaseINS_2Cm5BlockIPvLj16EEENS0_19ReflectionAllocatorIS5_EEE17releaseEmptySlabsEv
TOj:_Display_RecreateDisplayList_m3412638488
RSl:_emscripten_glCheckFramebufferStatus__wrapper
Jel:__ZNK15dense_hashtableINSt3__24pairIK10KeyWrapperIP11Il2CppClassES4_EES5_N6il2cpp8metadata16SZArrayClassHashEN14dense_hash_mapIS5_S4_SA_NS5_14EqualsComparerINS9_19SZArrayClassCompareEEENS0_9allocatorIS7_EEE9SelectKeyESE_SG_E12test_deletedEj
mOc:__ZL20updateMassAndInertiabRN5physx11PxRigidBodyEPKfjPKNS_6PxVec3Eb
rxc:__Z18Transfer_BlittableI8JSONReadLb0EdEvRK29SerializationCommandArgumentsR31RuntimeSerializationCommandInfo
s6d:__ZN5physx24NpPtrTableStorageManagerC2Ev
p$h:__Z83RuntimeInvoker_Boolean_t3825574718_NavigationU26_t3929175072_Navigation_t1571958496PFvvEPK10MethodInfoPvPS4_
Ewe:__Z44Register_UnityEngine_Canvas_set_sortingOrderv
Juh:_Thread_ClrState_m822263449
Nbg:_SimpleCollator_LastIndexOfOrdinalIgnoreCase_m550798345
e0k:__ZN6il2cpp2vm21ThreadPoolCompartment13QueueWorkItemEP17Il2CppAsyncResult
rAa:__ZNK9GfxDevice13GetViewMatrixEv
Xsd:__ZN5physx7NpScene15flushSimulationEb
P9c:__ZN5physx6shdfnd8PoolBaseINS_10NpMaterialENS0_19ReflectionAllocatorIS2_EEE12allocateSlabEv
Y4:__ZN8TypeTree8BlobReadERPKhS1_ib
JZd:__ZN5physx18ReducedVertexCloudC2EPKNS_6PxVec3Ej
Yqj:_Dictionary_2_System_Collections_Generic_ICollectionU3CSystem_Collections_Generic_KeyValuePairU3CTKeyU2CTValueU3EU3E_Remove_m3080541539_gshared
Lsa:__ZN18LoadSceneOperation23GetAllowSceneActivationEv
hjb:__ZN6CameraD0Ev
mdg:_ModulusRing_Multiply_m386339435
bba:__ZN31CanvasBatchIntermediateRenderer16StaticInitializeEPv
M3e:_GraphicRaycaster_U3CRaycastU3Em__0_m3971200721
wOg:_ReadOnlyCollection_1_System_Collections_IList_RemoveAt_m3004588099_gshared
Dx:__ZN7mecanim12AndValueMaskILb0EEEvPKNS_14ValueArrayMaskEPS1_
jqf:_Decimal_op_Implicit_m4246329390
Ukg:_ArgumentNullException__ctor_m2252076819
P8a:__ZN10GameObjectC2E18MemLabelIdentifier18ObjectCreationMode
vge:_raccess_guess_apple_double
V4g:_ListDictionary_GetEnumerator_m1511032609
ilh:_SerializationInfo__ctor_m4016423422
tIa:__ZL18ProgramUniform1uivPK7ApiGLESjiihPKv
Q2b:__ZN14Texture2DArray13RebuildMipMapEv
lWk:__ZN13Il2CppHashSetIPK17Il2CppGenericInstN6il2cpp8metadata21Il2CppGenericInstHashENS4_24Il2CppGenericInstCompareENSt3__29allocatorI10KeyWrapperIS2_EEEEC2EjRKS5_RKS6_
GGb:__Z18Transfer_BlittableI14SafeBinaryReadLb1EaEvRK29SerializationCommandArgumentsR31RuntimeSerializationCommandInfo
Dql:__ZN6il2cpp2gc16GarbageCollector14RemoveWeakLinkEPPv
TXb:__ZN9ShaderLab20SerializedSubProgram14AddVectorParamEPKcii15ShaderParamTypei
dRg:_ReadOnlyCollection_1_System_Collections_IEnumerable_GetEnumerator_m1734360860_gshared
w_j:_ResourceSet_ReadResources_m1669023823
bjg:_PKCS12_RemoveCertificate_m1590055870
vfl:__ZN6il2cpp2vm6Thread7SetNameEP12Il2CppThreadP12Il2CppString
a$i:__ZL107Collision_t2876846408_CustomAttributesCacheGenerator_Collision_t2876846408____frictionForceSum_PropertyInfoP21CustomAttributesCache
dga:__ZN13ScreenManager18SetAllowCursorLockEb
qW:__ZN11UnityEngine15CloudWebService10RestClientINS0_23WebRequestRestHeaderMapEE16SetRequestHeaderERKN4core12basic_stringIcNS4_20StringStorageDefaultIcEEEESA_
rCb:__ZN30RuntimeInitializeOnLoadManager15ClassMethodInfo8TransferI14SafeBinaryReadEEvRT_
Ghj:__ZL73CanvasScaler_t2574720772_CustomAttributesCacheGenerator_m_ScreenMatchModeP21CustomAttributesCache
QS:__ZL22InitializeModule_Audiov
JAd:__ZN5physx2Sq11PruningPoolD0Ev
$db:__ZN16MemoryFileSystem8IsLockedERK13FileEntryData
BId:__ZN3MBP15removeBoxPrunerEj
Ywk:_Vector2_get_Item_m2792130561_AdjustorThunk
Ufi:_MonoCMethod_Invoke_m931478014
OEh:__Z86RuntimeInvoker_Int32_t2071877448_Int16_t4041245914_Int32_t2071877448_Int32_t2071877448PFvvEPK10MethodInfoPvPS4_
D_j:_SatelliteContractVersionAttribute__ctor_m2605651717
Bl:_emscripten_glBindRenderbuffer
Hqc:__Z32GUIStyle_Set_Custom_PropClippingP12Il2CppObjecti
Mwl:_GC_dirty_init
Abf:_Array_Copy_m1969461849
Ckh:_MessageFormatter_ReadMethodResponse_m4134629501
qnl:__ZN6il2cpp2vm5Field14GetValueObjectEP9FieldInfoP12Il2CppObject
aue:__ZNK2UI6Canvas16GetTargetDisplayEv
Zzf:_Environment_get_OSVersion_m1247315981
CFc:__ZL15SweepBoxCapsulePKN5physx3Cct9SweepTestEPKNS0_11SweptVolumeEPKNS0_11TouchedGeomERKNS_14PxExtendedVec3ERKNS_6PxVec3ERNS0_12SweptContactE
M8:__ZN6Object17FindObjectsOfTypeEPKN5Unity4TypeER13dynamic_arrayIPS_Lj4EEb
qDb:__ZN13MonoBehaviour17RemoveFromManagerEv
fUd:__ZN5physx2Sc19ParticlePacketShapeD2Ev
Stb:__ZL11DecodeValuePPKcS0_
qmj:_ShimEnumerator_MoveNext_m2013866013_gshared
IZ:__ZN13MemoryManagerC2Ev
qLa:__ZN12SkinMeshInfo10DeallocateEPS_
lwk:_Transform_SetParent_m1963830867
VSa:__ZN20ArchiveStorageReader28AcquireAndPrefillUnusedBlockEjPNS_11CacheResultE
J2b:__Z12NHxRoughnessIA4_tEvP9Texture2DPT_iiii
l9:__ZN18AsyncUploadManagerD2Ev
HZb:__ZN9Transform5ResetEv
tMb:__Z22TransferField_NonArrayI24GenerateTypeTreeTransfer16Converter_StringEvRK23StaticTransferFieldInfoR31RuntimeSerializationCommandInfoRT0_
Iie:_UNITY_FT_CMap_New
Vfa:__Z17MainLoopKeepalivePv
SXc:__ZN5physx7NpScene16addActorInternalERNS_7PxActorE
Kik:_MatchCollection__ctor_m1944681790
nnc:__ZN18CrashReportHandler25UnregisterGlobalCallbacksEv
VFe:_HMACSHA512__ctor_m1667460019
L5a:__Z24ScheduleCullingAllGroupsR8JobFenceRK22SceneCullingParameters4PPtrI6CameraERK13CullingOutputRK13dynamic_arrayIP12CullingGroupLj4EERKS_
NCl:_printf_core
X4a:__Z14CalcHullBoundsPK8Vector3fPKhhRK5PlaneRK10Matrix4x4fR10MinMaxAABB
Cih:_RealProxy__ctor_m2147093603
gQ:__ZNK14SoundHandleAPI12GetFrequencyEv
KZa:__Z19SetupLODFadeKeywordR17ShaderPassContexti
uie:_UNITY_FT_Stream_ReadFields
kVf:_DateTimeFormatInfo_GetAllDateTimePatternsInternal_m1587126173
qvl:_GC_set_fl_marks
LKa:__ZL25CheckCopyTextureArgumentsRK7ApiGLESP11GLESTextureS3_
e9:__ZN13dynamic_arrayI26EnlightenSystemInformationLj8EE6insertEPS0_PKS0_S4_
mie:_tt_name_entry_ascii_from_utf16
a9f:_MulticastNotSupportedException__ctor_m2164514827
etf:_DateTime_System_IConvertible_ToChar_m2489529194_AdjustorThunk
YLb:__Z29Transfer_Blittable_ArrayFieldI24GenerateTypeTreeTransferyEvRT_R9ArrayInfoRK23StaticTransferFieldInfo
RM:__ZN4FMOD7SystemI9playSoundE17FMOD_CHANNELINDEXPNS_5SoundEbPPNS_7ChannelE
N9d:__ZN13PhysicsModule31GetColliderComponentsInChildrenERK10GameObjectbbR13dynamic_arrayIPN5Unity9ComponentELj4EE
lZ:__GLOBAL__sub_I_runtime_graphics_mesh2_lump_cpp
ndd:__ZNK5physx7NpCloth16getStretchConfigENS_22PxClothFabricPhaseType4EnumE
Cx:__ZN27AnimationLayerMixerPlayable17LayerMixerProcessEP35AnimationPlayableEvaluationConstantP32AnimationPlayableEvaluationInputP33AnimationPlayableEvaluationOutputM17AnimationPlayableFvS1_S3_S5_EMS_FvS1_S3_S5_ESA_MS_FvS5_S1_S3_S5_ifE
U4k:__ZN6il2cpp2os4File4ReadEPNS0_10FileHandleEPciPi
tL:__ZN12AudioManager23VirtualRedirectTransferER18StreamedBinaryReadILb0EE
gFl:_realloc
$lc:__Z57Register_UnityEngine_Transform_INTERNAL_get_localRotationv
jxh:_Type_get_IsInterface_m3583817465
AJl:dynCall_viif
Egi:_MonoField_get_DeclaringType_m1591666235
jfh:_Enumerator_MoveNext_m4234629003
Zme:_cf2_hint_lock
_Sd:__ZN5physx2Sc24ConstraintProjectionTree11projectPoseERNS0_19ConstraintGroupNodeE
MJb:__ZL26Transfer_SimpleNativeClassI17RemapPPtrTransfer8GradientLb0EEvRK29SerializationCommandArgumentsR31RuntimeSerializationCommandInfo
V9d:__ZN13PhysicsModule29GetColliderMaterialInstanceIDER8Collider
Z7f:_MonoType_GetDefaultConstructor_m925465120
_W:__ZN13UploadHandlerD2Ev
AHl:dynCall_viiiiiffi
hd:_emscripten_glBlendFuncSeparate
u1:__Z20scripting_string_newPKc
tkc:__Z43Material_CUSTOM_Internal_CreateWithMaterialP12Il2CppObjectS0_
F0f:_Directory_GetCurrentDirectory_m44486537
cCg:_Collection_1_System_Collections_ICollection_CopyTo_m1047946700_gshared
M8g:_AsnEncodedData_Default_m4197142414
$Wd:__ZThn8_N5physx2Gu11HeightFieldD1Ev
X$c:__ZNK5physx19PxArticulationJoint19getConcreteTypeNameEv
LC:__ZNSt3__26__sortIRPFbPKN8Animator11AnimatorJobES4_EPS4_EEvT0_S9_T_
JK:__ZN17AudioCustomFilterD2Ev
ZI:__Z91Register_UnityEngine_Animations_AnimatorControllerPlayable_INTERNAL_CALL_ResetTriggerStringv
kpc:__ZNK8GUIStyle13GetLineHeightEv
VJa:__ZN18GfxFramebufferGLES18ReleaseFramebufferEP17RenderSurfaceBaseP14GfxContextGLES
Y1j:_Context_GetDynamicPropertyCollection_m1987747444
Z9g:_X509Certificate2_get_Version_m1927399907
q5b:__ZN13ProduceHelperI6CameraLb0EE7ProduceE18MemLabelIdentifier18ObjectCreationMode
s5e:_Image_RadialCut_m3229543088
wY:__ZN19CloudServiceHandler34HandleSaveFileWebRequestPlayerLoopEv
Ty:__ZN7mecanim21ValueArrayReverseCopyEPKNS_18ValueArrayConstantEPKNS_10ValueArrayES2_PS3_PKi
uK:__Z31GetParentSampleClipFromInstancePN11SoundHandle8InstanceE
O0b:__ZNK28RectTransformPropertyBinding13GetFloatValueERKN11UnityEngine9Animation10BoundCurveE
N7a:__ZN6Camera22StandaloneCustomRenderENS_10RenderFlagEP6ShaderRKN4core12basic_stringIcNS3_20StringStorageDefaultIcEEEEPNS_21PerformRenderFunctionE
Eod:__ZL22addOrRemoveRigidObjectILb0ELb0ELb0ELb1EN5physx3Scb11RigidStaticEEvRNS0_2Sc5SceneERT3_b
BBl:__ZN6il2cpp2os16ThreadLocalValue8GetValueEPPv
y_k:__ZN6il2cpp2vm13MetadataCache14GetGenericInstEPKPK10Il2CppTypej
yJe:_SHA384Managed_Initialize_m712692291
y0j:_ChannelInfo__ctor_m2502026239
Jd:_glUniform1uiv
smc:__Z52Object_CUSTOM_GetOffsetOfInstanceIDInCPlusPlusObjectv
Zvk:_Transform_get_right_m440863970
lVc:__ZN5physx6shdfnd4sortIPvNS0_4LessIS2_EENS0_19ReflectionAllocatorINS_2Cm5BlockIS2_Lj8EEEEEEEvPT_jRKT0_RKT1_j
w9c:__ZNK5physx9NpPhysics11getNbShapesEv
rq:setThrew
B2b:__ZL21BuildEmptyCubeTexturePKci11ColorRGBA3217TextureColorSpace
UTb:__ZN14SafeBinaryRead21TransferSTLStyleArrayINSt3__26vectorIN9ShaderLab20SerializedSubProgramENS1_9allocatorIS4_EEEEEEvRT_17TransferMetaFlags
ywc:__Z15Transfer_StringI8JSONReadLb1EEvRK29SerializationCommandArgumentsR31RuntimeSerializationCommandInfo
bqa:__ZN6prcoreL17RemapGenericFloatI17TexFormatRGBFloat15TexFormatRGHalfEEvPKNS_9InnerInfoE
a$a:__Z25DoForwardShaderRenderLoopR17RenderLoopContextR13dynamic_arrayI16RenderObjectDataLj4EERK11CullResultsbbbN6Camera10RenderFlagE
ESf:_GameObject_GetComponent_TisRuntimeObject_m2812611596_gshared
Mhe:_sfnt_load_face
kee:_UNITY_FT_Render_Glyph_Internal
Ysh:_UTF8Encoding_GetByteCount_m2372933408
V1j:_Context_get_NeedsContextSink_m1907794755
Dhe:_UNITY_ft_service_list_lookup
$Ug:_ARC4Managed_GenerateKey_m716135508
Poc:__ZN5IMGUI21SelectReceivingWindowER8GUIStateb
uEc:__ZN5physx2Gu20intersectTriangleBoxERKNS_6PxVec3ES3_S3_S3_S3_
eG:__ZNK26AnimatorControllerPlayable17ValidateGoToStateERiS0_
r8c:__ZN5physx10NpMaterial8setFlagsENS_7PxFlagsINS_14PxMaterialFlag4EnumEtEE
rfb:__ZN13BaseAllocator13TryDeallocateEPv
kbf:_Array_CreateInstance_m1054139389
Hmi:_GUIStyleState_GetGUIStyleState_m2816150617
Rjb:__ZNSt3__26vectorIN12FlareManager10FlareEntryENS_9allocatorIS2_EEE21__push_back_slow_pathIKS2_EEvRT_
e8h:_Default_check_arguments_with_score_m1714931543
VEe:_SHA1_Create_m4086509717
nhi:_MonoMethodInfo_GetMethodInfo_m3298558752
eL:__ZN13AudioListener17RemoveFromManagerEv
ce:_glAttachShader
y1e:_Dropdown_SetAlpha_m2769981009
M4d:__ZN5physx6shdfnd8internal8HashBaseINS0_4PairIKtPKcEEtNS0_4HashItEENS1_11HashMapBaseItS6_S9_NS_7profile26WrapperReflectionAllocatorIS6_EEE6GetKeyESD_Lb1EE6createERS4_Rb
EYa:__ZNK6Camera19GetProjectionMatrixEv
ECk:_Predicate_1_BeginInvoke_m1856151290_gshared
Qtd:__ZNK5physx7NpScene24getWakeCounterResetValueEv
Rxf:_StackTrace__ctor_m2404985356
gLd:__ZN5physx2Gu32PCMConvexVsMeshContactGeneration20generateLastContactsEv
k3:__Z38PreallocateObjectFromPersistentManagerib
stf:_DateTime_System_IConvertible_ToSingle_m3927769066
B8c:__ZThn12_N5physx10NpMaterialD0Ev
nZ:__GLOBAL__sub_I_runtime_interfaces_lump_cpp
Ypb:__ZNK9Texture2D20GetUnscaledTextureIDEv
K_d:__ZN5physx6shdfnd4sortIjNS_19SortBoundsPredicateENS0_19ReflectionAllocatorIjEEEEvPT_jRKT0_RKT1_j
JPl:_glFenceSync__wrapper
R8f:_MonoType_get_ContainsGenericParameters_m3229732653
aJ:__Z103Register_UnityEngine_Animations_AnimatorControllerPlayable_INTERNAL_CALL_IsParameterControlledByCurveIDv
$ad:__ZN5physx7NpShape14onRefCountZeroEv
tBg:_Queue_1_Peek_m1463479953_gshared
RIf:_Array_InternalArray__IndexOf_TisContactPoint_t1376425630_m3651364246_gshared
dfj:__ZL53InputField_t1631627530_CustomAttributesCacheGeneratorP21CustomAttributesCache
h_d:__ZL15TestContainmentRKN5physx6PxVec3EPKfjPKNS_2Gu15HullPolygonDataE
ZYe:_ButtonClickedEvent__ctor_m938038541
GSb:__ZN18StreamedBinaryReadILb0EE21TransferSTLStyleArrayI13dynamic_arrayI4AABBLj4EEEEvRT_17TransferMetaFlags
ULh:__Z119RuntimeInvoker_Int32_t2071877448_RuntimeObject_Int32_t2071877448_Int32_t2071877448_CharU26_t1894467670_SByte_t454417549PFvvEPK10MethodInfoPvPS4_
Oyh:_UInt16_System_IConvertible_ToDouble_m4100549304_AdjustorThunk
nta:__Z29ClearRepeatingLogMessageStatev
iXd:__ZN5physx2Gu11HeightField12loadFromDescERKNS_17PxHeightFieldDescEb
cOe:_Single_System_IConvertible_ToInt16_m962677079
A8:__ZN21EnlightenSceneMappingaSERKS_
TBl:__ZNK6il2cpp8metadata21Il2CppGenericInstHashclEPK17Il2CppGenericInst
qOe:_Single_System_IConvertible_ToUInt32_m2447833283
KOa:__ZN7ApiGLESD2Ev
y9a:__ZN9Transform47ClearTransformHierarchyAndApplyToSerializedDataEv
Xak:_InternalEnumerator_1_get_Current_m4083613828_AdjustorThunk
Wqd:__ZN5physx6shdfnd8PoolBaseINS_2Gu30LargePersistentContactManifoldENS0_19ReflectionAllocatorIS3_EEE12allocateSlabEv
tJj:_Bounds_op_Equality_m2161830280
jdb:__ZN17PersistentManager9AddStreamEv
XJl:dynCall_fidi
e7k:__ZN15dense_hashtableINSt3__24pairIK10KeyWrapperINS1_IPK9FieldInfoP11Il2CppClassEEEjEES9_17ReflectionMapHashIS8_EN14dense_hash_mapIS9_jSD_NS9_14EqualsComparerINS0_8equal_toIS8_EEEENS0_9allocatorISB_EEE9SelectKeyESI_SK_E12resize_deltaEjj
Grc:__Z47Register_UnityEngine_GUIStyle_set_imagePositionv
kPd:__ZN5physx20getVertexEdgeIndicesERKNS_2Gu11HeightFieldEjjjPNS_8EdgeDataE
hrc:__Z49GUIStyle_CUSTOM_INTERNAL_CALL_Internal_DrawCursor13Il2Cpp_IntPtrRK5RectTIfEP12Il2CppObjectiRK10ColorRGBAf
awd:__ZN5physx6shdfnd5ArrayIPNS_2Sc8BodyCoreENS0_19ReflectionAllocatorIS4_EEE6resizeEjRKS4_
Bqk:_RectTransform_set_anchorMin_m4247668187
SMc:__ZN5physx3Cct26CharacterControllerManager16createControllerERNS_9PxPhysicsEPNS_7PxSceneERKNS_16PxControllerDescE
Bbc:__ZNK13MonoBehaviour13GetScriptTypeEv
Xha:__ZN13RenderTexture12SetDimensionE16TextureDimension
Csk:_ScriptableObject_CreateInstance_m3921674852
Ue:_SDL_FreeRW
hzd:__ZN5physx6shdfnd8PoolBaseINS_2Cm5BlockIhLj128EEENS0_19ReflectionAllocatorIS4_EEE15disposeElementsEv
_Ie:_SHA1Internal_FillBuff_m891541953
tve:__Z34CanvasRenderer_Get_Custom_PropCullP12Il2CppObject
ljd:__ZN5physx3Scb14ParticleSystem14setRestOffsetsEjRKNS_16PxStrideIteratorIKjEERKNS2_IKfEE
Z1d:__ZN12MeshCollider11CreateShapeEPvPK9RigidbodyRK8Vector3f
FP:__ZN20SoundChannelInstance8getDelayE14FMOD_DELAYTYPEPjS1_
x6e:_InputField_set_customCaretColor_m3534590098
AUj:_ScrollRect_set_viewport_m323693490
CUf:_NumberFormatter_FormatExponential_m3975285307
$ce:__ZNSt3__26vectorIN20TextRenderingPrivate8FontImpl13CharacterInfoE13stl_allocatorIS3_L18MemLabelIdentifier1ELi16EEE8__appendEj
v:tempBigInt
af:_emscripten_glVertexAttrib1fv
yUb:__ZNSt3__26vectorIN9ShaderLab20SerializedSubProgram12UAVParameterENS_9allocatorIS3_EEE7reserveEj
XRf:_Array_InternalArray__get_Item_TisTypeTag_t141209596_m1747911007_gshared
$yj:_AnimationCurve_Init_m1486386337
fNj:_Component_GetComponents_m3712441745
Qud:__ZN5physx13NpVolumeCacheC2EPNS_2Sq17SceneQueryManagerEjj
hWc:__ZThn24_N5physx2Sc20ArticulationJointSimD1Ev
wNi:__ZL99Thread_t241561612_CustomAttributesCacheGenerator_Thread_t241561612____ExecutionContext_PropertyInfoP21CustomAttributesCache
mFk:_UnityAction_4_Invoke_m3312096275_gshared
mjd:__ZN5physx2Sc18ParticleSystemCore14setRestOffsetsEjRKNS_16PxStrideIteratorIKjEERKNS2_IKfEE
LEc:__ZN5physx2Gu16testPolyDataAxisERKNS0_8CapsuleVERKNS0_13PolygonalDataEPNS0_12SupportLocalERKNS_6shdfnd3aos6FloatVERSB_RNSA_5Vec3VE
srk:_RectTransformUtility_ScreenPointToRay_m1842507230
$6a:__ZN16ReflectionProbes16UpdateSampleDataEv
_Yc:__ZN5physx2Sc17ParticleSystemSimD0Ev
zjj:_Enumerator_VerifyState_m2118679243_gshared
uFb:__ZN14SafeBinaryRead21TransferSTLStyleArrayI10vector_setI4PPtrI10MonoScriptENSt3__24lessIS4_EE13stl_allocatorIS4_L18MemLabelIdentifier76ELi16EEEEEvRT_17TransferMetaFlags
R$j:_SafeHandle_Finalize_m1839546519
dyc:__ZN8JSONRead21TransferSTLStyleArrayINSt3__26vectorI10RectOffset13stl_allocatorIS3_L18MemLabelIdentifier1ELi16EEEEEEvRT_S5_17TransferMetaFlags
E2j:_Context_AllocateNamedDataSlot_m3200404053
zwa:__ZN14BatchAllocator6CommitE18MemLabelIdentifier
X8g:_X509EnhancedKeyUsageExtension_Decode_m3866320499
yUf:_NumberFormatter_AppendIntegerStringWithGroupSeparator_m1401773574
yf:_JS_Sound_Play
H5e:_Image_IsRaycastLocationValid_m864962354
bIh:__Z181RuntimeInvoker_Void_t1841601450_RuntimeObject_Int32_t2071877448_Int32_t2071877448_RuntimeObject_Int32_t2071877448_Int32_t2071877448_RuntimeObject_Int32_t2071877448_Int32_t2071877448PFvvEPK10MethodInfoPvPS4_
vTb:__ZN9ShaderLab16SerializedShader8TransferI14SafeBinaryReadEEvRT_
dC:__ZN7mecanim8skeleton13SkeletonAlignEPKNS0_8SkeletonERKN4math7_float4ES7_i
u3b:__ZN19ShaderPropertySheet16SetVectorIndexedEN9ShaderLab16FastPropertyNameEifRK8Vector4fNS_8SetFlagsE
Kr:__ZN14SafeBinaryRead21TransferSTLStyleArrayIN4core12basic_stringIcNS1_20StringStorageDefaultIcEEEEEEvRT_17TransferMetaFlags
Yih:_RemotingConfiguration_RegisterWellKnownServiceType_m2491506630
gIi:__ZL55_TypeBuilder_t2783404358_CustomAttributesCacheGeneratorP21CustomAttributesCache
Q9e:_LayoutRebuilder_Initialize_m2671585490
uug:_List_1_System_Collections_IList_IndexOf_m4061554721_gshared
dY:__ZN11UnityEngine15CloudWebService14DataDispatcher4StopEv
wAj:_AnimationLayerMixerPlayable_SetLayerAdditive_m4206337590_AdjustorThunk
AUb:__ZNSt3__26vectorIN9ShaderLab20SerializedSubProgram12UAVParameterENS_9allocatorIS3_EEE8__appendEj
Goc:__ZN5IMGUI9GUIWindow5OnGUIER8GUIState
goj:_Enumerator_get_Current_m2986380627_gshared
Hka:__ZN17ScriptingGCHandle7AcquireE18ScriptingObjectPtr25ScriptingGCHandleWeakness
F1j:_LifetimeServices_set_LeaseTime_m1487876644
q9h:_ConstructorBuilder_not_supported_m3687319507
$S:__ZN19AudioPlayableOutputC2EjP13PlayableGraph
g3c:__ZN5physx12NpConstraint8comShiftEPNS_12PxRigidActorE
hOe:_Single_System_IConvertible_ToInt64_m3555853323_AdjustorThunk
yIl:dynCall_iifiii
Tua:__Z21HasAlphaTextureFormat13TextureFormat
dS:__ZN12AudioManager6UpdateEv
Oua:__ZN14ImageReference9BlitImageERKS_NS_8BlitModeE
Et:__ZN8Animator12AddToManagerEv
LDc:__ZNK5physx2Gu16SupportLocalImplINS0_11ConvexHullVEE9doSupportERKNS_6shdfnd3aos5Vec3VERNS5_6FloatVESA_
mEb:__ZN23CachedSerializationDataD2Ev
F6a:__ZNK25CameraStackRenderingState31CalculateStereoCameraTargetTypeEv
Mnb:__ZN14RenderSettings23VirtualRedirectTransferER14SafeBinaryRead
Cpl:__ZN6il2cpp2os10ThreadImpl15CurrentThreadIdEv
rDf:_Array_InternalArray__ICollection_Contains_TisColor32_t874517518_m2818328910_gshared
Rpe:_UNITY_tt_face_load_fpgm
Zyb:__ZN12InputManagerD0Ev
Mzl:__ZN6il2cpp6icalls8mscorlib6System11Diagnostics10StackTrace9get_traceEP15Il2CppExceptionib
S$e:_DefaultControls_CreateUIObject_m2810394112
roi:_GUIStyle_get_overflow_m1125058093
Trh:_UnicodeEncoding_GetBytes_m1337660232
E3c:__ZN5physx2Sc9RigidCore20removeShapeFromSceneERNS0_9ShapeCoreEb
mRb:__Z18Transfer_BlittableI18StreamedBinaryReadILb0EELb1EtEvRK29SerializationCommandArgumentsR31RuntimeSerializationCommandInfo
lFl:_posix_memalign
K3b:__ZN13ProduceHelperI12MeshRendererLb0EE7ProduceE18MemLabelIdentifier18ObjectCreationMode
F_d:__ZN5physx11RTreeCooker18buildFromTrianglesERNS_2Gu5RTreeEPKNS_6PxVec3EjPKtPKjjRNS_6shdfnd5ArrayIjNSB_19ReflectionAllocatorIjEEEEPNS0_13RemapCallbackEfNS_17PxMeshCookingHint4EnumE
PZc:__ZN5physx6shdfnd5ArrayIPvNS0_15InlineAllocatorILj256ENS0_19ReflectionAllocatorINS_14NpArticulationEEEEEE15growAndPushBackERKS2_
pgk:_InternalEnumerator_1_get_Current_m747506907_AdjustorThunk
RJj:_Camera_get_eventMask_m4241372419
p4:__ZNK15MonoScriptCache7ReleaseEv
RUk:__ZN6il2cpp2vm5Class13HasReferencesEP11Il2CppClass
MMd:__ZN5physx9PxTaskMgrC2EPNS_15PxCpuDispatcherEPNS_15PxGpuDispatcherEPNS_15PxSpuDispatcherE
Mg:_glBindTexture
BDl:_snprintf
e7e:_InputField_set_caretPosition_m888572237
Hci:_ILGenerator__cctor_m3943061018
lif:_ArrayListWrapper_Clone_m1506311066
zPj:_Event_get_character_m3740896233
_ra:__Z36scripting_liveness_calculation_begin17ScriptingClassPtriPFvPP12Il2CppObjectiPvES3_PFvvES7_
GMa:__ZN16UniformCacheGLES6CreateERK20GpuProgramParameters
fth:_UTF8Encoding_Fallback_m811555654
WAh:_UInt64_CompareTo_m3513742483
VIf:_Array_InternalArray__IndexOf_TisPlayableBinding_t2498078091_m398853908_gshared
Iqh:_Encoding_GetString_m1894033578
VOg:_ReadOnlyCollection_1_System_Collections_IList_Clear_m1918003010_gshared
TMl:_emscripten_glGetProgramInfoLog__wrapper
IE:__ZN25AnimatedPropertyEvaluator29BindCurveToScriptingObjectPtrERKN13AnimationClip10FloatCurveEj18ScriptingObjectPtrb
jth:_UTF8Encoding_InternalGetChars_m373801468
f6:__ZN17PersistentManager23DestroyFromFileInternalEi
m$a:__Z19SetupMotionMatricesR6CameraR18RPDataMotionVector
Rzf:_Enum_ToString_m2112979707
Buk:_TextGenerator_ValidatedSettings_m1640214759
Hgh:_MonoMethodMessage_get_MethodName_m3580519713
sD:__ZN26AnimatorControllerPlayable18PrepareForPlaybackERN7mecanim6memory9AllocatorE
UCd:__ZN5physx19PxsMaterialCombiner24combineIsotropicFrictionERKNS_15PxsMaterialDataES3_
KHf:_Array_FindLastIndex_TisRuntimeObject_m986818300_gshared
ath:_UTF8Encoding_GetBytes_m4170182058
Bla:__ZN22CreateGpuProgramOutputC2Ev
Hbh:_X509Chain__ctor_m2242540866
X2f:_MemoryStream_InternalConstructor_m2423667240
Chh:_SoapMethodAttribute_SetReflectionObject_m3431595769
NYd:__ZN5physx7Cooking16cookTriangleMeshERKNS_18PxTriangleMeshDescERNS_14PxOutputStreamE
aXj:_Slider_set_maxValue_m2951480075
Sxe:__Z38CustomEventData_CUSTOM_InternalDestroyP12Il2CppObject
H8d:__ZN14CompletionTask4InitEPN5physx7PxSceneE
$Wc:__ZN5physx2Sc7ElementD0Ev
k$d:__ZN5physx6shdfnd10Foundation7releaseEv
QUk:__ZN6il2cpp2vm5Class4InitEP11Il2CppClass
bd:invoke_vidi
G9b:__ZNK15GUIEventManager15GetEventAtIndexEi
Ate:__ZN2UI14CanvasRenderer17SyncDirtyElementsER8JobFence
J_e:_ColorBlock_op_Inequality_m1517672458
Isl:__ZN6il2cpp5utils11StringUtils15StringDuplicateEPKc
E8a:__Z15CanAddComponentR10GameObjectPKN5Unity4TypeE
Uka:__ZNK9ShaderLab21ShaderRasterStateDesc16ToGfxRasterStateEPK19ShaderPropertySheetS3_R14GfxRasterState
v_:_tlsf_memalign
zoh:_CspParameters__ctor_m2480441577
IBl:__ZN6il2cpp2os9EventImplC2Ebb
f2j:_DynamicPropertyCollection_NotifyMessage_m840388347
rnk:_Uri_ParseUri_m5711497
jRh:__Z98RuntimeInvoker_RuntimeObject_RuntimeObject_RayU26_t3651946800_Single_t2076509932_Int32_t2071877448PFvvEPK10MethodInfoPvPS4_
f$:__Z20IsMatrixBuiltinParamPKcPi
CFg:_Collection_1_CheckWritable_m2467777750_gshared
b3b:__ZN8Renderer19PostInitializeClassEv
f6j:_InternalEnumerator_1_get_Current_m1943362081_AdjustorThunk
Nxk:_Vector3_get_sqrMagnitude_m1814096310_AdjustorThunk
Wxl:__ZN6il2cpp6icalls8mscorlib6System8Delegate23CreateDelegate_internalEP20Il2CppReflectionTypeP12Il2CppObjectP22Il2CppReflectionMethodb
_7h:_Default_check_type_m2363631305
CDb:__ZN18DelayedCallManager18CancelCallDelayed2E4PPtrI6ObjectEPF15CallObjectStatePS1_PvES7_
wfb:__ZN25ThreadsafeLinearAllocator10ReallocateEPvji
$Fb:__Z18Transfer_BlittableI14SafeBinaryReadLb1E11QuaternionfEvRK29SerializationCommandArgumentsR31RuntimeSerializationCommandInfo
j1c:__ZNK5physx18PxArticulationLink8isKindOfEPKc
Tca:__ZN18SpriteAtlasManagerD0Ev
XIf:_Array_InternalArray__IndexOf_TisRaycastHit2D_t4063908774_m3739817942_gshared
Nhi:_MonoProperty_GetAccessors_m3704698731
a9d:__Z25CreatePxMeshFromUnityMeshP4MeshbbRK10Matrix4x4f13TransformTypef
xxl:_GC_disable
Iwb:__ZN10Matrix4x4f8TransferI14SafeBinaryReadEEvRT_
mn:FUNCTION_TABLE_vifiiiiiiiiiiiiiiiiii
m6f:_UnmanagedMemoryStream_ReadByte_m2501145010
Mkh:_ObjectRecord_UnchainFixup_m3025030310
y6:__Z6AppendRKN4core12basic_stringIcNS_20StringStorageDefaultIcEEEEPKc
yOb:__Z18Transfer_BlittableI18StreamedBinaryReadILb1EELb0E8Vector3fEvRK29SerializationCommandArgumentsR31RuntimeSerializationCommandInfo
iRh:__Z81RuntimeInvoker_RuntimeObject_Ray_t2469606224_Single_t2076509932_Int32_t2071877448PFvvEPK10MethodInfoPvPS4_
Hif:_ReadOnlyArrayListWrapper_Sort_m2056228524
IFa:__ZN7ApiGLES18ClearBufferSubDataEjN2gl12BufferTargetEll
Wec:__Z37Camera_Get_Custom_PropAllCamerasCountv
Vvb:__ZN14Texture2DArray8TransferI18StreamedBinaryReadILb0EEEEvRT_
F4c:__ZN5physx15NpActorTemplateINS_18PxArticulationLinkEED2Ev
G3a:__Z18ApplyOcclusionMaskR19ProbeOcclusionCacheRK17LightProbeContextRK10RenderNodeb
p2f:_FileStreamAsyncResult__ctor_m1096228032
ske:_Split_Cubic
N0d:__ZN11BoxCollider8TransferI18StreamedBinaryReadILb0EEEEvRT_
ovf:_DBNull_System_IConvertible_ToSByte_m1228193074
hEg:_Collection_1__ctor_m2818834331_gshared
qSf:_Array_InternalArray__get_Item_TisUICharInfo_t3056636800_m3872982785_gshared
oQh:__Z68RuntimeInvoker_UInt16_t986882611_UInt16_t986882611_UInt16_t986882611PFvvEPK10MethodInfoPvPS4_
J8d:__Z19ExtractDataFromMeshR4MeshR13dynamic_arrayI8Vector3fLj4EERS1_ItLj2EES6_
sDj:_AnimatorControllerPlayable_INTERNAL_CALL_GetLayerIndexInternal_m2875146206
EAl:__ZN6il2cpp2vm14MetadataLoader16LoadMetadataFileEPKc
Epl:__ZN6il2cpp2os10ThreadImpl22CreateForCurrentThreadEv
R1f:_FileStream_FlushBuffer_m2594140542
$rc:__Z64Register_UnityEngine_GUIStyle_GetFontInternalDuringLoadingThreadv
eke:_ft_black_render
utl:__ZN6il2cpp2vm8Profiler12GCHeapResizeEx
cKl:dynCall_viiifi
xJa:__ZN18GfxFramebufferGLES20ActiveContextChangedEPP17RenderSurfaceBaseS2_
tJa:__Z19PluginsRenderMarkeri
hF:__ZN10HumanTrait18InitializeBoneNameEv
Erf:_Convert_ToSByte_m1570938941
Kzk:_X509CertificateEnumerator_get_Current_m3129374511
gll:__ZNSt3__214__split_bufferIN6il2cpp2vm5Image20EmbeddedResourceDataERNS_9allocatorIS4_EEEC2EjjS7_
w4e:_HorizontalOrVerticalLayoutGroup_get_spacing_m2859152439
rHi:__ZL57DispIdAttribute_t607560947_CustomAttributesCacheGeneratorP21CustomAttributesCache
SK:__ZN12AudioManager17RemoveAudioSourceEP11AudioSource
COl:_emscripten_glBindProgramARB__wrapper
cOj:_CullingGroup_Finalize_m3172731580
dSf:_Array_InternalArray__get_Item_TisUInt64_t2909196914_m2580870875_gshared
mud:__ZN5physx2Sc5Scene22setNbContactDataBlocksEj
uth:_UTF8Decoder_GetChars_m3819660582
UT:__ZN5physx14PxLightCpuTask12addReferenceEv
Zrb:__ZN21EnlightenSceneMapping8TransferI19StreamedBinaryWriteILb0EEEEvRT_
Hml:__ZN6il2cpp2gc16GarbageCollector19InitializeFinalizerEv
Vy:__ZN7mecanim8skeleton18CreateSkeletonMaskEjPKNS0_19SkeletonMaskElementERNS_6memory9AllocatorE
toc:__ZN10GUIManager10DoGUIEventER10InputEventb
_Kb:__Z35Transfer_Blittable_FixedBufferFieldI24GenerateTypeTreeTransferxEvRK29SerializationCommandArgumentsR31RuntimeSerializationCommandInfo
g0:__Z20CalculateSqrDistanceRK8Vector3fRK4AABB
z9d:__ZN14PhysicsManager15ProcessContactsEv
pIc:__ZN21BoxTraceSegmentReport7onEventEjPj
S0c:__ZN5physx2Sc21ArticulationJointCore13setSwingLimitEff
IO:__Z32AudioMixerDuckingProcessCallbackP21UnityAudioEffectStatePfS1_jii
aEc:__ZL20HullProjectionCB_BoxRKN5physx2Gu13PolygonalDataERKNS_6PxVec3ERKNS_2Cm8Matrix34ERKNS7_23FastVertex2ShapeScalingERfSE_
N8h:_CustomAttributeTypedArgument_GetHashCode_m999147081_AdjustorThunk
e2b:__ZN26CustomRenderTextureManagerD2Ev
_1f:_FileStream_Read_m3880951166
MId:__ZN5physx14PxsAABBManager21selfCollideAggregatesEPKNS_19AggregateSortedDataE
yL:__ZN12AudioManager8TransferI24GenerateTypeTreeTransferEEvRT_
Coa:__Z25GetBytesFromTextureFormat13TextureFormat
UQd:__ZN5physx12_GLOBAL__N_112innerProductERKNS_14Px1DConstraintERS1_RKNS0_9MassPropsE
xEf:_Array_InternalArray__ICollection_Remove_TisContactPoint_t1376425630_m2242111467_gshared
xIl:dynCall_iifff
tj:_emscripten_webgl_init_context_attributes
BE:__ZN16MecanimAnimation25RegisterIAnimationBindingEPKN5Unity4TypeEiP17IAnimationBinding
l4:__Z32scripting_class_get_assemblyname17ScriptingClassPtr
Qze:__ZN11UnityEngine15PlatformWrapper15GetVRDeviceNameEv
vqj:_Dictionary_2_Resize_m2532139610_gshared
Stk:_StackTraceUtility__cctor_m1132099289
_Ed:__ZN5physx26PxcFrictionPatchStreamPairC2ERNS_17PxcNpMemBlockPoolE
pwh:_TimeSpan_Equals_m2029123271_AdjustorThunk
X_k:__ZN6il2cpp2vm13MetadataCache23GetInvokerMethodPointerEPK10MethodInfoPK20Il2CppGenericContext
ONa:__ZN9GfxDevice21RegisterNativeTextureE9TextureIDi16TextureDimension
KBf:_CultureInfo__ctor_m456863818
Zyl:__ZN6il2cpp6icalls8mscorlib6System10Reflection4Emit11TypeBuilder20create_generic_classEP27Il2CppReflectionTypeBuilder
Nng:_Enumerator_MoveNext_m2504790928_gshared
Xmi:_GUISkin_set_button_m412653849
Aj:_emscripten_glUniformMatrix4fv
tYb:__ZN12ScriptMapperD2Ev
h3d:__ZN9Rigidbody13AwakeFromLoadE17AwakeFromLoadMode
x6c:__ZNK5physx14NpSceneQueries10multiQueryINS_12PxOverlapHitEEEbRKNS_15MultiQueryInputERNS_13PxHitCallbackIT_EENS_7PxFlagsINS_9PxHitFlag4EnumEtEEPKNS_12PxQueryCacheERKNS_17PxQueryFilterDataEPNS_21PxQueryFilterCallbackEPNS_20BatchQueryFilterDataE
AFe:_KeyedHashAlgorithm_Dispose_m1864300576
Dzk:_X509Certificate_PEM_m49854707
wEj:_AnimatorControllerPlayable_GetParameter_m4243058543_AdjustorThunk
K8d:__ZL21GetMeshLocationDetailR4Mesh
_8g:_X509BasicConstraintsExtension__ctor_m3320418592
Nyk:_ExtendedKeyUsageExtension_Decode_m901297139
qlc:__Z52Register_UnityEngine_RenderTexture_Internal_GetWidthv
hwl:_GC_check_leaked
$Wb:__ZN9ShaderLab20SerializedSubProgram16TextureParameter8TransferI19StreamedBinaryWriteILb0EEEEvRT_
Mb:invoke_fiiiiiiiifiiiif
FMf:_Array_InternalArray__Insert_TisVector4_t2243707581_m1643342708_gshared
Rgb:__ZNK7Hash12812PackToUInt32Ev
lY:__ZN11UnityEngine15CloudWebService16SessionContainer8AddEventEPNS0_14CloudEventInfoE
IMa:__Z4TrimRKN4core12basic_stringIcNS_20StringStorageDefaultIcEEEES5_
iYj:_Text_set_resizeTextMaxSize_m4034967714
oCi:__ZL55GuidAttribute_t222072359_CustomAttributesCacheGeneratorP21CustomAttributesCache
Fki:_GUIStyle_SetDefaultFont_m2095841351
y8h:_CustomAttributeNamedArgument_Equals_m2691468532
qub:__ZN10VertexData8TransferI14SafeBinaryReadEEvRT_
Z$c:__ZN5physx19NpArticulationJointD0Ev
LM:__ZN4FMOD8ChannelI8setDelayE14FMOD_DELAYTYPEjj
pnf:_Stack__ctor_m2410583781
i7d:__ZN5physx9NpPhysics14createInstanceEjRNS_12PxFoundationERKNS_17PxTolerancesScaleEbPNS_20PxProfileZoneManagerE
wbe:__Z59Register_UnityEngine_Physics_INTERNAL_CALL_Internal_Raycastv
Y7h:_Default_GetBetterMethod_m4255740863
B9h:_ConstructorBuilder_GetILGenerator_m1731893569
Osd:__ZNK5physx7NpScene17getFilterCallbackEv
ill:__ZNSt3__214__split_bufferIN6il2cpp2vm5Image20EmbeddedResourceDataERNS_9allocatorIS4_EEED2Ev
r2:__ZL20SortItemByInstanceIDRKN18AwakeFromLoadQueue4ItemES2_
Q6d:__ZN5physx6shdfnd5ArrayIPvNS0_15InlineAllocatorILj256ENS0_19ReflectionAllocatorINS_24NpPtrTableStorageManager8PtrBlockILi16EEEEEEEE15growAndPushBackERKS2_
fei:_TypeBuilder_create_runtime_class_m2719530260
YHe:_RNGCryptoServiceProvider_RngClose_m2921734810
nz:__ZNK34AnimationStateMachineMixerPlayable26GetInterruptedPosePlayableEv
xBe:__ZN20UnityConnectSettings8TransferI24GenerateTypeTreeTransferEEvRT_
GB:__ZN34BlobWriteTransferSTLStyleArrayImplI22OffsetPtrArrayTransferIbEEclERS1_17TransferMetaFlagsR9BlobWrite
$ag:_SimpleCollator_IsHalfKana_m4255579023
fCg:_Collection_1_System_Collections_IList_Contains_m3365884450_gshared
Tad:__ZN5physx7NpShape13setRestOffsetEf
ASa:__Z16FlaggedAsSkippedIN4core12basic_stringIcNS0_20StringStorageDefaultIcEEEEEbRK13FileEntryInfoRKT_19FileEnumerationFlag
q8:__ZL31InitializeRendererUpdateManagerPv
XNh:__Z106RuntimeInvoker_RuntimeObject_Int16_t4041245914_RuntimeObject_BooleanU26_t3168250738_BooleanU26_t3168250738PFvvEPK10MethodInfoPvPS4_
tbd:__ZN5physxL11getTriangleERKNS_2Gu12TriangleMeshEjPNS_6PxVec3EPKS4_PKvRKNS_2Cm8Matrix34Eb
V2d:__ZN14SafeBinaryRead21TransferSTLStyleArrayINSt3__26vectorIjNS1_9allocatorIjEEEEEEvRT_17TransferMetaFlags
ZZg:_ClientSessionInfo_Dispose_m2571428025
C9e:_LayoutGroup_DelayedSetDirty_m4276695617
j1g:_RecordProtocol_decryptRecordFragment_m2510859489
zcd:__ZNK5physx7NpCloth16lockParticleDataEv
Ozb:__ZN11TimeManager8TransferI19StreamedBinaryWriteILb0EEEEvRT_
G2f:_DelegatePInvokeWrapper_ReadDelegate_t3184826381
rle:_compare_uni_maps
Fze:__ZN11UnityEngine15PlatformWrapper27GetGraphicsCapsSupportFlagsEv
MMa:__ZN18GlslGpuProgramGLES25LoadFromBinaryShaderCacheERKN4core12basic_stringIcNS0_20StringStorageDefaultIcEEEER17ShaderChannelMaskPKc
Zxd:__ZN5physx13NpRigidStatic9visualizeERNS_2Cm12RenderOutputEPNS_7NpSceneE
hOb:__ZN12NativeBufferI16Converter_StringE15SetupForWritingER9ArrayInfo
hRl:___cxa_end_catch__wrapper
Tj:_emscripten_glVertexAttrib3fv
tAd:__ZN5physx6shdfnd8PoolBaseINS_2Sc35ParticleElementRbElementInteractionENS0_19ReflectionAllocatorIS3_EEE15disposeElementsEv
upj:_ValueCollection_System_Collections_Generic_ICollectionU3CTValueU3E_Clear_m231380274_gshared
DUe:_Entry__ctor_m1176697586
K8f:_MonoType_get_Module_m3769241394
Wah:_X509Chain_IsSignedWith_m292245392
m8a:__ZN13MonoBehaviour22DoScriptRebuildWarningEv
Yec:__Z38Camera_CUSTOM_INTERNAL_CALL_RaycastTryP12Il2CppObjectRK3Rayfi
knc:__ZN18CrashReportHandler12CloseServiceEv
rYj:_Text_get_verticalOverflow_m3134063496
xEj:_AnimatorControllerPlayable_StringToHash_m2562221043
I4b:__ZZL23RegisterLightPropertiesR22GenericPropertyBindingEN22Wrapper_LightSpotAngle13GetFloatValueEPv
k$j:_GCHandle_get_Target_m2327042781
dZe:_Button_OnFinishSubmit_m1646528571
_Gl:_llvm_cttz_i32
t9g:_PublicKey_DecodeDSA_m1169363495
Bpc:__ZN11IMGUIModule25GetGUIStyleScriptingClassEv
poe:_tt_get_interface
VOf:_Array_Sort_TisRuntimeObject_m143182644_gshared
Dgl:__ZN6il2cpp5utils9PathUtils7CombineIcEENSt3__212basic_stringIT_NS3_11char_traitsIS5_EENS3_9allocatorIS5_EEEERKSA_SC_
u5g:_NameObjectCollectionBase_BaseGet_m667273025
WId:__ZN5physx14PxsAABBManager16processBPResultsERKNS_20PxsComputeAABBParamsE
nwc:__ZN9JSONWrite8TransferI13dynamic_arrayIiLj4EEEEvRT_PKc17TransferMetaFlags
bHd:__ZN5physx23PxsBroadPhaseContextSapD2Ev
M_d:__ZN5physx12SubSortQuickC2EPjPKNS_10PxBounds3VEjf
x1:__Z18ConvertUTF16toUTF8PPKtS0_PPhS2_15ConversionFlags
Zql:__ZN6il2cpp2os20PathErrnoToErrorCodeERKNSt3__212basic_stringIcNS1_11char_traitsIcEENS1_9allocatorIcEEEEi
Fxh:_TypeLoadException__ctor_m1903359728
GSk:__ZL16my_g_bit_nth_msfj
ZFe:_KeySizes__ctor_m3526899007
fYf:_Int16_System_IConvertible_ToInt32_m191782913_AdjustorThunk
Awk:_SpriteAtlasManager__cctor_m1344469326
q9i:__ZL69ArgumentCache_t4810721_CustomAttributesCacheGenerator_m_FloatArgumentP21CustomAttributesCache
Gph:_EncoderReplacementFallback__ctor_m2208438262
xYa:__Z23SetupStereoFlareElementP11FlareVertexRK8Vector2fS3_S3_RK11ColorRGBA32RK10Matrix4x4fRK8Vector3fb
ab:invoke_iiiifiiii
jOg:_ReadOnlyCollection_1_System_Collections_Generic_ICollectionU3CTU3E_Remove_m3751131234_gshared
xzc:__ZN9rapidjson8internal6u64toaEyPc
Zed:__ZNK5physx2Sc9ClothCore16getRestPositionsEPNS_6PxVec4E
KDd:__ZN5physx20PxcSweepConvexConvexERKNS_11PxsCCDShapeES2_PKNS_12PxsRigidBodyES5_RKNS_11PxTransformES8_S8_S8_fRNS_6PxVec3ESA_RNS_10PxcNpCacheERNS_18PxcNpThreadContextEf
Q0f:_Directory_GetFiles_m4036267478
dH:__Z64AnimationOffsetPlayable_CUSTOM_INTERNAL_CALL_GetRotationInternalR9HPlayableR11Quaternionf
eid:__ZN5physx15PxsParticleDataD0Ev
$Ja:__ZL19BlitFramebufferImplRN4gles23BlitFramebufferDrawQuadER9GfxDevice9TextureIDRK8Vector4f
DYd:__ZN5physx6shdfnd5ArrayIPvNS0_19ReflectionAllocatorIN17PxcPoolMallocData9PoolData8EEEE15growAndPushBackERKS2_
G7k:__ZN15dense_hashtableINSt3__24pairIK10KeyWrapperIPK10Il2CppTypeEjEES6_N6il2cpp8metadata14Il2CppTypeHashEN14dense_hash_mapIS6_jSB_NS6_14EqualsComparerINSA_26Il2CppTypeEqualityComparerEEENS0_9allocatorIS8_EEE9SelectKeyESF_SH_E4findERS7_
IMg:_ReadOnlyCollection_1_System_Collections_IList_Add_m2333231354_gshared
Qee:_UNITY_FT_List_Add
Xdi:_OpCodes__cctor_m939885911
oH:__Z87Register_UnityEngine_Animations_AnimationPlayableOutput_INTERNAL_CALL_InternalGetTargetv
F0d:__ZN5physx15PxGeometryQuery14getWorldBoundsERKNS_10PxGeometryERKNS_11PxTransformEf
mgd:__ZN5physx2Sc9ClothCore18setSolverFrequencyEf
Bok:_UriParser_InitializeAndValidate_m251943319
pKe:_SymmetricAlgorithm_set_Padding_m3081984460
xzb:__ZN9InputAxis8TransferI18StreamedBinaryReadILb0EEEEvRT_
rmh:_StreamingContext_t1417235061_marshal_pinvoke_back
HDc:__ZN5physx2Gu16buildPartialHullERKNS0_13PolygonalDataEPNS0_12SupportLocalERNS0_14SeparatingAxesERKNS_6shdfnd3aos5Vec3VESC_
yhf:_ArrayList_RemoveAt_m2578928333
FGb:__Z18Transfer_BlittableI14SafeBinaryReadLb0EaEvRK29SerializationCommandArgumentsR31RuntimeSerializationCommandInfo
OLg:_ReadOnlyCollection_1_System_Collections_IList_set_Item_m1233322304_gshared
Uyk:_GeneralNames_get_DNSNames_m2721668874
dzf:_Enum_System_IConvertible_ToByte_m38374586
wLg:_ReadOnlyCollection_1_System_Collections_Generic_IListU3CTU3E_RemoveAt_m1592158292_gshared
qLl:_emscripten_glFrustum__wrapper
l$c:__ZNK5physx2Sc16ArticulationCore17releaseDriveCacheERNS_9PxcFsDataE
B1g:_ReceiveRecordAsyncResult_get_CompletedWithError_m2670396551
qwf:_Decimal_Equals_m1798565377
xPc:__ZN5physx11NpAggregate7releaseEv
Nai:_TypeBuilder_check_created_m2929267877
HOh:__Z121RuntimeInvoker_Int64_t909078037_Int32_t2071877448_Int32_t2071877448_Int32_t2071877448_Int32_t2071877448_Int32_t2071877448PFvvEPK10MethodInfoPvPS4_
pVa:__Z20SyncFenceCullResultsR11CullResults
xLa:__ZN15TextureTFMethod20IsBoneCountSupportedEi
gG:__ZN26AnimatorControllerPlayable9GotoStateEiifff
lni:_GUISkin_set_horizontalScrollbarThumb_m2119687595
fFf:_PlayableHandle_IsPlayableOfType_TisAudioMixerPlayable_t1831808911_m1065481197_AdjustorThunk
Vhh:_ObjRef__ctor_m1486312270
Dnc:__ZN18CrashReportManagerC2E18MemLabelIdentifier18ObjectCreationMode
rtf:_DateTime_System_IConvertible_ToSByte_m2575078084_AdjustorThunk
pKb:__Z22TransferField_NonArrayI17RemapPPtrTransfer27Converter_SimpleNativeClassI8GUIStyleEEvRK23StaticTransferFieldInfoR31RuntimeSerializationCommandInfoRT0_
ZFj:_AnimatorStateInfo_IsTag_m1529621725_AdjustorThunk
Nad:__ZN5physx7NpShape12setMaterialsEPKPNS_10PxMaterialEt
f1b:__ZNK17AnimationCurveTplIfE20EvaluateWithoutCacheEfRf
dpl:__ZN6il2cpp2os6Thread12QueueUserAPCEPFvPvES2_
jSe:_EncoderExceptionFallback_Equals_m762170768
Yla:__ZN19ShaderPropertySheet10SetTextureERK23FastTexturePropertyNameP7Texture
Wpi:_GUIStyleState__ctor_m3611888666
PEg:_Collection_1_IsValidItem_m1304951912_gshared
I8b:__ZN4Mesh10SetNormalsEPK8Vector3fj
Epf:_Convert_ToDateTime_m4161927553
Tai:_TypeBuilder_GetConstructors_m774120094
Js:__ZN17AnimationCurveTplIfE8TransferI14SafeBinaryReadEEvRT_
Ppi:_GUIStyle_INTERNAL_CALL_SetMouseTooltip_m3411291301
JAf:_Calendar_get_EraNames_m452820602
Atb:__ZNSt3__26vectorIN15QualitySettings14QualitySettingENS_9allocatorIS2_EEE6assignIPS2_EENS_9enable_ifIXaasr21__is_forward_iteratorIT_EE5valuesr16is_constructibleIS2_NS_15iterator_traitsIS9_E9referenceEEE5valueEvE4typeES9_S9_
jLc:__Z15raycast_capsuleRKN5physx10PxGeometryERKNS_11PxTransformERKNS_6PxVec3ES8_fNS_7PxFlagsINS_9PxHitFlag4EnumEtEEjPNS_12PxRaycastHitEbPFbRSD_PvESG_
IWa:__ZNK19ShaderPropertySheet11HasPropertyERKN9ShaderLab16FastPropertyNameE
ctf:_DateTime_System_IConvertible_ToByte_m2670443498_AdjustorThunk
AZ:__GLOBAL__sub_I_runtime_utilities4_lump_cpp
qej:__ZL58FontData_t2614388407_CustomAttributesCacheGenerator_m_FontP21CustomAttributesCache
NRd:__ZNK5physx34PxsSolverConstraintPostProcessTask7getNameEv
TTg:_BigInteger_op_Addition_m1734797151
REc:__ZN5physx2Gu23distancePointBoxSquaredERKNS_6PxVec3ES3_S3_RKNS_7PxMat33EPS1_
$6d:__ZN5physx9NpPhysics20MeshDeletionListener28onGuMeshFactoryBufferReleaseEPKNS_6PxBaseEtb
mbi:_EnumBuilder_CreateNotSupportedException_m62763134
wDe:__ZNK12HeaderHelper3GetERKN4core12basic_stringIcNS0_20StringStorageDefaultIcEEEE
jHe:_RijndaelManagedTransform_TransformBlock_m2558865851
ozb:__ZN9InputAxis8TransferI14SafeBinaryReadEEvRT_
G2:__ZNK21ExecutionOrderManager30GetCustomAwakeFromLoadQueueForEPKN5Unity4TypeE
hsd:__ZNK5physx7NpScene9getActorsENS_7PxFlagsINS_15PxActorTypeFlag4EnumEtEEPPNS_7PxActorEjj
KCe:__Z27RegisterModule_UnityConnectv
Zzd:__ZN5physx11NodeManagerD0Ev
lii:_ParameterInfo_get_IsRetval_m1881464570
kJj:_Bounds_get_size_m1728027642_AdjustorThunk
xih:_RealProxy__ctor_m3041043303
STf:_NumberFormatter_Init_m2654758994
KFe:_HMACSHA1__ctor_m1168389339
RG:__Z96Register_UnityEngine_Animations_AnimationClipPlayable_INTERNAL_CALL_SetRemoveStartOffsetInternalv
dO:__ZN10ObjectPoolIN4FMOD12ChannelGroupENS0_13ChannelGroupIEE7SetSizeEi
Udg:_PrimalityTest_BeginInvoke_m966469054
Cca:__ZN15dense_hashtableINSt3__24pairIKN4core12basic_stringIcNS2_20StringStorageDefaultIcEEEE13dynamic_arrayI4PPtrI6SpriteELj4EEEES6_20StringHash32FunctionIS6_EN14dense_hash_mapIS6_SC_SF_NS0_8equal_toIS6_EE13stl_allocatorISD_L18MemLabelIdentifier79ELi16EEE9SelectKeyESI_SL_E9copy_fromERKSO_j
GAh:_UInt64_System_IConvertible_ToInt16_m2797150165_AdjustorThunk
RRf:_Array_InternalArray__get_Item_TisLabelData_t3712112744_m863115768_gshared
LZf:_Int32_Parse_m753946802
Kri:_Material_DisableKeyword_m1204728089
Oyg:_List_1_RemoveAt_m2331128844_gshared
UBj:_AnimatorControllerPlayable_GetFloatString_m3678921564
Dei:_UnmanagedMarshal_ToMarshalAsAttribute_m3695569337
hdd:__ZNK5physx7NpCloth25getMotionConstraintConfigEv
aIb:__Z14resize_trimmedINSt3__26vectorI17AnimationCurveTplIfE13stl_allocatorIS3_L18MemLabelIdentifier1ELi16EEEEEvRT_j
E6a:__ZN25CameraStackRenderingState19SetupLastEyeCamerasERK11CameraStack
Fdc:__Z12GUIDToStringRK9UnityGUID
IEe:__GLOBAL__sub_I_runtime_vr_plugininterface_lump_cpp
tol:__ZN6il2cpp6icalls8mscorlib6System4Enum12get_hashcodeEP12Il2CppObject
rK:__ZN11SoundHandleC2ERKS_
LQj:_Mask_OnEnable_m501850981
AKj:_Canvas_get_targetDisplay_m316548313
KH:__Z75AnimatorControllerPlayable_CUSTOM_INTERNAL_CALL_GetAnimatorClipInfoInternalR9HPlayableihP12Il2CppObject
zdg:_BigInteger_op_Addition_m1196561843
L1j:_FormatterData__ctor_m3974986124
iHe:_RijndaelManagedTransform_get_CanReuseTransform_m3735256596
$Mc:__ZN5physx3Cct26CharacterControllerManager24setOverlapRecoveryModuleEb
Akf:_Comparer__cctor_m1327316974
L0f:_MonoIO_ExistsFile_m1421941572
Buf:_DateTime_op_GreaterThanOrEqual_m3818963848
Fw:__ZN17AnimationPlayable18DeallocateBindingsEv
F9a:__ZN6Camera25StandaloneRenderToCubemapEP7TextureiPFvPK9SceneNodePK4AABBR9IndexListPvESA_j
V$e:_DefaultControls_SetDefaultTextValues_m1707718380
UXe:_TouchInputModule_UseFakeInput_m2112019004
VTe:_EventSystem_get_baseEventDataCache_m4294741599
Qnb:__ZN14RenderSettings18TransferDeprecatedI14SafeBinaryReadEEvRT_
V_:__ZN12TLSAllocatorI14StackAllocatorE8AllocateEji
B3:__ZN16ScriptingManager18GetMonoScriptCacheEi
AGh:__Z62RuntimeInvoker_Void_t1841601450_RuntimeObject_Int64_t909078037PFvvEPK10MethodInfoPvPS4_
Oli:_GUIStyle_get_stretchHeight_m3396762700
uWk:__ZN15dense_hashtableINSt3__24pairIK10KeyWrapperIPK11Il2CppClassEPKcEES6_N6il2cpp5utils11PointerHashIS3_EEN14dense_hash_mapIS6_S9_SE_NS6_14EqualsComparerINS0_8equal_toIS5_EEEENS0_9allocatorISA_EEE9SelectKeyESJ_SL_E15set_deleted_keyERKSA_
a4e:_GridLayoutGroup_CalculateLayoutInputHorizontal_m2355123124
MGb:__Z18Transfer_BlittableI14SafeBinaryReadLb1EyEvRK29SerializationCommandArgumentsR31RuntimeSerializationCommandInfo
Tsc:__ZN8JSONRead8TransferIfEEvRT_PKc17TransferMetaFlagsb
xdi:_ModuleBuilder_GetTypes_m93550753
LFl:__ZNSt3__212basic_stringIcNS_11char_traitsIcEENS_9allocatorIcEEE6appendEPKcj
BFi:__ZL54TypeBuilder_t3308873219_CustomAttributesCacheGeneratorP21CustomAttributesCache
Udd:__ZN5physx7NpCloth25setSelfCollisionStiffnessEf
nGg:_Collection_1_CheckWritable_m691269733_gshared
Qbi:_GenericTypeParameterBuilder_GetAttributeFlagsImpl_m3338182267
qU:__ZN13Simd4iFactoryIN6detail9FourTupleEEC2Eiiii
e5f:_SynchronizedReader__ctor_m1408327515
_Bk:_X509Store_LoadCrl_m1146720614
fRg:_ReadOnlyCollection_1_System_Collections_IList_Clear_m1858417639_gshared
zrb:__ZN15SerializeTraitsI33EnlightenTerrainChunksInformationE8TransferI14SafeBinaryReadEEvRS0_RT_
r3b:__ZNK32RendererMaterialAnimationBinding9BindValueER6ObjectRKN11UnityEngine9Animation14GenericBindingERNS3_10BoundCurveE
zob:__Z13GetIAnimationv
nva:__ZL18stbir__support_onef
Frg:_List_1_System_Collections_IList_Remove_m2040310137_gshared
$uc:__Z26Transfer_UnityEngineObjectI9JSONWriteLb0EEvRK29SerializationCommandArgumentsR31RuntimeSerializationCommandInfo
Vga:__ZN9ShaderLab4Pass9ApplyPassEjPK19ShaderPropertySheetR17ShaderPassContextP6ShaderiPKNS_10GrabPassesEPNS_11SubProgramsE
Xma:__ZNSt3__26vectorIN4core12basic_stringIcNS1_20StringStorageDefaultIcEEEE13stl_allocatorIS5_L18MemLabelIdentifier1ELi16EEE6assignINS_11__wrap_iterIPS5_EEEENS_9enable_ifIXaasr21__is_forward_iteratorIT_EE5valuesr16is_constructibleIS5_NS_15iterator_traitsISF_E9referenceEEE5valueEvE4typeESF_SF_
Nzh:_UInt32_System_IConvertible_ToInt16_m2251335934_AdjustorThunk
Nse:__ZNSt3__27__sort5IRNS_6__lessIN2UI14DepthSortEntryES3_EEPS3_EEjT0_S7_S7_S7_S7_T_
vee:_UNITY_FT_DivFix
Ia:invoke_vdd
qo:FUNCTION_TABLE_fiii
Dyf:_Double_System_IConvertible_ToUInt32_m624993430
uo:FUNCTION_TABLE_fiif
Cqe:__ZZ29InitializeTextRenderingModulevEN27cleanupAfterLoadRegistrator7ForwardEv
kvh:_Scheduler_Add_m376749205
Bx:__ZN27AnimationLayerMixerPlayable24ProcessAnimationLayerMixEP33AnimationPlayableEvaluationOutputP35AnimationPlayableEvaluationConstantP32AnimationPlayableEvaluationInputS1_if
IDi:__ZL53SortedList_t3004938869_CustomAttributesCacheGeneratorP21CustomAttributesCache
$zl:__ZN6il2cpp6icalls8mscorlib4Mono8Security12Cryptography18KeyPairPersistence19_IsMachineProtectedEP12Il2CppString
EOl:_emscripten_glGenVertexArrays__wrapper
b6a:__Z29PluginsIssueRenderingExtEvent26UnityRenderingExtEventTypePv
qkl:__ZN15dense_hashtableINSt3__24pairIK10KeyWrapperINS1_IPKcS4_EEEiEES6_24NamespaceAndNamePairHashN14dense_hash_mapIS6_iS9_NS6_14EqualsComparerI26NamespaceAndNamePairEqualsEENS0_9allocatorIS8_EEE9SelectKeyESD_SF_E12resize_deltaEjj
r2b:__Z14RandomRotationP9Texture2DPhiiii
B0e:_OptionDataList__ctor_m613113846
pwg:_List_1_System_Collections_IList_Insert_m2036969360_gshared
C7e:_InputField_GetUnclampedCharacterLineFromPosition_m1912794077
mtk:_SpaceAttribute__ctor_m1444406696
Gsd:__ZN5physx7NpScene27setCCDContactModifyCallbackEPNS_26PxCCDContactModifyCallbackE
oZd:__ZNK5physx17ConvexHullBuilder17ComputeGeomCenterERNS_6PxVec3E
_uf:_DateTimeOffset_ToString_m2121173678_AdjustorThunk
vOh:__Z74RuntimeInvoker_RuntimeObject_RuntimeObject_Int16_t4041245914_RuntimeObjectPFvvEPK10MethodInfoPvPS4_
DHd:__ZN3MBPD0Ev
Oj:_JS_WebRequest_SetResponseHandler
CRl:_glDeleteProgram__wrapper
dfc:__Z50Register_UnityEngine_Camera_INTERNAL_get_pixelRectv
Ipa:__ZN6prcoreL18BlitFloatToIntegerERK14ImageReferenceRS0_
tjg:_X509CertificateCollection_get_Item_m410866272
upk:_Rect_get_yMax_m2915146103
Mvd:__ZNK5physx10PxsContext18getBounceThresholdEv
GX:__ZN11UnityEngine15CloudWebService14RestDownloader17OnCompleteContentEv
u4e:_LayoutGroup_SetChildAlongAxis_m1615929339
zOh:__Z75RuntimeInvoker_RuntimeObject_RuntimeObject_Double_t4078015681_RuntimeObjectPFvvEPK10MethodInfoPvPS4_
ONh:__Z200RuntimeInvoker_Boolean_t3825574718_RuntimeObject_RuntimeObject_RuntimeObject_Int32_t2071877448_DateTimeU26_t3448131235_SByte_t454417549_BooleanU26_t3168250738_SByte_t454417549_ExceptionU26_t1467204777PFvvEPK10MethodInfoPvPS4_
Pqd:__ZN5physx6shdfnd5ArrayIPvNS0_15InlineAllocatorILj256ENS0_19ReflectionAllocatorINS_2Gu31SpherePersistentContactManifoldEEEEEE15growAndPushBackERKS2_
VTd:__ZN5physx2Cm18DelegateFanoutTaskINS_2Sc5SceneEXadL_ZNS3_17finalizationPhaseEPNS_10PxBaseTaskEEEE11runInternalEv
uaa:__ZNSt3__26vectorI20ProcessCallbackGroupNS_9allocatorIS1_EEEC2ERKS4_
zz:__ZN17AnimationPlayable28UpdateInternalStateRecursiveILi1ELb0EEEvPK35AnimationPlayableEvaluationConstant
cb:invoke_vifff
Qgc:__Z41Register_UnityEngine_GameObject_set_layerv
Jhc:__Z53Register_UnityEngine_Input_INTERNAL_get_mousePositionv
dQl:_glGetVertexAttribiv__wrapper
C3c:__ZN5physx6shdfnd15atomicDecrementEPVi
xf:_emscripten_request_fullscreen
nea:__ZN20LocalFileSystemWebGL6DeleteER13FileEntryDatab
cwf:_Decimal_System_IConvertible_ToUInt16_m1621568250
zf:_emscripten_glDisableVertexAttribArray
jo:FUNCTION_TABLE_iiiifiiii
fwh:_TimeSpan_get_TotalMinutes_m1645177229_AdjustorThunk
Ec:invoke_fifffi
hGa:__ZN4gles23ClearCurrentFramebufferEP7ApiGLESbbbRK10ColorRGBAffi
ay:__ZN7mecanim12statemachine20CreateStateWorkspaceEjjjRNS_6memory9AllocatorE
N6j:_InternalEnumerator_1_System_Collections_IEnumerator_get_Current_m3680087284_gshared
WYd:__ZN5physx2Gu11HeightField13releaseMemoryEb
Kf:_emscripten_glDeleteObjectARB
YHa:__Z14DecompressDXT3iiiPKjPj
W5f:_UnexceptionalStreamReader_Read_m3839775235
rlc:__Z53Register_UnityEngine_RenderTexture_Internal_GetHeightv
QSf:_Dropdown_GetOrAddComponent_TisRuntimeObject_m2875934266_gshared
Jqa:__ZN6prcoreL17RemapGenericFloatI17TexFormatRGBAHalf18TexFormatARGBFloatEEvPKNS_9InnerInfoE
jzf:_Enum_System_IConvertible_ToInt32_m2459904362
dpc:__ZNK8GUIStyle21DrawWithTextSelectionER8GUIStateRK5RectTIfER10GUIContentbbbbbiiRK10ColorRGBAfSA_
COh:__Z61RuntimeInvoker_RuntimeObject_Double_t4078015681_RuntimeObjectPFvvEPK10MethodInfoPvPS4_
rpc:__Z14GetBuiltinSkini
eSe:_DecoderReplacementFallbackBuffer_Reset_m2576819665
Cnc:__ZN18CrashReportHandler23RegisterGlobalCallbacksEv
RSe:_BaseInput_set_compositionCursorPos_m2632248731
ZKk:_Enumerator_System_Collections_IEnumerator_Reset_m2573763156_gshared
c8f:_MonoType_GetConstructors_internal_m2709619723
WMe:_WindowsIdentity_Dispose_m2649088337
dZb:__ZN2UI13RectTransform23VirtualRedirectTransferER14SafeBinaryRead
QDk:_InvokableCall_1__ctor_m54675381_gshared
ptd:__ZN5physx7NpScene17flushQueryUpdatesEv
m8f:_MonoType_GetMethodImpl_m593754598
HVb:__ZNSt3__26vectorIN9ShaderLab20SerializedSubProgramENS_9allocatorIS2_EEE6assignIPS2_EENS_9enable_ifIXaasr21__is_forward_iteratorIT_EE5valuesr16is_constructibleIS2_NS_15iterator_traitsIS9_E9referenceEEE5valueEvE4typeES9_S9_
_wc:__Z18Transfer_BlittableI8JSONReadLb0E8BitFieldEvRK29SerializationCommandArgumentsR31RuntimeSerializationCommandInfo
Fjh:_SoapServices_RegisterInteropXmlType_m2949236705
tPb:__ZL17Transfer_GUIStyleI18StreamedBinaryReadILb1EELb0EEvRK29SerializationCommandArgumentsR31RuntimeSerializationCommandInfo
$Qe:_String_CharCopy_m2550399897
nPh:__Z234RuntimeInvoker_RuntimeObject_Int16_t4041245914_RuntimeObject_Int32_t2071877448_Int32_t2071877448_Int32_t2071877448_SByte_t454417549_SByte_t454417549_SByte_t454417549_SByte_t454417549_Int16_t4041245914_SByte_t454417549_SByte_t454417549PFvvEPK10MethodInfoPvPS4_
Htd:__ZN5physx7NpScene10unlockReadEv
QTb:__ZN9ShaderLab14SerializedPass8TransferI14SafeBinaryReadEEvRT_
jqc:__Z71Register_UnityEngine_GUILayoutUtility_INTERNAL_CALL_Internal_MoveWindowv
bS:__ZN12AudioManager16SetListenerPauseEb
Mgl:__ZN6il2cpp2vm9Exception25RaiseOutOfMemoryExceptionERKNS_5utils10StringViewIDsEE
cEg:_Collection_1_IsValidItem_m2254106115_gshared
abi:_TypeBuilder_GetEvent_m3876348075
pkk:_Parser_ParseDecimal_m4127410766
yXj:_Slider_OnMove_m641164662
fa:invoke_viiiiiiiiiii
mCl:___syscall_ret
nvh:_Scheduler__ctor_m3716265742
xgg:_MACAlgorithm_Final_m4076939925
g5k:__ZNSt3__212basic_stringIcNS_11char_traitsIcEENS_9allocatorIcEEE6assignINS_11__wrap_iterIPKcEEEENS_9enable_ifIXaasr21__is_forward_iteratorIT_EE5valuesr38__libcpp_string_gets_noexcept_iteratorISC_EE5valueERS5_E4typeESC_SC_
qye:__Z56Register_UnityEngine_Analytics_CustomEventData_AddDoublev
Xub:__ZN11ChannelInfo8TransferI19StreamedBinaryWriteILb0EEEEvRT_
t6j:_InternalEnumerator_1_System_Collections_IEnumerator_get_Current_m3583252352_gshared
Dai:_EnumBuilder_get_FullName_m2818393911
jfd:__ZN5physx2Sc9ClothCore22setFrictionCoefficientEf
oZa:__ZN14qsort_internal13Partition3WayIP17RODataReplacementi19ROSorterReplacementEENSt3__24pairIT_S6_EES6_S6_T0_T1_
h9c:__ZNK5physx9NpPhysics17getNbConvexMeshesEv
ctd:__ZNK5physx7NpScene29getContactCorrelationDistanceEv
ahc:__Z34Register_UnityEngine_Gradient_Initv
sTe:_BaseInputModule_GetAxisEventData_m3903709281
eSf:_Array_InternalArray__get_Item_TisUriScheme_t1876590943_m1821482697_gshared
WSg:_BigInteger__ctor_m3239748086
Kda:__ZN13ScreenManager23SetIsOrientationEnabledE18EnabledOrientationb
Hx:__ZN7mecanim5human25HumanPoseAddOverrideLayerERNS0_9HumanPoseERKS1_fRKNS_6bitsetILj70EEE
Dqd:__ZN5physx16PxsIslandManager16clearEdgeRigidCMERKNS_20PxsIslandManagerHookIjLj4294967295EEE
$0b:__ZN13ProduceHelperI9TransformLb0EE7ProduceE18MemLabelIdentifier18ObjectCreationMode
asc:__Z45Register_UnityEngine_GUIStyle_GetFontInternalv
FOc:__ZN5physx6shdfnd8SyncImpl4waitEj
dRe:_StringComparer_get_InvariantCultureIgnoreCase_m1052445386
mNj:_Component_SendMessageUpwards_m19741277
nKf:_Array_InternalArray__ICollection_Add_TisHitInfo_t1761367055_m2956071622_gshared
_8a:__ZN10GameObject23VirtualRedirectTransferER18StreamedBinaryReadILb0EE
p8f:_MonoType_HasElementTypeImpl_m1040892148
_g:_glFrontFace
Alh:_ObjectRecord_get_IsUnsolvedObjectReference_m2202692850
edh:_FactoryCache_Cleanup_m4130035987
Axe:__ZN18BaseUnityAnalytics7ReleaseEv
RF:__ZN26AnimatorControllerPlayable14SetLayerWeightEif
Z$b:__ZN13ProduceHelperI19LowerResBlitTextureLb0EE7ProduceE18MemLabelIdentifier18ObjectCreationMode
Wud:__ZN5physx13NpVolumeCache17getNbCachedShapesEv
s2a:__ZNSt3__26vectorI16ShadowCasterData13stl_allocatorIS1_L18MemLabelIdentifier2ELi16EEE21__push_back_slow_pathIKS1_EEvRT_
VEf:_PlayableHandle_IsPlayableOfType_TisAnimationClipPlayable_t4099382200_m682525715_AdjustorThunk
EEk:_UnityAction_1_Invoke_m1279802577_gshared
pAh:_UInt32_ToString_m1783596809
yrk:_Vector3_get_forward_m1201659139
jre:__Z51Register_UnityEngine_TextGenerator_GetLinesInternalv
sLk:_HashSet_1_Init_m1258286688_gshared
uBk:_X509ExtensionCollection_get_Item_m4212651995
OMg:_ReadOnlyCollection_1_System_Collections_IList_RemoveAt_m525136953_gshared
_pa:__ZN6prcoreL17RemapGenericFloatI17TexFormatRGBFloat18TexFormatRGBAFloatEEvPKNS_9InnerInfoE
xwd:__ZN5physx2Sc5Scene15getRenderBufferEv
uAh:_UInt64_System_IConvertible_ToBoolean_m3012279573_AdjustorThunk
hyh:_Type_get_IsGenericTypeDefinition_m2147901038
iRa:__ZN12HandlerChain10ToAbsoluteEPKc
oTf:_GregorianCalendar__ctor_m3794576475
kAh:_UInt32_TryParse_m4283512434
erj:__ZN21InterfaceFuncInvoker2Ib8IntPtr_tS0_E6InvokeEjP11Il2CppClassP12Il2CppObjectS0_S0_
dDb:__ZN13MonoBehaviour23VirtualRedirectTransferER19StreamedBinaryWriteILb0EE
iK:__ZN9AudioClip11CreateSoundEv
Dri:_Material_get_mainTexture_m432794412
Qlj:_ShimEnumerator_MoveNext_m3313047792_gshared
QEg:_Collection_1_ConvertItem_m2185647560_gshared
Mwh:_TimeSpan_op_Inequality_m257547441
Uth:_ExecutionContext_GetObjectData_m1456913356
Rcl:__ZN14dense_hash_mapI10KeyWrapperINSt3__24pairIPK9FieldInfoP11Il2CppClassEEEj17ReflectionMapHashIS8_ENS9_14EqualsComparerINS1_8equal_toIS8_EEEENS1_9allocatorINS2_IKS9_jEEEEEC2EjRKSB_RKSF_
Wti:_Object_set_hideFlags_m2204253440
r8k:__ZNK15dense_hashtableINSt3__24pairIK10KeyWrapperINS1_IPK10MethodInfoP11Il2CppClassEEEjEES9_17ReflectionMapHashIS8_EN14dense_hash_mapIS9_jSD_NS9_14EqualsComparerINS0_8equal_toIS8_EEEENS0_9allocatorISB_EEE9SelectKeyESI_SK_E13find_positionERSA_
tDa:__ZN13GfxDeviceGLES20CreateComputeProgramEPKhj
hVf:_DateTimeFormatInfo_get_RoundtripPattern_m562440017
ZBe:__ZN11UnityEngine7Connect16PersistentValues13RestoreValuesER8JSONRead
P3d:__ZN14SphereCollider22FetchPoseFromTransformEv
QSa:__ZN20ArchiveStorageReader31TryToReadDirectoryFromBlockDataEyPKvj
iyf:_Double_System_IConvertible_ToByte_m3004284950_AdjustorThunk
gPd:__ZNK5physx2Gu11HeightField17getHeightInternalEff
zjl:__ZN6il2cpp2vmL11GetIdentityEP14Il2CppIUnknown
Yfg:_SmallXmlParser_ReadCDATASection_m2558307107
Svl:_GC_push_gc_structures
wsd:__ZNK5physx7NpScene22getClientBehaviorFlagsEh
b6g:_ServicePointManager_get_ServerCertificateValidationCallback_m1409951209
O9c:__ZN5physx9NpFactory14createMaterialEfff
jnf:_Enumerator_get_Current_m1271212567
tU:__ZN5physx5cloth11PhaseConfigC2Et
L9d:__ZN13PhysicsModule21OverlapBoxUserCollectERK8Vector3fS2_RK11Quaternionfi23QueryTriggerInteractionRN8IPhysics12IUserCollectE
Sqi:_Input_set_compositionCursorPos_m1615567306
R6g:_IPAddress_ParseIPV6_m2209709575
grd:__ZThn8_N5physx2Sc19ShapeInstancePairLLD0Ev
gKd:__ZN5physx19PxcContactSphereBoxERKNS_2Gu13GeometryUnionES3_RKNS_11PxTransformES6_RKfRNS_10PxcNpCacheERNS0_13ContactBufferE
TYj:_Toggle_set_group_m3833595685
V9e:_LayoutRebuilder_ForceRebuildLayoutImmediate_m566681977
Ksd:__ZNK5physx7NpScene21getBroadPhaseCallbackEh
iUc:__ZN5physx6shdfnd5ArrayIPNS_12PxConstraintENS0_19ReflectionAllocatorIS3_EEE15growAndPushBackERKS3_
ovb:__ZNSt3__213__stable_sortIRNS_4lessI4PPtrI11SpriteAtlasEEENS_11__wrap_iterIPS4_EEEEvT0_SA_T_NS_15iterator_traitsISA_E15difference_typeEPNSD_10value_typeEi
p$c:__ZNK5physx2Sc15ArticulationSim11checkResizeEv
kbe:__Z37MeshCollider_Get_Custom_PropSkinWidthP12Il2CppObject
vKf:_Array_InternalArray__ICollection_Add_TisVector4_t2243707581_m698578249_gshared
x0:__ZN8keywords6CreateEPKc
mFc:__ZN5physx2Gu11gjkRelativeINS0_8CapsuleVENS0_11ConvexHullVEEEjRKT_RKT0_RKNS_6shdfnd3aos15PsMatTransformVERNSB_5Vec3VESG_SG_RNSB_6FloatVE
S:Math_imul
boi:_GUIStyle_set_active_m2896743432
Tyb:__ZN14SpriteRenderer15SetupPropertiesEv
Otb:__ZN11PlayerPrefs6GetIntERKN4core12basic_stringIcNS0_20StringStorageDefaultIcEEEEi
SYk:__ZN6il2cpp5utils13dynamic_arrayIPK10Il2CppTypeLj4EEC2ERKS5_
$ui:_Physics_Raycast_m2036777053
Tqe:__Z45TextGenerator_CUSTOM_INTERNAL_get_rectExtentsP12Il2CppObjectP5RectTIfE
oXg:_CertificateValidationCallback_Invoke_m2500463874
qFf:_SetPropertyUtility_SetStruct_TisChar_t3454481338_m2333420724_gshared
m3e:_Graphic_Raycast_m3582517890
Elf:_Hashtable_ContainsKey_m2716576664
i4d:__ZN12PhysXRaycast19ApplyParticleForcesER13dynamic_arrayI21BatchedColliderResultLj4EE
kjk:_PatternCompiler_EmitCategory_m1696942454
nwf:_Decimal_decimalFloorAndTrunc_m3655683429
PKf:_Array_InternalArray__ICollection_CopyTo_TisInt32_t2071877448_m984622488_gshared
n1:__ZN18ScriptingArguments9AddObjectE18ScriptingObjectPtr
Wue:__Z39CanvasGroup_Get_Custom_PropInteractableP12Il2CppObject
SU:__ZN11UnityEngine15CloudWebService16SessionContainerD2Ev
xGa:__ZN17GenericDynamicVBOC2ER9GfxDevice13GfxBufferModejj
j2j:_Context_get_HasDynamicSinks_m1998518649
ooc:__ZZN10GUIManager14InitGUIManagerEvEN41PreUpdateIMGUISendQueuedEventsRegistrator7ForwardEv
aDj:_AnimatorControllerPlayable_ResetTrigger_m758725835_AdjustorThunk
Nod:__ZNK5physx2Sc5Scene7isValidEv
jW:__ZN11UnityEngine15CloudWebService17SessionEventQueue10PurgeItemsEj
Nud:__ZN5physx2Sq17SceneQueryManager29setDynamicTreeRebuildRateHintEj
M7a:__ZN6Camera16StandaloneRenderENS_10RenderFlagEP6ShaderRKN4core12basic_stringIcNS3_20StringStorageDefaultIcEEEE
naf:_Array_System_Collections_IList_get_Item_m2088124007
Haf:_Array_GetLength_m2083296647
njf:_SynchronizedArrayListWrapper_ToArray_m1522185111
POb:__Z18Transfer_BlittableI18StreamedBinaryReadILb1EELb1EtEvRK29SerializationCommandArgumentsR31RuntimeSerializationCommandInfo
DBa:__ZN9GfxDevice20DeallocRenderSurfaceEP17RenderSurfaceBase
e_c:__ZN5physx6shdfnd5ArrayIPvNS0_19ReflectionAllocatorINS_18NpArticulationLinkEEEE4copyINS0_15InlineAllocatorILj256ES5_EEEEvRKNS1_IS2_T_EE
iCh:_ValueType_ToString_m3796301715
bJa:__ZN20GpuProgramParameters36UpdatePrepareValuesMaximumBufferSizeEv
tBc:__ZNK5physx3Cct10Controller12getKineShapeEv
aic:__Z53Register_UnityEngine_Quaternion_INTERNAL_CALL_Inversev
ySc:__ZN5physx6shdfnd4sortIPvNS0_4LessIS2_EENS0_19ReflectionAllocatorINS_2Sc18TriggerInteractionEEEEEvPT_jRKT0_RKT1_j
cli:_GUILayoutGroup__ctor_m992523271
Qib:__ZN12BaseRenderer23RendererBecameInvisibleEv
Ymd:__ZNK5physx2Sc8BodyCore14getMaxAngVelSqEv
hde:__ZN20TextRenderingPrivate8FontImpl13CharacterInfo8TransferI18StreamedBinaryReadILb0EEEEvRT_
uMb:__Z29Transfer_Blittable_ArrayFieldI24GenerateTypeTreeTransferfEvRT_R9ArrayInfoRK23StaticTransferFieldInfo
WGh:__Z76RuntimeInvoker_RuntimeObject_RuntimeObject_SByte_t454417549_SByte_t454417549PFvvEPK10MethodInfoPvPS4_
zab:__ZN19CustomRenderTexture9AddParentE4PPtrIS_E
Fsb:__ZN8Gradient8TransferI14SafeBinaryReadEEvRT_
cGk:_UnityEvent_1_Invoke_m1533100983_gshared
Wma:__ZNSt3__26vectorIN4core12basic_stringIcNS1_20StringStorageDefaultIcEEEE13stl_allocatorIS5_L18MemLabelIdentifier1ELi16EEE7reserveEj
f6g:_FileWebRequest__ctor_m4003648606
khj:__ZL71SpriteState_t1353336012_CustomAttributesCacheGenerator_m_DisabledSpriteP21CustomAttributesCache
lzf:_Enum_System_IConvertible_ToSByte_m3488526280
Jti:_MonoBehaviour_StopAllCoroutines_m1675795839
fLd:__ZN5physx2Gu32PCMConvexVsMeshContactGeneration15processTriangleEPKNS_6PxVec3EjhPKj
XZk:__ZNK15dense_hashtableI10KeyWrapperIPK19Il2CppGenericMethodES4_N6il2cpp8metadata23Il2CppGenericMethodHashEN14dense_hash_setIS4_S7_NS4_14EqualsComparerINS6_26Il2CppGenericMethodCompareEEENSt3__29allocatorIS4_EEE8IdentityESB_SE_E4findERKS4_
yCj:_AnimatorControllerPlayable_GetIntegerString_m2944800090
q9f:_NumberFormatter_Init_m1022036773
Mul:_GC_new_free_list_inner
Ztj:_DefaultComparer_Equals_m85211180_gshared
e8f:_MonoType_InternalGetEvent_m532443236
NGg:_Collection_1_IndexOf_m2700825189_gshared
JOd:__ZN5physx6shdfnd5ArrayINS_2Cm8Matrix34ENS0_19ReflectionAllocatorIS3_EEE15growAndPushBackERKS3_
mLd:__ZN5physx2Gu32PCMConvexVsMeshContactGeneration31generatePolyDataContactManifoldERNS0_9TriangleVEjjhPNS0_21MeshPersistentContactERjRKNS_6shdfnd3aos6FloatVERNS8_5Vec3VE
R_d:__ZN5physx10SubSortSAH5splitEPjj
Oxc:__ZN8JSONRead8TransferI10RectOffsetEEvRT_PKc17TransferMetaFlagsb
TV:__ZN9JSONWrite8TransferIN11UnityEngine15CloudWebService14DataErrorEvent15FileErrorDetailEEEvRT_PKc17TransferMetaFlags
BRe:_Decoder__ctor_m2623573910
OGc:__ZN5physx2Gu3EPA8addFacetEjjjRKNS_6shdfnd3aos6FloatVES6_
INg:_ReadOnlyCollection_1_System_Collections_Generic_IListU3CTU3E_RemoveAt_m1731148677_gshared
_M:__ZN12SoundManager20RegisterModifiedClipEP10SampleClip
nyb:__ZN12MeshRenderer15AddAsRenderNodeER15RenderNodeQueueRK20DeprecatedSourceData
wOc:__ZN5physx3Cct9CCTParamsC2Ev
OXk:__ZN15dense_hashtableI10KeyWrapperIPK17Il2CppGenericInstES4_N6il2cpp8metadata21Il2CppGenericInstHashEN14dense_hash_setIS4_S7_NS4_14EqualsComparerINS6_24Il2CppGenericInstCompareEEENSt3__29allocatorIS4_EEE8IdentityESB_SE_E13set_empty_keyERKS4_
Kcd:__ZN5physx7NpCloth21setStiffnessFrequencyEf
JDd:__ZN5physx17PxcSweepBoxConvexERKNS_11PxsCCDShapeES2_PKNS_12PxsRigidBodyES5_RKNS_11PxTransformES8_S8_S8_fRNS_6PxVec3ESA_RNS_10PxcNpCacheERNS_18PxcNpThreadContextEf
bXd:__ZThn8_N5physx2Gu11HeightField14onRefCountZeroEv
mAk:_X501__cctor_m2610532554
SRc:__ZN5physx2Sc5Actor9setActiveEbj
Lyg:_List_1_CheckCollection_m2220107869_gshared
Tpb:__ZN7Cubemap23VirtualRedirectTransferER18StreamedBinaryReadILb0EE
DZg:_RecordProtocol_EncodeRecord_m3884270352
lJe:_SHA256_Create_m896954069
Voe:_Read_CVT
mSc:__ZN5physx2Sc10NPhaseCore28reserveContactReportPairDataEjjRj
qsf:_Convert_ToUInt32_m776714429
sFc:__ZN5physx2Gu22barycentricCoordinatesERKNS_6shdfnd3aos5Vec3VES5_S5_RNS2_6FloatVE
KPa:__ZN12FileAccessor4SeekEx10FileOrigin
oLb:__ZL26Transfer_SimpleNativeClassI24GenerateTypeTreeTransfer17AnimationCurveTplIfELb0EEvRK29SerializationCommandArgumentsR31RuntimeSerializationCommandInfo
Nrb:__ZN24GenerateTypeTreeTransfer8TransferI13dynamic_arrayI33EnlightenTerrainChunksInformationLj4EEEEvRT_PKc17TransferMetaFlags
jZd:__ZL18TestUnifiedNormalsjPKN5physx6PxVec3EjPNS_2Gu9TriangleTIjEEb
y8:__ZN16LightmapSettings20DidChangeActiveSceneEP10UnitySceneS1_
mjj:__ZL59g_AssemblyU2DCSharp_Assembly_CustomAttributesCacheGeneratorP21CustomAttributesCache
r2k:__ZN6il2cpp5utils9PathUtils8BasenameIcEENSt3__212basic_stringIT_NS3_11char_traitsIS5_EENS3_9allocatorIS5_EEEERKSA_
pO:__ZN10AudioMixer11SetupGroupsEv
Xpc:__Z35Register_UnityEngine_Event_get_typev
Xgg:_PrivateKeyInfo_DecodeRSA_m1427048948
hMk:_CollisionAvoidance_GetSteering_m2903730075
Ygl:__ZN6il2cpp2vm9Exception23GetInvalidCastExceptionERKNS_5utils10StringViewIDsEE
_6h:_Assembly_FillName_m1934025015
WPe:_String_IndexOf_m2126171214
__f:_Int64_ToString_m1544341651_AdjustorThunk
MVd:__ZNK5physx13GuMeshFactory17getNbConvexMeshesEv
ZWf:_Guid_CheckNull_m2903986431
$Ij:_Bounds__ctor_m1202659404
v2:__Z63ThreadAndSerializationSafeCheckGetMonoBehaviourBeingTransferredv
wxl:_GC_enable
y$g:_TlsClientCertificateVerify_ProcessAsSsl3_m3377063356
obl:__ZN15dense_hashtableINSt3__24pairIK10KeyWrapperIPK14Il2CppAssemblyEPK22Il2CppMonoAssemblyNameEES6_N6il2cpp5utils11PointerHashIS4_EEN14dense_hash_mapIS6_SA_SF_NS6_14EqualsComparerINS0_8equal_toIS5_EEEENS0_9allocatorISB_EEE9SelectKeyESK_SM_EC2ERKSP_j
lXe:_StandaloneInputModule_set_repeatDelay_m2820945738
uzh:_UInt16_ToString_m4213290405
Ehc:__Z37Register_UnityEngine_Input_GetAxisRawv
F0j:_ChannelServices_RegisterChannel_m3832858065
szf:_Enum_GetName_m1226611481
jSk:_Func_2_Invoke_m4121137703_gshared
Evb:__ZN14Texture2DArray23VirtualRedirectTransferER18StreamedBinaryReadILb0EE
Plk:_Literal_CompileLiteral_m276843152
WYb:__ZN2UI13RectTransform13AwakeFromLoadE17AwakeFromLoadMode
Q1a:__ZN14qsort_internal30FindAndMovePivotToLastPositionIP20ShadowCasterSortDatai26ShadowCasterSortDataSorterEEvT_S4_T0_T1_
sYk:__ZNK15dense_hashtableI10KeyWrapperIPK19Il2CppGenericMethodES4_N6il2cpp8metadata23Il2CppGenericMethodHashEN14dense_hash_setIS4_S7_NS4_14EqualsComparerINS6_26Il2CppGenericMethodCompareEEENSt3__29allocatorIS4_EEE8IdentityESB_SE_E3endEv
MFb:__Z18Transfer_BlittableI14SafeBinaryReadLb1EiEvRK29SerializationCommandArgumentsR31RuntimeSerializationCommandInfo
pxa:__ZN17PersistentManager13GetAllFileIDsERKN4core12basic_stringIcNS0_20StringStorageDefaultIcEEEER13dynamic_arrayIxLj8EE
Hbf:_Array_LastIndexOf_m4096535198
ohf:_ArrayList_Add_m1719188324
S6c:__ZN18MultiQueryCallbackIN5physx12PxOverlapHitEE6invokeERfPKNS0_2Sq13PrunerPayloadEj
TJl:dynCall_vifiiiiiiiiiiiiiiiiiiiiiii
yyf:_Double_System_IConvertible_ToSByte_m1653690240_AdjustorThunk
aJc:__ZN5physx2Gu18gjkRelativeRayCastINS0_4BoxVES2_NS0_10ShrunkBoxVES3_EEbRT_RT0_RKNS_6shdfnd3aos15PsMatTransformVERKNS9_6FloatVERKNS9_5Vec3VESI_RSD_RSG_SK_fb
hl:_glGetStringi
Ell:__ZNK15dense_hashtableI10KeyWrapperIP18Il2CppGenericClassES3_N6il2cpp8metadata22Il2CppGenericClassHashEN14dense_hash_setIS3_S6_NS3_14EqualsComparerINS5_25Il2CppGenericClassCompareEEENSt3__29allocatorIS3_EEE8IdentityESA_SD_E10test_emptyERK30dense_hashtable_const_iteratorIS3_S3_S6_SF_SA_SD_E
YE:__ZZN8Animator15InitializeClassEvEN43FunctorImpl_420kDidModifyAnimatorController4CallEPviR11MessageData
Zvb:__ZN18StreamedBinaryReadILb0EE21TransferSTLStyleArrayI13dynamic_arrayI8Vector4fLj4EEEEvRT_17TransferMetaFlags
sWd:__ZThn8_N5physx2Gu10ConvexMeshD0Ev
bbh:_X509Chain_get_CertificateCollection_m324631835
mxj:_EqualityComparer_1__cctor_m1011898363_gshared
kYe:_AnimationTriggers__ctor_m2623627182
bIf:_Array_InternalArray__IndexOf_TisClientCertificateType_t4001384466_m1168139450_gshared
FW:__ZN11UnityEngine15CloudWebService20WebRequestRestClient18GetResponseHeadersEv
Qtb:__ZNSt3__23mapIN4core12basic_stringIcNS1_20StringStorageDefaultIcEEEE9PrefValueNS_4lessIS5_EENS_9allocatorINS_4pairIKS5_S6_EEEEEixERSB_
B6b:__ZN15DirectorManager22ConstructPlayableGraphEv
iKe:_SymmetricAlgorithm_set_IV_m4262655606
TXj:_StencilMaterial__cctor_m2963056855
Jwg:_List_1_Find_m3680710386_gshared
wFj:_AnimatorControllerPlayable_Play_m614561002_AdjustorThunk
H8h:_CustomAttributeNamedArgument_GetHashCode_m3715408876_AdjustorThunk
_qe:__Z38Register_UnityEngine_Font_HasCharacterv
gah:_X509Certificate2_AppendBuffer_m3517242299
V5a:__Z35IntersectSpherePlaneBoundsOptimizedRKN4math7_float4EPS1_i
_Bf:_CultureInfo_get_IsNeutralCulture_m3874876470
bxf:_Delegate_CreateDelegate_m3813023227
iQc:__ZN5physx2Sc8ShapeSim20createLowLevelVolumeEjRKNS_9PxBounds3EjNS_9AABBMgrIdE
_nk:_Uri_get_AbsoluteUri_m2120317928
yI:__Z100Register_UnityEngine_Animations_AnimatorControllerPlayable_INTERNAL_CALL_GetAnimatorClipInfoInternalv
qol:__ZN6il2cpp2os5posix15PosixWaitObject13InterruptWaitEv
Pcd:__ZNK5physx7NpCloth22getAngularInertiaScaleEv
PKc:__ZN26IntersectAnyVsMeshCallbackILi1ELb1EE10processHitERKN5physx12PxRaycastHitERKNS1_6PxVec3ES7_S7_RfPKj
XYj:_ToggleGroup_RegisterToggle_m3118973598
_7:__Z22CleanupLODGroupManagerPv
oKf:_Array_InternalArray__ICollection_Add_TisContentType_t1028629049_m2984242302_gshared
fwd:__ZN5physx6shdfnd5ArrayINS_2Sc5Scene14SimpleBodyPairENS0_19ReflectionAllocatorIS4_EEE8recreateEj
Zll:__ZN6il2cpp8metadata15GenericMetadata20RegisterGenericClassEP18Il2CppGenericClass
Rl:_glUniform3fv
vBb:__ZNSt3__218__insertion_sort_3IRN15ResourceManager10Dependency6SorterEPS2_EEvT0_S6_T_
nog:_Enumerator_System_Collections_IEnumerator_Reset_m3796537546_AdjustorThunk
eqe:_UNITY_FT_Init_Class_tt_service_gx_multi_masters
KOh:__Z53RuntimeInvoker_Int32_t2071877448_TimeSpan_t3430258949PFvvEPK10MethodInfoPvPS4_
PEh:__Z64RuntimeInvoker_RuntimeObject_Int32_t2071877448_Int16_t4041245914PFvvEPK10MethodInfoPvPS4_
P7f:_IntComparer_Compare_m3057931085
w0a:__ZNK16LightmapSettings31GetRealtimeLightmapDecodeValuesEv
OO:__ZN5audio5mixer12SetSuspendedERNS0_16AudioMixerMemoryEb
Fsa:__ZN17PersistentManager21UnloadNonDirtyStreamsEv
Nhl:__ZN6il2cpp2vm13LivenessStateC2EP11Il2CppClassjPFvPP12Il2CppObjectiPvES7_PFvvESB_
mTf:_Array_ConvertAll_TisRuntimeObject_TisRuntimeObject_m2423585546_gshared
sWa:__ZN12ImageFilters4BlitER17ShaderPassContextP7TextureP13RenderTextureiPK18SharedMaterialDataPKcP6ShaderiNS_9BlitFlagsE11CubemapFaceRK8Vector2fSH_
w8g:_Oid__ctor_m1936781897
T6d:__ZN5physx6shdfnd8PoolBaseINS_24NpPtrTableStorageManager8PtrBlockILi4EEENS0_19ReflectionAllocatorIS4_EEE12allocateSlabEv
nui:_Object_INTERNAL_CALL_Internal_InstantiateSingleWithParent_m1401308849
tW:__ZN11UnityEngine15CloudWebService10RestClientINS0_23WebRequestRestHeaderMapEED2Ev
o_j:_ResourceSet__ctor_m1222864106
tTd:__ZN5physx2Sc5Scene13ccdBroadPhaseEPNS_10PxBaseTaskE
oCg:_Collection_1_System_Collections_IList_get_Item_m3376056117_gshared
Ksa:__ZN18LoadSceneOperationD0Ev
hLd:__ZN5physx2Gu24PCMMeshContactGeneration15processContactsEhb
fEg:_Collection_1_IsSynchronized_m2601980439_gshared
mog:_Enumerator_VerifyState_m3639069574_gshared
BHa:__ZN4crnd25static_huffman_data_model22prepare_decoder_tablesEv
i2b:__ZN16ReflectionProbesD2Ev
ATg:_ModulusRing_Difference_m662924064
QZe:_CanvasUpdateRegistry_ObjectValidForUpdate_m855695984
F6e:_InputField_set_onValueChanged_m2406388125
dda:__ZL22CleanupUnityWebStreamsPv
bRb:__Z18Transfer_BlittableI18StreamedBinaryReadILb0EELb0E10ColorRGBAfEvRK29SerializationCommandArgumentsR31RuntimeSerializationCommandInfo
Y4g:_ListDictionary_Add_m4276262662
D8:__Znaj
KHe:_RIPEMD160Managed_GGG_m1639995340
aSl:_emscripten_glEnableClientState__wrapper
B$:__ZN17MessageIdentifierC2EPKcNS_7OptionsEPKN5Unity4TypeES1_
SH:__Z76AnimatorControllerPlayable_CUSTOM_INTERNAL_CALL_CrossFadeInFixedTimeInternalR9HPlayableifif
Enj:_Enumerator_System_Collections_IEnumerator_get_Current_m1648049763_gshared
Zzl:__ZN6il2cpp6icalls8mscorlib4Mono8Security12Cryptography18KeyPairPersistence15_ProtectMachineEP12Il2CppString
wFd:__ZN5physxL26solveFriction4_StaticBlockEPKNS_23PxcSolverConstraintDescERNS_16PxcSolverContextE
Aaf:_Array_System_Collections_IList_Remove_m2438892375
H4f:_TextWriter__ctor_m2225796097
ghb:__ZN14SafeBinaryRead8TransferI14ConstantStringEEvRT_PKc17TransferMetaFlags
Bsk:_ScriptableObject_Internal_CreateScriptableObject_m1778903390
aKd:__ZN5physx30PxcGetMaterialShapeHeightFieldEPKNS_12PxsShapeCoreES2_RNS_18PxcNpThreadContextEPNS_15PxsMaterialInfoE
$ja:__ZNK6Camera16GetStereoEnabledEv
U2b:__ZN12LightManager15InitializeClassEv
cUd:__ZN5physx6shdfnd8PoolBaseINS_2Sc19ParticlePacketShapeENS0_19ReflectionAllocatorIS3_EEE12allocateSlabEv
$ka:__ZN9ShaderLab11shaderprops16GetComputeBufferEPK19ShaderPropertySheetS3_NS_16FastPropertyNameE
Aoi:_GUIStyle_GetFontInternal_m3509743324
A1:__ZN18ScriptingArgumentsC2Ev
Uwh:_TimeZone_IsDaylightSavingTime_m875882154
eNl:_emscripten_glBlendFuncSeparate__wrapper
pYg:_CipherSuiteCollection_System_Collections_IList_set_Item_m750275607
eCj:_AnimatorControllerPlayable_SetFloatID_m3806317182
XEa:__Z17HasSampledTexture14GraphicsFormat13formatSupport
NXa:__ZNK25CameraStackRenderingState27GetStereoImageEffectTextureEb
SIe:_SHA1CryptoServiceProvider__ctor_m3127563759
cr:__ZN8Vector3f8TransferI14SafeBinaryReadEEvRT_
xac:__ZN13BuildSettings13GetSceneIndexERKN4core12basic_stringIcNS0_20StringStorageDefaultIcEEEE
ajj:__ZL103BaseVertexEffect_t2504093552_CustomAttributesCacheGenerator_BaseVertexEffect_ModifyVertices_m3446986347P21CustomAttributesCache
Ep:FUNCTION_TABLE_ii
Boj:_Enumerator_MoveNext_m335649778_AdjustorThunk
Eib:__ZN10TagManager8TransferI18StreamedBinaryReadILb0EEEEvRT_
Buc:__Z18Transfer_BlittableI9JSONWriteLb0E8BitFieldEvRK29SerializationCommandArgumentsR31RuntimeSerializationCommandInfo
oAh:_UInt32_ToString_m3894907091_AdjustorThunk
Qb:invoke_diiii
qJf:_Array_ForEach_TisRuntimeObject_m1849351808_gshared
UJc:__ZL17sweepVolumeVsMeshPKN5physx3Cct9SweepTestEPKNS0_11TouchedMeshERNS0_12SweptContactERKNS_6PxVec3ERKNS_10PxGeometryERKNS_11PxTransformEjPKNS_10PxTriangleEj
Ofg:_SmallXmlParser_Error_m1832158746
gl:_glDeleteVertexArrays
vOd:__ZN5physx2Gu31checkOverlapOBB_heightFieldGeomERKNS_10PxGeometryERKNS_11PxTransformERKNS0_3BoxE
wdb:__Z24CreateDirectoryRecursiveRKN4core12basic_stringIcNS_20StringStorageDefaultIcEEEE
rLl:b41
CWb:__ZN9ShaderLab20SerializedSubProgram8TransferI18StreamedBinaryReadILb0EEEEvRT_
h4f:_StreamAsyncResult_get_AsyncWaitHandle_m4218169359
joc:__Z22MonoGUIContentToNative18ScriptingObjectPtrR10GUIContent
KCc:__ZN5physx2Gu23findRotationMatrixFromZERKNS_6PxVec3E
LEd:__ZNK5physx2Gu29EPASupportMapPairRelativeImplINS0_8CapsuleVENS0_11ConvexHullVEE18doWarmStartSupportEiiRNS_6shdfnd3aos5Vec3VES8_S8_
Cre:__ZN2UI13CanvasManager9AddCanvasEPNS_6CanvasE
Mva:__ZN9Texture3D8TransferI19StreamedBinaryWriteILb0EEEEvRT_
SYa:__ZNK6Camera22CalculateRenderingPathEv
Vvc:__ZN9JSONWrite8TransferI5RectTIfEEEvRT_PKc17TransferMetaFlags
Zzj:_AnimationClipPlayable_INTERNAL_CALL_GetRemoveStartOffsetInternal_m3895628593
Uud:__ZN5physx13NpVolumeCache10invalidateEv
rKa:__Z13ConvertMipmap14GraphicsFormatPKvS_Pviiii
CJe:_SHA384Managed_processBlock_m3232296629
kjg:_X509Certificate_get_PublicKey_m714501701
xie:_tt_sbit_decoder_load_image
Gia:__Z14IsHalfRTFormat19RenderTextureFormat
jQe:_String_LastIndexOf_m290475879
Boc:__ZNSt3__24listIN10GUIManager12SortedScriptE11memory_poolIS2_EE6__sortI13OldSortScriptEENS_15__list_iteratorIS2_PvEESA_SA_jRT_
JQc:__ZN5physx6shdfnd5ArrayIPvNS0_19ReflectionAllocatorINS_2Sc10NPhaseCore16ClothListElementEEEE15growAndPushBackERKS2_
yAh:_UInt64_System_IConvertible_ToChar_m1930853313_AdjustorThunk
t$g:_TlsClientCertificate_SendCertificates_m1096074091
qmf:_SyncHashtable_get_Item_m408601391
NNg:_ReadOnlyCollection_1_System_Collections_IEnumerable_GetEnumerator_m1401363518_gshared
UBg:_Stack_1_System_Collections_ICollection_CopyTo_m2104527616_gshared
Lrh:_StringBuilder_AppendFormat_m1666670800
Q2a:__ZN18DeferredRenderLoop13RenderGBufferEP13RenderTexturePS1_b8JobFencePK25DeferredRenderLoopScratchRi
jMk:_Face_GetSteering_m3751956292
MVh:__Z97RuntimeInvoker_Boolean_t3825574718_RuntimeObject_TextGenerationSettings_t2543476768_RuntimeObjectPFvvEPK10MethodInfoPvPS4_
$pk:_Rect_Equals_m3806390726
b6h:__Z80RuntimeInvoker_RuntimeObject_RaycastResult_t21186376_RuntimeObject_RuntimeObjectPFvvEPK10MethodInfoPvPS4_
Xfl:__ZN6il2cpp6icalls8mscorlib6System9ThreadingL11ThreadStartEPv
Daa:__ZN15DirectorManager12OnSampleTimeEv
dQg:_ReadOnlyCollection_1_System_Collections_IList_Remove_m3878418841_gshared
K6e:_InputField_EnforceContentType_m1902926812
zja:__ZN12CachedReader10Align4ReadEv
qhl:__ZN6il2cpp2vm9Exception28GetMarshalDirectiveExceptionEPKc
U8f:_MulticastDelegate_GetObjectData_m3187757658
Kgb:__ZNK9Behaviour22GetTypeVirtualInternalEv
y7c:__ZN5physx2Sc14ConstraintCore13setBreakForceEff
X6a:__Z21GetScriptingArraySize17ScriptingArrayPtr
Bce:__ZN20TextRenderingPrivate8FontImpl8TransferI14SafeBinaryReadEEvRT_
xYh:__Z74RuntimeInvoker_Int32_t2071877448_RaycastHit_t87180320_RaycastHit_t87180320PFvvEPK10MethodInfoPvPS4_
TAj:_AnimationOffsetPlayable_INTERNAL_CALL_CreateHandleInternal_m2301240007
Cna:__Z35UnityPropertySheet_MakeSortedColorsRKNSt3__23mapIN9ShaderLab16FastPropertyNameE10ColorRGBAfNS_4lessIS2_EENS_9allocatorINS_4pairIKS2_S3_EEEEEER10vector_mapIS2_S3_S5_NS6_INS7_IS2_S3_EEEEE
CWh:__Z116RuntimeInvoker_Void_t1841601450_Rect_t3681755626_RuntimeObject_Int32_t2071877448_Int32_t2071877448_Int32_t2071877448PFvvEPK10MethodInfoPvPS4_
Hoi:_GUIStyle_Draw_m4006459684
m9d:__ZZN14PhysicsManager15InitializeClassEvEN63EarlyUpdatePhysicsResetInterpolatedTransformPositionRegistrator7ForwardEv
zCa:__ZN9GfxDevice17ImmediateTexCoordEifff
hkk:_Parser_ParseRegularExpression_m2390577313
cag:_OperatingSystem_Clone_m1943707477
Dbh:_X509CertificateEnumerator_System_Collections_IEnumerator_Reset_m327358896
FKf:_Array_InternalArray__ICollection_CopyTo_TisKeyValuePair_2_t1174980068_m1818152223_gshared
rMe:_Hash__ctor_m2554411450
aKe:_SHAConstants__cctor_m2781430679
ZNe:_Single_System_IConvertible_ToDateTime_m2510003459_AdjustorThunk
uxf:_Delegate_RemoveImpl_m3666700529
$Kl:_emscripten_glUniform4f__wrapper
q5g:_NameObjectCollectionBase_OnDeserialization_m3478980442
w6e:_InputField_set_caretColor_m2252440840
wRd:__ZN5physx6shdfnd5ArrayINS_25PxcThresholdStreamElementENS0_19ReflectionAllocatorIS2_EEE8recreateEj
LT:__Z78Register_UnityEngine_Audio_AudioPlayableOutput_INTERNAL_CALL_InternalSetTargetv
FOf:_Array_Resize_TisVector2_t2243707579_m1117258774_gshared
o$a:__ZNK6Camera16GetProjectionFarEv
ds:__Z24InverseTransformRotationRK23TransformAccessReadOnlyRKN4math7_float4E
S6f:_MissingFieldException__ctor_m1161042282
tgf:_Char_GetHashCode_m2343577184
PCe:__Z31GetPerformanceReportingSettingsv
Gob:__ZNK14PlayableOutput11DerivesFromE17ScriptingClassPtr
Rva:__ZN7Texture34CreateFileTextureUploadInstructionE18TextureUploadFlagsj
hWa:__ZN13ComputeShader14SetBufferParamEjRKN9ShaderLab16FastPropertyNameE15ComputeBufferID
Qdd:__ZN5physx7NpCloth21setCollisionMassScaleEf
KOd:__ZN5physx6shdfnd5ArrayINS_7PxPlaneENS0_19ReflectionAllocatorIS2_EEE8recreateEj
P9d:__ZN13PhysicsModule17GetRigidBodyStateERK9RigidbodyPN8IPhysics14RigidBodyStateE
SPg:_ReadOnlyCollection_1_System_Collections_Generic_IListU3CTU3E_Insert_m3054305464_gshared
ZD:__ZN8Animator8TransferI14SafeBinaryReadEEvRT_
FIf:_Array_InternalArray__IndexOf_TisTypeTag_t141209596_m2882894956_gshared
dXj:_Slider_get_value_m4182660424
O5:__Z23AsyncReadForceCloseFileRKN4core12basic_stringIcNS_20StringStorageDefaultIcEEEE
xu:__ZN17AnimationPlayable34CollectAnimatorControllerPlayablesER13dynamic_arrayIP26AnimatorControllerPlayableLj4EE
MS:__ZN16BaseVideoTexture19UpdateVideoTexturesEv
zlb:__Z28BuildSingleStreamChannelInfo17ShaderChannelMaskRK20VertexChannelsLayoutS_S2_P11ChannelInfo
oua:__ZNK16LightmapSettings23HasLightProbeTetrahedraEv
n8d:__ZN13ProduceHelperI15CapsuleColliderLb0EE7ProduceE18MemLabelIdentifier18ObjectCreationMode
G_g:_Context_get_WriteSequenceNumber_m243492531
Ytb:__ZN6Sprite23VirtualRedirectTransferER19StreamedBinaryWriteILb0EE
NFi:__ZL51Assembly_t4268412390_CustomAttributesCacheGeneratorP21CustomAttributesCache
bQe:_String_LastIndexOfAny_m1473637802
Blc:__Z38Transform_CUSTOM_INTERNAL_set_positionP12Il2CppObjectRK8Vector3f
vCh:_Version_CompareTo_m596235198
u7k:__ZNK15dense_hashtableINSt3__24pairIK10KeyWrapperINS1_IPK9FieldInfoP11Il2CppClassEEEjEES9_17ReflectionMapHashIS8_EN14dense_hash_mapIS9_jSD_NS9_14EqualsComparerINS0_8equal_toIS8_EEEENS0_9allocatorISB_EEE9SelectKeyESI_SK_E5beginEv
rla:__ZNK9ShaderLab7Program19HasMatchingVariantsERK13dynamic_arrayI16ShaderKeywordSetLj4EE
XB:__ZN15SerializeTraitsIN4math4trsXEE8TransferI8BlobSizeEEvRS1_RT_
CFa:__ZN14DataBufferGLES11CopySubDataEPKS_jjj
Qe:_emscripten_glVertexPointer
POa:__ZNSt3__26__treeI20DeviceDepthStateGLES11memcmp_lessIS1_S1_ENS_9allocatorIS1_EEE7destroyEPNS_11__tree_nodeIS1_PvEE
tte:__ZN2UI13PrepareOutputERNS_7BatchesEjjNS_30AdditionalCanvasShaderChannelsE
E2k:__ZN6il2cpp2vm7Runtime47RaiseExecutionEngineExceptionIfMethodIsNotFoundEPK10MethodInfo
w2a:__Z17GetFrustumPortionPK8Vector3fffPS_
xTc:__ZNK5physx2Gu22SupportMapRelativeImplINS0_4BoxVEE18doWarmStartSupportEiRNS_6shdfnd3aos5Vec3VE
Xil:__ZN15dense_hashtableINSt3__24pairIK10KeyWrapperIP14Il2CppIUnknownEjEES5_N6il2cpp5utils11PointerHashIS3_EEN14dense_hash_mapIS5_jSB_NS5_14EqualsComparerINS0_8equal_toIS4_EEEENS0_9allocatorIS7_EEE9SelectKeyESG_SI_E14squash_deletedEv
Rlb:__ZN5Light13AwakeFromLoadE17AwakeFromLoadMode
Maj:__ZL60MovedFromAttribute_t922195725_CustomAttributesCacheGeneratorP21CustomAttributesCache
n0e:_DefaultControls_CreateDropdown_m1384069408
dWe:_PointerEventData_get_clickCount_m4064532478
Jsf:_CultureAwareComparer_Compare_m2587353351
NAf:_CCGregorianCalendar_is_leap_year_m567513478
Fcf:_Attribute_IsDefined_m2118467641
MUe:_ExecuteEvents_Execute_m898902863
D6j:_InternalEnumerator_1_System_Collections_IEnumerator_get_Current_m3125080595_gshared
BIg:_Collection_1_System_Collections_IList_Add_m2091889616_gshared
p7b:__ZN16StreamedResource8TransferI24GenerateTypeTreeTransferEEvRT_
J1e:_DropdownItem_OnPointerEnter_m761897861
rAj:_AnimationLayerMixerPlayable_INTERNAL_CALL_IsLayerAdditiveInternal_m364677421
HI:__Z90Register_UnityEngine_Animations_AnimatorControllerPlayable_INTERNAL_CALL_CrossFadeInternalv
fNc:__ZN5physx3Cct10Controller13onOriginShiftERKNS_6PxVec3E
ULa:__ZN10Matrix3x3f15InvertTransposeEv
RDf:_Array_InternalArray__ICollection_Remove_TisKeyValuePair_2_t1174980068_m2768765894_gshared
TBj:_AnimatorControllerPlayable_GetFloat_m1229536053
jGg:_Collection_1_set_Item_m2199807215_gshared
eEd:__ZN5physx2Gu19_gjkRelativeRayCastINS0_9TriangleVENS0_11ConvexHullVEEEbRT_RT0_RKNS_6shdfnd3aos15PsMatTransformVERKNS9_6FloatVERKNS9_5Vec3VESI_RSD_RSG_SK_f
MIb:__Z29Transfer_Blittable_ArrayFieldI14SafeBinaryRead8Vector3fEvRT_R9ArrayInfoRK23StaticTransferFieldInfo
Azh:_UInt32_System_IConvertible_ToBoolean_m91295134
_th:_Monitor_Monitor_test_synchronised_m1542589500
tde:__ZN20TextRenderingPrivate8FontImpl18ResetCachedTextureEv
Jhg:_SymmetricTransform_TransformFinalBlock_m4192185386
MWf:_TextInfo__ctor_m1263401274
rJd:__ZNK5physx19ActorAABBUpdateTask7getNameEv
yvk:_TouchScreenKeyboard_Open_m913506328
uvl:_GC_print_finalization_stats
spj:_ValueCollection__ctor_m927733289_gshared
Iec:__Z53Register_UnityEngine_Behaviour_get_isActiveAndEnabledv
g7g:_IPAddress_ToString_m267966740
Ir:__ZNSt3__26vectorIN4core12basic_stringIcNS1_20StringStorageDefaultIcEEEENS_9allocatorIS5_EEE8__appendEj
TAb:__ZN26PlayerSettingsSplashScreen8TransferI17RemapPPtrTransferEEvRT_
oak:_InternalEnumerator_1_get_Current_m3922357178_gshared
n1k:__ZN6il2cpp6icalls8mscorlib6SystemL17CollectTypeFieldsINS_5utils10functional10TrueFilterEEEvP11Il2CppClassPKS7_iRNSt3__26vectorIP9FieldInfoNSB_9allocatorISE_EEEERKT_
Pdj:__ZL72ColorBlock_t2652774230_CustomAttributesCacheGenerator_m_HighlightedColorP21CustomAttributesCache
ZTc:__ZN5physx3Scb5Scene20addArticulationJointERNS0_17ArticulationJointE
kxh:_Type_get_IsValueType_m1733572463
Qsd:__ZN5physx7NpScene14resetFilteringERNS_12PxRigidActorEPKPNS_7PxShapeEj
v_b:__Z13GetTagManagerv
rEf:_Array_InternalArray__ICollection_Remove_TisUInt16_t986882611_m65494986_gshared
GOg:_ReadOnlyCollection_1_IndexOf_m3054637117_gshared
LSk:__ZL10roundUp128PyS_
CU:__ZN11UnityEngine15CloudWebService17CloudJobSchedulerD0Ev
YOe:_String_System_IConvertible_ToBoolean_m2696751322
r1d:__ZN15CapsuleCollider23VirtualRedirectTransferER14SafeBinaryRead
Osa:__ZN18LoadSceneOperation7PerformEv
qyd:__ZN5physx2Sc5Scene26setSimulationEventCallbackEPNS_25PxSimulationEventCallbackEh
yli:_GUILayer_INTERNAL_CALL_HitTest_m693512502
ase:__ZNK2UI11CanvasGroup22GetTypeVirtualInternalEv
lCc:__ZL30GeomMTDCallback_CapsuleCapsuleRN5physx6PxVec3ERfRKNS_10PxGeometryERKNS_11PxTransformES5_S8_
SJj:_Camera_get_pixelRect_m2084185953
CKc:__ZL18intersectAnyVsMeshILi0EEbPKN5physx2Gu6SphereEPKNS1_7CapsuleEPKNS1_3BoxERKNS1_13RTreeMidphaseERKNS0_11PxTransformERKNS0_11PxMeshScaleEP14LimitedResults
XZh:__Z163RuntimeInvoker_Void_t1841601450_RuntimeObject_Int32_t2071877448_SByte_t454417549_SByte_t454417549_SingleU26_t4173844468_SingleU26_t4173844468_SingleU26_t4173844468PFvvEPK10MethodInfoPvPS4_
Toc:__Z21CleanupGlobalGUIStatev
Ovh:_TimeSpan__ctor_m1888018443_AdjustorThunk
B4h:__Z74RuntimeInvoker_Int32_t2071877448_UIVertex_t1204258818_UIVertex_t1204258818PFvvEPK10MethodInfoPvPS4_
lmf:_SyncHashtable_get_Count_m3694444082
P_c:__ZN5physx14NpArticulation6wakeUpEv
I5k:__ZNSt3__26vectorINS_12basic_stringIcNS_11char_traitsIcEENS_9allocatorIcEEEENS4_IS6_EEE8allocateEj
pNa:__ZN22VertexDeclarationCache5ClearEv
LQl:_emscripten_glUniform2i__wrapper
wbb:__ZN17PersistentManager12SetPathRemapERKN4core12basic_stringIcNS0_20StringStorageDefaultIcEEEES6_
Tw:__Z27ProcessRootMotionEmptyMixerP35AnimationPlayableEvaluationConstantP32AnimationPlayableEvaluationInputP33AnimationPlayableEvaluationOutput
c4a:__ZN6Camera24PrepareCullingParametersERK23CameraCullingParameters13RenderingPathR11CullResults
$9b:__Z12SetIUISystemP9IUISystem
_sa:__ZN19RuntimeSceneManager22EndIntegrateMainThreadEP10UnitySceneNS_11LoadingModeE
eKb:__Z26Transfer_UnityEngineObjectI17RemapPPtrTransferLb0EEvRK29SerializationCommandArgumentsR31RuntimeSerializationCommandInfo
lQe:_String_IsNullOrEmpty_m2802126737
qff:_Byte_Parse_m1442736478
I_f:_Int64_Parse_m3258022240
XPe:_String_IndexOfOrdinal_m3591623977
fvk:_Texture2D_get_whiteTexture_m1979591766
soh:_CryptoConfig_EncodeLongNumber_m2352037787
Qxh:_Type_GetMethod_m475234662
b0j:_ActivationServices_get_ConstructionActivator_m1726426854
nMb:__Z29Transfer_Blittable_ArrayFieldI24GenerateTypeTreeTransfer4AABBEvRT_R9ArrayInfoRK23StaticTransferFieldInfo
HNi:__ZL52Activator_t1850728717_CustomAttributesCacheGeneratorP21CustomAttributesCache
wwl:_GC_adj_bytes_allocd
jKf:_Array_InternalArray__ICollection_Add_TisKeyframe_t1449471340_m887263954_gshared
rXd:__ZN5physx20InternalTriangleMesh16allocateVerticesEj
Iwk:_UIVertex__cctor_m803910084
QLf:_Array_InternalArray__Insert_TisDateTime_t693205669_m1484996356_gshared
ztg:_List_1_System_Collections_IList_Remove_m3933652540_gshared
t3f:_MonoIO_get_ConsoleInput_m2976499023
Tdi:_OpCode_get_Size_m481593949_AdjustorThunk
Hjf:_BitArrayEnumerator_checkVersion_m3839504595
Vaf:_Array_GetUpperBound_m1352329707
zHd:__ZN5physx6shdfnd5ArrayINS_17PxcBroadPhasePairENS0_19ReflectionAllocatorIS2_EEE8recreateEj
e1b:__ZNK17AnimationCurveTplIfE20FindIndexForSamplingERKNS0_5CacheEfRiS4_
Ja:invoke_fiiifii
bZg:_RecordProtocol__ctor_m168945279
Ruf:_DateTimeOffset_Equals_m3728302791_AdjustorThunk
OIc:__ZThn4_N16RayRTreeCallbackILi1ELb0EED1Ev
h2a:__ZN20SphericalHarmonicsL219AddDirectionalLightERKN4math7_float3ERKNS0_7_float4E
$Vd:__ZN5physx13BigConvexDataD2Ev
Lwh:_TimeSpan_op_GreaterThanOrEqual_m3997050520
waa:__Z26ScheduleJobForEachInternalR8JobFencePFvPvjES1_iPFvS1_E11JobPriority
m9g:_OidEnumerator_MoveNext_m1889267785
YTa:__ZZ23InitPlayerLoopCallbacksvEN41PostLateUpdateProfilerEndFrameRegistrator7ForwardEv
Hac:__ZN9Scripting18RaiseMonoExceptionEPKcz
Jqb:__ZN9Texture2D8TransferI19StreamedBinaryWriteILb0EEEEvRT_
Pmi:_GUISkin_set_box_m877476512
aHk:_TweenRunner_1_StartTween_m3792842064_gshared
s3b:__ZN9ShaderLab16FastPropertyName15InitBy28BitHashEj
fOe:_Single_System_IConvertible_ToInt32_m3269519527_AdjustorThunk
YIe:_SHA1Internal_ProcessBlock_m4070037334
Sxl:__ZN6il2cpp6icalls8mscorlib6System10Reflection14MonoMethodInfo15get_method_infoE12Il2CppIntPtrP16Il2CppMethodInfo
XMf:_Array_InternalArray__set_Item_TisDouble_t4078015681_m24756265_gshared
hih:_ObjRef_GetObjectData_m3081609242
CJd:__ZN5physx20updateBodyShapeAABBsEPKjjS1_PKNS_17PxcAABBDataStaticEPNS_11IntegerAABBEj
J0b:__ZN13ProduceHelperIN2UI13RectTransformELb0EE7ProduceE18MemLabelIdentifier18ObjectCreationMode
Cwb:__ZN17PackedFloatVector12UnpackFloatsEPfiiii
VLg:_ReadOnlyCollection_1__ctor_m3671019970_gshared
Zz:__ZN17AnimationPlayable28UpdateInternalStateRecursiveILi3ELb0EEEvPK35AnimationPlayableEvaluationConstant
uDa:__ZN13GfxDeviceGLES21DestroyComputeProgramER12ObjectHandleI18ComputeProgram_TagPvE
Xpf:_Convert_ToDecimal_m2007036836
c8:__ZN17UniqueIDGenerator16DestroyPureIndexEj
m4:__ZL21AppendNestedClassName17ScriptingClassPtrRN4core17string_with_labelILi1EEE
qUb:__ZN14SafeBinaryRead21TransferSTLStyleArrayINSt3__26vectorIN9ShaderLab20SerializedSubProgram12UAVParameterENS1_9allocatorIS5_EEEEEEvRT_17TransferMetaFlags
i2j:_Context_NotifyDynamicSinks_m1367144344
LV:__ZN24TextDOMTransferWriteBaseI9JSONWriteE12PushMetaFlagEi
vdd:__ZN5physx7NpCloth22removeCollisionCapsuleEj
hZg:_TlsClientCertificateVerify__ctor_m110646389
ara:__ZN6prcoreL26RemapGenericIntegerToFloatI17TexFormatARGB888815TexFormatRFloatEEvPKNS_9InnerInfoE
H0k:__ZN6il2cpp2vm10ThreadPool10InitializeEv
r2j:_Context_GetServerContextSinkChain_m390126977
v5k:__ZN6il2cpp2vm17TypeNameParseInfoD2Ev
DRd:__ZN5physx18PxsSolverStartTask16articulationTaskEv
a5f:_StringReader_Read_m513112775
qsb:__ZNK8Renderer8GetLayerEv
hVc:__ZN5physx6shdfnd4sortIPvNS0_4LessIS2_EENS0_19ReflectionAllocatorINS_2Cm5BlockIS2_Lj16EEEEEEEvPT_jRKT0_RKT1_j
zkb:__ZN12FlareManager11DeleteFlareEi
B_a:__ZNK6Camera20GetReplacementShaderEv
X6c:__ZN18MultiQueryCallbackIN5physx12PxRaycastHitEE6invokeERfPKNS0_2Sq13PrunerPayloadEj
Bvf:_Decimal__ctor_m569480123_AdjustorThunk
z6g:_HttpWebRequest__cctor_m3013631978
uzl:__ZNSt3__26__treeINS_12__value_typeINS_12basic_stringIcNS_11char_traitsIcEENS_9allocatorIcEEEEPFvvEEENS_19__map_value_compareIS7_SA_NS_4lessIS7_EELb1EEENS5_ISA_EEE4findIS7_EENS_15__tree_iteratorISA_PNS_11__tree_nodeISA_PvEEiEERKT_
DUb:__ZNSt3__26vectorIN9ShaderLab20SerializedSubProgram14ConstantBufferENS_9allocatorIS3_EEE7reserveEj
dva:__ZL23stbir__calculate_memoryP11stbir__info
dLh:__Z83RuntimeInvoker_Void_t1841601450_Int64_t909078037_Int32_t2071877448_Int64_t909078037PFvvEPK10MethodInfoPvPS4_
VTj:_Scrollbar_FindSelectableOnRight_m3219495255
hzc:__ZNK9rapidjson12GenericValueINS_4UTF8IcEE13JSONAllocatorE6AcceptINS_12PrettyWriterI16TempBufferWriterS2_S2_S3_EEEEbRT_
EWa:__ZNK6Camera18GetRenderRectangleEv
zLf:_Array_InternalArray__ICollection_CopyTo_TisVector3_t2243707580_m509487340_gshared
lI:__Z82AnimatorControllerPlayable_CUSTOM_INTERNAL_CALL_IsParameterControlledByCurveStringR9HPlayableP12Il2CppString
hxc:__ZL26Transfer_SimpleNativeClassI8JSONRead10RectOffsetLb1EEvRK29SerializationCommandArgumentsR31RuntimeSerializationCommandInfo
cve:__Z44CanvasRenderer_CUSTOM_INTERNAL_CALL_SetColorP12Il2CppObjectRK10ColorRGBAf
ASf:_Component_GetComponentInChildren_TisRuntimeObject_m1823576579_gshared
Xul:_GC_should_collect
e_d:__ZN5physx2Gu27computeBoundsAroundVerticesERNS_9PxBounds3EjPKNS_6PxVec3E
p0j:_UrlAttribute_Equals_m1587451932
luc:__Z18Transfer_BlittableI9JSONWriteLb1EsEvRK29SerializationCommandArgumentsR31RuntimeSerializationCommandInfo
Wrd:__ZNK5physx7NpScene9getLimitsEv
tye:__Z48UnityAnalyticsHandler_CUSTOM_SendCustomEventNameP12Il2CppObjectP12Il2CppString
uph:_DSAParameters_t1872138834_marshal_pinvoke_cleanup
pdc:__ZN9Transform16SetLocalRotationERK11Quaternionf
AEd:__ZNK5physx2Gu29EPASupportMapPairRelativeImplINS0_9TriangleVENS0_8CapsuleVEE9doSupportERKNS_6shdfnd3aos5Vec3VERS7_SA_SA_
DCj:_AnimatorControllerPlayable_INTERNAL_CALL_GetIntegerID_m1635852922
R9j:_InternalEnumerator_1_get_Current_m3206960238_AdjustorThunk
bVa:__ZN13RenderManager37RenderCamerasWithScriptableRenderLoopEi
sId:__ZN3MBP12updateObjectEjRK5IAABB
jYc:__ZN5physx6shdfnd5ArrayINS_6PxVec3ENS0_19ReflectionAllocatorIS2_EEE15growAndPushBackERKS2_
r9:__ZN23InstancedPropInfoStaticL16RegisterCallbackEPv
eC:__ZN7mecanim8skeleton25SkeletonPoseComputeLocalQEPKNS0_8SkeletonEPKNS0_13SkeletonPoseTIN4math4trsXEEEPS7_ii
cnl:__ZN6il2cpp2os19ReleaseSocketHandleEj
qS:__ZN11AudioModule16GetDSPSampleRateEv
Tvd:__ZN5physx2Sc5Scene20fireTriggerCallbacksEv
M9h:_TypeBuilder_get_next_table_index_m1415870184
OGl:___cxa_can_catch
lUg:_SequentialSearchPrimeGeneratorBase_GenerateNewPrime_m296245934
vgf:_Char_GetUnicodeCategory_m4273361321
pBd:__ZN5physx2Sq10AABBPrunerC2Eb
bse:__ZN2UI11CanvasGroup23VirtualRedirectTransferER19StreamedBinaryWriteILb0EE
PDd:__ZN5physx2Gu18GJKRelativeRayCastERNS0_8CapsuleVERNS0_4BoxVERKNS_6shdfnd3aos15PsMatTransformVERKNS6_6FloatVERKNS6_5Vec3VESF_RSA_RSD_SH_fb
F6f:_Math_Round_m565516458
$1j:_Identity_get_ClientDynamicProperties_m767245959
jol:__ZN6il2cpp2os5posix15PosixWaitObjectC2ENS2_4TypeE
NYa:__ZN6Camera21PostMultiCustomRenderENS_10RenderFlagEb
bei:_TypeBuilder_create_generic_class_m986834171
SKa:__ZN12_GLOBAL__N_112UploadImagesEP7ApiGLESjji14GraphicsFormatPKhjS2_iiii16TextureUsageModePh
yya:__ZN23ShaderVariantCollection13WarmupShadersEv
t_g:_Context_set_ProtocolNegotiated_m1177527245
Ezh:_UInt32_System_IConvertible_ToChar_m1056040486
T3:__Z25GetCommonScriptingClassesv
a4g:_TlsStream_get_Length_m1562309511
pta:__Z27scripting_gc_collect_unsafei
vS:__ZN11AudioModule20SuspendVideoTexturesEv
P2b:__ZN12CubemapArrayC2E18MemLabelIdentifier18ObjectCreationMode
Ind:__ZN5physx13NpRigidStaticC2ERKNS_11PxTransformE
vof:_Convert_ToByte_m395020137
Bvi:_Plane_ToString_m3541300360_AdjustorThunk
KLb:__Z26Transfer_UnityEngineObjectI24GenerateTypeTreeTransferLb0EEvRK29SerializationCommandArgumentsR31RuntimeSerializationCommandInfo
rne:_UNITY_FT_GlyphLoader_CheckPoints
Vpl:__ZN6il2cpp2vm6Method11GetFullNameEPK10MethodInfo
YFl:___cxa_get_globals_fast
$Dd:__ZN5physxL20PxcSweepBoxTrianglesERKNS_11PxsCCDShapeES2_RKNS_11PxTransformES5_S5_S5_fRNS_6PxVec3ES7_RNS_10PxcNpCacheERNS_18PxcNpThreadContextERKNS_2Cm23FastVertex2ShapeScalingERNS_2Gu9TriangleVEf
P5f:_TextWriter_WriteLine_m1754475888
vNc:__ZN5physx3Cct15ObstacleContextD0Ev
jwa:__ZN15SharedLightData7PrecalcEv
bua:__ZN10Matrix4x4fmLERKS_
IDk:_InvokableCall_1_Invoke_m769918017_gshared
JRf:_Array_InternalArray__get_Item_TisDouble_t4078015681_m2215331088_gshared
pqj:_Dictionary_2_Init_m3666073812_gshared
CSa:__ZN15ArchiveReadFileD0Ev
Chg:_SymmetricTransform_TransformBlock_m1524716432
iti:_MeshCollider_get_convex_m2666654546
jHf:_Array_compare_TisColor32_t874517518_m3842009370_gshared
Lze:__ZN11UnityEngine15PlatformWrapper18GetOperatingSystemEv
Kwd:__ZN5physx3Scb9Aggregate9syncStateERNS0_5SceneE
rTi:__ZL61ExtensionAttribute_t1840441203_CustomAttributesCacheGeneratorP21CustomAttributesCache
ZQg:_ReadOnlyCollection_1_System_Collections_Generic_ICollectionU3CTU3E_Remove_m974176789_gshared
_wf:_Delegate_return_type_match_m4278947849
k8e:_InputField_GenerateHightlight_m1346735465
u1k:__ZN6il2cpp6icalls8mscorlib6System8MonoType19GetGenericArgumentsEP20Il2CppReflectionType
znk:_Uri_ParseNoExceptions_m1151989845
Onf:_GC_SuppressFinalize_m953228702
nne:_FT_MSB
Api:_GUIStyle_get_clipping_m2754700641
Ejh:_SoapServices_PreLoad_m490411755
E4b:__ZZL23RegisterLightPropertiesR22GenericPropertyBindingEN29Wrapper_LightShadowNormalBias13GetFloatValueEPv
vIh:__Z63RuntimeInvoker_RuntimeObject_Int32_t2071877448_SByte_t454417549PFvvEPK10MethodInfoPvPS4_
Xzl:__ZN6il2cpp6icalls8mscorlib4Mono8Security12Cryptography18KeyPairPersistence10_CanSecureEP12Il2CppString
r2c:__ZN5physx7NpActor17resolveReferencesERNS_24PxDeserializationContextE
kae:__ZN9Rigidbody15InitializeClassEv
p4j:_Action_1_Invoke_m4180501989_gshared
NWj:_Slider__ctor_m3124136916
aAa:__ZN13GfxDeviceGLES14SetRasterStateEPK17DeviceRasterState
HQc:__ZN5physx6shdfnd8internal8HashBaseINS0_4PairIKPKNS_2Sc8ShapeSimENS4_10NPhaseCore16ClothListElementEEES7_NS0_4HashIS7_EENS1_11HashMapBaseIS7_SA_SD_NS0_9AllocatorEE6GetKeyESF_Lb1EE5eraseERS8_
a7e:_InputField_set_caretPositionInternal_m231166704
mQc:__ZN5physx5Elems17setStaticAABBDataEjRKNS_17PxcAABBDataStaticE
PZg:_TlsServerHello__ctor_m3032108168
Kia:__ZN14SafeBinaryRead11EndTransferEv
qFi:__ZL98ILGenerator_t99948092_CustomAttributesCacheGenerator_ILGenerator_Mono_GetCurrentOffset_m3553856682P21CustomAttributesCache
hHb:__ZN14SafeBinaryRead8TransferI8MonoPPtrEEvRT_PKc17TransferMetaFlags
Lek:_InternalEnumerator_1_System_Collections_IEnumerator_get_Current_m1533037706_gshared
CLa:__ZN21UniformBufferTFMethod13MapBoneBufferEj
F1g:_RecordProtocol_SendChangeCipherSpec_m3542001341
JNf:_Array_InternalArray__set_Item_TisVector3_t2243707580_m1390667454_gshared
tgl:__ZNSt3__26vectorIcNS_9allocatorIcEEEC2Ej
Dhc:__Z40Register_UnityEngine_Input_GetKeyDownIntv
zfg:_KeyPairPersistence_CanSecure_m2251009700
Ix:__ZN7mecanim5human14HumanPoseClearERNS0_9HumanPoseERKNS_6bitsetILj70EEE
ghh:_ReturnMessage_get_Properties_m531965085
Nbi:_GenericTypeParameterBuilder_IsSubclassOf_m563999142
x4:__ZN14SerializedFileD2Ev
Zde:__ZNSt3__26vectorIN20TextRenderingPrivate8FontImpl7IntRectE13stl_allocatorIS3_L18MemLabelIdentifier34ELi16EEE21__push_back_slow_pathIKS3_EEvRT_
Npc:__Z30Event_Get_Custom_PropModifiersP12Il2CppObject
uWc:__ZN5physx6shdfnd5ArrayIPvNS0_16AlignedAllocatorILj64ENS0_9AllocatorEEEE15growAndPushBackERKS2_
Nu:__ZN7mecanim9animation16CreateClipOutputEPKNS0_4ClipERNS_6memory9AllocatorE
RLf:_Array_InternalArray__Insert_TisDecimal_t724701077_m1429254816_gshared
r6k:__ZN6il2cpp2vm10Reflection17GetAssemblyObjectEPK14Il2CppAssembly
Svh:_TimeSpan_get_Days_m1002111510
KMc:__ZN5physx3Cct12SweptCapsuleC2Ev
kTb:__ZN6Shader21AwakeFromLoadThreadedEv
cqa:__ZN6prcoreL17RemapGenericFloatI17TexFormatRGBFloat17TexFormatRGBAHalfEEvPKNS_9InnerInfoE
nfj:__ZL70InputField_t1631627530_CustomAttributesCacheGenerator_m_CharacterLimitP21CustomAttributesCache
Uyc:__ZN8JSONRead21TransferSTLStyleArrayI13dynamic_arrayI8Vector2fLj4EEEEvRT_18MemLabelIdentifier17TransferMetaFlags
H7d:__ZN5physx24PxcContactBoxHeightFieldERKNS_2Gu13GeometryUnionES3_RKNS_11PxTransformES6_RKfRNS_10PxcNpCacheERNS0_13ContactBufferE
hBl:__ZN6il2cpp2os9SemaphoreC2Eii
z6j:_InternalEnumerator_1_get_Current_m2960188445_AdjustorThunk
jHb:__ZNSt3__26vectorI8MonoPPtr13stl_allocatorIS1_L18MemLabelIdentifier1ELi16EEE8__appendEj
mYj:_Text_set_alignByGeometry_m1514652028
qZa:__ZN14qsort_internal30FindAndMovePivotToLastPositionIP17RODataReplacementi19ROSorterReplacementEEvT_S4_T0_T1_
NLa:__ZN15UniformTFMethod20IsBoneCountSupportedEi
iJd:__ZNK5physx23AggregateAABBUpdateTask7getNameEv
$Ke:_X509Certificate_GetExpirationDateString_m2351894475
Qsi:_Mesh_DefaultDimensionForChannel_m153181993
Rpk:_Rect_Contains_m1334685291_AdjustorThunk
T1f:_FileStream_get_Position_m465478322
gYk:__ZN14dense_hash_setI10KeyWrapperIPK19Il2CppGenericMethodEN6il2cpp8metadata23Il2CppGenericMethodHashENS4_14EqualsComparerINS6_26Il2CppGenericMethodCompareEEENSt3__29allocatorIS4_EEEC2EjRKS7_RKSA_
fIl:dynCall_viidi
VLf:_Array_InternalArray__Insert_TisInt64_t909078037_m3039874636_gshared
YYj:_ToggleGroup_NotifyToggleOn_m997426227
P1g:_RSASslSignatureDeformatter_SetKey_m1150106904
L1:__ZN24ScriptingMethodFiltering17FilterOnSignatureENS_18MethodSearchFilterE
dVd:__ZN5physx13NpClothFabric16scaleRestlengthsEf
IR:__ZN13ProduceHelperI9AudioClipLb0EE7ProduceE18MemLabelIdentifier18ObjectCreationMode
rda:__ZN18ScreenManagerWebGL13SetLockCursorE14CursorLockMode
Lme:_cf2_arrstack_finalize
k8f:_MonoType_GetMethodsByName_m1854415088
jkj:_Enumerator_get_CurrentValue_m3147984131_gshared
V9h:_DerivedType_GetMethods_m165266904
hhg:_RSAManaged_EncryptValue_m4089823119
s0b:__ZN13MonoBehaviour19HandleNotificationsEPviR11MessageData
ppd:__ZN5physx6shdfnd5ArrayIPNS_2Sc17ParticleSystemSimENS0_19ReflectionAllocatorIS4_EEE8recreateEj
joi:_GUIStyle_set_focused_m1547304893
H2f:_ReadDelegate_Invoke_m2091885836
cbi:_TypeBuilder_GetField_m2112455315
QLl:b58
RLl:b59
ELl:b52
FLl:b53
CLl:b50
DLl:b51
dNd:__ZN5physx9PxTaskMgrD0Ev
LLl:b57
GLl:b54
HLl:b55
Ysf:_DateTime__ctor_m3604679583_AdjustorThunk
wgg:_MACAlgorithm_Core_m2390605245
vdk:_InternalEnumerator_1_System_Collections_IEnumerator_get_Current_m30488070_gshared
l$b:__ZN10GameObject12CleanupClassEv
eZc:__ZN5physx3Scb5Scene13addRigidNoSimINS0_11RigidStaticELb0ELb1EEEvRT_RNS0_13ObjectTrackerE
Tmb:__ZN15SerializeTraitsI13dynamic_arrayI11TetrahedronLj4EEE19ResizeSTLStyleArrayERS2_i18MemLabelIdentifier
GAa:__ZN9GfxDevice25SetShaderPropertiesSharedERK19ShaderPropertySheet
uGk:_IndexedSet_1_GetEnumerator_m3646001838_gshared
AEb:__ZN10MonoScript17MainThreadCleanupEv
UGa:__ZN18AsyncUploadManager19AsyncResourceUploadER9GfxDeviceii9TextureID
$Rj:_VertexHelper_AddUIVertexTriangleStream_m4009409241
a4b:__ZL25InitializeDefaultMaterialv
Cve:__Z53Register_UnityEngine_CanvasRenderer_get_materialCountv
HZg:_TlsStream_Write_m2055734301
AZj:_VertexHelper_AddVert_m3290455716
mxa:__ZN17PersistentManager12UnloadStreamERKN4core12basic_stringIcNS0_20StringStorageDefaultIcEEEEb
ida:__ZN13ScreenManager17RequestResolutionEiibi
hnl:__ZNK6il2cpp2os6Socket12GetLastErrorEv
_3k:_il2cpp_unity_liveness_calculation_from_statics
py:__ZNK26AnimatorControllerPlayable11DerivesFromE17ScriptingClassPtr
fvh:_Scheduler_get_Instance_m1989471839
j8g:_WebProxy_GetProxy_m1249556681
q8g:_WebRequest_System_Runtime_Serialization_ISerializable_GetObjectData_m3377822910
Psb:__ZN8Renderer8TransferI17RemapPPtrTransferEEvRT_
p5h:__Z76RuntimeInvoker_Boolean_t3825574718_UIVertex_t1204258818_UIVertex_t1204258818PFvvEPK10MethodInfoPvPS4_
KGg:_Collection_1_Contains_m1299140035_gshared
$Ll:_glBlitFramebuffer__wrapper
pKf:_Array_InternalArray__ICollection_Add_TisUICharInfo_t3056636800_m968274080_gshared
EHk:_ObjectPool_1__ctor_m1532275833_gshared
$Nk:__ZL24UnresolvedVirtualCall_71P12Il2CppObjectS0_S0_iS0_S0_S0_PK10MethodInfo
Ixg:_List_1_GetIndex_m3262928832_gshared
Ded:__ZNK5physx2Sc9ClothCore16getCollisionDataEPNS_22PxClothCollisionSphereEPjPNS_21PxClothCollisionPlaneES4_PNS_24PxClothCollisionTriangleE
z7a:__Z24LookRotationToQuaternionRK8Vector3fS1_P11Quaternionf
x7a:__ZN16ReflectionProbes9GetCameraEv
kEj:_AnimatorControllerPlayable_ResolveHash_m3629783965_AdjustorThunk
Lkg:_ArgumentException__ctor_m2105824819
cue:__ZN2UI6Canvas17SetSortingLayerIDEi
SYe:_BaseMeshEffect_get_graphic_m3358796463
gol:__ZN6il2cpp2vm11MethodStack23CleanupForCurrentThreadEv
rCk:_Predicate_1_Invoke_m695569038_gshared
omg:_Enumerator_VerifyState_m825848279_AdjustorThunk
Xkb:__ZN20TierGraphicsSettings8TransferI24GenerateTypeTreeTransferEEvRT_
nZk:__ZN15dense_hashtableINSt3__24pairIK10KeyWrapperIN6il2cpp5utils13dynamic_arrayIPK10Il2CppTypeLj4EEEEPFvvEEESA_NS3_8metadata19Il2CppSignatureHashEN14dense_hash_mapISA_SD_SG_NSA_14EqualsComparerINSF_22Il2CppSignatureCompareEEENS0_9allocatorISE_EEE9SelectKeyESK_SM_E16reset_thresholdsEv
TQ:__ZN13AudioPlayable25UpdateChannelGroupVisitorERK16AudioProcessData
EIb:__ZN14SafeBinaryRead21TransferSTLStyleArrayI13dynamic_arrayI4AABBLj4EEEEvRT_17TransferMetaFlags
xna:__ZN18UnityPropertySheet8TransferI19StreamedBinaryWriteILb0EEEEvRT_
b0g:_TlsServerCertificate_checkServerIdentity_m3836435780
kba:__ZNSt3__26__treeINS_12__value_typeIiN11TypeManager18TypeCallbackStructEEENS_19__map_value_compareIiS4_NS_4lessIiEELb1EEENS_9allocatorIS4_EEE7destroyEPNS_11__tree_nodeIS4_PvEE
jig:_PKCS12_Decrypt_m2353135969
jQj:_PersistentCallGroup_Initialize_m3908067069
pgi:_MonoEvent_ToString_m386956596
H8i:__ZL70RuntimePlatform_t1869584967_CustomAttributesCacheGenerator_FlashPlayerP21CustomAttributesCache
SOf:_Array_Sort_TisRuntimeObject_m3309514378_gshared
aka:__ZL19GetCameraTargetRectRK6Camerabb
Cmj:_Transform_1_BeginInvoke_m1786442111_gshared
CYf:_Int32_GetFormatException_m1729046182
q8a:__ZN13dynamic_arrayIN10GameObject13ComponentPairELj4EE6insertEPS1_RKS1_
Jfb:__ZN21UnityDefaultAllocatorI17LowLevelAllocatorE10DeallocateEPv
$Kj:_CanvasRenderer_DisableRectClipping_m2720508088
ZY:__GLOBAL__sub_I_runtime_camera2_lump_cpp
omb:__ZN15SharedLightData22UpdateCookieTextureRefEv
Ps:__ZN15PackedIntVector8TransferI14SafeBinaryReadEEvRT_
Oei:_FieldInfo_get_IsLiteral_m267898096
w0c:__ZNK5physx19NpArticulationJoint20getTangentialDampingEv
b3g:_SslStreamBase_EndNegotiateHandshake_m1732321201
_mj:_Transform_1_BeginInvoke_m1167293475_gshared
gL:__ZN13AudioListener8DoUpdateEv
xBc:__ZN5physx3Cct10Controller22setUpDirectionInternalERKNS_6PxVec3E
qof:__Z13bankers_roundd
KAb:__ZN14SafeBinaryRead8TransferI5RectTIfEEEvRT_PKc17TransferMetaFlags
Zi:_emscripten_glGenFramebuffers
wlf:_Hashtable_CopyTo_m2778915805
fba:__ZN17BaseObjectManager16StaticInitializeEPv
j9h:_ConstructorBuilder_get_IsCompilerContext_m2796899803
YHf:_Array_IndexOf_TisUIVertex_t1204258818_m613887160_gshared
OBb:__ZN18StreamedBinaryReadILb0EE19TransferSTLStyleMapINSt3__28multimapIN4core12basic_stringIcNS4_20StringStorageDefaultIcEEEE4PPtrI6ObjectENS2_4lessIS8_EE13stl_allocatorINS2_4pairIKS8_SB_EEL18MemLabelIdentifier51ELi16EEEEEEvRT_17TransferMetaFlags
Rof:_DateTime_CoreParse_m2014268103
kvg:_List_1__ctor_m3698273726_gshared
vGj:_Application_InvokeOnBeforeRender_m799598445
Ruc:__Z18Transfer_BlittableI9JSONWriteLb0EyEvRK29SerializationCommandArgumentsR31RuntimeSerializationCommandInfo
gka:__ZN13RenderTexture15ThreadedCleanupEv
dEe:__ZNK20UnityWebRequestProtoI19TransportJavaScript16AtomicRefCounter14RedirectHelper14ResponseHelper15DownloadHandler13UploadHandler12HeaderHelper14AsyncOperationE19GetDownloadProgressEv
YGf:_Array_BinarySearch_TisRuntimeObject_m3361740551_gshared
mpb:__ZN12CubemapArray23VirtualRedirectTransferER14SafeBinaryRead
pfd:__ZNK5physx2Sc9ClothCore23getNbCollisionTrianglesEv
Qu:__ZN21AnimationClipPlayable16ProcessHumanPassEPK35AnimationPlayableEvaluationConstantPK32AnimationPlayableEvaluationInputP33AnimationPlayableEvaluationOutput
zbd:__ZN5physx7NpShape16setFlagsInternalENS_7PxFlagsINS_11PxShapeFlag4EnumEhEE
eRg:_ReadOnlyCollection_1_System_Collections_IList_Add_m616574295_gshared
Wbe:__Z48Register_UnityEngine_MeshCollider_get_sharedMeshv
DYf:_Int32_ProcessTrailingWhitespace_m2812079777
Xjc:__Z43RectTransform_CUSTOM_INTERNAL_set_sizeDeltaP12Il2CppObjectRK13Vector2fIcall
EJc:__ZN5physx2Gu30distanceSegmentTriangleSquaredERKNS_6shdfnd3aos5Vec3VES5_S5_S5_S5_RS3_S6_
e8g:_WebProxy__ctor_m3679722173
pkl:__ZN15dense_hashtableINSt3__24pairIK10KeyWrapperINS1_IPKcS4_EEEiEES6_24NamespaceAndNamePairHashN14dense_hash_mapIS6_iS9_NS6_14EqualsComparerI26NamespaceAndNamePairEqualsEENS0_9allocatorIS8_EEE9SelectKeyESD_SF_E6insertERKS8_
mja:__ZN24GenerateTypeTreeTransfer18BeginArrayTransferEPKcS1_Ri17TransferMetaFlags
f9d:__ZN14PhysicMaterial23GetInstantiatedMaterialEPS_R6Object
_Ga:__Z16DecompressCrunchPKhRjR13TextureFormatiiii18MemLabelIdentifier
Sm:___syscall51
Wm:___syscall54
YEk:_UnityAction_2_Invoke_m1994351568_gshared
Wyj:_UnityAnalyticsHandler_Dispose_m1048126775
XD:__ZNK8Animator20IsAnyRendererVisibleEv
sne:_cff_builder_add_point1
jll:__ZN6il2cpp2vm5Image21GetCachedResourceDataEPK11Il2CppImageRKNSt3__212basic_stringIcNS5_11char_traitsIcEENS5_9allocatorIcEEEE
WVa:__ZN4Mesh10CreateMeshEv
bKf:_Array_InternalArray__ICollection_Add_TisUInt32_t2149682021_m2629016323_gshared
aGb:__Z18Transfer_BlittableI14SafeBinaryReadLb0E10ColorRGBAfEvRK29SerializationCommandArgumentsR31RuntimeSerializationCommandInfo
Fa:invoke_iiiiiiiiii
JLf:_Array_InternalArray__Insert_TisKeyValuePair_2_t888819835_m975554221_gshared
bLh:__Z59RuntimeInvoker_RuntimeObject_Int64_t909078037_RuntimeObjectPFvvEPK10MethodInfoPvPS4_
Psa:__ZN18LoadSceneOperation19IntegrateTimeSlicedEi
qvh:_Scheduler_SchedulerThread_m2209572785
obg:_SortKeyBuffer_GetResultAndReset_m2516956577
XJ:__ZN4FMOD7SystemI11createSoundEPKcjP22FMOD_CREATESOUNDEXINFOPPNS_5SoundE
tdb:__ZN10FileSystem19SetCurrentDirectoryERKN4core12basic_stringIcNS0_20StringStorageDefaultIcEEEE
n4:__ZN16ScriptingManager24NotifyScriptCacheReleaseEi
zec:__Z47Register_UnityEngine_Coroutine_ReleaseCoroutinev
cZc:__ZN10ScSceneFnsIN5physx3Scb11RigidStaticEE6insertERNS0_2Sc5SceneERS2_
OL:__ZN15AudioReverbZone13SetFMODValuesEv
YMj:_Component_GetComponentInChildren_m3925629424
O0:__ZL19StaticDestroyShaderPv
Le:_glRenderbufferStorageMultisample
$be:__Z49Register_UnityEngine_MeshCollider_set_inflateMeshv
vz:__ZN23AnimationPlayableOutput17SetTargetAnimatorEP8Animator
RIb:__Z35Transfer_Blittable_SingleValueFieldI14SafeBinaryReadfEvRT_R17GeneralMonoObjectRK23StaticTransferFieldInfo
w0g:_TlsServerHello_processProtocol_m1241336522
XJc:__ZN5physx2Gu20sweepCCTBoxTrianglesEjPKNS_10PxTriangleEbRKNS_13PxBoxGeometryERKNS_11PxTransformERKNS_6PxVec3EfRSA_SD_RfRjPKjfNS_7PxFlagsINS_9PxHitFlag4EnumEtEE
QDf:_Array_InternalArray__ICollection_Remove_TisKeyValuePair_2_t888819835_m1287715465_gshared
uDc:__ZN5physx2Gu15OBBTriangleTestC2ERKNS0_3BoxE
P2j:_ContextAttribute_IsContextOK_m3281216012
T3f:_PathTooLongException__ctor_m3212099251
UCl:_pad
cFc:__ZN5physx2Gu21computeMTD_SphereMeshERNS_6PxVec3ERfRKNS0_6SphereERKNS_22PxTriangleMeshGeometryERKNS_11PxTransformE
KBj:_AnimatorControllerPlayable_INTERNAL_CALL_CreateHandleInternal_m1836196929
Ys:__ZN17PackedFloatVector8TransferI18StreamedBinaryReadILb0EEEEvRT_
Upb:__ZN7Cubemap23VirtualRedirectTransferER17RemapPPtrTransfer
N_d:__ZN5physx12SubSortQuick5sort4EPjjRNS_6shdfnd5ArrayINS_11RTreeNodeNQENS2_19ReflectionAllocatorIS4_EEEERjRNS_10PxBounds3VEj
jhc:__Z37Register_UnityEngine_Screen_get_widthv
uXc:__ZN5physx6shdfnd5ArrayIPNS_2Sc8BodyCoreENS0_19ReflectionAllocatorIS4_EEE15growAndPushBackERKS4_
g8b:__ZN22BlockMemoryCacheWriter11GetPathNameEv
Y2e:_Graphic_Rebuild_m2617722358
xHd:__ZN5physx16PxsBroadPhaseMBPC2ERNS_19PxcScratchAllocatorERNS_2Cm13EventProfilerERKNS_11PxSceneDescEPNS_14PxsAABBManagerE
C2d:__ZN14PhysicsManager23VirtualRedirectTransferER14SafeBinaryRead
wuf:_DateTime_ToString_m3108726445_AdjustorThunk
PU:__ZN19CloudServiceHandlerD2Ev
sRf:_Array_InternalArray__get_Item_TisTableRange_t2011406615_m602485977_gshared
d8e:_InputField_Append_m2623574152
B4c:__ZN5physx7NpActor14onActorReleaseEPNS_7PxActorE
Ekg:_ApplicationException__ctor_m1120437222
ZMc:__ZN5physx3Cct26CharacterControllerManager19computeInteractionsEfPNS_26PxControllerFilterCallbackE
nq:stackAlloc
MVc:__ZN5physx6shdfnd8PoolBaseINS_2Cm5BlockIhLj256EEENS0_19ReflectionAllocatorIS4_EEE12allocateSlabEv
Tec:__Z44Camera_CUSTOM_INTERNAL_CALL_ScreenPointToRayP12Il2CppObjectRK8Vector3fR3Ray
NQa:__ZN25SingleBlockMemoryFileData4LockEPPv
jdi:_MethodBuilder_GetHashCode_m1713271764
Aqi:_Input_GetKeyDown_m1771960377
yCf:_Array_get_swapper_TisUIVertex_t1204258818_m1078858558_gshared
xag:_MSCompatUnicodeTable_GetResource_m3816716847
cgc:__Z32RectOffset_Get_Custom_PropBottomP12Il2CppObject
ibf:_Array_CreateInstance_m15016505
RDl:_stat
yj:_JS_Eval_ClearTimeout
LTh:__Z109RuntimeInvoker_Boolean_t3825574718_RuntimeObject_Ray_t2469606224_RaycastHitU26_t1969197280_Single_t2076509932PFvvEPK10MethodInfoPvPS4_
fLf:_Array_InternalArray__ICollection_CopyTo_TisUInt16_t986882611_m3228377237_gshared
Yfj:__ZL68Navigation_t1571958496_CustomAttributesCacheGenerator_m_SelectOnDownP21CustomAttributesCache
uJj:_Bounds_op_Inequality_m2315096783
bdk:_InternalEnumerator_1_System_Collections_IEnumerator_get_Current_m3065287496_gshared
Oya:__ZNSt3__218__insertion_sort_3IRNS_4lessIN22BuiltinResourceManager8ResourceEEEPS3_EEvT0_S7_T_
FKd:__ZN5physx2Gu21findUniqueConvexEdgesEjPNS0_10ConvexEdgeEjPKNS0_15HullPolygonDataEPKh
svi:_Physics_RaycastAll_m3256436970
Apg:_List_1_get_Item_m4100789973_gshared
Dnd:__ZN5physx20NpRigidActorTemplateINS_14PxRigidDynamicEED0Ev
KGe:_RC2_set_KeySize_m2015782960
qa:invoke_iiiiiiiiiiii
qFd:__ZN5physx43solveContactCoulombPreBlock_WriteBackStaticEPKNS_23PxcSolverConstraintDescEjRNS_16PxcSolverContextEPNS_25PxcThresholdStreamElementEjPi
Zhg:_StrongName_get_PublicKey_m3777577320
KVc:__ZN5physx2Sc5Scene23allocateConstraintBlockEj
WEf:_PlayableHandle_IsPlayableOfType_TisAnimationLayerMixerPlayable_t3057952312_m964258557_gshared
Xgc:__Z43Register_UnityEngine_GameObject_SendMessagev
v7:__ZNSt3__26__treeINS_12__value_typeIN4core12basic_stringIcNS2_20StringStorageDefaultIcEEEES6_EENS_19__map_value_compareIS6_S7_NS_4lessIS6_EELb1EEE13stl_allocatorIS7_L18MemLabelIdentifier12ELi16EEE7destroyEPNS_11__tree_nodeIS7_PvEE
JUk:__ZN6il2cpp2vm17SetupFieldsLockedEP11Il2CppClassRKNS_2os12FastAutoLockE
A3f:_MonoIOStat_t1621921065_marshal_pinvoke
L_e:_ColorBlock_GetHashCode_m649325222_AdjustorThunk
aLj:_CanvasRenderer_set_hasPopInstruction_m1388844875
_Wc:__ZN5physx2Sc5Actor15onElementDetachERNS0_7ElementE
Udb:__ZN16MemoryFileSystem4NameEv
FTe:_BaseRaycaster_OnEnable_m3641767070
a0e:_DefaultControls_CreateImage_m2821562988
E2d:__ZN14PhysicsManager9onContactERKN5physx19PxContactPairHeaderEPKNS0_13PxContactPairEj
gUg:_PrimeGeneratorBase_get_PrimalityTest_m308005118
jpi:_GUIStyle_Internal_CalcSize_m1309259680
opc:__ZNK8GUIStyle8CalcSizeER10GUIContent
frg:_List_1_CheckIndex_m2328469916_gshared
AOh:__Z75RuntimeInvoker_RuntimeObject_RuntimeObject_Decimal_t724701077_RuntimeObjectPFvvEPK10MethodInfoPvPS4_
bBc:__ZN5physx3Cct13BoxController13setHalfHeightEf
Lwd:__ZN5physx3Scb13ObjectTracker5clearEv
See:_UNITY_FT_New_Size
II:__Z96Register_UnityEngine_Animations_AnimatorControllerPlayable_INTERNAL_CALL_PlayInFixedTimeInternalv
mY:__ZN19CloudServiceHandler11FlushEventsEv
sCc:__ZL23GeomMTDCallback_BoxMeshRN5physx6PxVec3ERfRKNS_10PxGeometryERKNS_11PxTransformES5_S8_
RAg:_List_1_get_Item_m3157283227_gshared
Wrf:_Convert_ToString_m2915777777
wdd:__ZNK5physx7NpCloth22getNbCollisionCapsulesEv
Zna:__ZNSt3__27__sort4IRPFbRKNS_4pairIN9ShaderLab16FastPropertyNameEN18UnityPropertySheet11UnityTexEnvEEES8_EPS6_EEjT0_SD_SD_SD_T_
Hme:_cf2_hintmap_build
Nca:__ZN15dense_hashtableINSt3__24pairIKN4core12basic_stringIcNS2_20StringStorageDefaultIcEEEE10vector_setI4PPtrI11SpriteAtlasENS0_4lessISB_EE13stl_allocatorISB_L18MemLabelIdentifier79ELi16EEEEES6_20StringHash32FunctionIS6_EN14dense_hash_mapIS6_SH_SK_NS0_8equal_toIS6_EESE_ISI_LSF_79ELi16EEE9SelectKeyESN_SO_E5clearEv
vke:_Line_Up
T8f:_MonoType_GetGenericTypeDefinition_m2363776160
aCc:__ZL28GeomMTDCallback_SphereSphereRN5physx6PxVec3ERfRKNS_10PxGeometryERKNS_11PxTransformES5_S8_
D_g:_Context_set_SentConnectionEnd_m2641458842
Se:_emscripten_glBufferSubData
tef:_Buffer_BlockCopyInternal_m2627156229
N4e:_Image_set_overrideSprite_m3362535904
a5:__Z20GetCommonStringTablev
p_c:__ZN5physx6shdfnd5ArrayIPvNS0_15InlineAllocatorILj256ENS0_19ReflectionAllocatorINS_7NpShapeEEEEEE15growAndPushBackERKS2_
Dkb:__ZN11HaloManager10UpdateHaloEiR9Transform11ColorRGBA32fjP6Object
epa:__ZN6prcoreL12RemapGenericI15TexFormatRGB88817TexFormatARGB8888EEvPKNS_9InnerInfoE
Oq:__Z17CalculateGlobalRS23TransformAccessReadOnly
ZJj:_Camera_ScreenPointToRay_m614889538
Zcg:_Kernel_multiByteDivide_m735279869
ctj:_Dictionary_2_ToTValue_m542772656_gshared
Quh:_Thread_GetNewManagedId_internal_m3211695465
a$c:__ZNK5physx14NpArticulation22computeImpulseResponseEPNS_18PxArticulationLinkERNS_6PxVec3ES4_RKNS_24PxArticulationDriveCacheERKS3_S9_
qSc:__ZN5physx2Sc19ContactReportBuffer23reallocateNotThreadSafeEjRjjj
Gki:_SkinChangedDelegate_Invoke_m2801964040
PSf:_ScriptableObject_CreateInstance_TisRuntimeObject_m926060499_gshared
HGa:__ZN17GenericDynamicVBO17DrawChunkInternalERK21DynamicVBOChunkHandle17ShaderChannelMaskS3_P17VertexDeclarationP16DrawBuffersRangeij
WUc:__ZN5physx2Sc5Actor19registerInteractionEPNS0_11InteractionE
ZSb:__ZN22MemoryCacherReadBlocks14LockCacheBlockEjPPhS1_
udf:_Boolean_System_IConvertible_ToChar_m2637404801_AdjustorThunk
_Me:_SecurityContext_Capture_m2535194991
Wyh:_UInt16_System_IConvertible_ToSByte_m3044765342_AdjustorThunk
wNh:__Z66RuntimeInvoker_Void_t1841601450_Int64_t909078037_Int32_t2071877448PFvvEPK10MethodInfoPvPS4_
Rde:__ZN20TextRenderingPrivate8FontImpl16CacheFontForTextEPtiifjPK13dynamic_arrayINS_16TextFormatChangeELj4EE
_9d:__ZN13PhysicsModule19CreateNxHeightFieldEPv
cOf:_Array_qsort_TisUIVertex_t1204258818_TisUIVertex_t1204258818_m512606409_gshared
EGe:__Z21ArrayElementTypeCheckP11Il2CppArrayPv
CPl:_emscripten_glTexSubImage2D__wrapper
L5g:_NameValueCollection_AsSingleString_m10599052
rVj:_ScrollRect_RubberDelta_m2533506730
JFl:__ZNSt3__212basic_stringIcNS_11char_traitsIcEENS_9allocatorIcEEE6appendEjc
U9f:_Object_InternalGetHashCode_m1371384246
SRj:_Navigation_get_defaultNavigation_m2185194207
qZf:_Int32_System_IConvertible_ToSByte_m1449623243_AdjustorThunk
Yjg:_AccessViolationException__ctor_m1270251537
Iwe:__Z42Register_UnityEngine_Canvas_get_rootCanvasv
vBk:_X509ExtensionCollection_IndexOf_m3972100651
gHb:__Z14resize_trimmedINSt3__26vectorI8MonoPPtr13stl_allocatorIS2_L18MemLabelIdentifier1ELi16EEEEEvRT_j
Af:_TTF_RenderText_Solid
Qzh:_UInt32_System_IConvertible_ToInt64_m3091851828
a7f:_MissingMethodException__ctor_m3898429715
djh:_RemotingConfiguration_RegisterClientProviderTemplate_m514821425
Ykj:_Enumerator_System_Collections_IEnumerator_Reset_m3085583937_gshared
ihg:_RSAManaged_ExportParameters_m2873993187
HBg:_Enumerator__ctor_m2816143215_AdjustorThunk
yCe:__ZN11UnityEngine7Connect16PersistentValuesC2Ev
Yah:_X509Chain_FindParent_m404663796
_6f:_MissingMemberException__ctor_m2164043278
USk:__ZL7log2_32j
JJa:__Z15IsIEEE754Format14GraphicsFormat
jKb:__Z19TransferField_ArrayI17RemapPPtrTransfer27Converter_UnityEngineObjectEvRK23StaticTransferFieldInfoR31RuntimeSerializationCommandInfoRT0_
bBb:__ZN19StreamedBinaryWriteILb0EE8TransferI13dynamic_arrayI16SplashScreenLogoLj4EEEEvRT_PKc17TransferMetaFlags
Ard:__ZNK5physx2Sc7BodySim13isConnectedToERKNS0_8RigidSimERb
T_f:_NumberFormatter_InitDecHexDigits_m1612588520
A2d:__ZN14PhysicsManager23VirtualRedirectTransferER17RemapPPtrTransfer
TBa:__ZN13GfxDeviceGLES15UploadTexture2DE9TextureID16TextureDimensionPKhiii14GraphicsFormati18TextureUploadFlags16TextureUsageMode
k$f:_IntPtr_System_Runtime_Serialization_ISerializable_GetObjectData_m21554269_AdjustorThunk
FN:__ZN4FMOD6System9createDSPEP20FMOD_DSP_DESCRIPTIONPPNS_3DSPE
Zy:__ZN7mecanim9animation26DestroyControllerWorkspaceEPNS0_19ControllerWorkspaceERNS_6memory9AllocatorE
VJ:__ZN4FMOD8ChannelI11EndCallbackEv
zKe:_ToBase64Transform_TransformBlock_m2201454137
cpc:__ZN8GUIStyle14SetDefaultFontEPN13TextRendering4FontE
Udi:_OpCode_get_StackBehaviourPop_m3787015663_AdjustorThunk
hjk:_PatternCompiler_EmitCount_m3609178511
utb:__ZN15QualitySettings23VirtualRedirectTransferER24GenerateTypeTreeTransfer
JEj:_AnimatorControllerPlayable_CrossFadeInFixedTime_m1610244979_AdjustorThunk
ySk:_U3CCreateWhereIteratorU3Ec__Iterator1D_1_System_Collections_Generic_IEnumerableU3CTSourceU3E_GetEnumerator_m2682676065_gshared
ySf:_Component_GetComponent_TisRuntimeObject_m4109961936_gshared
epi:_GUIStyle_Internal_GetCursorStringIndex_m1491806746
rLd:__ZN5physx2Gu32PCMConvexVsMeshContactGeneration35generateTriangleFullContactManifoldERNS0_9TriangleVEjPKjhRKNS0_13PolygonalDataEPNS0_16SupportLocalImplIS2_EEPNS0_12SupportLocalEPNS0_21MeshPersistentContactERjRKNS_6shdfnd3aos6FloatVERNSI_5Vec3VE
F4k:__ZN6il2cpp2os10FileHandleC2Ev
Yic:__Z59Register_UnityEngine_MonoBehaviour_Internal_CancelInvokeAllv
EXk:__ZN30dense_hashtable_const_iteratorINSt3__24pairIK10KeyWrapperIPK19Il2CppGenericMethodEPK26Il2CppGenericMethodIndicesEES6_N6il2cpp8metadata23Il2CppGenericMethodHashEN14dense_hash_mapIS6_SA_SE_NS6_14EqualsComparerINSD_26Il2CppGenericMethodCompareEEENS0_9allocatorISB_EEE9SelectKeyESI_SK_EppEv
hBd:__ZNK16OBBAABBTest_SIMDclERKN5physx2Sq9BucketBoxE
Pri:_Mathf_Cos_m238853451
uee:_UNITY_FT_Request_Metrics
Nil:__ZN6il2cpp6icalls8mscorlib6System10Reflection10MonoMethod29get_IsGenericMethodDefinitionEP22Il2CppReflectionMethod
tfl:__ZN6il2cpp2vm6Thread21AllocThreadStaticDataEi
Tof:_DateTime_YearMonthDayFormats_m4204607055
x_e:_ColorBlock_set_disabledColor_m3502887543_AdjustorThunk
Crl:__ZN30dense_hashtable_const_iteratorINSt3__24pairIK10KeyWrapperIPK19Il2CppGenericMethodEP10MethodInfoEES6_N6il2cpp8metadata23Il2CppGenericMethodHashEN14dense_hash_mapIS6_S9_SD_NS6_14EqualsComparerINSC_26Il2CppGenericMethodCompareEEENS0_9allocatorISA_EEE9SelectKeyESH_SJ_EppEv
RR:__Z13RegisterClassI13AudioListenerEvv
qIk:_Aes__ctor_m4020215067
zG:__ZN23AnimationOffsetPlayable11GetPositionEv
auc:__Z18Transfer_BlittableI9JSONWriteLb0E8Vector3fEvRK29SerializationCommandArgumentsR31RuntimeSerializationCommandInfo
yg:_emscripten_glUniform4i
W2e:_Graphic_OnDisable_m2360886868
wLc:__ZN16RayRTreeCallbackILi0ELb1EED2Ev
Lf:_emscripten_glUniform4f
txa:__ZN6Object22CheckInstanceIDsLoadedEPii
bk:___unlock
zI:__Z105Register_UnityEngine_Animations_AnimatorControllerPlayable_INTERNAL_CALL_GetAnimatorClipInfoCountInternalv
mVj:_ScrollRect_InternalCalculateOffset_m3083065267
D3d:__ZN14SphereCollider10SmartResetEv
Ojf:_Comparer_Compare_m4132969818
hP:__ZN20SoundChannelInstance19setReverbPropertiesEP29FMOD_REVERB_CHANNELPROPERTIES
WF:__ZNK26AnimatorControllerPlayable14IsInTransitionEi
Wuj:_DefaultComparer_Equals_m2171836276_gshared
khl:__ZN6il2cpp2vm9Exception18GetFormatExceptionEPKc
mmc:__Z40Register_UnityEngine_Transform_IsChildOfv
AMc:__ZN5physx3Cct17CapsuleController15setClimbingModeENS_21PxCapsuleClimbingMode4EnumE
iDd:__ZN5physx6shdfnd9atomicAddEPVii
Ghf:_ArrayList_Sort_m923359189
Tfc:__Z45Register_UnityEngine_Display_GetSystemExtImplv
Uxd:__ZN5physx6shdfnd5ArrayINS_3Scb13MaterialEventENS0_19ReflectionAllocatorIS3_EEE6resizeEjRKS3_
Nv:__ZN7mecanim9animation23TransformValuesFromClipEiiiRKNS_10ValueArrayERKNS0_10ClipOutputERKNS0_12ClipBindingsERS1_RNS_14ValueArrayMaskEb
eJd:__ZNK5physx14SingleAABBTask25updateNumFastMovingShapesEv
iJj:_Bounds_set_center_m2069004927_AdjustorThunk
irc:__Z46GUIStyle_CUSTOM_Internal_DrawWithTextSelectionP12Il2CppObjectR43MonoInternal_DrawWithTextSelectionArguments
Ose:__ZNSt3__218__insertion_sort_3IRNS_6__lessIN2UI14DepthSortEntryES3_EEPS3_EEvT0_S7_T_
Ngi:_MonoField_CheckGeneric_m1527550038
f_d:__ZN5physx17ConvexMeshBuilder16computeGaussMapsEv
A9:__ZN13RuntimeStaticI15DirectorManagerLb0EE16StaticInitializeEPv
hgg:_AttrListImpl_Add_m130708252
Ruh:_Thread_get_ManagedThreadId_m1995754972
ZSe:_BaseInput_get_touchCount_m998724785
Lzb:__ZN11TimeManager6UpdateEv
rya:__ZN6Shader18LoadDefaultShadersEv
d$c:__ZNK5physx2Sc16ArticulationCore22computeImpulseResponseERNS0_8BodyCoreERNS_6PxVec3ES5_RKNS_9PxcFsDataERKS4_SA_
x8e:_InputField_get_preferredWidth_m3185355225
HMd:__ZN5physx21PxsBodyTransformVaultC2Ev
Uki:_GUIUtility_get_pixelsPerPoint_m2667928361
Iuh:_Thread_SetState_m3198426726
_hf:_ArrayListWrapper_Contains_m1158465965
CKd:__ZL6IsInYZffPPK10VertexInfo
$_d:__ZN5physx19TriangleMeshBuilderD0Ev
YDl:_fflush
_ta:__ZN17LightProbeContext4InitERK16LightmapSettingsRK14RenderSettings
bCl:__GLOBAL__sub_I_Error_cpp
ulk:_Alternation_GetWidth_m4218808325
rua:__ZN9Texture3DD2Ev
S5g:_TypeConverterAttribute__ctor_m4061167050
rge:_UNITY_ft_create_default_module_classes
iBg:_Enumerator_MoveNext_m3315718998_gshared
ubd:__ZN5physx2CmlsERNS0_12RenderOutputERKNS0_10DebugArrowE
Lji:_Font_add_textureRebuilt_m1282639736
b1g:_RecordProtocol_ProcessChangeCipherSpec_m3233959862
l5a:__Z34ProcessIndexListIsNodeVisibleStep2RK22SceneCullingParametersPK9SceneNodePK4AABBR9IndexList
yEb:__ZN10MonoScriptD2Ev
tXj:_Slider_OnRectTransformDimensionsChange_m4109401172
a8g:_WebHeaderCollection_Get_m3391944907
shc:__Z39Input_CUSTOM_INTERNAL_get_mousePositionP8Vector3f
wje:_tt_cmap13_char_next
uUa:__ZN9ShaderLab4Pass16SetupPassOptionsEv
jGk:_UnityEvent_4__ctor_m3102731553_gshared
Mh:_JS_Sound_ReleaseInstance
w8i:__ZL72IL2CPPStructAlignmentAttribute_t130316838_CustomAttributesCacheGeneratorP21CustomAttributesCache
UAa:__ZN13GfxDeviceGLES19DrawBuffersIndirectEP9GfxBufferPK18VertexStreamSourceiP17VertexDeclaration17ShaderChannelMask16GfxPrimitiveType15ComputeBufferIDj
Fzj:_AnimationClipPlayable__ctor_m1126286616
FTd:__ZN5physx16PxsCCDBlockArrayINS_13PxsCCDOverlapELi128EE8pushBackEv
Wrk:_Renderer_get_sortingLayerID_m2403577271
QGb:__Z35Transfer_Blittable_FixedBufferFieldI14SafeBinaryReaddEvRK29SerializationCommandArgumentsR31RuntimeSerializationCommandInfo
fOl:_emscripten_glPixelStorei__wrapper
mQh:__Z98RuntimeInvoker_Void_t1841601450_Int32_t2071877448_Int32_t2071877448_SByte_t454417549_RuntimeObjectPFvvEPK10MethodInfoPvPS4_
jkc:__Z21Resources_CUSTOM_LoadP12Il2CppStringP12Il2CppObject
hn:FUNCTION_TABLE_diddi
XUe:_ExecuteEvents_Execute_m2863348178
qkc:__Z26Material_CUSTOM_SetIntImplP12Il2CppObjectii
lYf:_Int16_System_IConvertible_ToSingle_m3277935657_AdjustorThunk
DFj:_AnimatorControllerPlayable_HasState_m3003093532_AdjustorThunk
use:__ZNK2UI14CanvasRenderer22GetTypeVirtualInternalEv
p3j:_InternalRemotingServices__cctor_m3821625125
pgc:__Z42Register_UnityEngine_RectOffset_get_bottomv
Mrh:_StringBuilder_Insert_m3322917127
auj:_DefaultComparer_Equals_m724229128_gshared
lAd:__ZN5physx14PxsAABBManagerD2Ev
aHf:_Array_compare_TisCustomAttributeNamedArgument_t94157543_m3453821210_gshared
wqf:_Convert_ToDouble_m3520060872
zNl:_emscripten_glUniform1f__wrapper
LHl:dynCall_di
V1g:_SslCipherSuite_ComputeServerRecordMAC_m1876572367
Xzd:__ZN5physx16PxsIslandManagerD2Ev
Bde:__ZN20TextRenderingPrivate19NativeTextGeneratorC2ERK11UTF16StringPNS_8FontImplE11ColorRGBA32ifRK8Vector2fbifiibffbbbP13dynamic_arrayIN2UI8UIVertexELj4EE
Jtc:__Z28RegisterModule_JSONSerializev
Xth:_Interlocked_CompareExchange_m3227034792
gFe:_HashAlgorithm_get_Hash_m931854461
dhk:_DefaultComparer_Compare_m3564013922_gshared
kZb:__ZN2UI13RectTransform8TransferI14SafeBinaryReadEEvRT_
Nuc:__Z35Transfer_Blittable_FixedBufferFieldI9JSONWriteaEvRK29SerializationCommandArgumentsR31RuntimeSerializationCommandInfo
HCj:_AnimatorControllerPlayable_INTERNAL_CALL_SetIntegerString_m2571852706
R9b:__Z20IsHumanControllingUsv
HVa:__ZNK19RenderEventsContext21ExecuteCommandBuffersEijR17ShaderPassContextR15RenderNodeQueueP19ProfilerInformationi
C3d:__ZN14SphereCollider5ResetEv
thb:__ZN10systeminfo21GetPersistentDataPathEv
Q0e:_Dropdown_set_value_m2945561009
LAa:__ZN13GfxDeviceGLES17DestroyGpuProgramEPK10GpuProgram
zVf:_GregorianCalendar_GetMonth_m523739832
EFb:__Z44InitializeTransferFunctionScriptingTraitsForI18StreamedBinaryReadILb0EEEvR31TransferFunctionScriptingTraits
j1a:__ZNSt3__218__insertion_sort_3IR23CompareReflectionProbesP31RuntimeReflectionProbeBlendInfoEEvT0_S5_T_
tKb:__ZN12NativeBufferI27Converter_SimpleNativeClassI8GradientEE15SetupForWritingER9ArrayInfo
hca:__ZNSt3__213__stable_sortIRNS_4lessIN4core12basic_stringIcNS2_20StringStorageDefaultIcEEEEEENS_11__wrap_iterIPS6_EEEEvT0_SC_T_NS_15iterator_traitsISC_E15difference_typeEPNSF_10value_typeEi
SDf:_Array_InternalArray__ICollection_Remove_TisKeyValuePair_2_t3716250094_m2566517826_gshared
Zji:_GameObject_AddComponent_m3757565614
Zca:__ZN12_GLOBAL__N_113StaticDestroyEPv
fXk:__ZN30dense_hashtable_const_iteratorINSt3__24pairIK10KeyWrapperIPKcEP11Il2CppClassEES5_N6il2cpp5utils11StringUtils12StringHasherIS4_EEN14dense_hash_mapIS5_S8_SE_NS5_14EqualsComparerINSB_13VmStringUtils21CaseSensitiveComparerEEENS0_9allocatorIS9_EEE9SelectKeyESJ_SL_EppEv
KXf:_Guid_ToString_m51661589
koc:__ZNK8GUIStyle4DrawER8GUIStateRK5RectTIfER10GUIContentbbbb
_Xj:_Text_set_font_m1095513810
CSl:_glUnmapBuffer__wrapper
Ftf:_DateTime_System_IConvertible_ToUInt32_m1363211018_AdjustorThunk
Q5e:_InputField_get_cachedInputTextGenerator_m881618486
DKj:_Canvas_get_rootCanvas_m1790974328
pic:__Z32Mesh_CUSTOM_ExtractArrayFromListP12Il2CppObject
P7h:_Binder_get_DefaultBinder_m965620943
gyc:__ZN8JSONRead21TransferSTLStyleArrayINSt3__26vectorI8Gradient13stl_allocatorIS3_L18MemLabelIdentifier1ELi16EEEEEEvRT_17TransferMetaFlags
gAb:__ZNSt3__218__insertion_sort_3IRNS_6__lessINS_4pairIPKN5Unity4TypeE7Hash128EES8_EEPS8_EEvT0_SC_T_
VLb:__ZN10RectOffset8TransferI24GenerateTypeTreeTransferEEvRT_
icf:_SimpleEnumerator_get_Current_m482975946
Yac:__Z18GetResourceManagerv
CEl:_srand
Bse:__ZN2UI13CanvasManager19RemoveDirtyRendererEPNS_6CanvasEPNS_14CanvasRendererE
Lad:__ZN5physx7NpShape18setQueryFilterDataERKNS_12PxFilterDataE
DYk:__ZN15dense_hashtableI10KeyWrapperIPK17Il2CppGenericInstES4_N6il2cpp8metadata21Il2CppGenericInstHashEN14dense_hash_setIS4_S7_NS4_14EqualsComparerINS6_24Il2CppGenericInstCompareEEENSt3__29allocatorIS4_EEE8IdentityESB_SE_E12resize_deltaEjj
GIj:_AudioClip_InvokePCMSetPositionCallback_Internal_m2304858844
qua:__ZN9Texture3DC2E18MemLabelIdentifier18ObjectCreationMode
L7e:_InputField_KeyPressed_m3066588581
sOd:__ZN5physx20PxcNpCacheStreamPair5resetEv
yWj:_Selectable_DoStateTransition_m539253088
IJe:_SHA512_Create_m439875055
tY:__ZN11UnityEngine15CloudWebService17WebFileDownloaderINS0_20WebRequestRestClientENS0_23WebRequestRestHeaderMapEED2Ev
rc:invoke_vi
AJe:_SHA384Managed_update_m2629600295
BPa:__ZN15dense_hashtableINSt3__24pairIKN4core12basic_stringIcNS2_20StringStorageDefaultIcEEEEP20ArchiveStorageReaderEES6_20StringHash32FunctionIS6_EN14dense_hash_mapIS6_S9_SC_NS0_8equal_toIS6_EE13stl_allocatorISA_L18MemLabelIdentifier54ELi16EEE9SelectKeyESF_SI_ED2Ev
pc:invoke_vd
Kb:invoke_vf
U5:__ZNK10GameObject8IsActiveEv
ofc:__Z34Component_Get_Custom_PropTransformP12Il2CppObject
ynh:_SByte_System_IConvertible_ToUInt32_m4256495110
BVe:_PointerEventData_set_eligibleForClick_m2036057844
yJa:__ZN18GfxFramebufferGLES23SetupDefaultFramebufferEPP17RenderSurfaceBaseS2_N2gl6HandleILNS3_10ObjectTypeE9EEE
eEl:_mbsinit
uoi:_GUIStyle_get_Internal_clipOffset_m4237737448
HWc:__ZN5physx2Sq16computeWorldAABBERKNS_3Scb5ShapeERKNS1_5ActorE
mbj:__ZL70EventSystem_t3466835263_CustomAttributesCacheGenerator_m_FirstSelectedP21CustomAttributesCache
Hda:__ZN13ScreenManager18RequestOrientationE17ScreenOrientation
gVk:__ZN6il2cpp2vm5Class12SetupMethodsEP11Il2CppClass
OId:__ZN5physx14PxsAABBManager31updateAggregateBPOverlapRecordsEv
Edc:__Z39DeleteLastPathNameComponentWithAnySlashRKN4core12basic_stringIcNS_20StringStorageDefaultIcEEEE
moc:__ZN10GUIManager14InitGUIManagerEv
jfj:__ZL68InputField_t1631627530_CustomAttributesCacheGenerator_m_KeyboardTypeP21CustomAttributesCache
EZj:_VerticalLayoutGroup_CalculateLayoutInputHorizontal_m497637066
zEj:_AnimatorControllerPlayable_CrossFadeInFixedTimeInternal_m1452579496
Khk:_Comparer_1_System_Collections_IComparer_Compare_m1635186002_gshared
Lrk:_RectTransformUtility_PixelAdjustPoint_m560908615
Cfh:_MethodCall__ctor_m4106494862
VHh:__Z167RuntimeInvoker_Void_t1841601450_SByte_t454417549_SByte_t454417549_SByte_t454417549_SByte_t454417549_SByte_t454417549_SByte_t454417549_SByte_t454417549_SByte_t454417549PFvvEPK10MethodInfoPvPS4_
g6d:__ZN5physx7profile10DataBufferINS_6shdfnd6MutexTINS0_26WrapperReflectionAllocatorIhEEEENS0_14ScopedLockImplIS6_EEED2Ev
yrc:__Z37Register_UnityEngine_GUIStyle_Cleanupv
Xa:invoke_iiifii
Qtk:_StackTraceUtility_ExtractStringFromExceptionInternal_m2568950546
P$f:_BinaryReader_FillBuffer_m3097603599
Z1k:__ZN6il2cpp6icalls8mscorlib6System8MonoType13IsPointerImplEP20Il2CppReflectionType
gqf:_Convert_ToDecimal_m2284596541
Mgj:__ZL62Selectable_t1490392188_CustomAttributesCacheGenerator_m_ColorsP21CustomAttributesCache
tDj:_AnimatorControllerPlayable_GetLayerIndex_m747049736
_1d:__ZN9Rigidbody16AddNonConvexMeshER8ListNodeI12MeshColliderE
uj:_emscripten_glFramebufferRenderbuffer
E_f:_Int64_GetHashCode_m4047499913
r8a:__ZN9Transform30EnsureTransformHierarchyExistsEv
K3k:_il2cpp_field_get_flags
Bxd:__ZN5physx2Sc14ConstraintCore15getPxConstraintEv
Z$d:__ZNK8Collider12GetRigidbodyEv
Gcf:_Attribute_IsDefined_m216577166
dp:FUNCTION_TABLE_viiiiiiii
Kgf:_Char_ToUpper_m109978609
WG:__Z94Register_UnityEngine_Animations_AnimationLayerMixerPlayable_INTERNAL_CALL_CreateHandleInternalv
W9j:_InternalEnumerator_1_get_Current_m1089848479_gshared
vyf:_Double_System_IConvertible_ToInt64_m3798425616
YGe:_Rijndael_Create_m113171669
jh:___cxa_find_matching_catch_4
ybc:__ZN13MonoBehaviour13StopCoroutineEPKc
obb:__ZNSt3__26vectorINS_4pairIN4core12basic_stringIcNS2_20StringStorageDefaultIcEEEEPK17MessageIdentifierEENS_9allocatorISA_EEE12__move_rangeEPSA_SE_SE_
rZa:__ZN14qsort_internal17MedianOfThreeSwapIP17RODataReplacement19ROSorterReplacementEEvT_S4_S4_T0_
ZTk:__ZNK15dense_hashtableINSt3__24pairIK10KeyWrapperIPK22Il2CppGenericParameterEP11Il2CppClassEES6_N6il2cpp5utils11PointerHashIS4_EEN14dense_hash_mapIS6_S9_SE_NS6_14EqualsComparerINS0_8equal_toIS5_EEEENS0_9allocatorISA_EEE9SelectKeyESJ_SL_E3endEv
Adc:__ZN17TransformInternal36OnScaleChangedCalculateTransformTypeE15TransformAccess
cjf:_SynchronizedArrayListWrapper_InsertRange_m709359548
ZRa:__ZN17ArchiveFileSystem10ToAbsoluteEPKc
WTg:_BigInteger_op_Modulus_m13450242
Yqf:_Convert_ToInt32_m2988544165
njc:__Z53PlayableHandle_CUSTOM_INTERNAL_CALL_GetPlayableTypeOfR9HPlayable
EA:__ZN7mecanim6CRCKeyENS_7eStringE
N3g:_SslStreamBase_get_CanWrite_m2069502593
f_b:__ZL12SetPrefValueRKN4core12basic_stringIcNS_20StringStorageDefaultIcEEEERK9PrefValue
N$:__ZN19ShaderPropertySheet20ReservePropertyCountEj
nsl:__ZN6il2cpp5utils11StringUtils6PrintfEPKcz
pel:__ZNSt3__26vectorIN6il2cpp8metadata18GenericArrayMethodENS_9allocatorIS3_EEE7reserveEj
koa:__ZN15NameToObjectMapI6ShaderNSt3__23mapI4PPtrIS0_EN4core12basic_stringIcNS5_20StringStorageDefaultIcEEEENS1_4lessIS4_EENS1_9allocatorINS1_4pairIKS4_S9_EEEEEENS1_8multimapIS9_S4_NSA_IS9_EENSC_INSD_IKS9_S4_EEEEEEE4FindERSK_
Vlj:_ShimEnumerator_Reset_m98005789_gshared
Fva:__ZN24GenerateTypeTreeTransfer21TransferResourceImageE19ActiveResourceImagePKcR13StreamingInfoPvjiPKN5Unity4TypeE
lui:_Object_INTERNAL_CALL_Internal_InstantiateSingle_m3932420250
IPg:_ReadOnlyCollection_1_System_Collections_IList_set_Item_m1377990618_gshared
Jci:_ILGenerator_make_room_m373147874
I6d:__ZN5physx6shdfnd8PoolBaseINS_24NpPtrTableStorageManager8PtrBlockILi16EEENS0_19ReflectionAllocatorIS4_EEED2Ev
Ctj:_Dictionary_2_Init_m1045257495_gshared
YRl:_emscripten_glLinkProgram__wrapper
bVk:__ZN6il2cpp2vm5Class12GetFinalizerEP11Il2CppClass
Rwi:_PlayableHandle_SetDurationInternal_m3359857977
bef:_Boolean_CompareTo_m3691698947_AdjustorThunk
iIf:_Array_InternalArray__IndexOf_TisKeyValuePair_2_t888819835_m2660446234_gshared
Jgg:_PKCS1_Verify_v15_m2571212635
Bnb:__ZNSt3__212__deque_baseI18ReflectionProbeJobNS_9allocatorIS1_EEED2Ev
aA:__ZN11UnityEngine9Animation27DestroyAnimationSetBindingsEPNS0_20AnimationSetBindingsERN7mecanim6memory9AllocatorE
hUb:__ZN15dense_hashtableINSt3__24pairIKiN4core17string_with_labelILi1EEEEEi18SInt32HashFunctionN14dense_hash_mapIiS5_S7_NS0_8equal_toIiEE13stl_allocatorIS6_L18MemLabelIdentifier1ELi16EEE9SelectKeyESA_SD_E13set_empty_keyERKS6_
c5c:__ZN5physx2Sc9ShapeCore23setSimulationFilterDataERKNS_12PxFilterDataE
UE:__ZN8Animator12CleanupClassEv
_Re:_DecoderReplacementFallbackBuffer__ctor_m1305504326
eyc:__Z13TransferFieldI8JSONReadLb0E27Converter_SimpleNativeClassI10RectOffsetEEvRK23StaticTransferFieldInfoR31RuntimeSerializationCommandInfoRT1_
VPe:_String_IndexOf_m570401060
fzf:_Enum_System_IConvertible_ToDateTime_m2924690746
q1e:_Dropdown_CreateBlocker_m4109366440
bFe:_HashAlgorithm_System_IDisposable_Dispose_m2106335965
kll:__GLOBAL__sub_I_GenericMetadata_cpp
T5d:__ZN5physx7profile12MemoryBufferINS0_21WrapperNamedAllocatorEE5writeIyEEvRKT_
Xxi:_RangeAttribute__ctor_m1657271662
Lnc:__ZNK8GUIStyle4DrawER8GUIStateRK5RectTIfER10GUIContentib
l1k:__ZN6il2cpp6icalls8mscorlib6System8MonoType18GetFields_internalEP20Il2CppReflectionTypeiS5_
M4a:__Z24CalculateSpotLightBoundsffRK10Matrix4x4fR15SpotLightBounds
Aag:_TailoringInfo__ctor_m2248501932
KU:__ZN23CloudWebServicesManager23VirtualRedirectTransferER14SafeBinaryRead
AHh:__Z150RuntimeInvoker_Int32_t2071877448_RuntimeObject_Int32_t2071877448_Int32_t2071877448_RuntimeObject_Int32_t2071877448_Int32_t2071877448_Int32_t2071877448PFvvEPK10MethodInfoPvPS4_
Aif:_FixedSizeArrayListWrapper_InsertRange_m2690348965
ODb:__Z19ShouldTransferFieldR32SerializationCommandQueueBuilder17ScriptingClassPtriR18TransferField_InfoRK20CoreScriptingClasses
g3f:_MemoryStream_Read_m2289595005
KO:__ZN5audio5mixer22UpdateAudioMixerMemoryERKNS0_18AudioMixerConstantERNS0_16AudioMixerMemoryEfPN4FMOD6SystemEf
oce:__ZL21InitializeCachedStripPv
Gyj:_CustomEventData_Add_m4139356558
_fl:__ZN6il2cpp6icalls8mscorlib6System9Threading6Thread23GetCachedCurrentCultureEP12Il2CppThread
TVj:_Selectable_get_allSelectables_m3045831006
sZa:__ZNK6Camera22GetWorldToCameraMatrixEv
ncl:__ZN14dense_hash_mapI10KeyWrapperINSt3__24pairIPK10MethodInfoP11Il2CppClassEEEj17ReflectionMapHashIS8_ENS9_14EqualsComparerINS1_8equal_toIS8_EEEENS1_9allocatorINS2_IKS9_jEEEEE15set_deleted_keyERSH_
Ynl:__ZN6il2cpp2vm12GenericClass11IsValueTypeEP18Il2CppGenericClass
bDb:__ZN13MonoBehaviour7SetNameEPKc
QWg:_ContentInfo__ctor_m3579805263
TWk:__ZN15dense_hashtableINSt3__24pairIK10KeyWrapperIPKcEP11Il2CppClassEES5_N6il2cpp5utils11StringUtils12StringHasherIS4_EEN14dense_hash_mapIS5_S8_SE_NS5_14EqualsComparerINSB_13VmStringUtils21CaseSensitiveComparerEEENS0_9allocatorIS9_EEE9SelectKeyESJ_SL_E15set_deleted_keyERKS9_
vAd:__ZN5physx6shdfnd8PoolBaseINS_2Sc26ActorPairContactReportDataENS0_19ReflectionAllocatorIS3_EEE15disposeElementsEv
$Uj:_ScrollRect_get_verticalNormalizedPosition_m1701804869
cta:__ZN18AwakeFromLoadQueue5ClearEv
hoj:_Enumerator_get_Current_m2986380627_AdjustorThunk
tVd:__ZN5physx6shdfnd5ArrayIfNS0_19ReflectionAllocatorIfEEE8recreateEj
z3a:__ZNSt3__27__sort5IR15ReflProbeSorterPP15ReflectionProbeEEjT0_S6_S6_S6_S6_T_
T9:__ZN8Playable10DisconnectEPS_i
l7j:_InternalEnumerator_1_get_Current_m1526874475_AdjustorThunk
Zk:_glGenTransformFeedbacks
Oxa:__ZN13LoadOperationD2Ev
pfg:_KeyPairPersistence__ctor_m1817312194
aFd:__ZN5physx20PxsSolverCoreGeneral6createEv
kDf:_Array_InternalArray__ICollection_Contains_TisMark_t2724874473_m1640201705_gshared
HSc:__ZL29GeomOverlapCallback_SphereBoxRKN5physx10PxGeometryERKNS_11PxTransformES2_S5_PNS_2Gu12TriggerCacheE
yai:_TypeBuilder_get_AssemblyQualifiedName_m2097258567
_na:__ZNSt3__27__sort5IRPFbRKNS_4pairIN9ShaderLab16FastPropertyNameEN18UnityPropertySheet11UnityTexEnvEEES8_EPS6_EEjT0_SD_SD_SD_SD_T_
sEj:_AnimatorControllerPlayable_GetParameterCount_m1050153685_AdjustorThunk
gFa:__ZNK7ApiGLES18GetExtensionStringEv
KKf:_Array_InternalArray__ICollection_CopyTo_TisSlot_t2267560602_m1792475781_gshared
ANl:_emscripten_glVertexAttrib1f__wrapper
HLk:_Align__ctor_m1578679480
gRa:__ZNK12HandlerChain4SizeERK13FileEntryData
yuj:_DefaultComparer_Equals_m1281232537_gshared
lq:FUNCTION_TABLE_iiiiiiiii
Y6e:_InputField_set_asteriskChar_m619206227
Scd:__ZN5physx7NpCloth15setInertiaScaleEf
Koh:_DES_IsSemiWeakKey_m3967392585
awk:_Transform_get_localRotation_m4001487205
Jhi:_MonoProperty_get_PropertyType_m1921201152
GYd:__ZN5physx6shdfnd4sortIPvNS0_4LessIS2_EENS0_19ReflectionAllocatorIN17PxcPoolMallocData10PoolData16EEEEEvPT_jRKT0_RKT1_j
SFc:__Z19sweepBox_SphereGeomRKN5physx10PxGeometryERKNS_11PxTransformERKNS_2Gu3BoxERKNS_6PxVec3EfRNS_10PxSweepHitENS_7PxFlagsINS_9PxHitFlag4EnumEtEEf
hta:__Z15UnloadGameScenev
xSl:_glCheckFramebufferStatus__wrapper
zWd:__ZNK5physx13GuMeshFactory15getHeightFieldsEPPNS_13PxHeightFieldEjj
B1d:__ZN15CapsuleCollider9SetRadiusEf
$Sg:_BigInteger_get_Rng_m2525288368
okh:_BinaryCommon_IsPrimitive_m2132448955
vch:_X509ExtensionEnumerator_Reset_m3200687545
Mpd:__ZN5physx2Cm20visualizeJointFramesERNS0_12RenderOutputEfRKNS_11PxTransformES5_
Pjf:_CaseInsensitiveHashCodeProvider__ctor_m3775398833
uhk:_Comparer_1_System_Collections_IComparer_Compare_m674728644_gshared
kKd:__ZN5physx22PxcContactPlaneCapsuleERKNS_2Gu13GeometryUnionES3_RKNS_11PxTransformES6_RKfRNS_10PxcNpCacheERNS0_13ContactBufferE
dhc:__Z36Renderer_Get_Custom_PropSortingOrderP12Il2CppObject
M7k:__ZNK15dense_hashtableINSt3__24pairIK10KeyWrapperIPK10Il2CppTypeEjEES6_N6il2cpp8metadata14Il2CppTypeHashEN14dense_hash_mapIS6_jSB_NS6_14EqualsComparerINSA_26Il2CppTypeEqualityComparerEEENS0_9allocatorIS8_EEE9SelectKeyESF_SH_E13find_positionERS7_
Lga:__ZN8Material10SetTextureEN9ShaderLab16FastPropertyNameEP7Texture
WLj:_Collider_set_material_m2093403565
NKb:__Z18Transfer_BlittableI24GenerateTypeTreeTransferLb0E8Vector2fEvRK29SerializationCommandArgumentsR31RuntimeSerializationCommandInfo
EKb:__Z18Transfer_BlittableI24GenerateTypeTreeTransferLb1EhEvRK29SerializationCommandArgumentsR31RuntimeSerializationCommandInfo
wMc:__ZN5physx3Cct17CapsuleController9setRadiusEf
Pcc:__ZNK16TypeTreeIterator10ByteOffsetEv
B2e:_Graphic_get_rectTransform_m2697395074
T8:__ZnwjRKSt9nothrow_t
tD:__ZN8Animator11ClearObjectEv
pCb:__ZNSt3__26vectorIi13stl_allocatorIiL18MemLabelIdentifier12ELi16EEE8__appendEj
sZf:_Int32_System_IConvertible_ToSingle_m4225885999_AdjustorThunk
g3d:__ZN9Rigidbody17MainThreadCleanupEv
y9g:_X500DistinguishedName_Decode_m3070515374
rma:__ZN14SafeBinaryRead19TransferSTLStyleMapINSt3__23mapI39DeprecatedFastPropertyNameSerializationN18UnityPropertySheet11UnityTexEnvENS1_4lessIS3_EENS1_9allocatorINS1_4pairIKS3_S5_EEEEEEEEvRT_17TransferMetaFlags
bjc:__Z45Register_UnityEngine_MonoBehaviour_IsInvokingv
h7g:_IPv6Address_set_ScopeId_m1442934355
Flh:_ObjectManager_RaiseOnDeserializedEvent_m512850179
E9c:__ZN5physx9NpPhysics26unregisterDeletionListenerERNS_18PxDeletionListenerE
Ibc:__Z35UnregisterSerializationCacheBuilderPFv17ScriptingClassPtrR23CachedSerializationDataRbE
fwl:_GC_reclaim_uninit
Rka:__Z30GetBuiltinVectorParamArraySize24BuiltinShaderVectorParam
lag:_CodePointIndexer__ctor_m797342079
v6a:__ZN21RendererUpdateManager11AddRendererER8Renderer
F$b:__Z13RegisterClassI15ResourceManagerEvv
g2c:__ZNK5physx18NpArticulationLink15getArticulationEv
rbh:_X509Certificate2Enumerator_System_Collections_IEnumerator_get_Current_m3551585134
gGb:__Z35Transfer_Blittable_FixedBufferFieldI14SafeBinaryReadsEvRK29SerializationCommandArgumentsR31RuntimeSerializationCommandInfo
Mwb:__ZN14SafeBinaryRead21TransferSTLStyleArrayI13dynamic_arrayIfLj4EEEEvRT_17TransferMetaFlags
osl:__ZN6il2cpp5utils11StringUtils11Utf16ToUtf8EPKDs
Oze:__ZN11UnityEngine15PlatformWrapper20IsRootedOrJailbrokenEv
eUa:__ZZ23InitPlayerLoopCallbacksvEN52PreLateUpdateScriptRunBehaviourLateUpdateRegistrator7ForwardEv
_9g:_X509Certificate2_GetNameInfo_m402390219
H4a:__Z33IntersectAABBPlaneBoundsOptimizedRK4AABBPKN4math7_float4Ei
ncf:_Swapper_BeginInvoke_m2652511022
fqk:_RectOffset_t3387826427_marshal_pinvoke_back
YAa:__ZN9GfxDevice19EndGeometryJobFrameEv
yKb:__ZN27Converter_SimpleNativeClassI17AnimationCurveTplIfEE17ScriptingToNativeER18ScriptingObjectPtrPS1_
Stf:_DateTime_get_UtcNow_m1309841468
J2c:__ZN5physx2Sc15CoreInteraction17isCoreInteractionEPNS0_11InteractionE
GAl:__ZN6il2cpp8metadata24Il2CppGenericInstCompare7CompareERK10KeyWrapperIPK17Il2CppGenericInstES8_
M5d:__ZThn132_N5physx7profile8ZoneImplINS_28PxProfileNameProviderForwardEED0Ev
cBc:__ZN5physx3Cct13BoxController17setHalfSideExtentEf
BXk:__ZNK15dense_hashtableINSt3__24pairIK10KeyWrapperIPK19Il2CppGenericMethodEPK26Il2CppGenericMethodIndicesEES6_N6il2cpp8metadata23Il2CppGenericMethodHashEN14dense_hash_mapIS6_SA_SE_NS6_14EqualsComparerINSD_26Il2CppGenericMethodCompareEEENS0_9allocatorISB_EEE9SelectKeyESI_SK_E5beginEv
S2e:_Graphic_get_materialForRendering_m2600868951
au:__ZN27AnimationLayerMixerPlayable21UpdateLayerParametersEv
vGg:_Collection_1_System_Collections_IList_Contains_m3210868188_gshared
d1b:__ZNK17AnimationCurveTplIfE8EvaluateEfPNS0_5CacheE
iTa:__Z31ManagerContextInitializeClassesv
iUf:_NumberFormatter_AppendIntegerString_m868842252
Yee:_UNITY_FT_List_Finalize
v_a:__Z20LightAttenuateApproxRKfS0_
v3:__ZN9Scripting30SetCachedPtrOnScriptingWrapperE18ScriptingObjectPtrP6Object
ANb:__Z18Transfer_BlittableI19StreamedBinaryWriteILb0EELb0EdEvRK29SerializationCommandArgumentsR31RuntimeSerializationCommandInfo
qRe:_ASCIIEncoding_GetBytes_m3649277167
Xki:_GUILayoutUtility_Internal_GetWindowRect_m1287880151
tBj:_AnimationPlayableOutput_get_Null_m577023
m2j:_Context_GetProperty_m1664740450
Bwa:__ZN18BlockRangeInternal16PopLastNodeIndexEP10BlockRangeji
lCh:_Version__ctor_m2972638031
sdd:__ZN5physx7NpCloth19setCollisionSpheresEPKNS_22PxClothCollisionSphereEj
Edg:_Kernel_MultiplyByDword_m155008287
awb:__ZN4MeshD0Ev
XKh:__Z121RuntimeInvoker_Void_t1841601450_Int64_t909078037_RuntimeObject_RuntimeObject_Int64_t909078037_RuntimeObject_RuntimeObjectPFvvEPK10MethodInfoPvPS4_
NEe:__ZL42RequestRecreateEyeTexturesBeforeNextUpdatev
fka:__ZNK6Camera20IsCurrentlyRenderingEv
Mv:__ZN21AnimationClipPlayable23ProcessRootMotionNoClipEPK35AnimationPlayableEvaluationConstantPK32AnimationPlayableEvaluationInputP33AnimationPlayableEvaluationOutput
lve:__Z36CanvasRenderer_CUSTOM_SetPopMaterialP12Il2CppObjectS0_i
Uuc:__Z18Transfer_BlittableI9JSONWriteLb0EdEvRK29SerializationCommandArgumentsR31RuntimeSerializationCommandInfo
Cjb:__ZN6Camera8TransferI19StreamedBinaryWriteILb0EEEEvRT_
oNg:_ReadOnlyCollection_1_System_Collections_IList_Insert_m3679749778_gshared
fZj:_Toggle_OnDidApplyAnimationProperties_m325835214
VCl:_wctomb
Xec:__Z27Camera_CUSTOM_GetAllCamerasP11Il2CppArray
Snf:_Convert_InternalFromBase64String_m3682756716
Ed:___cxa_rethrow
uXd:__ZN5physx20InternalTriangleMesh17allocateFaceRemapEv
swc:__Z18Transfer_BlittableI8JSONReadLb1EhEvRK29SerializationCommandArgumentsR31RuntimeSerializationCommandInfo
LEj:_AnimatorControllerPlayable_CrossFadeInFixedTimeInternal_m3383124488
HNl:_glBindRenderbuffer__wrapper
blk:_Regex_System_Runtime_Serialization_ISerializable_GetObjectData_m4035555909
hwh:_TimeSpan_Add_m3228293154
Buj:_DefaultComparer_Equals_m4098991076_gshared
l8a:__ZN13MonoBehaviour8SetClassE17ScriptingClassPtr18ScriptingObjectPtr
vWg:_RC4__cctor_m523650203
$sd:__ZNK5physx7NpScene26getBounceThresholdVelocityEv
zzd:__ZN5physx6shdfnd8PoolBaseINS_2Sc12SimStateDataENS0_19ReflectionAllocatorIS3_EEE15disposeElementsEv
U2j:_CrossContextDelegate_Invoke_m2908136830
Pda:__ZN20LocalFileSystemPosix4ReadER13FileEntryDatayyPvPy
Y1a:__ZNSt3__211__sift_downIRN23ForwardShaderRenderLoop18RenderObjectSorterILb0EEEP21ForwardRenderPassDataEEvT0_S7_T_NS_15iterator_traitsIS7_E15difference_typeES7_
j6f:_UnmanagedMemoryStream_get_Position_m4093669769
rKh:__Z90RuntimeInvoker_Void_t1841601450_IntPtr_t_RuntimeObject_Int32_t2071877448_Int32_t2071877448PFvvEPK10MethodInfoPvPS4_
rDb:__ZN13MonoBehaviour5DoGUIENS_13GUILayoutTypeEii
sai:_DerivedType_IsDefined_m555719351
tik:_Mark_get_IsDefined_m3332701456
efb:__ZNK12TLSAllocatorI14StackAllocatorE8ContainsEPKv
Nzb:__ZN11TimeManager8TransferI18StreamedBinaryReadILb0EEEEvRT_
lXd:__ZNK5physx13GuMeshFactory19getNbTriangleMeshesEv
IYb:__ZN15SerializeTraitsINSt3__23mapI4PPtrI6ShaderEN4core12basic_stringIcNS5_20StringStorageDefaultIcEEEENS0_4lessIS4_EENS0_9allocatorINS0_4pairIKS4_S9_EEEEEEE8TransferI24GenerateTypeTreeTransferEEvRSH_RT_
Voh:_DESTransform__cctor_m1179482644
owb:__ZN14BlendShapeData8TransferI14SafeBinaryReadEEvRT_
rGc:__ZN5physx2Gu15getPolygonIndexERKNS0_13PolygonalDataEPNS0_12SupportLocalERKNS_6shdfnd3aos5Vec3VE
Suk:_TextGenerator_PopulateWithErrors_m467881283
qzf:_Enum_Format_m2294492821
sQd:__ZN5physx36normalizePartitionsWithArticulationsERNS_6shdfnd5ArrayIjNS0_19ReflectionAllocatorIjEEEEPNS_23PxcSolverConstraintDescEPKNS_13PxcSolverBodyEjjS5_Pjj
ypb:__ZN7Texture25ReloadFromStorageIfNeededEPvb
R1c:__ZN5physx18NpArticulationLink17setLinearVelocityERKNS_6PxVec3Eb
x6h:_OverflowException__ctor_m2564269836
uwd:__ZN5physx2Sq17SceneQueryManager17processSimUpdatesEv
dmj:_ShimEnumerator_get_Entry_m2332479818_gshared
luf:_DateTime_CheckDateTimeKind_m329345155_AdjustorThunk
Dpe:_Update_Max
Nfl:__ZN6il2cpp6icalls8mscorlib6SystemL15ThrowNoWideningEv
b_c:__ZN5physx6shdfnd5ArrayIPvNS0_19ReflectionAllocatorINS_13NpRigidStaticEEEE15growAndPushBackERKS2_
m1b:__ZNK23TransformChangeDispatch24GetChangeMaskForInterestENS_12InterestTypeE
Plc:__Z45Transform_CUSTOM_INTERNAL_CALL_TransformPointP12Il2CppObjectRK8Vector3fRS1_
dGg:__ZN23InterfaceActionInvoker2Ii18Color32_t874517518E6InvokeEjP11Il2CppClassP12Il2CppObjectiS0_
Bvd:__ZN5physx10PxsContext25setVisualizationParameterENS_24PxVisualizationParameter4EnumEf
Jeb:__ZL10KeyHandleriPK23EmscriptenKeyboardEventPv
Qma:__ZNSt3__26__treeINS_12__value_typeI39DeprecatedFastPropertyNameSerializationfEENS_19__map_value_compareIS2_S3_NS_4lessIS2_EELb1EEENS_9allocatorIS3_EEE7destroyEPNS_11__tree_nodeIS3_PvEE
f1d:__ZN8Collider16TransformChangedEi
Ajc:__Z81Register_UnityEngine_Playables_PlayableHandle_INTERNAL_CALL_GetInputCountInternalv
$ie:_tt_cmap4_char_index
YGj:_AsyncOperation_get_allowSceneActivation_m2825451182
Iwh:_TimeSpan_op_Addition_m3421801803
qRa:__ZNK12HandlerChain8IsHiddenERK13FileEntryData
Eej:__ZL50Graphic_t2426225576_CustomAttributesCacheGeneratorP21CustomAttributesCache
OJb:__ZL26Transfer_SimpleNativeClassI17RemapPPtrTransfer10RectOffsetLb0EEvRK29SerializationCommandArgumentsR31RuntimeSerializationCommandInfo
f5b:__ZN16GraphicsSettings12CleanupClassEv
P1f:_NotSupportedException__ctor_m836173213
Drk:_Vector2_op_Implicit_m1064335535
Gta:__Z31GetLightProbeProxyVolumeManagerv
ntf:_DateTime_System_IConvertible_ToInt32_m2789391054_AdjustorThunk
QRh:__Z73RuntimeInvoker_Single_t2076509932_Vector3_t2243707580_Vector3_t2243707580PFvvEPK10MethodInfoPvPS4_
meg:_ASN1Convert_FromInt32_m1541043489
EWe:_PointerInputModule_ProcessMove_m3200120346
zof:_Convert_ToByte_m1008221737
wVg:_MD2Managed_MD2Transform_m3825201358
xrb:__ZN21EnlightenSceneMapping16BuildRemapTablesEv
mVb:__ZNSt3__26vectorIN9ShaderLab20SerializedSubProgram13BufferBindingENS_9allocatorIS3_EEEC2ERKS6_
V0e:_Dropdown_AddOptions_m835420907
Tka:__ZNK9ShaderLab20ShaderBlendStateDesc15ToGfxBlendStateEPK19ShaderPropertySheetS3_R13GfxBlendState
Oae:__Z37Collider_Get_Custom_PropContactOffsetP12Il2CppObject
f_e:_CanvasUpdateRegistry_IsRebuildingLayout_m1677873278
Fz:__ZN11UnityEngine9AnimationL22GenericBindingCallbackEPvS1_i
GBd:__ZN5physx2Sq8AABBTree11shiftOriginERKNS_6PxVec3E
sYb:__ZN9ShaderLab9IntShaderC2Ev
e2k:__ZN6il2cpp6icalls8mscorlib6SystemL9IsPrivateEPK9EventInfo
azl:__ZN6il2cpp6icalls8mscorlib6System10Reflection4Emit11TypeBuilder20setup_internal_classEP27Il2CppReflectionTypeBuilderS7_
wZd:__ZN5physx11AdjacenciesD2Ev
bqd:__ZN5physx6shdfnd8PoolBaseINS_2Sc24ElementInteractionMarkerENS0_19ReflectionAllocatorIS3_EEE12allocateSlabEv
$Ad:__ZN5physx2Sq16BucketPrunerCore11shiftOriginERKNS_6PxVec3E
mqk:_RectOffset_set_left_m620681523
z5j:_ArrayReadOnlyList_1_IndexOf_m1809425308_gshared
JT:__Z58AudioPlayableOutput_CUSTOM_INTERNAL_CALL_InternalSetTargetR15HPlayableOutputP12Il2CppObject
S3k:_il2cpp_gc_disable
DH:__Z69AnimatorControllerPlayable_CUSTOM_INTERNAL_CALL_GetLayerIndexInternalR9HPlayableP12Il2CppString
nVe:_ExecuteEvents_U3Cs_HandlerListPoolU3Em__0_m2903690915
Flf:_Hashtable_Clone_m165405752
Pvd:__ZN5physx6shdfnd5ArrayIPNS_3Scb5ShapeENS0_19ReflectionAllocatorIS4_EEE6resizeEjRKS4_
uNc:__ZN5physx3Cct15ObstacleContextD2Ev
uNj:_Component_BroadcastMessage_m444672650
hze:__ZN11UnityEngine15PlatformWrapper19GetPhysicalMemoryMBEv
Oea:__Z15CreateDirectoryRKN4core12basic_stringIcNS_20StringStorageDefaultIcEEEE
lua:__Z21CalculateGlobalMatrix23TransformAccessReadOnly
tCi:__ZL70InternalsVisibleToAttribute_t1037732567_CustomAttributesCacheGeneratorP21CustomAttributesCache
Szb:__ZNK13BuildSettings22GetTypeVirtualInternalEv
P0f:_MonoIO_GetCurrentDirectory_m1509324201
xDi:__ZL91Hashtable_t909839986_CustomAttributesCacheGenerator_Hashtable_OnDeserialization_m4192849898P21CustomAttributesCache
tsh:_UTF32Encoding_GetHashCode_m4205784236
opf:_DateTime_ToUniversalTime_m1815024752
kCd:__ZN5physx2Cm10FanoutTaskC2EPKc
Jyd:__ZNK5physx2Sc5Scene17prefetchForRemoveERKNS0_8BodyCoreE
D$b:__Z13RegisterClassI14RenderSettingsEvv
yuk:_TextGenerator_Finalize_m4242493229
Exl:_GC_set_on_event
k5h:__Z80RuntimeInvoker_Boolean_t3825574718_Navigation_t1571958496_Navigation_t1571958496PFvvEPK10MethodInfoPvPS4_
ICg:_Collection_1_ConvertItem_m3563206219_gshared
Fwh:_TimeSpan_Subtract_m3597791685_AdjustorThunk
AXc:__ZN5physx2Sc8RigidSimD2Ev
Zx:__ZN7mecanim12statemachine24CreateStateMachineOutputEPKNS0_20StateMachineConstantEjRNS_6memory9AllocatorE
mri:_Logger__ctor_m3834134587
bvd:__ZNK5physx13NpVolumeCache7raycastERKNS_6PxVec3ES3_fRNS_13PxHitCallbackINS_12PxRaycastHitEEENS_7PxFlagsINS_9PxHitFlag4EnumEtEERKNS_17PxQueryFilterDataEPNS_21PxQueryFilterCallbackE
vBa:__ZNK9GfxDevice27GetActiveRenderSurfaceWidthEv
GMd:__ZN5physx16PxsIslandManagerC2EjRNS_19PxcScratchAllocatorEPNS_2Cm13EventProfilerE
zze:__ZN11UnityEngine15PlatformWrapper28GetCleanGraphicsFixedVersionEv
KHh:__Z133RuntimeInvoker_Int32_t2071877448_RuntimeObject_RuntimeObject_Int32_t2071877448_Int32_t2071877448_RuntimeObject_ContextU26_t3131521781PFvvEPK10MethodInfoPvPS4_
W5k:__ZN6il2cpp2vm4Type7GetTypeEPK10Il2CppType
xJd:__ZN5physx13ActorAABBTask11runInternalEv
scf:_AssemblyLoadEventHandler_Invoke_m108373765
TAf:_CCGregorianCalendar_dmy_from_fixed_m2992247462
DWe:_PointerInputModule_ShouldStartDrag_m4163638715
D8d:__ZZN8Collider15InitializeClassEvEN32FunctorImpl_795kTransformChanged4CallEPviR11MessageData
eOk:__ZL24UnresolvedVirtualCall_76P12Il2CppObjectPK10MethodInfo
jqa:__ZN6prcoreL17RemapGenericFloatI18TexFormatRGBAFloat17TexFormatRGBAHalfEEvPKNS_9InnerInfoE
tmd:__ZN5physx14NpRigidDynamic18setKinematicTargetERKNS_11PxTransformE
fWk:_WebRequestUtils__cctor_m893658947
prb:__ZN10GISettings8TransferI14SafeBinaryReadEEvRT_
lo:FUNCTION_TABLE_vifff
TPg:_ReadOnlyCollection_1_System_Collections_Generic_ICollectionU3CTU3E_Remove_m2957273994_gshared
bvi:_Physics_Raycast_m4027183840
uab:__ZN19CustomRenderTexture12ClearGPUDataEv
vTe:_BaseInputModule_ShouldActivateModule_m2899747874
t4h:__Z86RuntimeInvoker_Int32_t2071877448_DateTimeOffset_t1362988906_DateTimeOffset_t1362988906PFvvEPK10MethodInfoPvPS4_
lia:__ZN13RenderTexture13ApplySettingsEv
_Kl:_glVertexAttrib4f__wrapper
Ef:_JS_Sound_SetListenerPosition
co:FUNCTION_TABLE_fiffi
PI:__Z86Register_UnityEngine_Animations_AnimatorControllerPlayable_INTERNAL_CALL_SetBoolStringv
Jdi:_ModuleBuilderTokenGenerator_GetToken_m3427457873
gWj:_Selectable_get_isPointerInside_m3162215687
HHf:_Array_FindIndex_TisRuntimeObject_m4149904176_gshared
Mcd:__ZN5physx7NpCloth21setLinearInertiaScaleENS_6PxVec3E
MBh:_UnauthorizedAccessException__ctor_m3480402128
Bdg:_BigInteger_op_Modulus_m3788401748
u3j:_ArgInfo_GetInOutArgs_m3184132151
psa:__ZNK8Material16MarkDependenciesER27GarbageCollectorThreadState
Xuc:__ZL17Transfer_GUIStyleI9JSONWriteLb0EEvRK29SerializationCommandArgumentsR31RuntimeSerializationCommandInfo
KYa:__Z28GetHaloVertexPositionsStereoP8Vector3fRKS_S2_f
B9d:__ZN17TriggerStayStates20executeDeferredEraseEv
_qa:__ZN6prcoreL27StretchGenericFloatBilinearI15TexFormatRGHalfEEvPKNS_9InnerInfoE
Cmg:_Enumerator_MoveNext_m598197344_AdjustorThunk
VOj:_DisplaysUpdatedDelegate_Invoke_m3646339243
QId:__ZN5physx14PxsAABBManager22processAggregateSingleERKNS_19AggregateSortedDataERKNS_9AggregateEjPNS_2Cm10BitMapBaseINS_6shdfnd9AllocatorEEE
JQe:_String_JoinUnchecked_m1880555587
ila:__ZNK9ShaderLab7Program21GetMatchingSubProgramEPK6ShaderPKNS_4PassERK16ShaderKeywordSetjPS7_R19ShaderSnippetResult
KLf:_Array_InternalArray__Insert_TisKeyValuePair_2_t1174980068_m2464431954_gshared
mkc:__Z49Register_UnityEngine_Resources_GetBuiltinResourcev
BNd:__ZN5physx2Sc17ParticleSystemSim20scheduleCollisionCpuERNS0_16InteractionSceneERKNS_6shdfnd5ArrayIPS1_NS4_19ReflectionAllocatorIS6_EEEERNS_10PxBaseTaskE
lje:_tt_cmap10_char_index
R0e:_Dropdown_Awake_m335654827
ftj:_Dictionary_2_U3CCopyToU3Em__0_m1479035402_gshared
wjf:_BitArray_set_Item_m3801461194
lUk:__ZN15dense_hashtableINSt3__24pairIK10KeyWrapperIPK22Il2CppGenericParameterEP11Il2CppClassEES6_N6il2cpp5utils11PointerHashIS4_EEN14dense_hash_mapIS6_S9_SE_NS6_14EqualsComparerINS0_8equal_toIS5_EEEENS0_9allocatorISA_EEE9SelectKeyESJ_SL_E3endEv
sQe:_String_Remove_m3580114465
YWb:__ZN9ShaderLab22SerializedBindChannels8TransferI19StreamedBinaryWriteILb0EEEEvRT_
WNh:__Z82RuntimeInvoker_Int32_t2071877448_RuntimeObject_Int32_t2071877448_Int16_t4041245914PFvvEPK10MethodInfoPvPS4_
tpc:__ZN5IMGUI20MoveWindowFromLayoutER8GUIStateiRK5RectTIfE
nBh:_UIntPtr__ctor_m2737768530
cfe:_UNITY_FT_Stream_ReadUShort
j7e:_InputField_OnEnable_m3797157569
tgc:__Z51Register_UnityEngine_GUILayer_INTERNAL_CALL_HitTestv
Wmc:__Z50Register_UnityEngine_Object_FindSceneObjectsOfTypev
qma:__ZNSt3__26__treeINS_12__value_typeIN4core12basic_stringIcNS2_20StringStorageDefaultIcEEEES6_EENS_19__map_value_compareIS6_S7_NS_4lessIS6_EELb1EEE13stl_allocatorIS7_L18MemLabelIdentifier1ELi16EEE7destroyEPNS_11__tree_nodeIS7_PvEE
bCk:_Nullable_1__ctor_m796575255_gshared
ttl:__ZN6il2cpp2vm8Profiler7GCEventE13Il2CppGCEvent
xtf:_DateTimeUtils_ToString_m3878360633
Mfl:__ZN6il2cpp6icalls8mscorlib6SystemL16ThrowInvalidCastEPK11Il2CppClassS5_
kGa:__Z13IsDepthFormat14GraphicsFormat
PAb:__ZN12AspectRatios8TransferI24GenerateTypeTreeTransferEEvRT_
dPc:__Z12FormatBufferPciPKcz
ryj:_CustomEventData_AddUInt64_m1437973832
vDc:__ZN37ConvexVsMeshContactGenerationCallback10processHitERKN5physx12PxRaycastHitERKNS0_6PxVec3ES6_S6_RfPKj
tg:_emscripten_glUniform1fv
HPd:__ZL28removeBrokenEdgesFromIslandsPKjjS0_jS0_RKN5physx11NodeManagerERNS1_11EdgeManagerERNS1_13IslandManagerERNS1_2Cm10BitMapBaseINS1_6shdfnd9AllocatorEEEPSD_
xUk:__ZN6il2cpp2vm5Class13GetArrayClassEP11Il2CppClassj
lhk:_Comparer_1__cctor_m1367179810_gshared
wM:__ZN4FMOD7Channel7setModeEj
dai:_DerivedType_InvokeMember_m4149586013
JDj:_AnimatorControllerPlayable_GetNextAnimatorStateInfo_m1690618991
so:FUNCTION_TABLE_iifff
Apc:__ZN11IMGUIModule12AddGUIScriptER8ListNodeI13MonoBehaviourE
Gb:invoke_difi
u8:__ZL50StaticRegisterSceneLoadedCallback_LightmapSettingsPv
ZJh:__Z119RuntimeInvoker_Void_t1841601450_RuntimeObject_RuntimeObject_RuntimeObject_RuntimeObject_Int32_t2071877448_RuntimeObjectPFvvEPK10MethodInfoPvPS4_
xn:FUNCTION_TABLE_iiffi
U3e:_GridLayoutGroup_get_cellSize_m1061731753
jdd:__ZNK5physx7NpCloth24getSeparationConstraintsEPNS_35PxClothParticleSeparationConstraintE
TFa:__ZN21GLESGpuProgramApplier11ApplyVectorERKN20GpuProgramParameters14ValueParameterEPK8Vector4ft
j4a:__Z17PrepareSceneNodesP11CullResults
uyk:_Vector4_ToString_m2340321043_AdjustorThunk
Zmk:_Parser_IsIgnoreCase_m4155598997
Ale:_cff_size_done
jQd:__ZN5physx6shdfnd5ArrayINS_17PxcSolverBodyDataENS0_16AlignedAllocatorILj128ENS0_19ReflectionAllocatorIS2_EEEEE6resizeEjRKS2_
KBc:__ZN5physx2Cm12RenderOutputlsEj
Nab:__ZN6Camera34UpdatePreviousViewProjectionMatrixEv
lla:__ZN9ShaderLab11ShaderState25RemoveUnsupportedProgramsEPK6Shader
LXb:__ZL23AddGpuProgramParametersR20GpuProgramParametersRKNSt3__26vectorIN9ShaderLab20SerializedSubProgram15MatrixParameterENS1_9allocatorIS5_EEEERKNS2_INS4_15VectorParameterENS6_ISB_EEEEiP16PropertyNamesSet
Omc:__Z44Register_UnityEngine_Object_DestroyImmediatev
Dfc:__Z47Register_UnityEngine_Component_BroadcastMessagev
Vs:__ZN18StreamedBinaryReadILb0EE21TransferSTLStyleArrayI13dynamic_arrayI4PPtrI6ObjectELj4EEEEvRT_17TransferMetaFlags
SHi:__ZL62_ConstructorBuilder_t1236878896_CustomAttributesCacheGeneratorP21CustomAttributesCache
$bc:__Z26scripting_class_has_parent17ScriptingClassPtrS_
j_f:_Int64_System_IConvertible_ToInt16_m2022633688_AdjustorThunk
w7:__ZN13RuntimeStaticI21AssetReferenceStorageLb0EE16StaticInitializeEPv
SBl:__ZN6il2cpp8metadata25Il2CppGenericClassCompare7CompareEPK18Il2CppGenericClassS4_
fD:__ZNK8Animator20IsInMatchTargetStateEv
fqc:__Z36Register_UnityEngine_GUI_set_changedv
tqh:_Encoding_get_Unicode_m1382741113
G1j:_LifetimeServices_set_SponsorshipTimeout_m1403222216
Pgf:_Char_ToString_m1401375624_AdjustorThunk
rJf:_Array_InternalArray__ICollection_Add_TisTableRange_t2011406615_m147373358_gshared
Fpf:_Convert_ToDateTime_m1251728572
KAj:_AnimationMixerPlayable_op_Explicit_m2834005805
Ecd:__ZN5physx7NpCloth13setTargetPoseERKNS_11PxTransformE
tJf:_Array_InternalArray__ICollection_Add_TisBoolean_t3825574718_m1009318882_gshared
hni:_GUISkin_set_verticalSliderThumb_m2120268044
OQg:_ReadOnlyCollection_1_System_Collections_IList_set_Item_m1149349508_gshared
px:__ZN27AnimationLayerMixerPlayable18SetInputConnectionEP8Playablei
Jrc:__Z42Register_UnityEngine_GUIStyle_get_wordWrapv
$w:__ZN7mecanim28TransformValueArrayBlendNodeEiiiRKNS_10ValueArrayERKNS_14ValueArrayMaskERS0_RS3_RNS_16ValueArrayWeightEf
flh:_ObjectReader_ReadObjectContent_m3949770110
nTj:_Scrollbar_get_stepSize_m244845137
qNj:_Component_SendMessage_m4199581575
YVk:__ZN6il2cpp2vm5Class40GetInterfaceInvokeDataFromVTableSlowPathEPK12Il2CppObjectPK11Il2CppClassj
dlb:__ZN20TierGraphicsSettings8TransferI18StreamedBinaryReadILb0EEEEvRT_
YXj:_Text_get_font_m3115501113
Wel:__GLOBAL__sub_I_Thread_cpp
Ama:__ZN14SafeBinaryRead8TransferINSt3__24pairIN9ShaderLab16FastPropertyNameE10ColorRGBAfEEEEvRT_PKc17TransferMetaFlags
$kh:_ObjectReader_RecordFixup_m1893348030
iRf:_LayoutGroup_SetProperty_TisRuntimeObject_m1703476175_gshared
E5h:__Z49RuntimeInvoker_UIVertex_t1204258818_RuntimeObjectPFvvEPK10MethodInfoPvPS4_
Kcl:__ZN14dense_hash_mapI10KeyWrapperINSt3__24pairIPK12PropertyInfoP11Il2CppClassEEEj17ReflectionMapHashIS8_ENS9_14EqualsComparerINS1_8equal_toIS8_EEEENS1_9allocatorINS2_IKS9_jEEEEE13set_empty_keyERSH_
Kk:_glRenderbufferStorage
lkl:__ZNK15dense_hashtableINSt3__24pairIK10KeyWrapperINS1_IPKcS4_EEEiEES6_24NamespaceAndNamePairHashN14dense_hash_mapIS6_iS9_NS6_14EqualsComparerI26NamespaceAndNamePairEqualsEENS0_9allocatorIS8_EEE9SelectKeyESD_SF_E13find_positionERS7_
Ohc:__Z45Register_UnityEngine_Input_get_touchSupportedv
Dze:__ZN11UnityEngine15PlatformWrapper28GetTextureFormatSupportFlagsEv
bhe:_UNITY_FT_Create_Class_pshinter_module_class
RPe:_String_CompareOrdinalCaseInsensitiveUnchecked_m2002640463
hef:_Boolean_GetHashCode_m1894638460
dme:_cf2_setError
qwb:__ZN14SafeBinaryRead21TransferSTLStyleArrayI13dynamic_arrayI12BoneWeights4Lj16EEEEvRT_17TransferMetaFlags
Jsh:_UTF7Encoding_InternalGetChars_m4157428055
eua:__Z33InterpolateLightProbeCoefficientsRK17LightProbeContextRK29LightProbeSamplingCoordinatesR20SphericalHarmonicsL2
GTa:__ZZ23InitPlayerLoopCallbacksvEN35PreUpdateSendMouseEventsRegistrator7ForwardEv
Nfg:_SmallXmlParser_HandleBufferedContent_m3397096753
EJj:_BoxCollider_INTERNAL_get_center_m3433872495
Hh:_glDisable
r8e:_InputField_OnDeselect_m3963675647
zwe:__Z44Register_UnityEngine_Canvas_get_pixelPerfectv
Jsl:__ZN6il2cpp5utils11StringUtils15StringDuplicateEPKDsj
Mch:_BaseMachine_Scan_m122450399
Ux:__ZN17AnimationPlayable17ProcessRootMotionEP35AnimationPlayableEvaluationConstantP32AnimationPlayableEvaluationInputP33AnimationPlayableEvaluationOutput
Ahf:_ArrayList_CopyTo_m2353632788
iHc:__ZN5physx10getInverseERNS_7PxMat33ERNS_6PxVec3ERKS0_RKS2_
n8:__ZNSt3__26vectorINS_4pairIyP17VertexDeclarationEENS_9allocatorIS4_EEE6assignIPS4_EENS_9enable_ifIXaasr21__is_forward_iteratorIT_EE5valuesr16is_constructibleIS4_NS_15iterator_traitsISB_E9referenceEEE5valueEvE4typeESB_SB_
XEj:_AnimatorControllerPlayable_CrossFade_m3391147919_AdjustorThunk
TUa:__ZNK8Material12GetPassCountEv
enf:_Enumerator__cctor_m3784927209
EPl:b110
OPl:b111
PPl:b112
UGl:_bitshift64Ashr
RPl:b114
WPl:b115
YPl:b117
zCd:__ZN5physx6shdfnd5ArrayIPhNS0_19ReflectionAllocatorIS2_EEE8recreateEj
vHa:__ZN4crnd12crn_unpacker22decode_alpha_endpointsEv
j5a:__Z23CullDynamicObjectsUmbraPK4AABBPKN5Umbra15OcclusionBufferER9IndexList
hSf:_Array_InternalArray__get_Item_TisContactPoint_t1376425630_m3234597783_gshared
Sy:__ZThn148_NK26AnimatorControllerPlayable41GetStateMachineBehaviourVectorDescriptionEv
xbi:_EnumBuilder_MakeByRefType_m3504630835
aje:_tt_cmap4_char_next
RVh:__Z444RuntimeInvoker_Boolean_t3825574718_RuntimeObject_RuntimeObject_RuntimeObject_ColorU26_t3402129837_Int32_t2071877448_Single_t2076509932_Single_t2076509932_Int32_t2071877448_SByte_t454417549_SByte_t454417549_Int32_t2071877448_Int32_t2071877448_Int32_t2071877448_Int32_t2071877448_SByte_t454417549_Int32_t2071877448_Single_t2076509932_Single_t2076509932_Single_t2076509932_Single_t2076509932_SByte_t454417549_SByte_t454417549_UInt32U26_t2197289955PFvvEPK10MethodInfoPvPS4_
Wyk:_GeneralNames_ToString_m800435094
VYe:_BaseMeshEffect_OnDidApplyAnimationProperties_m2484799839
xRe:_ASCIIEncoding_GetString_m3931709239
lzh:_UInt16_Parse_m3560204090
Hyc:__ZN8JSONRead21TransferSTLStyleArrayI13dynamic_arrayIsLj2EEEEvRT_18MemLabelIdentifier17TransferMetaFlags
iM:__ZN4FMOD7Channel11setPositionEjj
yi:_glBindSampler
bSg:_ReadOnlyCollection_1_System_Collections_Generic_ICollectionU3CTU3E_Clear_m964488020_gshared
T2c:__ZN5physx2Sc8BodyCore20clearSpatialVelocityEbb
Ci:_glGetVertexAttribiv
vJf:_Array_InternalArray__ICollection_Add_TisChar_t3454481338_m422084244_gshared
cse:__ZN2UI11CanvasGroup23VirtualRedirectTransferER18StreamedBinaryReadILb0EE
tNd:__ZN5physx2Sc27ConstraintProjectionManagerC2Ev
Pxc:__ZN8JSONRead8TransferIbEEvRT_PKc17TransferMetaFlagsb
sSc:__ZN5physx6shdfnd5ArrayIPvNS0_19ReflectionAllocatorINS_2Sc24ElementInteractionMarkerEEEE4copyINS0_15InlineAllocatorILj256ES6_EEEEvRKNS1_IS2_T_EE
vad:__ZNK5physx7NpShape15getGeometryTypeEv
Xqi:_DefaultValueAttribute_Equals_m3216982933
T8g:_X509KeyUsageExtension_Decode_m3292847033
lYh:__Z52RuntimeInvoker_RaycastResult_t21186376_RuntimeObjectPFvvEPK10MethodInfoPvPS4_
Mfi:_Module_filter_by_type_name_ignore_case_m3574895736
$qb:__ZN26CustomRenderTextureManager19PreAllocateMaterialEP19CustomRenderTexture
Hkh:_ObjectReader_ReadObject_m397855326
Dul:_GC_promote_black_lists
IYh:__Z119RuntimeInvoker_Void_t1841601450_Color_t2020392075_Single_t2076509932_SByte_t454417549_SByte_t454417549_SByte_t454417549PFvvEPK10MethodInfoPvPS4_
V4e:_Image_get_fillAmount_m3354146540
Ayc:__Z29Transfer_Blittable_ArrayFieldI8JSONRead8Vector4fEvRT_R9ArrayInfoRK23StaticTransferFieldInfo
yp:FUNCTION_TABLE_vd
Txh:_Type_GetMethod_m1930231379
Ap:FUNCTION_TABLE_vi
S6:__ZN13RuntimeStaticI37UnityShaderCompilerExtPluginConfigureLb0EE16StaticInitializeEPv
$ac:__ZN10systeminfo24GetRuntimePlatformStringEv
dGd:__ZN5physxL25solveContact4_StaticBlockEPKNS_23PxcSolverConstraintDescERNS_16PxcSolverContextE
bbg:_SimpleCollator_GetContraction_m1391584430
kef:_CultureInfo_get_InvariantCulture_m398972276
Mdf:_Boolean_System_IConvertible_ToInt64_m4142756949_AdjustorThunk
KF:__ZNK8Animator17HasBoundPlayablesEv
kVg:_HMAC_initializePad_m3828610671
fsi:_Mathf_InverseLerp_m55890283
aMc:__ZNK5physx3Cct17CapsuleController15getFootPositionEv
esd:__ZN5physx7NpScene15removeAggregateERNS_11PxAggregateEb
xIe:_RSAParameters_t1462703416_marshal_pinvoke_cleanup
w2k:__ZN6il2cpp2vm7Runtime9SetConfigEPKc
WGj:_AsyncOperation_get_priority_m966065939
za:invoke_iiifiii
Sgl:__ZN6il2cpp2vm9Exception11FromNameMsgEPK11Il2CppImagePKcS6_S6_
Dxh:_Type_internal_from_name_m1506974323
Rn:FUNCTION_TABLE_fiiifii
kGd:__ZN5physx25solveContact_BStaticBlockEPKNS_23PxcSolverConstraintDescEjRNS_16PxcSolverContextE
Z$:__Z14GetTimeManagerv
Chb:__Z12GUIDToStringRK9UnityGUIDPc
nIj:_AudioMixerPlayable_GetAutoNormalizeVolumes_m2199898677_AdjustorThunk
PEc:__ZL4facejjjRN5physx6PxVec3ERKS0_S3_S3_PfRf
$vd:__ZN5physx6shdfnd5ArrayIPNS_2Sc14ConstraintCoreENS0_19ReflectionAllocatorIS4_EEE6resizeEjRKS4_
Gsl:__ZN4utf88internal20is_overlong_sequenceIiEEbjT_
aIj:_AudioMixerPlayable__ctor_m2704850458
Qif:_SynchronizedArrayListWrapper_get_Count_m4104930530
aRd:__ZL18getFrictionPatchesRN5physx26PxcFrictionPatchStreamPairERNS_20PxcCorrelationBufferEPKhjRKNS_11PxTransformES8_f
Z3f:_Stream_Close_m1499612649
Jfc:__Z41Register_UnityEngine_Cursor_get_lockStatev
x0a:__Z14SetupLightmapsRK8Vector4fS1_R17ShaderPassContext
ibl:__ZN14dense_hash_mapI10KeyWrapperIPK14Il2CppAssemblyEPK22Il2CppMonoAssemblyNameN6il2cpp5utils11PointerHashIS2_EENS4_14EqualsComparerINSt3__28equal_toIS3_EEEENSD_9allocatorINSD_4pairIKS4_S7_EEEEE13set_empty_keyERSJ_
yeh:_Interval_get_Empty_m3170923997
NUa:__ZL20InitializeGUIShadersv
c1b:__Z20DestroyObjectDelayedP6Objectf
TZ:__ZN20DynamicHeapAllocatorI17LowLevelAllocatorED0Ev
G7e:_InputField_OnDrag_m726194348
D0d:__ZN8Collider16RecreateColliderEPK9Rigidbody
jcg:_PreviousInfo__ctor_m1442166472_AdjustorThunk
VZa:__ZN9DepthPassD2Ev
iL:__ZN11AudioFilter6GetDSPEv
F7c:__ZN5physx2Sc14ConstraintCore9setBodiesEPNS0_9RigidCoreES3_
a2:__ZN19RuntimeSceneManager14CanUnloadSceneEP10UnityScene
cNh:__Z50RuntimeInvoker_Single_t2076509932_Int64_t909078037PFvvEPK10MethodInfoPvPS4_
YZa:__Z22ExtractRenderNodeQueueRK11CullResults15ExtractionFlagsR15RenderNodeQueue
DNf:_Array_InternalArray__set_Item_TisContentType_t1028629049_m703420360_gshared
SAg:_List_1_set_Item_m1431784996_gshared
V6d:__ZN5physx6shdfnd8PoolBaseINS_24NpPtrTableStorageManager8PtrBlockILi64EEENS0_19ReflectionAllocatorIS4_EEE12allocateSlabEv
wK:__ZN24AudioScriptBufferManagerC2Ev
Kzc:__ZN11UnityEngine9Analytics18SceneLoadTimeEvent12ToJsonStringER9JSONWrite
Yde:__ZNSt3__26vectorIh13stl_allocatorIhL18MemLabelIdentifier1ELi16EEE8__appendEj
OGh:__Z95RuntimeInvoker_Void_t1841601450_RuntimeObject_Int32_t2071877448_Int32_t2071877448_RuntimeObjectPFvvEPK10MethodInfoPvPS4_
gef:_Boolean_Equals_m294106711_AdjustorThunk
$de:__ZN20TextRenderingPrivate8FontImpl16ResetPackingDataEv
Vvh:_TimeSpan_get_Hours_m3804628138_AdjustorThunk
gIf:_Array_InternalArray__IndexOf_TisLink_t865133271_m3612939760_gshared
Xtc:__Z18Transfer_BlittableI9JSONWriteLb0EfEvRK29SerializationCommandArgumentsR31RuntimeSerializationCommandInfo
zia:__Z21GetAsyncUploadManagerv
mk:_emscripten_glDetachShader
gYf:_Int16_System_IConvertible_ToInt64_m733340257
iag:_SafeHandleZeroOrMinusOneIsInvalid_get_IsInvalid_m2033528032
Bgf:_Char_IsUpper_m4083577610
IGa:__ZN17GenericDynamicVBO20ReleaseChunkInternalERK21DynamicVBOChunkHandlejj
Lqe:__ZL27CleanupModule_TextRenderingv
hag:_SafeHandleZeroOrMinusOneIsInvalid__ctor_m3340306667
vDl:_fmodl
jih:_SerializationInfo_AddValue_m902275108
JDl:_fmodf
UPc:__ZN5physx6shdfnd5ArrayIPNS_3Scb5ActorENS0_19ReflectionAllocatorIS4_EEE6resizeEjRKS4_
Hja:__ZN12CachedWriter11Align4WriteEv
$_a:__Z20DoDeferredRenderLoopR17RenderLoopContextR13dynamic_arrayI16RenderObjectDataLj4EES4_RK11CullResultsRP13RenderTextureSA_Pb
Uxa:__ZN19RuntimeSceneManager11CreateSceneEv
qle:_ps_get_standard_strings
AFg:_Collection_1_IsValidItem_m1908012838_gshared
Z0a:__Z27SetupBakedOcclusionForLightbRK15SharedLightDataR17ShaderPassContext
fAl:__ZN6il2cpp2os5Mutex6UnlockEv
J8c:__ZN5physx7NpScene14removeMaterialERNS_10NpMaterialE
cWc:__ZN5physx16PxsIslandManager24setEdgeArticulationJointERKNS_20PxsIslandManagerHookIjLj4294967295EEE
xDj:_AnimatorControllerPlayable_GetLayerWeight_m1435294989
kVj:_ScrollRect_OnScroll_m3346515304
L2c:__ZN5physx2Sc10NPhaseCore25addToDirtyInteractionListEPNS0_15CoreInteractionE
yng:_Enumerator_System_Collections_IEnumerator_get_Current_m3461301268_gshared
Zrj:_Dictionary_2_CopyToCheck_m1638253305_gshared
FVa:__Z18RenderImageFiltersR10RenderLoopb
B_:__Z19free_alloc_internalPv18MemLabelIdentifier
hve:__Z43CanvasRenderer_Get_Custom_PropMaterialCountP12Il2CppObject
Q8a:__ZN10GameObjectD2Ev
gNg:_ReadOnlyCollection_1_System_Collections_Generic_IListU3CTU3E_set_Item_m25653560_gshared
fSd:__ZN5physx2Cm12DelegateTaskINS_2Sc5SceneEXadL_ZNS3_19islandGenSecondPassEPNS_10PxBaseTaskEEEE11runInternalEv
Pgj:__ZL68Selectable_t1490392188_CustomAttributesCacheGenerator_m_InteractableP21CustomAttributesCache
SMj:_Color32_op_Implicit_m889975790
Nbc:__ZN19RuntimeSceneManager32LoadSceneAsyncByNameOrBuildIndexERKN4core12basic_stringIcNS0_20StringStorageDefaultIcEEEEiNS_11LoadingModeEb
nji:_UnityEventBase_RebuildPersistentCallsIfNeeded_m1583202007
b8c:__ZN5physx6shdfnd4sortIPvNS0_4LessIS2_EENS0_19ReflectionAllocatorINS_10NpMaterialEEEEEvPT_jRKT0_RKT1_j
kXg:_CertificateSelectionCallback_Invoke_m2902629105
R7:__ZN10InputEventD2Ev
$wk:_Vector2_ToString_m775491729_AdjustorThunk
AUf:_NumberFormatter_Append_m3268121457
iEe:__ZN22UnityWebRequestManagerD2Ev
gIe:_RSA_ToXmlString_m4145056574
Gyf:_Double_System_IConvertible_ToUInt64_m1318285078_AdjustorThunk
gNc:__ZN5physx3Cct15ObstacleContext13onOriginShiftERKNS_6PxVec3E
aDl:_isalpha
NHj:_AudioClipPlayable_SetStartDelayInternal_m1268437955
Vqd:__ZN5physx6shdfnd8PoolBaseINS_2Gu31SpherePersistentContactManifoldENS0_19ReflectionAllocatorIS3_EEE12allocateSlabEv
AWc:__ZN5physx6shdfnd5ArrayIPNS_2Sc7BodySimENS0_19ReflectionAllocatorIS4_EEE8recreateEj
l4k:_il2cpp_object_unbox
STj:_Selectable_FindSelectable_m2739582497
G4e:_LayoutGroup_GetAlignmentOnAxis_m1783063916
ztf:_DateTimeUtils_ZeroPad_m86470512
uxi:_ScriptPlayableOutput_get_Null_m2995109571
XAj:_AnimationOffsetPlayable_Equals_m3411254421
s0k:__ZN6il2cpp2vmL17IsSocketAsyncCallEP14Il2CppDelegate
VJj:_Camera_get_clearFlags_m1743144302
tri:_Logger_IsLogTypeAllowed_m1750132386
csl:__ZN6il2cpp2vm6String6NewLenEPKcj
njb:__ZN6Camera23VirtualRedirectTransferER19StreamedBinaryWriteILb0EE
Cl:_time
nRc:__ZNK5physx2Sc8ShapeSim15getPxsRigidCoreEv
u3e:_Graphic_UnregisterDirtyLayoutCallback_m1724443555
rSc:__ZN5physx2Sc20ContactStreamManager28fillInContactReportExtraDataEPNS_17PxContactPairPoseEjRKNS0_8RigidSimEb
Mme:_cf2_stack_free
Fdd:__ZN5physx7NpCloth23removeCollisionTriangleEj
oCj:_AnimatorControllerPlayable_GetBool_m217461036_AdjustorThunk
Tv:__ZN7mecanim9animation19EvaluateFloatValuesEPKNS0_18ClipMuscleConstantEPKNS_18ValueArrayConstantEPKNS0_12ClipBindingsEPKNS0_10ClipOutputEPNS0_18AnimationNodeStateEfbb
A2:__ZN15dense_hashtableINSt3__24pairIKiP6ObjectEEi21InstanceIDHashFunctorN14dense_hash_mapIiS4_S6_NS0_8equal_toIiEE13stl_allocatorIS5_L18MemLabelIdentifier65ELi16EEE9SelectKeyES9_SC_E12resize_deltaEjj
KD:__ZN8Animator31ClearInternalControllerPlayableEv
QCj:_AnimatorControllerPlayable_SetTrigger_m4033120343_AdjustorThunk
LCh:_WeakReference_Finalize_m3318354542
bog:_Enumerator_VerifyState_m3913376581_gshared
iEd:__ZNK5physx2Gu29EPASupportMapPairRelativeImplINS0_9TriangleVENS0_11ConvexHullVEE9doSupportERKNS_6shdfnd3aos5Vec3VERS7_SA_SA_
a7k:__ZN15dense_hashtableINSt3__24pairIK10KeyWrapperINS1_IPK9FieldInfoP11Il2CppClassEEEjEES9_17ReflectionMapHashIS8_EN14dense_hash_mapIS9_jSD_NS9_14EqualsComparerINS0_8equal_toIS8_EEEENS0_9allocatorISB_EEE9SelectKeyESI_SK_E4findERSA_
URl:_glDeleteSync__wrapper
dqf:_Decimal_op_Implicit_m623319612
Ioj:_ValueCollection_System_Collections_Generic_ICollectionU3CTValueU3E_Remove_m98888100_gshared
nUe:_EventTrigger_OnPointerExit_m2119176877
aua:__ZNK9Transform21GetLocalToWorldMatrixEv
Tuh:_ThreadAbortException__ctor_m1623816114
S1b:__ZN13ProduceHelperI30RuntimeInitializeOnLoadManagerLb0EE7ProduceE18MemLabelIdentifier18ObjectCreationMode
n7a:__ZN13RenderTexture19SetAutoGenerateMipsEb
Eoa:__Z20GetTextureFormatInfo13TextureFormat
Hrc:__Z43Register_UnityEngine_GUIStyle_get_alignmentv
j4b:__Z40InitializeLightAnimationBindingInterfacev
lJh:__Z119RuntimeInvoker_RuntimeObject_RuntimeObject_RuntimeObject_Int32_t2071877448_Int32_t2071877448_MonoIOErrorU26_t1029615899PFvvEPK10MethodInfoPvPS4_
Dy:__ZN26AnimatorControllerPlayable8GetFloatEiRf
SEf:_PlayableHandle_IsPlayableOfType_TisRuntimeObject_m4111068959_gshared
$Dj:_AnimatorControllerPlayable_GetCurrentAnimatorClipInfoCount_m3938711391
WRj:_Shadow__ctor_m924057531
$Ve:_PointerEventData_set_worldPosition_m192283671
dJl:dynCall_iiifiiii
_vk:_Vector3_get_right_m1884123822
wyl:__ZN6il2cpp5utils10MemoryPool6MallocEj
RJ:__ZN11SoundHandle8InstanceD2Ev
cba:__ZN31CanvasBatchIntermediateRenderer13StaticDestroyEPv
ZBk:_X509Store_BuildCrlsCollection_m52567568
Xtd:__ZN5physx13NpVolumeCache13onOriginShiftERKNS_6PxVec3E
G1g:_RecordProtocol_InternalSendRecordCallback_m3984764857
Aud:__ZNK5physx2Sc5Scene20getBroadPhaseRegionsEPNS_22PxBroadPhaseRegionInfoEjj
sic:__Z29Mesh_CUSTOM_RecalculateBoundsP12Il2CppObject
pzf:_Enum_ToString_m662345249
lSh:__Z150RuntimeInvoker_Single_t2076509932_Single_t2076509932_Single_t2076509932_SingleU26_t4173844468_Single_t2076509932_Single_t2076509932_Single_t2076509932PFvvEPK10MethodInfoPvPS4_
Gfc:__Z41Register_UnityEngine_CullingGroup_Disposev
N4c:__ZN5physx14NpShapeManagerD2Ev
Spb:__ZN7Cubemap23VirtualRedirectTransferER19StreamedBinaryWriteILb0EE
tQa:__ZN25MultiBlocksMemoryFileData5WriteEyyPKv
mwg:_List_1_System_Collections_IList_Add_m4271264217_gshared
ecl:__ZN14dense_hash_mapI10KeyWrapperIPK10Il2CppTypeEjN6il2cpp8metadata14Il2CppTypeHashENS4_14EqualsComparerINS6_26Il2CppTypeEqualityComparerEEENSt3__29allocatorINSB_4pairIKS4_jEEEEE13set_empty_keyERSE_
tfc:__Z35Component_CUSTOM_SendMessageUpwardsP12Il2CppObjectP12Il2CppStringS0_i
CIa:__ZL17ProgramUniform2fvPK7ApiGLESjiihPKv
CNl:b83
a4c:__ZN5physx2Sc5Scene16removeConstraintERNS0_14ConstraintCoreE
Tde:__ZN20TextRenderingPrivate8FontImpl21HasCharacterInTextureEjijfPj
wEl:_htonl
eEa:__Z20GetBufferManagerGLESv
_Rb:__ZN18StreamedBinaryReadILb0EE21TransferSTLStyleArrayI31ArrayOfManagedObjectsTransfererEEvRT_17TransferMetaFlags
Sxd:__ZN5physx2Sc18ParticleSystemCore18addDeltaVelocitiesERKNS_2Cm10BitMapBaseINS_6shdfnd9AllocatorEEEPKNS_6PxVec3Ef
Ush:_UTF7Decoder_GetChars_m2790530452
Pwc:__Z18Transfer_BlittableI8JSONReadLb0EtEvRK29SerializationCommandArgumentsR31RuntimeSerializationCommandInfo
LOd:__ZN5physx6shdfnd8PoolBaseINS_2Sc16ActorElementPairENS0_19ReflectionAllocatorIS3_EEE12allocateSlabEv
Zfj:__ZL68Navigation_t1571958496_CustomAttributesCacheGenerator_m_SelectOnLeftP21CustomAttributesCache
l9c:__ZNK5physx9NpPhysics17getNbClothFabricsEv
kz:__ZN34AnimationStateMachineMixerPlayable13EndTransitionEv
zsl:__ZNSt3__212basic_stringIDsNS_11char_traitsIDsEENS_9allocatorIDsEEE9__grow_byEjjjjjj
NL:__ZN12AudioManager21FixMasterGroupRoutingEv
kKe:_SymmetricAlgorithm_set_Key_m2973350820
zch:_X509KeyUsageExtension_GetValidFlags_m1346045110
W7g:_WebHeaderCollection_IsHeaderValue_m1723393133
REf:_ExecuteEvents_ShouldSendToComponent_TisRuntimeObject_m2998351876_gshared
dlf:_Hashtable__ctor_m4280223555
rHh:__Z69RuntimeInvoker_Boolean_t3825574718_Int32_t2071877448_SByte_t454417549PFvvEPK10MethodInfoPvPS4_
Ipl:__ZN6il2cpp2os10ThreadImpl33UnregisterCurrentThreadForCleanupEv
zZd:__ZL10UpdateLinkjjjjPN5physx11AdjTriangleERKNS_17ADJACENCIESCREATEE
sx:__ZN27AnimationLayerMixerPlayable22PrepareAnimationEventsEfR13dynamic_arrayI22AnimationClipEventInfoLj4EE
VUc:__ZN5physx2Sc16InteractionScene19registerInteractionEPNS0_11InteractionEb
dGb:__Z18Transfer_BlittableI14SafeBinaryReadLb1E4AABBEvRK29SerializationCommandArgumentsR31RuntimeSerializationCommandInfo
IFd:__ZN5physx19solveContactCoulombERKNS_23PxcSolverConstraintDescERNS_16PxcSolverContextE
Hqi:_Input_INTERNAL_get_mouseScrollDelta_m1140491498
q9:__Z22CreateMutexLockedQueue18MemLabelIdentifier
fSc:__ZNK5physx2Sc9ActorPair23createContactReportDataEv
CK:__ZN9AudioClip7WWWOpenEPKciPjPPvS4_
T1c:__ZN5physx18NpArticulationLink18setAngularVelocityERKNS_6PxVec3Eb
YFb:__Z18Transfer_BlittableI14SafeBinaryReadLb0E8Vector2fEvRK29SerializationCommandArgumentsR31RuntimeSerializationCommandInfo
zNf:_Array_InternalArray__set_Item_TisPlayableBinding_t2498078091_m2071396616_gshared
f5f:_SynchronizedReader_Peek_m282642073
TUb:__ZN15SerializeTraitsIN9ShaderLab20SerializedSubProgram16TextureParameterEE8TransferI14SafeBinaryReadEEvRS2_RT_
Nef:_Byte_System_IConvertible_ToInt16_m1575115635_AdjustorThunk
xAd:__ZN5physx6shdfnd8PoolBaseINS_2Sc19ShapeInstancePairLLENS0_19ReflectionAllocatorIS3_EEE15disposeElementsEv
dIc:__ZN5physx2Gu14sweepTriSphereERKNS_10PxTriangleERKNS_6PxVec3ES6_fS6_Rf
Abg:_SimpleCollator_CompareQuick_m619038530
z3g:_SslStreamBase_EndRead_m1072850679
yAe:__ZThn1044_N18UnityConnectClientD0Ev
Qd:_SDL_GetTicks
vjg:_X509CertificateEnumerator_System_Collections_IEnumerator_get_Current_m1643583406
Cte:__ZN2UI14CanvasRenderer11SyncCullingENS0_8SyncFlagE
V8k:__ZN15dense_hashtableINSt3__24pairIK10KeyWrapperINS1_IPK11Il2CppImageP11Il2CppClassEEEjEES9_17ReflectionMapHashIS8_EN14dense_hash_mapIS9_jSD_NS9_14EqualsComparerINS0_8equal_toIS8_EEEENS0_9allocatorISB_EEE9SelectKeyESI_SK_E6insertERKSB_
O4a:__Z21CreateShadowCullerJobP30CreateUmbraShadowCullerJobData
Kdd:__ZNK5physx7NpCloth21getNbVirtualParticlesEv
vRd:__ZN5physx17PxcNpMemBlockPool23releaseConstraintBlocksERNS_6shdfnd5ArrayIPNS_13PxcNpMemBlockENS1_19ReflectionAllocatorIS4_EEEE
uIa:__ZL18ProgramUniform2uivPK7ApiGLESjiihPKv
qQl:_glUniform4iv__wrapper
O1a:__Z33GenerateShadowCasterPartsSortDataRK16ShadowCasterDatajRK15RenderNodeQueueRKNSt3__26vectorI20ShadowCasterPartData13stl_allocatorIS7_L18MemLabelIdentifier2ELi16EEEERK10Matrix4x4fRjP20ShadowCasterSortData
Stj:_Dictionary_2_ToTKey_m4209561517_gshared
O2c:__ZN5physx2Sq17SceneQueryManager13markForUpdateEPNS0_10ActorShapeE
Zle:_cf2_computeDarkening
eZ:__GLOBAL__sub_I_runtime_gfxdevice_lump_cpp
XGj:_AsyncOperation_set_priority_m3581020444
Zul:_GC_expand_hp_inner
Sll:__ZNK15dense_hashtableI10KeyWrapperIP18Il2CppGenericClassES3_N6il2cpp8metadata22Il2CppGenericClassHashEN14dense_hash_setIS3_S6_NS3_14EqualsComparerINS5_25Il2CppGenericClassCompareEEENSt3__29allocatorIS3_EEE8IdentityESA_SD_E12test_deletedEj
ghc:__Z25Screen_Get_Custom_PropDpiv
W3e:_GridLayoutGroup_get_spacing_m1909275195
vsl:__ZN4utf812find_invalidIPKcEET_S3_S3_
qch:_X509ExtensionCollection_System_Collections_ICollection_CopyTo_m3421329346
rul:_GC_err_printf
Kbi:_FieldBuilder_SetValue_m3109503557
F2e:_Graphic_OnBeforeTransformParentChanged_m1866292273
hah:_X509Certificate2_Verify_m1574874641
IW:__ZN11UnityEngine15CloudWebService20WebRequestRestClient7PrepareEv
pdj:__ZL58PhysicsRaycaster_t249603239_CustomAttributesCacheGeneratorP21CustomAttributesCache
Hde:__ZN20TextRenderingPrivate19NativeTextGenerator23FixLineHorizontalOffsetEiii
Ymf:_SortedList_GetEnumerator_m1318483481
hbf:_Array_CreateInstance_m3327690220
vA:__ZN7mecanim9animation19DestroyAnimationSetEPNS0_12AnimationSetERNS_6memory9AllocatorE
jLl:_emscripten_glDepthRange__wrapper
Fdb:__ZN16MemoryFileSystem4OpenER13FileEntryData14FilePermission16FileAutoBehavior
Raa:__ZN13RuntimeStaticI13RendererSceneLb0EE13StaticDestroyEPv
nLb:__Z18Transfer_BlittableI24GenerateTypeTreeTransferLb1E12PropertyNameEvRK29SerializationCommandArgumentsR31RuntimeSerializationCommandInfo
h4b:__ZN5Light15InitializeClassEv
_zb:__ZN14SafeBinaryRead21TransferSTLStyleArrayI10vector_mapIPKN5Unity4TypeE7Hash128NSt3__24lessIS5_EENS7_9allocatorINS7_4pairIS5_S6_EEEEEEEvRT_17TransferMetaFlags
BK:__ZN9AudioClip18GetQueuedAudioDataEPPvj
zqe:__ZN20TextRenderingPrivate21TextMeshGeneratorImpl14GarbageCollectEv
l9b:__ZNK9Texture2D17CheckHasPixelDataEv
Idd:__ZNK5physx7NpCloth16getCollisionDataEPNS_22PxClothCollisionSphereEPjPNS_21PxClothCollisionPlaneES3_PNS_24PxClothCollisionTriangleE
EZa:__Z18SetShadowsKeywordsR17ShaderPassContext9LightType10ShadowType16ShadowProjectionbb
Jcl:__ZN14dense_hash_mapI10KeyWrapperINSt3__24pairIPK12PropertyInfoP11Il2CppClassEEEj17ReflectionMapHashIS8_ENS9_14EqualsComparerINS1_8equal_toIS8_EEEENS1_9allocatorINS2_IKS9_jEEEEEC2EjRKSB_RKSF_
Y3b:__ZN17CollisionMeshDataC2Ev
f7h:_Assembly_GetModule_m2064378601
Iik:_Regex_get_RightToLeft_m529734879
NUj:_ScrollRect_SetDirty_m93243192
aBd:__ZN5physx2Sq11PruningPool11preallocateEj
grb:__ZN16LightmapSettings23VirtualRedirectTransferER19StreamedBinaryWriteILb0EE
XTa:__ZZ23InitPlayerLoopCallbacksvEN47PostLateUpdateMemoryFrameMaintenanceRegistrator7ForwardEv
Dp:FUNCTION_TABLE_viiififii
Kvl:_GC_push_next_marked
eui:_MessageTypeSubscribers__ctor_m743474932
Qwa:__ZN18IDCollectorFunctor18GenerateInstanceIDEi17TransferMetaFlags
GMf:_Array_InternalArray__set_Item_TisTableRange_t2011406615_m2386708730_gshared
LUf:_NumberFormatter_ToDecHex_m1474793296
vHj:_AudioClipPlayable_SetClipInternal_m3129974269
n3c:__ZN5physx2Sc17ParticleSystemSim15onRbShapeChangeERKNS0_19ParticlePacketShapeERKNS0_8ShapeSimE
Ueb:__ZN14StackAllocatorD0Ev
sfl:__ZN6il2cpp2vm6Thread8SetStateEP12Il2CppThreadNS0_11ThreadStateE
e2e:_FontData_set_richText_m29558601
ivh:_Scheduler_Change_m4063588742
lSd:__ZN5physx27updateIslandsSecondPassMainEjRNS_2Cm10BitMapBaseINS_6shdfnd9AllocatorEEEPKjjRNS_11NodeManagerERNS_11EdgeManagerERNS_13IslandManagerERNS_23ArticulationRootManagerERNS_33ProcessSleepingIslandsComputeDataERNS_30IslandManagerUpdateWorkBuffersEPNS0_13EventProfilerE
Obk:_InternalEnumerator_1_get_Current_m1550231132_gshared
gE:__ZN8Animator8TransferI19StreamedBinaryWriteILb0EEEEvRT_
Xsk:_HitInfo_SendMessage_m3368777144_AdjustorThunk
ljc:__Z22PlayableValidityChecksRK9HPlayableb
eBb:__ZN15ResourceManagerD2Ev
Wug:_List_1_Insert_m2532850849_gshared
lfc:__Z41Register_UnityEngine_Camera_GetAllCamerasv
PGe:_RC2Transform__ctor_m492910827
Ssi:_Mesh_get_vertices_m626989480
sRj:_MaskableGraphic_OnCanvasHierarchyChanged_m2012659245
pHa:__ZN4crnd12crn_unpacker10unpack_dxnEPPhjjjjjj
uBe:__ZN28PerformanceReportingSettings8TransferI14SafeBinaryReadEEvRT_
yqf:_Double_Parse_m2344589511
kMh:__Z78RuntimeInvoker_Boolean_t3825574718_IntPtr_t_Int32_t2071877448_SByte_t454417549PFvvEPK10MethodInfoPvPS4_
y8c:__ZN5physx10NpMaterial17resolveReferencesERNS_24PxDeserializationContextE
Igl:__ZN6il2cpp2vm22EmbeddedResourceRecordC2ERKS1_
$Cj:_AnimatorControllerPlayable_INTERNAL_CALL_ResetTriggerID_m1182483253
Npb:__ZN9Texture2D13AwakeFromLoadE17AwakeFromLoadMode
Tag:_MSCompatUnicodeTableUtil__cctor_m1479836795
Xmk:_PositionAssertion__ctor_m3703837499
t9e:_LayoutGroup_get_minWidth_m4111745491
I4f:_StreamWriter_Initialize_m1707678624
Nnl:__ZN6il2cpp2vm3RCW14QueryInterfaceILb0EEEP14Il2CppIUnknownP15Il2CppComObjectRK10Il2CppGuid
GUj:_ScrollRect_set_verticalScrollbar_m2903688658
Npa:__ZN6prcoreL17RemapGenericFloatI15TexFormatRFloat18TexFormatARGBFloatEEvPKNS_9InnerInfoE
fIi:__ZL50_Thread_t1894135853_CustomAttributesCacheGeneratorP21CustomAttributesCache
C7c:__ZN5physx7NpActor15removeConnectorERNS_7PxActorENS_15NpConnectorType4EnumEPNS_6PxBaseEPKc
eak:_InternalEnumerator_1_get_Current_m1047712960_gshared
sJd:__ZN5physx19ActorAABBUpdateTask11runInternalEv
aZ:__GLOBAL__sub_I_runtime_camera_renderlayers_lump_cpp
lSf:_Array_InternalArray__get_Item_TisPlayableBinding_t2498078091_m3248833039_gshared
LAe:__ZN11UnityEngine15PlatformWrapper20GetPlayerPrefsUInt64ERKN4core12basic_stringIcNS1_20StringStorageDefaultIcEEEEy
m1a:__ZN20ReflectionProbeCacheC2ER13BatchRendererR15RenderLoopStats
Dba:__ZN18AssetBundleManagerC2Ev
IRa:__ZNK12HandlerChain6ExistsERK13FileEntryData
xSd:__ZN5physx10PxsContext28runModifiableContactManagersEv
Wqf:_Convert_ToInt32_m2734833291
d2a:__Z30FindDirectAttenuationFromProbeP18ForwardLightsBlockbiRK10RenderNodeRK23FindForwardLightsParamsf
ezb:__ZN12InputManager23VirtualRedirectTransferER24GenerateTypeTreeTransfer
MZb:__ZN9Transform23VirtualRedirectTransferER24GenerateTypeTreeTransfer
QOd:__ZN5physx21PxsBodyTransformVault7addBodyERKNS_11PxsBodyCoreE
foc:__ZN12GUIClipState10BeginOnGUIER10InputEvent
$Xb:__ZNSt3__26vectorIN9ShaderLab20SerializedSubProgram12UAVParameterENS_9allocatorIS3_EEE21__push_back_slow_pathIKS3_EEvRT_
Fed:__ZN5physx6shdfnd5ArrayINS_35PxClothParticleSeparationConstraintENS0_19ReflectionAllocatorIS2_EEE6resizeEjRKS2_
$bh:_X509ChainElement_Count_m228862214
Twh:_TimeZone_IsDaylightSavingTime_m1840774423
Foe:_UNITY_tt_size_ready_bytecode
qce:__ZN13TextRendering4FontD2Ev
fDh:__Z47RuntimeInvoker_Single_t2076509932_RuntimeObjectPFvvEPK10MethodInfoPvPS4_
weh:_Interval__ctor_m160053574
lfe:_UNITY_FT_Stream_Open
_Wh:__Z97RuntimeInvoker_Int32_t2071877448_IntPtr_t_RectU26_t844847526_RuntimeObject_Vector2U26_t3911752445PFvvEPK10MethodInfoPvPS4_
Ese:__GLOBAL__sub_I_runtime_ui_lump_cpp
CQa:__ZN10MemoryFile4ReadEyyPvPy
oAa:__ZN13GfxDeviceGLES26UpdateViewProjectionMatrixEv
yrj:_Dictionary_2_ContainsKeyValuePair_m1750905675_gshared
f_h:__Z53RuntimeInvoker_RaycastHit2D_t4063908774_RuntimeObjectPFvvEPK10MethodInfoPvPS4_
x4b:__ZZL23RegisterLightPropertiesR22GenericPropertyBindingEN22Wrapper_LightIntensity13SetFloatValueEPvf
fJ:__ZN4FMOD3DSP12setParameterEif
sfa:__ZN13MemoryManager16StaticInitializeEv
TDi:__ZL53StackFrame_t2050294881_CustomAttributesCacheGeneratorP21CustomAttributesCache
Wf:___cxa_free_exception
cRg:_ReadOnlyCollection_1_System_Collections_ICollection_CopyTo_m4126742951_gshared
TM:__ZN4FMOD22FakeModChannelCallbackEPv
ag:_emscripten_glValidateProgram
MVf:_NumberFormatInfo_get_InvariantInfo_m2658215204
D4e:_HorizontalOrVerticalLayoutGroup_set_childControlWidth_m4209477792
bal:__ZN6il2cpp2gc19AppendOnlyGCHashMapINSt3__24pairIPK9EventInfoP11Il2CppClassEEP21Il2CppReflectionEvent17ReflectionMapHashIS9_ENS2_8equal_toIS9_EEE3AddERKS9_SB_
cGd:__ZN5physx36solveContactPreBlock_WriteBackStaticEPKNS_23PxcSolverConstraintDescEjRNS_16PxcSolverContextEPNS_25PxcThresholdStreamElementEjPi
ytk:_Sprite_get_associatedAlphaSplitTexture_m3617241169
Wjh:_ArrayFixupRecord_FixupImpl_m2377725358
B9b:__ZN17CollisionMeshData21GetSharedNxConvexMeshER4Mesh
vme:_cf2_stack_clear
cIl:dynCall_viiiiiiiiiiiiiiiiiiiiiiiiiiiiiiiiii
gyf:_Double_System_IConvertible_ToBoolean_m4251806534_AdjustorThunk
hmj:_ShimEnumerator_Reset_m2247049027_gshared
Chl:__ZN6il2cpp6icalls8mscorlib6System4Type27get_IsGenericTypeDefinitionEP20Il2CppReflectionType
o7a:__ZN7Texture13SetAnisoLevelEi
sah:_X509Chain_Process_m2508784250
Lzg:_List_1_RemoveAt_m2929488689_gshared
Tzc:__ZN27PerformanceReportingManager23VirtualRedirectTransferER24GenerateTypeTreeTransfer
Age:_raccess_guess_vfat
owe:__Z44Canvas_CUSTOM_GetETC1SupportedCanvasMaterialv
u9:__ZN33InstancedMeshIntermediateRenderer13StaticDestroyEPv
FYf:_Int16_Parse_m3012618547
Dsd:__ZN5physx7NpScene26setSimulationEventCallbackEPNS_25PxSimulationEventCallbackEh
Til:__ZN14dense_hash_mapI10KeyWrapperIP14Il2CppIUnknownEjN6il2cpp5utils11PointerHashIS1_EENS3_14EqualsComparerINSt3__28equal_toIS2_EEEENS9_9allocatorINS9_4pairIKS3_jEEEEE13set_empty_keyERSF_
HJh:__Z50RuntimeInvoker_Void_t1841601450_OpCode_t2247480392PFvvEPK10MethodInfoPvPS4_
Rnf:_Convert__cctor_m926133987
Pjb:__Z21DestroyShadowMapCacheP14ShadowMapCache
Yx:__ZN7mecanim9animation25CreateControllerWorkspaceEPKNS0_18ControllerConstantERNS_6memory9AllocatorE
vmg:_Enumerator_VerifyState_m739025304_gshared
l0e:_Graphic_RegisterDirtyVerticesCallback_m4169445219
hcl:__ZN15dense_hashtableINSt3__24pairIK10KeyWrapperIPK10Il2CppTypeEjEES6_N6il2cpp8metadata14Il2CppTypeHashEN14dense_hash_mapIS6_jSB_NS6_14EqualsComparerINSA_26Il2CppTypeEqualityComparerEEENS0_9allocatorIS8_EEE9SelectKeyESF_SH_E14squash_deletedEv
Shl:__ZN6il2cpp2vm13LivenessState5ResetEv
cRc:__ZN5physx6shdfnd4sortIPvNS0_4LessIS2_EENS0_19ReflectionAllocatorINS_2Sc16ActorElementPairEEEEEvPT_jRKT0_RKT1_j
nrk:_Transform_get_parent_m147407266
m_h:__Z138RuntimeInvoker_Void_t1841601450_RuntimeObject_Color32_t874517518_Int32_t2071877448_Int32_t2071877448_Single_t2076509932_Single_t2076509932PFvvEPK10MethodInfoPvPS4_
Wsc:__ZN9JSONWrite8TransferI11KeyframeTplIfEEEvRT_PKc17TransferMetaFlags
VXj:_Text_get_cachedTextGenerator_m224335893
_ji:_GameObject_GetComponent_m306258075
EZd:__ZN5physx2Gu15EdgeListBuilder18ComputeActiveEdgesEjPKjPKtPKNS_6PxVec3Ef
WOa:__ZN24BuiltinShaderParamValuesC2Ev
Ntc:__ZL41CreateJSONTransferFunctionScriptingTraitsv
Xqd:__ZN5physx17PxsContactManagerC2EPNS_10PxsContextEj
L1f:_FileStream_get_CanWrite_m775322953
wyj:_CustomEventData_InternalCreate_m4162294919
fUa:__Z23GetLateBehaviourManagerv
Ube:__Z46Register_UnityEngine_SphereCollider_get_radiusv
rOc:__ZN5physx6shdfnd5ArrayIPNS_7PxShapeENS0_15InlineAllocatorILj64ENS0_19ReflectionAllocatorIS3_EEEEE6resizeEjRKS3_
d6:__ZN10MemoryPool10DeallocateEPv
cCf:_CultureInfo_set_NumberFormat_m1618950525
DVf:_NumberFormatInfo__ctor_m2752806684
KYe:_CanvasUpdateRegistry_get_instance_m862315367
ADc:__ZN5physx6shdfnd19optimizeBoundingBoxERNS_7PxMat33E
Fjk:_PatternCompiler_EmitFastRepeat_m1175707353
CRf:_Array_InternalArray__get_Item_TisKeyValuePair_2_t3716250094_m3120861630_gshared
lge:_cff_driver_class_pic_free
oEd:__ZN5physx2Gu22gjkRelativePenetrationINS0_9TriangleVENS0_10ShrunkBoxVEEEjRKT_RKT0_RKNS_6shdfnd3aos15PsMatTransformVERKNSB_6FloatVERNSB_5Vec3VESJ_SJ_RSF_PhSL_Rh
rzh:_UInt32_TryParse_m3987111861
gzc:__ZNK9rapidjson12GenericValueINS_4UTF8IcEE13JSONAllocatorE6AcceptINS_6WriterI16TempBufferWriterS2_S2_S3_EEEEbRT_
PIl:dynCall_vif
QIl:dynCall_vid
YNj:_Native_CSSNodeGetMeasureFunc_m3825031950
Ftg:_List_1_System_Collections_IList_get_Item_m3989815218_gshared
SIl:dynCall_vii
mpf:_DateTime__ctor_m3604679583
PRb:__Z18Transfer_BlittableI18StreamedBinaryReadILb0EELb0EdEvRK29SerializationCommandArgumentsR31RuntimeSerializationCommandInfo
Wik:_Enumerator_System_Collections_IEnumerator_MoveNext_m3313126804
IZa:__ZNK17InstancedPropInfo14IsInstanceableERK19ShaderPropertySheet
$fb:__ZN5Unity9Component16CheckConsistencyEv
HYe:_LayoutRebuilder_ValidController_m2595049322
lJa:__ZN7ApiGLES11CheckShaderERjb
dha:__ZN19ShaderPropertySheet37CreateTextureAuxPropertyUninitializedEN9ShaderLab16FastPropertyNameES1_PKc
Jqk:_RectTransform_set_anchoredPosition_m2077229449
qNb:__ZL26Transfer_SimpleNativeClassI19StreamedBinaryWriteILb0EE10RectOffsetLb1EEvRK29SerializationCommandArgumentsR31RuntimeSerializationCommandInfo
BRf:_Array_InternalArray__get_Item_TisKeyValuePair_2_t1174980068_m964958642_gshared
oKd:__ZN5physx20PxcContactCapsuleBoxERKNS_2Gu13GeometryUnionES3_RKNS_11PxTransformES6_RKfRNS_10PxcNpCacheERNS0_13ContactBufferE
H7k:__ZN15dense_hashtableINSt3__24pairIK10KeyWrapperIPK10Il2CppTypeEjEES6_N6il2cpp8metadata14Il2CppTypeHashEN14dense_hash_mapIS6_jSB_NS6_14EqualsComparerINSA_26Il2CppTypeEqualityComparerEEENS0_9allocatorIS8_EEE9SelectKeyESF_SH_E3endEv
f2a:__Z28GetNonInterpolatedLightProbeRK17LightProbeContextjR20SphericalHarmonicsL2
GJf:_Array_InternalArray__ICollection_Add_TisDateTime_t693205669_m3559987213_gshared
VCa:__ZN13GfxDeviceGLES17SetGpuProgramNameEP10GpuProgramPKc
VW:__ZNK11UnityEngine15CloudWebService25WebRequestDownloadHandler11GetProgressEv
cVg:_ARC4Managed_CheckInput_m3033530539
B$k:__ZN6il2cpp2vm13MetadataCache28GetMethodDefinitionFromIndexEi
tma:__ZN14SafeBinaryRead19TransferSTLStyleMapINSt3__23mapI39DeprecatedFastPropertyNameSerialization10ColorRGBAfNS1_4lessIS3_EENS1_9allocatorINS1_4pairIKS3_S4_EEEEEEEEvRT_17TransferMetaFlags
YIj:_Behaviour_get_enabled_m4079055610
kgi:_MonoEventInfo_GetEventInfo_m2331957186
T3k:_il2cpp_gchandle_new
rxk:_Vector3_Lerp_m2935648359
$Vk:_NetFxCoreExtensions_GetMethodInfo_m2715372889
Jh:_atexit
Ijf:_BitArrayEnumerator_Reset_m3218489242
u0f:_IOException__ctor_m613517077
Urd:__ZNK5physx7NpScene8getFlagsEv
Kal:__ZN6il2cpp2vmL31GetObjectForMissingDefaultValueEj
sMc:__ZN5physx3Cct17CapsuleController6resizeEf
dDe:__ZN16UploadHandlerRawD0Ev
NVc:__ZN5physx6shdfnd8PoolBaseINS_2Cm5BlockIhLj384EEENS0_19ReflectionAllocatorIS4_EEE12allocateSlabEv
mDd:__Z13sweepAABBAABBRKN5physx6PxVec3ES2_S2_S2_S2_S2_
gZk:__ZNK15dense_hashtableINSt3__24pairIK10KeyWrapperIN6il2cpp5utils13dynamic_arrayIPK10Il2CppTypeLj4EEEEPFvvEEESA_NS3_8metadata19Il2CppSignatureHashEN14dense_hash_mapISA_SD_SG_NSA_14EqualsComparerINSF_22Il2CppSignatureCompareEEENS0_9allocatorISE_EEE9SelectKeyESK_SM_E10test_emptyEj
BVb:__ZN9ShaderLab14SerializedPassC2ERKS0_
V7j:_InternalEnumerator_1_System_Collections_IEnumerator_get_Current_m3088751576_AdjustorThunk
wBa:__ZNK9GfxDevice28GetActiveRenderSurfaceHeightEv
s9c:__ZN5physx9NpPhysics20createParticleSystemEjb
l:STACKTOP
doe:_cff_get_name_index
I6f:_Math_Cos_m43596019
c_d:__ZN5physx17ConvexHullBuilder14CreateEdgeListEv
vFb:__ZNSt3__26vectorI4PPtrI10MonoScriptE13stl_allocatorIS3_L18MemLabelIdentifier76ELi16EEE8__appendEj
O7b:__ZN17TransformInternal27UpdateDeepChildCountUpwardsER18TransformHierarchyii
dGl:__ZNK10__cxxabiv117__class_type_info16search_above_dstEPNS_19__dynamic_cast_infoEPKvS4_ib
_Dd:__ZN5physxL24PxcSweepCapsuleTrianglesERKNS_11PxsCCDShapeES2_RKNS_11PxTransformES5_S5_S5_fRNS_6PxVec3ES7_RNS_10PxcNpCacheERNS_18PxcNpThreadContextERKNS_2Cm23FastVertex2ShapeScalingERNS_2Gu9TriangleVEf
mFj:_AnimatorControllerPlayable_Play_m656940433
A:tempBigIntD
EOe:_Single_Equals_m3359827399_AdjustorThunk
sUe:_EventTrigger_OnPointerClick_m413999043
z:tempBigIntI
yDk:_CachedInvokableCall_1__ctor_m127496184_gshared
rUg:_PrimalityTests_RabinMillerTest_m2029846965
y:tempBigIntR
x:tempBigIntS
w:tempBigIntP
io:FUNCTION_TABLE_viffi
Kee:_open_face_PS_from_sfnt_stream
wjh:_ServerIdentity_CreateObjRef_m1056204803
R5:__ZN6Object18RegisterInstanceIDEPS_
WKb:__Z18Transfer_BlittableI24GenerateTypeTreeTransferLb1EsEvRK29SerializationCommandArgumentsR31RuntimeSerializationCommandInfo
_ml:__ZN15dense_hashtableINSt3__24pairIK10KeyWrapperIP12Il2CppObjectEN6il2cpp2gc9CachedCCWEEES5_NS7_5utils11PointerHashIS3_EEN14dense_hash_mapIS5_S9_SD_NS5_14EqualsComparerINS0_8equal_toIS4_EEEENS0_9allocatorISA_EEE9SelectKeyESI_SK_E11set_deletedER30dense_hashtable_const_iteratorISA_S5_SD_SM_SI_SK_E
pAa:__ZNK9GfxDevice18GetWorldViewMatrixEv
Qtg:_List_1_Contains_m3819542652_gshared
sZg:_TlsServerKeyExchange__ctor_m247733406
JSf:_Object_Instantiate_TisRuntimeObject_m1767088036_gshared
qOg:_ReadOnlyCollection_1_System_Collections_IList_Add_m3065652010_gshared
rtl:__ZN6il2cpp6icalls8mscorlib6System7Convert17Base64ToByteArrayEPDsib
wGk:_IndexedSet_1_Clear_m2776064367_gshared
rMd:__ZN5physx2Gu18pcmContactPlaneBoxERKNS0_13GeometryUnionES3_RKNS_11PxTransformES6_RKfRNS0_5CacheERNS0_13ContactBufferE
nqi:_GUIUtility_set_systemCopyBuffer_m2040945785
h5h:__Z82RuntimeInvoker_Boolean_t3825574718_RaycastResult_t21186376_RaycastResult_t21186376PFvvEPK10MethodInfoPvPS4_
$si:_Mesh_SetNormals_m3341225499
NYk:__ZNSt3__218__insertion_sort_3IRN6il2cpp5utils11collections13ArrayValueMapIPK10Il2CppType17Il2CppInteropData26InteropDataToTypeConverterNS1_8metadata14Il2CppTypeLessENSA_26Il2CppTypeEqualityComparerEE12SortComparerEPS8_EEvT0_SH_T_
Xse:__ZN2UI39SendIgnoreNextTransformChangedRecursiveEPK9TransformPKNS_6CanvasE
P2c:__ZN5physx6shdfnd5ArrayIPNS_2Sq10ActorShapeENS0_19ReflectionAllocatorIS4_EEE15growAndPushBackERKS4_
tAa:__ZNK9GfxDevice25GetDeviceProjectionMatrixEv
y6g:_HttpWebRequest__ctor_m1248252412
ra:invoke_iidiii
aLb:__Z18Transfer_BlittableI24GenerateTypeTreeTransferLb1EtEvRK29SerializationCommandArgumentsR31RuntimeSerializationCommandInfo
D6h:_RankException__ctor_m2119191472
nzc:__ZN9rapidjson12PrettyWriterI16TempBufferWriterNS_4UTF8IcEES3_13JSONAllocatorE11WriteIndentEv
eHc:__ZL13midPhaseQueryRKN5physx22PxTriangleMeshGeometryERKNS_11PxTransformERNS_2Gu3BoxERNS6_9ContainerE
bwc:__ZN9JSONWrite8TransferI13dynamic_arrayI4AABBLj4EEEEvRT_PKc17TransferMetaFlags
IJh:__Z64RuntimeInvoker_Void_t1841601450_OpCode_t2247480392_RuntimeObjectPFvvEPK10MethodInfoPvPS4_
VT:__ZN5physx14PxLightCpuTask15removeReferenceEv
aUh:__Z88RuntimeInvoker_Void_t1841601450_Double_t4078015681_Double_t4078015681_Double_t4078015681PFvvEPK10MethodInfoPvPS4_
O7g:_SPKey_Equals_m1112627532
ELe:_SecurityPermission_IsSubsetOf_m1087302418
t3j:_ArgInfo__ctor_m3787931268
oBk:_X509Chain_Build_m175470596
xQd:__ZN5physx6shdfnd5ArrayINS_24PxsConstraintBatchHeaderENS0_19ReflectionAllocatorIS2_EEE8recreateEj
E9d:__ZN14PhysicsManagerC2E18MemLabelIdentifier18ObjectCreationMode
kha:__ZN9ShaderLab6TexEnvC2ERKNS_25SerializedTexturePropertyE
Nui:_Object_Instantiate_m2489341053
Mka:__ZN19ShaderPropertySheet38CopyTextureWithAuxiliaryPropertiesFromERKN9ShaderLab16FastPropertyNameERKS_
Fde:__ZN20TextRenderingPrivate19NativeTextGeneratorD2Ev
c0k:__ZN6il2cpp2vm19SocketPollingThread14DequeueRequestEv
Fql:__ZL10RevealLinkPv
mNf:_Array_InternalArray__set_Item_TisSingle_t2076509932_m4273663642_gshared
kSc:__ZN5physx6shdfnd8PoolBaseINS_2Sc26ActorPairContactReportDataENS0_19ReflectionAllocatorIS3_EEE12allocateSlabEv
lj:___cxa_end_catch
ldi:_MethodBuilder_MakeGenericMethod_m303913412
y7h:_AssemblyName_InternalGetPublicKeyToken_m3706025887
aJl:dynCall_viffffii
FUe:_ExecuteEvents_Execute_m4235029535
L6g:_HttpWebRequest_GetObjectData_m1200570677
usd:__ZN5physx7NpScene12createClientEv
wwe:__Z43Register_UnityEngine_Canvas_set_scaleFactorv
Uhi:_MonoProperty_GetCustomAttributes_m1756234231
foi:_GUIStyle_set_onHover_m3908151335
Bge:_raccess_guess_linux_cap
A1g:_ReceiveRecordAsyncResult_get_AsyncWaitHandle_m1602093076
tTh:__Z113RuntimeInvoker_Boolean_t3825574718_Ray_t2469606224_RaycastHitU26_t1969197280_Single_t2076509932_Int32_t2071877448PFvvEPK10MethodInfoPvPS4_
$Rb:__Z19TransferField_ArrayI18StreamedBinaryReadILb0EE27Converter_UnityEngineObjectEvRK23StaticTransferFieldInfoR31RuntimeSerializationCommandInfoRT0_
fOh:__Z221RuntimeInvoker_Void_t1841601450_Int32_t2071877448_Int16_t4041245914_Int16_t4041245914_SByte_t454417549_SByte_t454417549_SByte_t454417549_SByte_t454417549_SByte_t454417549_SByte_t454417549_SByte_t454417549_SByte_t454417549PFvvEPK10MethodInfoPvPS4_
fmb:__ZN5Light8TransferI24GenerateTypeTreeTransferEEvRT_
GEc:__ZN26ContactCapsuleMeshCallback10processHitERKN5physx12PxRaycastHitERKNS0_6PxVec3ES6_S6_RfPKj
E0:__Z33InitializeBuiltinShaderParamNamesv
_jg:_ActivationContext_System_Runtime_Serialization_ISerializable_GetObjectData_m775951299
T9d:__ZN13PhysicsModule24CapsuleColliderSetHeightER15CapsuleColliderf
Mqk:_RectTransform_INTERNAL_get_sizeDelta_m3975625099
kYc:__ZN5physx6shdfnd5ArrayINS_19PxHeightFieldSampleENS0_19ReflectionAllocatorIS2_EEE6resizeEjRKS2_
$Id:__ZN5physx14PxsAABBManager25removeAggregateSinglePairEjPNS_9AggregateEPNS_2Cm10BitMapBaseINS_6shdfnd9AllocatorEEE
oui:_Object_GetOffsetOfInstanceIDInCPlusPlusObject_m1587840561
$ia:__ZNK16TypeTreeIterator4TypeEv
r3j:_LeaseManager__ctor_m2166901364
ePa:__ZN10FileSystem25MountDataFolderFileSystemERKN4core12basic_stringIcNS0_20StringStorageDefaultIcEEEES6_
Ngj:__ZL67Selectable_t1490392188_CustomAttributesCacheGenerator_m_SpriteStateP21CustomAttributesCache
Uj:_glGetUniformLocation
EBa:__ZN13GfxDeviceGLES32CreateColorRenderSurfacePlatformEP17RenderSurfaceBase19RenderTextureFormat
lK:__ZN12AudioManager24CreateFMODSoundFromMovieEP9AudioClip
pzc:__ZN9rapidjson6WriterI16TempBufferWriterNS_4UTF8IcEES3_13JSONAllocatorE8WriteIntEi
VXd:__ZN5physx2Gu12TriangleMesh15exportExtraDataERNS_22PxSerializationContextE
A_k:__ZN6il2cpp2vm13MetadataCache24GetGenericInstanceMethodEPK10MethodInfoPK20Il2CppGenericContext
Qag:_MSCompatUnicodeTable_get_IsReady_m562849792
Vag:_SimpleCollator_SetCJKTable_m1356471502
AOb:__Z18Transfer_BlittableI18StreamedBinaryReadILb1EELb0E8Vector2fEvRK29SerializationCommandArgumentsR31RuntimeSerializationCommandInfo
AZf:_Int32_System_IConvertible_ToUInt64_m2888588559_AdjustorThunk
k5:__Z24ConvertSeparatorsToUnityPc
rzb:__ZNSt3__213__vector_baseI9InputAxisNS_9allocatorIS1_EEED2Ev
afl:__ZN6il2cpp2vm6Thread20FreeThreadStaticDataEP12Il2CppThread
Inf:_Console_SetEncodings_m342145566
RCh:__Z28RuntimeInvoker_RuntimeObjectPFvvEPK10MethodInfoPvPS4_
rAf:_Exception_get_ClassName_m2189012117
_ef:_Byte_System_IConvertible_ToUInt16_m2275325191
E$j:_MarshalDirectiveException__ctor_m3894820706
iXc:__ZN5physx2Sc8BodyCore17setupSimStateDataEPNS_6shdfnd4PoolINS0_12SimStateDataENS2_19ReflectionAllocatorIS4_EEEEbb
mgc:__Z41Register_UnityEngine_RectOffset_set_rightv
Kme:_cf2_glyphpath_finalize
onf:_Stack__ctor_m521896492
yYa:__Z20LookRotationToMatrixRK8Vector3fS1_P10Matrix3x3f
rid:__Z25computePacketSizeMultLog2ff
wJl:dynCall_viififi
EBb:__ZNSt3__26vectorIN15ResourceManager10DependencyE13stl_allocatorIS2_L18MemLabelIdentifier51ELi16EEE6assignINS_11__wrap_iterIPS2_EEEENS_9enable_ifIXaasr21__is_forward_iteratorIT_EE5valuesr16is_constructibleIS2_NS_15iterator_traitsISC_E9referenceEEE5valueEvE4typeESC_SC_
Gge:_UNITY_FT_Stream_Free
nxh:_Type_GetTypeFromHandle_m432505302
Pel:__ZN15dense_hashtableINSt3__24pairIK10KeyWrapperINS1_IP11Il2CppClassjEEES4_EES6_N6il2cpp8metadata14ArrayClassHashEN14dense_hash_mapIS6_S4_SB_NS6_14EqualsComparerINSA_17ArrayClassCompareEEENS0_9allocatorIS8_EEE9SelectKeyESF_SH_E12maybe_shrinkEv
UEf:_PlayableHandle_IsPlayableOfType_TisAnimationClipPlayable_t4099382200_m682525715_gshared
p$j:_GCHandle_FreeHandle_m2466807271
xqd:__ZN5physx16PxsIslandManager18setEdgeUnconnectedERKNS_20PxsIslandManagerHookIjLj4294967295EEE
I2e:_GraphicRegistry_get_instance_m2112667631
cV:__ZN11UnityEngine15CloudWebService14DataDispatcher25OnDataBlockConsumedStaticEPv
KUe:_ExecuteEvents_Execute_m2476343313
kCc:__ZL27GeomMTDCallback_PlaneConvexRN5physx6PxVec3ERfRKNS_10PxGeometryERKNS_11PxTransformES5_S8_
$Hi:__ZL54_MethodInfo_t3642518830_CustomAttributesCacheGeneratorP21CustomAttributesCache
RZe:_CanvasUpdateRegistry_CleanInvalidItems_m1402635291
_Rf:_Array_InternalArray__get_Item_TisSingle_t2076509932_m1495809753_gshared
f_k:__ZNK6il2cpp5utils11collections13ArrayValueMapIPK10Il2CppType17Il2CppInteropData26InteropDataToTypeConverterNS_8metadata14Il2CppTypeLessENS8_26Il2CppTypeEqualityComparerEE10find_firstERKS5_
tNf:_Array_InternalArray__set_Item_TisAnimatorClipInfo_t3905751349_m978873279_gshared
XJf:_Array_InternalArray__ICollection_Add_TisSByte_t454417549_m46595441_gshared
dVe:_ExecuteEvents_get_endDragHandler_m56074740
Gvi:_Playable_get_Null_m3678950051
g3b:__ZZN8Renderer15InitializeClassEvEN28FunctorImpl_136kLayerChanged4CallEPviR11MessageData
U7e:_InputField_IsValidChar_m3929866302
sUb:__Z14resize_trimmedINSt3__26vectorIN9ShaderLab20SerializedSubProgram16SamplerParameterENS0_9allocatorIS4_EEEEEvRT_j
Lqd:__ZN5physx6shdfnd5ArrayIPvNS0_15InlineAllocatorILj256ENS0_19ReflectionAllocatorINS_2Gu30LargePersistentContactManifoldEEEEEE15growAndPushBackERKS2_
chf:_ArrayList__cctor_m2090802806
OFl:__ZNSt3__212basic_stringIcNS_11char_traitsIcEENS_9allocatorIcEEE6insertEjPKcj
Ptc:__Z44InitializeTransferFunctionScriptingTraitsForI8JSONReadEvR31TransferFunctionScriptingTraits
xed:__ZN5physx2Sc13ClothBulkData15exportExtraDataERNS_22PxSerializationContextE
zbb:__ZNSt3__26vectorINS_4pairIN4core12basic_stringIcNS2_20StringStorageDefaultIcEEEES6_EE13stl_allocatorIS7_L18MemLabelIdentifier37ELi16EEE6insertENS_11__wrap_iterIPKS7_EERSD_
Mya:__ZNSt3__27__sort4IRNS_4lessIN22BuiltinResourceManager8ResourceEEEPS3_EEjT0_S7_S7_S7_T_
OUe:_ExecuteEvents_Execute_m171612015
Dha:__ZN15dense_hashtableINSt3__24pairIKPK17RenderSurfaceBaseP13RenderTextureEES4_19PointerHashFunctionIS4_EN14dense_hash_mapIS4_S7_SA_NS0_8equal_toIS4_EE13stl_allocatorIS8_L18MemLabelIdentifier65ELi16EEE9SelectKeyESD_SG_E12resize_deltaEjj
nHa:__ZN4crnd12crn_unpacker11unpack_dxt5EPPhjjjjjj
aAh:_UInt32_System_IConvertible_ToUInt64_m4083788326_AdjustorThunk
w7i:__ZL99GUIStyle_t1799908754_CustomAttributesCacheGenerator_GUIStyle_t1799908754____clipOffset_PropertyInfoP21CustomAttributesCache
MRc:__ZN5physx6shdfnd4sortIPvNS0_4LessIS2_EENS0_19ReflectionAllocatorINS_2Sc19ShapeInstancePairLLEEEEEvPT_jRKT0_RKT1_j
Xoh:_DESTransform_Permutation_m4174035780
hXd:__ZN5physx13GuMeshFactory17createHeightFieldERKNS_17PxHeightFieldDescE
G1f:_MonoIO_Seek_m3461199288
FSb:__Z29Transfer_Blittable_ArrayFieldI18StreamedBinaryReadILb0EE4AABBEvRT_R9ArrayInfoRK23StaticTransferFieldInfo
h8a:__ZN10GameObject34AddFirstTransformComponentInternalEP9Transform
Ifc:__Z31Cursor_Get_Custom_PropLockStatev
V0:__ZNSt3__26__treeINS_12__value_typeINS_4pairIPcS3_EENS_3setIS3_15compare_tstringIPKcENS_9allocatorIS3_EEEEEENS_19__map_value_compareIS4_SD_20smaller_tstring_pairIS8_ELb1EEENSA_ISD_EEE7destroyEPNS_11__tree_nodeISD_PvEE
pUk:__ZN15dense_hashtableINSt3__24pairIK10KeyWrapperIPK22Il2CppGenericParameterEP11Il2CppClassEES6_N6il2cpp5utils11PointerHashIS4_EEN14dense_hash_mapIS6_S9_SE_NS6_14EqualsComparerINS0_8equal_toIS5_EEEENS0_9allocatorISA_EEE9SelectKeyESJ_SL_E15insert_noresizeERKSA_
Mgc:__Z52Register_UnityEngine_GameObject_GetComponentInParentv
jAb:__ZN15SerializeTraitsINSt3__24pairIPKN5Unity4TypeE7Hash128EEE8TransferI14SafeBinaryReadEEvRS7_RT_
U5d:__ZN5physx7profile10EventValue9streamifyINS0_15EventSerializerINS0_12MemoryBufferINS0_21WrapperNamedAllocatorEEEEEEEvRT_RKNS0_11EventHeaderE
N4a:__Z37GenerateCombinedDynamicVisibleListJobP11CullResults
iZ:__GLOBAL__sub_I_runtime_graphics_billboard_lump_cpp
yda:__ZNK13ScreenManager21GetCursorInsideWindowEv
jql:__ZN6il2cpp2vmL22RaiseOverflowExceptionEv
$Zf:_Int64_System_IConvertible_ToByte_m3027162116_AdjustorThunk
Eik:_Match_get_Empty_m3581361913
N1a:__Z20IntersectAABBFrustumRK4AABBPK5Planej
GQe:_String_Concat_m626692867
l5b:__ZN13RenderManager15InitializeClassEv
iIb:__ZN15SerializeTraitsI12PropertyNameE8TransferI14SafeBinaryReadEEvRS0_RT_
Mma:__ZN18UnityPropertySheet11UnityTexEnvC2Ev
puk:_TextGenerationSettings_CompareVector2_m592645251_AdjustorThunk
Q4d:__ZN5physx7profile8ZoneImplINS_28PxProfileNameProviderForwardEED0Ev
fJl:dynCall_iiiiiiiiiiffffii
Qvc:__ZN9JSONWrite8TransferI11ColorRGBA32EEvRT_PKc17TransferMetaFlags
hyc:__Z22TransferField_NonArrayI8JSONRead27Converter_SimpleNativeClassI8GradientEEvRK23StaticTransferFieldInfoR31RuntimeSerializationCommandInfoRT0_
qdb:__ZNSt3__26__treeIN4core12basic_stringIcNS1_20StringStorageDefaultIcEEEENS_4lessIS5_EE13stl_allocatorIS5_L18MemLabelIdentifier37ELi16EEE7destroyEPNS_11__tree_nodeIS5_PvEE
TIa:__ZNSt3__26vectorI15ComputeShaderCBNS_9allocatorIS1_EEE21__push_back_slow_pathIKS1_EEvRT_
m0b:__ZN13ProduceHelperI11MonoManagerLb0EE7ProduceE18MemLabelIdentifier18ObjectCreationMode
dLa:__ZNK18GfxFramebufferGLES15DiscardContentsER12ObjectHandleI17RenderSurface_TagP17RenderSurfaceBaseE
yfg:_KeyPairPersistence_IsUserProtected_m37342608
ZDl:___fflush_unlocked
Vuc:__Z18Transfer_BlittableI9JSONWriteLb1EdEvRK29SerializationCommandArgumentsR31RuntimeSerializationCommandInfo
SNl:_glGetIntegerv__wrapper
KTf:_NumberFormatter_ResetCharBuf_m3823516989
H7c:__ZN5physx2Sc13ConstraintSim15preBodiesChangeEv
H:Math_pow
Zba:__ZN14dense_hash_mapIN4core12basic_stringIcNS0_20StringStorageDefaultIcEEEE10vector_setI4PPtrI11SpriteAtlasENSt3__24lessIS8_EE13stl_allocatorIS8_L18MemLabelIdentifier79ELi16EEE20StringHash32FunctionIS4_ENS9_8equal_toIS4_EESC_INS9_4pairIKS4_SF_EELSD_79ELi16EEE15set_deleted_keyERSL_
p8a:__ZN10GameObject28FinalizeAddComponentInternalEPN5Unity9ComponentE
hI:__Z64AnimatorControllerPlayable_CUSTOM_INTERNAL_CALL_SetTriggerStringR9HPlayableP12Il2CppString
Foi:_GUIStyle_Internal_Draw_m3610093213
Ptk:_StackTraceUtility_IsSystemStacktraceType_m506502194
Kqb:__ZN9Texture2DD2Ev
dZ:__GLOBAL__sub_I_runtime_geometry_lump_cpp
xhf:_ArrayList_Remove_m3941780739
$2d:__ZN14PhysicsManager8TransferI19StreamedBinaryWriteILb0EEEEvRT_
Jfd:__ZNK5physx2Sc9ClothCore16getStretchConfigENS_22PxClothFabricPhaseType4EnumE
vNh:__Z69RuntimeInvoker_Void_t1841601450_SByte_t454417549_TimeSpan_t3430258949PFvvEPK10MethodInfoPvPS4_
Xc:invoke_iiiifiiiii
uyd:__ZN5physx2Sc5Scene31setClothInterCollisionStiffnessEf
k9h:_ConstructorBuilder_not_created_m2150488017
tEh:__Z63RuntimeInvoker_Char_t3454481338_Int16_t4041245914_RuntimeObjectPFvvEPK10MethodInfoPvPS4_
qH:__ZNSt3__26vectorIiNS_9allocatorIiEEE6insertENS_11__wrap_iterIPKiEERS5_
mok:_Uri_AppendQueryAndFragment_m2358658590
Hsi:_Mesh_GetIndicesImpl_m2398977086
Sr:__ZN13dynamic_arrayIhLj1EE18resize_initializedEjRKh12ResizePolicy
YPj:_InvokableCallList_AddListener_m786891050
bxa:__ZN17PersistentManager27GetLoadErrorMessageFromPathERKN4core12basic_stringIcNS0_20StringStorageDefaultIcEEEE
cSe:_DecoderReplacementFallbackBuffer_Fallback_m1790184670
Gm:_glGenRenderbuffers
qil:__ZN6il2cpp6icalls8mscorlib6System2IO6MonoIO19GetCurrentDirectoryEPi
aTd:__ZN5physx2Sc13ConstraintSim11projectPoseEPNS0_7BodySimE
NQe:_String_GetHashCode_m931956593
yAb:__ZN14PlayerSettings23VirtualRedirectTransferER17RemapPPtrTransfer
gOl:_emscripten_glGetIntegerv__wrapper
qKd:__ZN5physx21PxcContactCapsuleMeshERKNS_2Gu13GeometryUnionES3_RKNS_11PxTransformES6_RKfRNS_10PxcNpCacheERNS0_13ContactBufferE
nP:__ZN12AudioManager31GetCurrentSpatializerDefinitionEv
Yxb:__ZN12MeshRenderer16UpdateCachedMeshEv
dae:__ZN9Rigidbody11SetPositionERK8Vector3f
RHb:__Z19TransferField_ArrayI14SafeBinaryRead27Converter_SimpleNativeClassI8GradientEEvRK23StaticTransferFieldInfoR31RuntimeSerializationCommandInfoRT0_
$jl:__ZN6il2cpp2vm5Image9GetCorlibEv
qz:__ZNK27StateMachineBehaviourPlayer25FireStateMachineBehaviourEiiN7mecanim12statemachine19StateMachineMessageE
iUj:_ScrollRectEvent__ctor_m2283981448
aNh:__Z52RuntimeInvoker_Single_t2076509932_Single_t2076509932PFvvEPK10MethodInfoPvPS4_
a_h:__Z109RuntimeInvoker_Single_t2076509932_RuntimeObject_RuntimeObject_Single_t2076509932_ILayoutElementU26_t440254879PFvvEPK10MethodInfoPvPS4_
gog:_Enumerator_VerifyState_m3913376581_AdjustorThunk
j5g:_NameObjectCollectionBase_System_Collections_ICollection_CopyTo_m810189168
I7a:__ZN6Camera15SetOrthographicEb
oie:_UNITY_FT_Stream_GetUShort
zAa:__ZN13GfxDeviceGLES14DisableScissorEv
Tzd:__ZN5physx17PxcNpMemBlockPool23releaseConstraintMemoryEv
iHi:__ZL71ReliabilityContractAttribute_t1625655220_CustomAttributesCacheGeneratorP21CustomAttributesCache
NPd:__ZNK5physx10PxsContext25getManagerTouchEventCountEPiS1_S1_
Zrf:_Decimal_op_Explicit_m1986696267
vtj:_Dictionary_2_System_Collections_ICollection_CopyTo_m3578539931_gshared
g7h:_Assembly_GetModules_m2242070953
jUf:_NumberFormatter_AppendDecimalString_m3532330813
vMk:_MousePosition_Start_m597740067
kd:_glVertexAttrib4f
yRh:__Z94RuntimeInvoker_RuntimeObject_RuntimeObject_Int32_t2071877448_SByte_t454417549_SByte_t454417549PFvvEPK10MethodInfoPvPS4_
bAf:_Environment_GetFolderPath_m1849163024
aeg:_ASN1_Add_m2540239672
_Df:_Array_InternalArray__ICollection_Remove_TisInt16_t4041245914_m3380378727_gshared
ywi:_PlayableHandle_GetInputCount_m3249715311_AdjustorThunk
cDd:__ZN5physx6shdfnd4sortIPNS_10PxsCCDPairENS_13ToiPtrCompareENS0_19ReflectionAllocatorIS3_EEEEvPT_jRKT0_RKT1_j
tgh:_MethodDictionary_CopyTo_m1721788774
eDd:__ZN5physx13PxsCCDContext23runCCDModifiableContactEPNS_19PxModifiableContactEjPKNS_12PxsShapeCoreES5_PKNS_12PxsRigidCoreES8_PKNS_12PxsRigidBodyESB_
mxe:__ZN21UnityAnalyticsManagerD0Ev
bXe:_RaycastResult_ToString_m2233441736_AdjustorThunk
zpe:_UNITY_tt_face_get_location
Ori:_Mathf_Sin_m831310046
aid:__ZN5physx15PxsParticleData6createERNS_30PxvParticleSystemStateDataDescERKNS_9PxBounds3E
gwl:_GC_set_hdr_marks
UVa:__Z17SetupObjectMatrixRK10Matrix4x4fi
JNe:_SecurityFrame_ToString_m1282306399
Rbg:_SimpleCollator_MatchesBackwardCore_m1884994267
vwh:_TimeSpan_From_m1249538749
yZc:__ZN5physx6shdfnd8PoolBaseINS_11NpAggregateENS0_19ReflectionAllocatorIS2_EEE17releaseEmptySlabsEv
lbg:_SimpleCollator_GetSortKey_m1317491197
zEf:_Array_InternalArray__ICollection_Remove_TisKeyCode_t2283395152_m3847900533_gshared
Gmc:__Z43Object_CUSTOM_DoesObjectWithInstanceIDExisti
C0f:_Path_IsDsc_m1314465747
S0:__ZN13RuntimeStaticINSt3__23mapINS0_4pairIPcS3_EEPFbPvR14SafeBinaryReadE20smaller_tstring_pairIPKcENS0_9allocatorINS2_IKS4_S9_EEEEEELb0EE13StaticDestroyES5_
sgi:_MonoEvent_GetCustomAttributes_m3899596098
xrf:_Convert_ToSByte_m3295168715
Mu:__ZN7mecanim9animation16CreateClipMemoryEPKNS0_4ClipEiRNS_6memory9AllocatorE
Hee:_open_face
l3b:__ZZL31RegisterOtherRendererPropertiesR22GenericPropertyBindingEN30Wrapper_RendererReceiveShadows13SetFloatValueEPvf
Que:__Z17RegisterModule_UIv
mUd:__ZN5physx2Sc17ParticleSystemSim19unlinkParticleShapeEPNS0_19ParticlePacketShapeE
eKj:_Camera_FireOnPreRender_m24116662
Cyh:_TypeLoadException_GetObjectData_m2885802706
kBa:__ZN9GfxDevice24CreateRenderDepthSurfaceE9TextureIDiiii16TextureDimension17DepthBufferFormat18SurfaceCreateFlags
xlh:_ObjectManager_DoFixups_m835924385
Zih:_RemotingServices_CreateWellKnownServerIdentity_m3390048085
dK:__ZN4FMOD5Sound11setUserDataEPv
CTb:__ZN14SafeBinaryRead21TransferSTLStyleArrayINSt3__26vectorIN9ShaderLab19SerializedSubShaderENS1_9allocatorIS4_EEEEEEvRT_17TransferMetaFlags
ril:__ZN6il2cpp6icalls8mscorlib6System2IO6MonoIO17GetFileAttributesEP12Il2CppStringPi
Fve:__Z56Register_UnityEngine_CanvasRenderer_set_popMaterialCountv
kx:__ZN27AnimationLayerMixerPlayable13SetInputCountEi
WUg:_ARC4Managed_KeySetup_m73384687
SQa:__ZNK25SingleBlockMemoryFileData4SizeEv
juf:_DateTime_Equals_m2562884703
sCd:__ZN5physx6shdfnd9SListImpl7getSizeEv
QB:__ZN9BlobWrite8TransferIN7mecanim12statemachine18StateMachineMemoryEEEvRT_PKc17TransferMetaFlags
ZCd:__ZN5physx2Cm12DelegateTaskINS_13PxsCCDContextEXadL_ZNS2_12postCCDSweepEPNS_10PxBaseTaskEEEE11runInternalEv
Djd:__ZN5physx23NpParticleFluidReadData18setDataAccessFlagsENS_7PxFlagsINS_16PxDataAccessFlag4EnumEhEE
MN:__ZL50UnityAudioEffect_InternalSetFloatParameterCallbackP14FMOD_DSP_STATEif
xml:__ZNK15dense_hashtableINSt3__24pairIK10KeyWrapperIP12Il2CppObjectEN6il2cpp2gc9CachedCCWEEES5_NS7_5utils11PointerHashIS3_EEN14dense_hash_mapIS5_S9_SD_NS5_14EqualsComparerINS0_8equal_toIS4_EEEENS0_9allocatorISA_EEE9SelectKeyESI_SK_E3endEv
cMj:_Collider_INTERNAL_get_bounds_m4035290675
Nfb:__ZN17LowLevelAllocator4FreeEPvj
emf:_KeyMarker__cctor_m2057880225
i5d:__ZN5physx7profile8ZoneImplINS_28PxProfileNameProviderForwardEE10eventValueEtyx
rae:__ZN9Rigidbody16TransformChangedEi
grj:_Dictionary_2_Init_m248376403_gshared
Eae:__Z35Physics_CUSTOM_INTERNAL_get_gravityP8Vector3f
UTk:__ZN15dense_hashtableINSt3__24pairIK10KeyWrapperIPK22Il2CppGenericParameterEP11Il2CppClassEES6_N6il2cpp5utils11PointerHashIS4_EEN14dense_hash_mapIS6_S9_SE_NS6_14EqualsComparerINS0_8equal_toIS5_EEEENS0_9allocatorISA_EEE9SelectKeyESJ_SL_E9copy_fromERKSO_j
PWf:_TextInfo_get_ListSeparator_m3426465394
S3a:__ZN14qsort_internal5QSortIP16RenderObjectDatai25RenderPrePassObjectSorterEEvT_S4_T0_T1_
X_g:_Context_set_RecordProtocol_m1968834768
o7:__ZL19StaticCleanupPlayerPv
ibh:_X509Certificate2Enumerator_MoveNext_m1861665712
DFd:__ZN5physx24writeBackContactCoulomb4EPKNS_23PxcSolverConstraintDescERNS_16PxcSolverContextEPPKNS_17PxcSolverBodyDataES8_
lGh:__Z87RuntimeInvoker_RuntimeObject_RuntimeObject_RuntimeObject_RuntimeObject_SByte_t454417549PFvvEPK10MethodInfoPvPS4_
Bba:__ZN15dense_hashtableINSt3__24pairIKN4core12basic_stringIcNS2_20StringStorageDefaultIcEEEEP11AssetBundleEES6_20StringHash32FunctionIS6_EN14dense_hash_mapIS6_S9_SC_NS0_8equal_toIS6_EENS0_9allocatorISA_EEE9SelectKeyESF_SH_ED2Ev
buh:_Monitor_Monitor_wait_m3813798368
ORe:_DecoderExceptionFallbackBuffer_Fallback_m3457210607
cgb:__ZN9Behaviour10DeactivateE19DeactivateOperation
LOj:_Display_get_renderingWidth_m2127568366
LIg:_Collection_1_System_Collections_IList_get_Item_m2836259259_gshared
MHj:_Debug_LogWarning_m2503577968
Ava:__ZN13StreamingInfo8TransferI14SafeBinaryReadEEvRT_
iCj:_AnimatorControllerPlayable_GetBoolString_m2522782124
$Tb:__ZN15dense_hashtableINSt3__24pairIKiN4core17string_with_labelILi1EEEEEi18SInt32HashFunctionN14dense_hash_mapIiS5_S7_NS0_8equal_toIiEE13stl_allocatorIS6_L18MemLabelIdentifier1ELi16EEE9SelectKeyESA_SD_E15insert_noresizeERKS6_
jCb:__ZN14SafeBinaryRead21TransferSTLStyleArrayINSt3__26vectorIN4core12basic_stringIcNS3_20StringStorageDefaultIcEEEE13stl_allocatorIS7_L18MemLabelIdentifier12ELi16EEEEEEvRT_17TransferMetaFlags
ROc:__GLOBAL__sub_I_runtime_dynamics_lump_cpp
Mq:__Z23CalculateGlobalRotation23TransformAccessReadOnly
mbh:_X509Store_Close_m2412711366
izd:__ZN5physx2Cm10FanoutTaskD0Ev
kG:__Z25HumanPoseMaskFromBodyMaskRK13dynamic_arrayIjLj4EE
jTh:__Z93RuntimeInvoker_Boolean_t3825574718_Vector3_t2243707580_Vector3_t2243707580_Single_t2076509932PFvvEPK10MethodInfoPvPS4_
x2c:__ZN5physx14NpShapeManager26markAllSceneQueryForUpdateERNS_2Sq17SceneQueryManagerE
ICj:_AnimatorControllerPlayable_SetInteger_m881630854_AdjustorThunk
BUc:__ZN5physx2Sc21ConstraintInteractionD2Ev
i3b:__Z43InitializeRendererAnimationBindingInterfacev
a6:__ZL26DestroyGameObjectRecursiveR10GameObjectR11BatchDelete
YQj:_CullStateChangedEvent__ctor_m4025397477
xwl:_GC_allochblk_nth
guh:_Mutex_ReleaseMutex_m2143813124
Tzh:_UInt32_System_IConvertible_ToSByte_m604037412_AdjustorThunk
nZd:__ZNK5physx2Gu9Container8ContainsEjPj
v2b:__Z7HaloTexP9Texture2DPhiiii
mKl:dynCall_i
DKf:_Array_InternalArray__ICollection_CopyTo_TisKeyValuePair_2_t3749587448_m2750720485_gshared
ovi:_Physics_RaycastAll_m410413656
KR:__ZN17AudioCustomFilter4InitEv
oAk:_X509Certificate__cctor_m2984068893
xIb:__ZN14SafeBinaryRead21TransferSTLStyleArrayI13dynamic_arrayIxLj8EEEEvRT_17TransferMetaFlags
tJl:dynCall_f
r3d:__ZN9Rigidbody10DeactivateE19DeactivateOperation
zLb:__Z35Transfer_Blittable_FixedBufferFieldI24GenerateTypeTreeTransferjEvRK29SerializationCommandArgumentsR31RuntimeSerializationCommandInfo
gob:__ZN8Playable13SetInputCountEi
zJl:dynCall_v
R3f:_Path__cctor_m3685888661
Qvf:_Decimal_System_IConvertible_ToDateTime_m4247760250_AdjustorThunk
weg:_BitConverterLE_ULongFromBytes_m2583105400
iKa:__ZN7ApiGLES14TextureSamplerEjjRK24GfxTextureSamplingParams17TextureColorSpace
msj:_Dictionary_2_ToTKey_m965425080_gshared
rjb:__ZN6Camera23VirtualRedirectTransferER14SafeBinaryRead
ytg:_List_1_System_Collections_IList_Insert_m2838947798_gshared
OAl:__ZNSt3__26vectorINS_12basic_stringIDsNS_11char_traitsIDsEENS_9allocatorIDsEEEENS4_IS6_EEE8__appendEj
uwh:_TimeSpan_FromDays_m2859053398
j6k:__ZN6il2cpp2vm4Type11IsEmptyTypeEPK10Il2CppType
iAe:__ZN11UnityEngine7Connect13ConnectConfig11ConfigValueD2Ev
wEa:__ZNSt3__26__treeINS_12__value_typeIjP14DataBufferGLESEENS_19__map_value_compareIjS4_NS_4lessIjEELb1EEENS_9allocatorIS4_EEE7destroyEPNS_11__tree_nodeIS4_PvEE
v_c:__ZN5physx14NpArticulationD0Ev
R6b:__ZN13PlayableGraph15SetPrepareStageE13DirectorStage
Wb:invoke_viiiiiiii
W6f:_MissingMemberException__ctor_m2869542203
CDk:_CachedInvokableCall_1__ctor_m3238306320_gshared
m5a:__ZNK6Camera16GetCullingMatrixEv
Azg:_List_1_Find_m160737912_gshared
Lnk:_Uri_EnsureAbsoluteUri_m1892758054
erb:__ZN16LightmapSettings5ResetEv
PPa:__ZN12FileAccessor4ReadEyPvPy
$pc:__Z42Register_UnityEngine_Event_get_commandNamev
ahf:_ArrayList_ThrowNewArgumentOutOfRangeException_m3795973535
dkk:_Regex_Init_m1873144192
Aeg:_BitConverterLE_ToDouble_m516016818
Q5:__ZNK15FileSystemEntry6ExistsEv
owk:_Transform_TransformDirection_m1639585047
OVd:__ZN5physx2Gu10ConvexMesh4loadERNS_13PxInputStreamE
hWg:_EncryptedPrivateKeyInfo__ctor_m3398795484
J3c:__ZN5physx2Sc5Scene11removeShapeERNS0_8ShapeSimEb
YK:__ZN13AudioListener23VirtualRedirectTransferER19StreamedBinaryWriteILb0EE
FYd:__ZN5physx6shdfnd5ArrayIPvNS0_19ReflectionAllocatorIN17PxcPoolMallocData10PoolData16EEEE15growAndPushBackERKS2_
$Ba:__ZN13GfxDeviceGLES11CopyTextureE9TextureIDS0_
cec:__Z72Register_UnityEngine_AssetBundleCreateRequest_DisableCompatibilityChecksv
aNl:_emscripten_glViewport__wrapper
nWh:__Z47RuntimeInvoker_RuntimeObject_Single_t2076509932PFvvEPK10MethodInfoPvPS4_
P1j:_Context__cctor_m3895126354
zoe:_tt_size_select
uV:__ZN11UnityEngine15CloudWebService17SessionEventQueue15RestoreFromFileER12FileAccessorPvy
pAb:__ZN14PlayerSettingsD2Ev
N1f:_FileStream_get_Length_m2265080501
Jxh:_Type_type_is_assignable_from_m1620694099
lvl:_GC_reclaim_all
N9:__ZN13PlayableGraph14DestroyOutputsEv
O2j:_ContextAttribute_GetPropertiesForNewContext_m4007241045
Vf:___syscall122
DIc:__ZN16RayRTreeCallbackILi1ELb1EED0Ev
wKd:__ZL18PxcContactHullHullRKN5physx2Gu13PolygonalDataES3_RKNS_9PxBounds3ES6_RKNS_11PxTransformES9_fRNS0_13ContactBufferERKNS_2Cm23FastVertex2ShapeScalingESF_bb
l_j:_ResourceSet__ctor_m2566914412
ced:__ZN5physx7NpCloth16setContactOffsetEf
aed:__ZN5physx7NpCloth23setSimulationFilterDataERKNS_12PxFilterDataE
JCj:_AnimatorControllerPlayable_SetInteger_m3338355659
PBc:__ZN5physx3Cct26CharacterControllerManager21resetObstaclesBuffersEv
PUg:_ASN1Convert_ToDateTime_m2305963290
KTd:__ZN5physx6shdfnd5ArrayIPNS_10PxsCCDBodyENS0_19ReflectionAllocatorIS3_EEE8recreateEj
cKe:_SymmetricAlgorithm_Finalize_m1665128997
yR:__ZN9AudioClip16EnableLegacyModeEv
OFj:_AnimatorStateInfo_IsName_m4069203550
mfc:__Z52Register_UnityEngine_Camera_INTERNAL_CALL_RaycastTryv
xbb:__ZN13sorted_vectorINSt3__24pairIN4core12basic_stringIcNS2_20StringStorageDefaultIcEEEES6_EEN10vector_mapIS6_S6_27compare_tstring_insensitiveIS6_E13stl_allocatorIS7_L18MemLabelIdentifier37ELi16EEE13value_compareESD_E10insert_oneERKS7_
ROd:__ZN5physx6shdfnd8PoolBaseINS_21PxsBodyTransformVault13PxsBody2WorldENS0_19ReflectionAllocatorIS3_EEE12allocateSlabEv
Cof:_Convert_ToByte_m791636053
fgk:_InternalEnumerator_1_get_Current_m2986222582_AdjustorThunk
eQg:_ReadOnlyCollection_1_System_Collections_IList_RemoveAt_m2372993063_gshared
QJl:dynCall_iifi
Ecc:__ZN18ScriptingArguments13CopyFromOtherERKS_
Vri:_Mathf_Ceil_m3621406599
Hke:_ps_hints_close
v5b:__Z16CreateRenderLoopR6Camera
ZEd:__ZN5physx20PxcNpCacheStreamPairC2ERNS_17PxcNpMemBlockPoolE
D_:_tlsf_create
jhk:_DefaultComparer_Compare_m4039941311_gshared
qoj:_Enumerator_MoveNext_m2534596951_AdjustorThunk
eDb:__ZN13MonoBehaviour23VirtualRedirectTransferER18StreamedBinaryReadILb0EE
jVb:__ZN9ShaderLab20SerializedSubProgramC2ERKS0_
WRl:_emscripten_glCompileShader__wrapper
oJe:_SHA256Managed_ProcessBlock_m1064908669
uKj:_Canvas_get_pixelPerfect_m730801767
xLj:_CapsuleCollider_INTERNAL_get_center_m2069429931
GGl:__ZNK10__cxxabiv121__vmi_class_type_info27has_unambiguous_public_baseEPNS_19__dynamic_cast_infoEPvi
xsf:_Convert_ToUInt64_m2215781574
JAk:_X509Certificate_VerifySignature_m4020723406
yyh:_TypeInitializationException_GetObjectData_m2244451030
DBf:_CompareInfo_LastIndexOf_m2978196696
BEb:__ZN10MonoScript13AwakeFromLoadE17AwakeFromLoadMode
Weg:_DSAManaged_Generate_m3166917081
Rkj:_Enumerator_VerifyCurrent_m3330382363_AdjustorThunk
N3b:__ZZN12MeshRenderer15InitializeClassEvEN29FunctorImpl_133kDidDeleteMesh4CallEPviR11MessageData
Xl:_emscripten_glGetActiveUniform
r$a:__Z20RenderFullScreenQuadR9GfxDeviceRK6Camera17ShaderChannelMaskRK5RectTIfEf21MonoOrStereoscopicEye
ELg:_ReadOnlyCollection_1_System_Collections_IList_Contains_m2320811592_gshared
bka:__ZN16RenderTextureMap5QueryEPK17RenderSurfaceBase
ZCj:_AnimatorControllerPlayable_ResetTrigger_m758725835
Qlb:__ZN5Light17MainThreadCleanupEv
b6f:_UnexceptionalStreamWriter_Write_m186237617
YUj:_ScrollRect_UpdateScrollbars_m3921404746
PQl:_emscripten_glUniform4iv__wrapper
CQd:__ZN5physx28solveParallelCouloumFrictionERNS_18PxsDynamicsContextEjjPNS_13PxcSolverBodyEPNS_17PxcSolverBodyDataEjjPNS_25PxcArticulationSolverDescEjPNS_23PxcSolverConstraintDescEjS9_jPiSA_SA_SA_SA_SA_PNS_25PxcThresholdStreamElementEjSA_PNS_2Cm13SpatialVectorEPKPNS_11PxsBodyCoreERNSD_10BitMapBaseINS_6shdfnd9AllocatorEEEPKPNS_15PxsArticulationEjPViRNSL_5ArrayINS_24PxsConstraintBatchHeaderENSL_19ReflectionAllocatorISW_EEEES10_RNSV_IjNSX_IjEEEES13_PPNS_12PxsRigidBodyEj
eef:_Boolean_CompareTo_m1086129598_AdjustorThunk
w3b:__ZN8Material8GetFloatEN9ShaderLab16FastPropertyNameE
mEd:__ZN5physx2Gu18gjkRelativeRayCastINS0_9TriangleVENS0_4BoxVES2_NS0_10ShrunkBoxVEEEbRT_RT0_RKNS_6shdfnd3aos15PsMatTransformVERKNSA_6FloatVERKNSA_5Vec3VESJ_RSE_RSH_SL_fb
rIj:_AudioPlayableOutput__ctor_m2971183853
jge:_psnames_module_class_pic_free
eoc:__Z11GetGUIStatev
Ug:_pthread_key_create
Q4c:__ZN5physx2Sc8BodyCoreD2Ev
fXh:__Z61RuntimeInvoker_Boolean_t3825574718_Int32_t2071877448_IntPtr_tPFvvEPK10MethodInfoPvPS4_
phf:_ArrayList_Clear_m3834604134
Cma:__ZN15SerializeTraitsI10ColorRGBAfE8TransferI14SafeBinaryReadEEvRS0_RT_
v$k:__ZN6il2cpp2vm13MetadataCache27GetEventDefinitionFromIndexEi
u7:__ZN22BuiltinResourceManager13StaticDestroyEPv
rOf:_Array_Resize_TisCustomAttributeTypedArgument_t1498197914_m3055365808_gshared
V5:__ZN10GameObject17GetComponentIndexEPN5Unity9ComponentE
ddd:__ZN5physx7NpCloth20setMotionConstraintsEPKNS_31PxClothParticleMotionConstraintE
kub:__ZN14SafeBinaryRead21TransferSTLStyleArrayI13dynamic_arrayI7SubMeshLj4EEEEvRT_17TransferMetaFlags
wOe:_Single_IsNegativeInfinity_m2615809279
XZf:_Int32_GetTypeCode_m3811463295_AdjustorThunk
RYg:_CipherSuiteFactory_GetSsl3SupportedCiphers_m2476597368
V6g:_IPv6Address_Fill_m1824197512
AN:__ZN29AudioEffectInternalDefinition9CreateDSPEPN4FMOD6SystemEPvPfP23UnityAudioAmbisonicDataPP25UnityAudioSpatializerData
cqe:_UNITY_tt_face_vary_cvt
i1k:__ZNK6il2cpp5utils10functional6FilterINSt3__212basic_stringIcNS3_11char_traitsIcEENS3_9allocatorIcEEEENS0_13VmStringUtils21CaseSensitiveComparerEEclIPKcEEbRKT_
jph:_DSACryptoServiceProvider_Finalize_m1911772902
roc:__Z28DidLoadAllAssembliesCallbackv
CVd:__ZNK5physx2Sc15ClothFabricCore9getPhasesEPNS_18PxClothFabricPhaseEj
bbb:__ZN35RegisterRuntimeInitializeAndCleanup22ExecuteInitializationsEv
_Sf:_GameObject_GetComponents_TisRuntimeObject_m3618562997_gshared
Jra:__ZN23PreloadManagerOperation14SetFinalTimingEffff
i:DYNAMICTOP_PTR
$0e:_Dropdown_SetupTemplate_m1416189897
oWa:__Z11CopyTextureP7TextureiiS0_ii
lAb:__ZN13BuildSettings8TransferI18StreamedBinaryReadILb0EEEEvRT_
cSj:_PositionAsUV1__ctor_m412270210
k$b:__ZN10GameObject15InitializeClassEv
Uwd:__ZN5physx3Scb17ArticulationJoint9syncStateEv
UDd:__ZNK5physx2Gu29EPASupportMapPairRelativeImplINS0_8CapsuleVENS0_4BoxVEE18doWarmStartSupportEiiRNS_6shdfnd3aos5Vec3VES8_S8_
chc:__Z38Renderer_Get_Custom_PropSortingLayerIDP12Il2CppObject
NSd:__ZN5physx17PxsThresholdTable5buildERKNS_18PxsThresholdStreamE
lhj:__ZL90StencilMaterial_t1630303189_CustomAttributesCacheGenerator_StencilMaterial_Add_m1745413071P21CustomAttributesCache
sMk:_Kinematics_Update_m1027274568
EDf:_Array_InternalArray__ICollection_Contains_TisWorkRequest_t1154022482_m865286315_gshared
xId:__ZN9BoxPruner12updateObjectERK5IAABBt
hSc:__ZN5physx2Sc10NPhaseCore32createActorPairContactReportDataEv
uMd:__ZN5physx2Gu22pcmContactPlaneCapsuleERKNS0_13GeometryUnionES3_RKNS_11PxTransformES6_RKfRNS0_5CacheERNS0_13ContactBufferE
OSf:_Resources_Load_TisRuntimeObject_m2884518678_gshared
C6d:__ZN5physx6shdfnd4sortIPvNS0_4LessIS2_EENS0_19ReflectionAllocatorINS_24NpPtrTableStorageManager8PtrBlockILi4EEEEEEEvPT_jRKT0_RKT1_j
Cnf:_Stack_Push_m284336154
p6e:_InputField_set_caretBlinkRate_m3521089516
Wtf:_DateTime_Add_m4237489122
yBb:__ZN15ResourceManager10Dependency8TransferI14SafeBinaryReadEEvRT_
zGd:__ZNK5physx29BroadPhaseBatchUpdateWorkTask7getNameEv
Pul:_GC_extend_size_map
oik:_Comparer_1_System_Collections_IComparer_Compare_m637596782_gshared
aO:__ZN4FMOD6System9setDriverEi
Wll:__ZN6il2cpp8metadataL24RecursiveGenericDepthForEPK17Il2CppGenericInst
B5b:__ZNK9Transform11GetRotationEv
$9g:_X509Certificate2_Find_m833446211
WR:__ZN12AudioManager15DidReloadDomainEv
zvd:__ZN5physx2Sc5Scene26setVisualizationCullingBoxERKNS_9PxBounds3E
ele:_pshinter_get_globals_funcs
ALb:__Z18Transfer_BlittableI24GenerateTypeTreeTransferLb0EyEvRK29SerializationCommandArgumentsR31RuntimeSerializationCommandInfo
Kga:__ZN8Material14CreateMaterialER6ShaderN6Object9HideFlagsEb
Hfg:_KeyPairPersistence_FromXml_m2310151202
rec:__Z60Register_UnityEngine_AsyncOperation_get_allowSceneActivationv
tvf:_DBNull_System_IConvertible_ToUInt64_m2919804476
OEl:_fread
wlb:__ZNK17InstancedPropInfo15RenderInstancesERK15RenderNodeQueuePK17BatchInstanceDataj17ShaderChannelMaskPFbPvS6_iR11MeshBuffersR16DrawBuffersRangeRiSC_E
Xqc:__Z31GUIStyle_CUSTOM_GetFontInternalP12Il2CppObject
Rje:_tt_cmap12_char_map_binary
M8d:__Z27GetMeshAssetPathDescriptivePK4Mesh
JMh:__Z51RuntimeInvoker_Double_t4078015681_Int16_t4041245914PFvvEPK10MethodInfoPvPS4_
Sge:_ft_outline_glyph_transform
Nga:__Z25GetBuiltinResourceManagerv
kBd:__ZN5physx2Sq16BucketPrunerCore20allocateSortedMemoryEj
fml:__ZN6il2cpp2gc8GCHandle15GetTargetHandleEP12Il2CppObjectii
pi:_llvm_trap
J0:__ZNSt3__27__sort5IRNS_6__lessIN12_GLOBAL__N_114ParamNameIndexES3_EEPS3_EEjT0_S7_S7_S7_S7_T_
m0f:_Directory_CreateDirectory_m3561886598
kvl:_get_index
IJd:__ZNK5physx14SingleAABBTask7getNameEv
p_d:__ZN5physx11HullLibrary11calchullgenEPNS_6float3Eiif
gYa:__Z26scripting_method_get_class18ScriptingMethodPtr
b_g:_ClientSessionInfo_get_Valid_m3589823308
Ggg:_PKCS1_Sign_v15_m2137018891
oFf:_SetPropertyUtility_SetClass_TisRuntimeObject_m3524554928_gshared
N8b:__ZN17CollisionMeshData20VertexDataHasChangedEv
g$j:_GCHandle__ctor_m2952050298
o0k:__ZN6il2cpp2vm21ThreadPoolCompartment12DetachThreadEP12Il2CppThread
ABa:__ZN13GfxDeviceGLES30SetBackBufferColorDepthSurfaceEP17RenderSurfaceBaseS1_
Xqh:_Latin1Encoding_GetBytes_m1067304501
Hsc:__Z52Register_UnityEngine_GUIUtility_get_systemCopyBufferv
r7b:__ZN16StreamedResource8TransferI18StreamedBinaryReadILb0EEEEvRT_
Phc:__Z49Register_UnityEngine_Input_get_imeCompositionModev
Rud:__ZN5physx6shdfnd5ArrayINS_12PxActorShapeENS0_19ReflectionAllocatorIS2_EEE8recreateEj
_Tb:__ZN15dense_hashtableINSt3__24pairIKiN4core17string_with_labelILi1EEEEEi18SInt32HashFunctionN14dense_hash_mapIiS5_S7_NS0_8equal_toIiEE13stl_allocatorIS6_L18MemLabelIdentifier1ELi16EEE9SelectKeyESA_SD_E12resize_deltaEjj
rQg:_ReadOnlyCollection_1__ctor_m2387481411_gshared
i6a:__ZNK20OcclusionCullingData22GetStaticRendererCountEv
bie:_UNITY_tt_face_free_ps_names
bp:FUNCTION_TABLE_iiiiifi
M$a:__ZNK6Camera17GetSkyboxMaterialEv
gSl:_emscripten_glDisableVertexAttribArray__wrapper
d9j:_InternalEnumerator_1_get_Current_m3259181373_AdjustorThunk
abk:_InternalEnumerator_1_get_Current_m789289033_gshared
SIj:_DelegatePInvokeWrapper_AudioConfigurationChangeHandler_t3743753033
Ife:__ZNSt3__26vectorIN20TextRenderingPrivate8FontImpl13CharacterInfoE13stl_allocatorIS3_L18MemLabelIdentifier34ELi16EEE6insertENS_11__wrap_iterIPKS3_EERS9_
rSf:_Array_InternalArray__get_Item_TisUILineInfo_t3621277874_m1432166059_gshared
_xb:__ZN12MeshRenderer18CalculateLocalAABBER4AABBRKS_RK4Mesh
Tfd:__ZN5physx2Sc9ClothCore20setMotionConstraintsEPKNS_31PxClothParticleMotionConstraintE
Jzk:_X509CertificateCollection_GetEnumerator_m3994741635
IXf:_Guid_ToString_m3927110175
Hfb:__ZN21UnityDefaultAllocatorI17LowLevelAllocatorE8AllocateEji
E5e:_Image_get_preferredHeight_m1045199335
pKd:__ZN5physx23PxcContactCapsuleConvexERKNS_2Gu13GeometryUnionES3_RKNS_11PxTransformES6_RKfRNS_10PxcNpCacheERNS0_13ContactBufferE
Wte:__ZL28InitializeUIScriptingClassesv
aec:__Z43AssetBundleRequest_Get_Custom_PropAllAssetsP12Il2CppObject
pra:__ZN10UnityScene10ClearRootsEv
Qbe:__Z50Register_UnityEngine_BoxCollider_INTERNAL_get_sizev
DRa:__ZN12HandlerChain10AtomicMoveER13FileEntryDataS1_
pFf:_SetPropertyUtility_SetStruct_TisBoolean_t3825574718_m752301298_gshared
haa:__ZZN15DirectorManager15InitializeClassEvEN48PreLateUpdateDirectorDeferredEvaluateRegistrator7ForwardEv
_$:__ZN20SpeedTreeWindManager6UpdateEf
IMj:_Color_op_Multiply_m325555950
Nmk:_Literal_GetWidth_m1285678191
yT:__Z71Register_UnityEngine_Audio_AudioClipPlayable_INTERNAL_CALL_ValidateTypev
ghg:_RSAManaged_GetPaddedValue_m4394397
xD:__ZN7mecanim9animation20CreateAvatarConstantEPNS_8skeleton8SkeletonEPNS1_13SkeletonPoseTIN4math4trsXEEES8_PNS_5human5HumanES3_iRKS6_RNS_6memory9AllocatorE
$5f:_UnexceptionalStreamWriter__ctor_m2209699189
oIj:_AudioMixerPlayable_INTERNAL_CALL_SetAutoNormalizeInternal_m2425179629
Mvg:_List_1_Find_m970100220_gshared
xrk:_Transform_INTERNAL_get_rotation_m2427701365
KEf:_Array_InternalArray__ICollection_Remove_TisVector2_t2243707579_m3881494282_gshared
fnj:_Transform_1_Invoke_m719893226_gshared
txb:__ZN14CompressedMesh8TransferI19StreamedBinaryWriteILb0EEEEvRT_
l_c:__ZN5physx6shdfnd5ArrayIPvNS0_15InlineAllocatorILj256ENS0_19ReflectionAllocatorINS_14NpRigidDynamicEEEEEE15growAndPushBackERKS2_
r7h:_AssemblyFileVersionAttribute__ctor_m2026149866
_dc:__Z58AssetBundleCreateRequest_CUSTOM_DisableCompatibilityChecksP12Il2CppObject
vLf:_Array_InternalArray__ICollection_CopyTo_TisUILineInfo_t3621277874_m2142954044_gshared
zdi:_TypeBuilder_SetParent_m387557893
iNc:__ZN5physx3Cct9SweepTest13onOriginShiftERKNS_6PxVec3E
iih:_SerializationInfo_SetType_m499725474
CYg:_CipherSuiteCollection_cultureAwareCompare_m1825407448
CTf:_DateTimeFormatInfo_GetEraName_m1437894363
$Lf:_Array_InternalArray__Insert_TisLabelFixup_t4090909514_m3927736182_gshared
ych:_X509KeyUsageExtension_Encode_m3100824560
Ykb:__ZN24GenerateTypeTreeTransfer8TransferI21PlatformShaderDefinesEEvRT_PKc17TransferMetaFlags
gBb:__ZNK15ResourceManager22GetTypeVirtualInternalEv
uuj:_DefaultComparer_GetHashCode_m1728348656_gshared
H7e:_InputField_MouseDragOutsideRect_m3758282095
XRj:_Outline_ModifyMesh_m3796381413
yce:__ZN13TextRendering4Font23VirtualRedirectTransferER24GenerateTypeTreeTransfer
uKc:__ZN5physx6shdfnd5ArrayINS_11PxDebugLineENS0_19ReflectionAllocatorIS2_EEE15growAndPushBackERKS2_
nGd:__ZN5physx25solveContactConcludeBlockEPKNS_23PxcSolverConstraintDescEjRNS_16PxcSolverContextE
Edh:_Interpreter_PopulateGroup_m4098755954
tWg:_PrivateKeyInfo_DecodeRSA_m919734506
Zhc:__ZNSt3__27__sort4IRNS_6__lessI11KeyframeTplIfES3_EEPS3_EEjT0_S7_S7_S7_T_
mKd:__ZN5physx21PxcContactPlaneConvexERKNS_2Gu13GeometryUnionES3_RKNS_11PxTransformES6_RKfRNS_10PxcNpCacheERNS0_13ContactBufferE
b$f:_IntPtr__ctor_m3803259710
vwf:_Decimal_Multiply_m1884379383
KBg:_Enumerator_System_Collections_IEnumerator_get_Current_m1270503615_gshared
gmi:_GUILayoutGroup_CalcHeight_m1454440153
v8j:_InternalEnumerator_1_System_Collections_IEnumerator_get_Current_m3315293493_gshared
_Cj:_AnimatorControllerPlayable_ResetTriggerID_m1114520954
IYa:__ZN11HaloManager17RenderGeometryJobEP25DynamicVBOGeometryJobDataj
L_f:_Int64_Parse_m4214159959
jbk:_InternalEnumerator_1_System_Collections_IEnumerator_get_Current_m4023948615_gshared
yF:__ZNSt3__227__insertion_sort_incompleteIRPFbN7mecanim9animation13MuscleIndexIdES3_EPS3_EEbT0_S8_T_
SSe:_BaseInput_get_mousePresent_m3571192771
sSl:_emscripten_glBlendEquation__wrapper
iel:__ZN15dense_hashtableINSt3__24pairIK10KeyWrapperIP11Il2CppClassES4_EES5_N6il2cpp8metadata16SZArrayClassHashEN14dense_hash_mapIS5_S4_SA_NS5_14EqualsComparerINS9_19SZArrayClassCompareEEENS0_9allocatorIS7_EEE9SelectKeyESE_SG_E13set_empty_keyERKS7_
zFl:__ZNSt3__212basic_stringIcNS_11char_traitsIcEENS_9allocatorIcEEE6__initEPKcj
tk:_emscripten_set_fullscreenchange_callback
Qod:__ZN5physx2Sc5Scene11preAllocateEjjjjj
rgg:_KeyPairPersistence__IsUserProtected_m3417764903
$ch:_CategoryUtils_CategoryFromName_m226887453
Twf:_Decimal_op_Division_m1099836590
fY:__ZN11UnityEngine15CloudWebService14DataDispatcher22ResetNetworkRetryIndexEv
_a:invoke_vifiiiiiiiiiiiiiiiiiiiiiiiiiiii
yk:_emscripten_glDrawArrays
sbe:__Z40CapsuleCollider_Get_Custom_PropDirectionP12Il2CppObject
tTa:__ZZ23InitPlayerLoopCallbacksvEN43EarlyUpdateExecuteMainThreadJobsRegistrator7ForwardEv
IX:__ZN11UnityEngine15CloudWebService19SessionEventManagerC2Ev
f1f:_File_Open_m1543461971
m4j:_LogicalCallContext_GetObjectData_m104142736
Mlf:_Hashtable_KeyEquals_m1433874944
_jk:_QuickSearch_GetShiftDistance_m2364008966
zvk:_TouchScreenKeyboard_get_text_m538529702
GEe:__ZN13RuntimeStaticI14dynamic_bitsetLb0EE16StaticInitializeEPv
sOc:__ZN5physx3Ext9MassProps13rotateInertiaERKNS_7PxMat33ERKNS_6PxQuatE
RS:__ZL19CleanupModule_Audiov
cKk:_GenericComparer_1_Compare_m2516380588_gshared
N4k:__ZN6il2cpp2os4File10DeleteFileERKNSt3__212basic_stringIcNS2_11char_traitsIcEENS2_9allocatorIcEEEEPi
n0f:_File_Exists_m1685968367
UIb:__Z29Transfer_Blittable_ArrayFieldI14SafeBinaryReadiEvRT_R9ArrayInfoRK23StaticTransferFieldInfo
e1k:__ZN6il2cpp6icalls8mscorlib6System8MonoType8GetFieldEP20Il2CppReflectionTypeP12Il2CppStringi
pZk:__ZN15dense_hashtableINSt3__24pairIK10KeyWrapperIN6il2cpp5utils13dynamic_arrayIPK10Il2CppTypeLj4EEEEPFvvEEESA_NS3_8metadata19Il2CppSignatureHashEN14dense_hash_mapISA_SD_SG_NSA_14EqualsComparerINSF_22Il2CppSignatureCompareEEENS0_9allocatorISE_EEE9SelectKeyESK_SM_E5clearEv
fHj:_AudioClipPlayable__ctor_m1273139759_AdjustorThunk
ZLj:_Collider_ClosestPoint_m1789427421
vOl:_emscripten_glVertexAttrib3fv__wrapper
RSg:_Comparison_1_BeginInvoke_m1549337842_gshared
JBk:_X509Crl_VerifySignature_m25189948
nFf:_PlayableOutputHandle_IsPlayableOutputOfType_TisScriptPlayableOutput_t1666207618_m804587587_AdjustorThunk
ddc:__ZN8Material10GetTextureEN9ShaderLab16FastPropertyNameE
w0b:__ZNK28MonoBehaviourPropertyBinding13GetFloatValueERKN11UnityEngine9Animation10BoundCurveE
NNd:__ZN5physx24PxsParticleSystemBatcher19scheduleDynamicsCpuEPPNS_20PxvParticleSystemSimEjRNS_10PxBaseTaskE
zBb:__ZN14SafeBinaryRead21TransferSTLStyleArrayINSt3__26vectorI4PPtrI6ObjectE13stl_allocatorIS5_L18MemLabelIdentifier51ELi16EEEEEEvRT_17TransferMetaFlags
ZBj:_AnimatorControllerPlayable_INTERNAL_CALL_GetFloatID_m1278007428
axl:_GC_generic_malloc
Ypk:_Rect_op_Equality_m2793663577
SAd:__ZNK5physx2Sq12BucketPruner7overlapERKNS0_9ShapeDataERNS0_14PrunerCallbackE
E0b:__ZNSt3__26vectorI16MessageForwarder13stl_allocatorIS1_L18MemLabelIdentifier6ELi8EEE6resizeEj
Rnj:_Enumerator_System_Collections_IEnumerator_get_Current_m2160496972_AdjustorThunk
SLa:__Z19GetVertexFormatSize12VertexFormat
lr:__ZN14SafeBinaryRead21TransferSTLStyleArrayI13dynamic_arrayIiLj4EEEEvRT_17TransferMetaFlags
ikj:_Enumerator_System_Collections_IDictionaryEnumerator_get_Value_m120250090_gshared
Bca:__ZN15dense_hashtableINSt3__24pairIKN4core12basic_stringIcNS2_20StringStorageDefaultIcEEEE13dynamic_arrayI4PPtrI6SpriteELj4EEEES6_20StringHash32FunctionIS6_EN14dense_hash_mapIS6_SC_SF_NS0_8equal_toIS6_EE13stl_allocatorISD_L18MemLabelIdentifier79ELi16EEE9SelectKeyESI_SL_E9set_valueEPSD_RKSD_
lHd:__ZN5physx23PxsBroadPhaseContextSap7destroyEv
Emb:__ZN19LightProbeOcclusion8TransferI14SafeBinaryReadEEvRT_
Nik:_MatchCollection_TryToGet_m2938913145
xDd:__ZN5physx19PxcGetMaterialShapeEPKNS_12PxsShapeCoreEjRNS_18PxcNpThreadContextEPNS_15PxsMaterialInfoE
KSl:_emscripten_glIsTexture__wrapper
hyi:_Ray_ToString_m2019179238_AdjustorThunk
WGl:_llvm_bswap_i32
sFe:_KeyedHashAlgorithm_get_Key_m3672929432
eBa:__ZN9GfxDevice25ReleaseAsyncCommandHeaderEPN21GfxDeviceAsyncCommand3ArgE
oFj:_AnimatorControllerPlayable_INTERNAL_CALL_PlayInternal_m1154456170
vVg:_MD2Managed_HashCore_m248147901
k9d:__ZZN14PhysicsManager15InitializeClassEvEN40FixedUpdatePhysicsFixedUpdateRegistrator7ForwardEv
GLa:__ZN21UniformBufferTFMethod20IsBoneCountSupportedEi
rFj:_AnimatorControllerPlayable_Play_m3939684325_AdjustorThunk
Qzj:_AnimationClipPlayable_INTERNAL_CALL_GetAnimationClipInternal_m4096750434
oVh:__Z101RuntimeInvoker_Void_t1841601450_RuntimeObject_Single_t2076509932_Int32_t2071877448_Single_t2076509932PFvvEPK10MethodInfoPvPS4_
W2f:_MemoryStream__ctor_m4073175573
c3d:__ZNSt3__26__treeINS_12__value_typeI9ShapePair16TriggerStayStateEENS_19__map_value_compareIS2_S4_NS_4lessIS2_EELb1EEENS_9allocatorIS4_EEE7destroyEPNS_11__tree_nodeIS4_PvEE
ola:__ZN6Shader27MarkShaderStateNotSupportedEPKS_
iLc:__Z13raycast_planeRKN5physx10PxGeometryERKNS_11PxTransformERKNS_6PxVec3ES8_fNS_7PxFlagsINS_9PxHitFlag4EnumEtEEjPNS_12PxRaycastHitEbPFbRSD_PvESG_
Eyh:_UInt16_System_IConvertible_ToBoolean_m887616848_AdjustorThunk
Bdj:__ZL81AnimationTriggers_t3244928895_CustomAttributesCacheGenerator_m_HighlightedTriggerP21CustomAttributesCache
t9a:__ZN10GameObject21EnsureUniqueTransformEbb
gLa:__ZN25TransformFeedbackSkinning8SkinMeshERK18VertexStreamSourceP9GfxBufferP17GPUSkinPoseBufferS4_ii17ShaderChannelMaskb
pjl:__ZN15dense_hashtableINSt3__24pairIK10KeyWrapperIP14Il2CppIUnknownEjEES5_N6il2cpp5utils11PointerHashIS3_EEN14dense_hash_mapIS5_jSB_NS5_14EqualsComparerINS0_8equal_toIS4_EEEENS0_9allocatorIS7_EEE9SelectKeyESG_SI_E12resize_deltaEjj
W6d:__ZN5physx9NpFactory14createInstanceEv
Yrh:_UnicodeEncoding_GetCharCount_m3719064538
aef:_Boolean_CompareTo_m3691698947
vuj:_DefaultComparer_Equals_m3262686272_gshared
PNc:__ZN5physx2Cm12RenderBufferD2Ev
MSc:__ZL32GeomOverlapCallback_PlaneCapsuleRKN5physx10PxGeometryERKNS_11PxTransformES2_S5_PNS_2Gu12TriggerCacheE
ngd:__ZN5physx2Sc9ClothCore13setGlobalPoseERKNS_11PxTransformE
ige:_pshinter_module_class_pic_free
fWj:_Selectable_set_interactable_m63718297
oTk:_AnalyticsTracker_OnEnable_m1011291651
uLf:_Array_InternalArray__ICollection_CopyTo_TisUICharInfo_t3056636800_m2132994790_gshared
Nq:__Z17CalculateGlobalSM23TransformAccessReadOnlyRKN4math7_float4E
xm:_emscripten_glLoadIdentity
pbb:__ZNSt3__26vectorINS_4pairIN4core12basic_stringIcNS2_20StringStorageDefaultIcEEEEPK17MessageIdentifierEENS_9allocatorISA_EEE26__swap_out_circular_bufferERNS_14__split_bufferISA_RSC_EEPSA_
lof:_Decimal_op_GreaterThan_m1625379433
A4a:__Z29CullShadowCastersWithoutUmbraR9IndexListRK17CullingParametersPK4AABBjj
DJc:__ZN5physx2Gu21sweepCapsuleTrianglesEjPKNS_10PxTriangleERKNS0_7CapsuleERKNS_6PxVec3EfPKjRNS_7PxFlagsINS_9PxHitFlag4EnumEtEERfRS7_SI_RjSI_SF_bPKNS0_3BoxE
Sxk:_Vector3_get_down_m2372302126
hr:__ZN4AABB8TransferI14SafeBinaryReadEEvRT_
rZi:__ZL86Object_t1021602117_CustomAttributesCacheGenerator_Object_FindObjectsOfType_m2121813744P21CustomAttributesCache
jOh:__Z79RuntimeInvoker_RuntimeObject_SByte_t454417549_SByte_t454417549_SByte_t454417549PFvvEPK10MethodInfoPvPS4_
uWf:_NotImplementedException__ctor_m808189835
$Xf:_Int16_System_IConvertible_ToDecimal_m2010889121_AdjustorThunk
hyb:__ZN12MeshRenderer23VirtualRedirectTransferER19StreamedBinaryWriteILb0EE
Srb:__ZN18StreamedBinaryReadILb0EE21TransferSTLStyleArrayI13dynamic_arrayI12LightmapDataLj4EEEEvRT_17TransferMetaFlags
djc:__Z49Register_UnityEngine_MonoBehaviour_StartCoroutinev
vdb:__Z11MD5ToStringPh
tP:__ZN20SoundChannelInstanceC2E11SoundHandleb
xNf:_Array_InternalArray__set_Item_TisKeyCode_t2283395152_m436072212_gshared
hng:_Enumerator_MoveNext_m2625246500_AdjustorThunk
Ahc:__Z38Input_Get_Custom_PropCompositionStringv
pth:_UTF8Encoding_GetPreamble_m4179999478
Tti:_ConnectionChangeEvent__ctor_m616483304
tUc:__ZNK5physx2Sc14ConstraintCore13getBreakForceERfS2_
AQc:__ZN5physx2Sc8ShapeSim21destroyLowLevelVolumeEv
IVk:__ZN6il2cpp2vm5Class19GetArrayElementSizeEPK11Il2CppClass
Sle:_cf2_builder_moveTo
dCh:_ValueType_InternalEquals_m4068150072
QV:__ZN9JSONWrite8TransferIN4core12basic_stringIcNS1_20StringStorageDefaultIcEEEEEEvRT_PKc17TransferMetaFlags
hWj:_Selectable_set_isPointerInside_m375338048
Esh:_UTF7Encoding_GetByteCount_m253528135
wWe:_PointerInputModule_CopyFromTo_m2185451090
l5d:__ZThn116_N5physx7profile8ZoneImplINS_28PxProfileNameProviderForwardEED1Ev
B1f:_FileNotFoundException_GetObjectData_m3405690481
IFl:__ZNSt3__212basic_stringIcNS_11char_traitsIcEENS_9allocatorIcEEE6resizeEjc
$md:__ZN5physx2Sc8BodyCore17setAngularDampingEf
sAb:__ZN14PlayerSettings16CheckConsistencyEv
zS:__ZN11AudioModule30GetOrCreateDSPFromCustomFilterEP17AudioCustomFilter
uVa:__ZN19AtomicPageAllocatorD2Ev
po:FUNCTION_TABLE_viiiiiiiiiiiiii
RXd:__ZNK5physx2Gu12TriangleMesh24getTriangleMaterialIndexEj
N6d:__ZN5physx6shdfnd5ArrayIPvNS0_19ReflectionAllocatorINS_24NpPtrTableStorageManager8PtrBlockILi64EEEEEE4copyINS0_15InlineAllocatorILj256ES7_EEEEvRKNS1_IS2_T_EE
Rjl:__ZN6il2cpp6icalls8mscorlib6System13GlobalizationL20culture_lcid_locatorEPKvS5_
bIl:dynCall_vifiiiiiiiiiiiii
WFg:_Collection_1_Add_m3182287887_gshared
JVe:_PointerEventData_set_useDragThreshold_m2778439880
wpb:__ZNK12CubemapArray16ExtractImageImplEP14ImageReferenceNS0_8BlitModeEbi
cjc:__Z63Register_UnityEngine_MonoBehaviour_StartCoroutine_Auto_Internalv
jmb:__ZN5Light8TransferI19StreamedBinaryWriteILb0EEEEvRT_
ebc:__ZN10systeminfo24GetSystemLanguageCultureEi
Crh:_StringBuilder_Append_m3618697540
vVj:_ScrollRect_get_normalizedPosition_m1640825682
LLe:_SecurityElement_IsValidAttributeName_m2201790420
EAb:__ZN10VRSettings8TransferI14SafeBinaryReadEEvRT_
Myh:_UInt16_System_IConvertible_ToDecimal_m984067306_AdjustorThunk
xWd:__ZN5physx13BigConvexData15exportExtraDataERNS_22PxSerializationContextE
hvk:_Texture2D_INTERNAL_CALL_GetPixelBilinear_m570286059
Vge:_UNITY_FT_Outline_Get_CBox
aKf:_Array_InternalArray__ICollection_Add_TisUInt16_t986882611_m2791161149_gshared
na:invoke_viifiiii
Akj:_Enumerator_Reset_m3115320746_gshared
VTf:_NumberFormatter_FormatDecimal_m1435371940
dbg:_SimpleCollator_GetTailContraction_m1037943844
RGe:_RC2CryptoServiceProvider_CreateEncryptor_m252199767
JGk:_U3CStartU3Ec__Iterator0_MoveNext_m2339115502_gshared
mWh:__Z165RuntimeInvoker_Void_t1841601450_RuntimeObject_Int32_t2071877448_Int32_t2071877448_RuntimeObject_Int32_t2071877448_Single_t2076509932_Single_t2076509932_RuntimeObjectPFvvEPK10MethodInfoPvPS4_
XVa:__ZN22PerThreadPageAllocator14AcquireNewPageEj
XR:__ZN24AudioScriptBufferManager15DidReloadDomainEv
YHj:_AudioClipPlayable_Seek_m2908742681
y0a:__ZN6Camera13ClearNoSkyboxEb
n_f:_Int64_System_IConvertible_ToInt64_m989981560_AdjustorThunk
Vug:_List_1_CheckIndex_m2576265846_gshared
sYh:__Z110RuntimeInvoker_Boolean_t3825574718_Vector2_t2243707579_Vector2_t2243707579_Single_t2076509932_SByte_t454417549PFvvEPK10MethodInfoPvPS4_
IOc:__ZN5physx6shdfnd21atomicCompareExchangeEPViii
Zpk:_Rect_GetHashCode_m559954498
nGj:_Application_CallLowMemory_m626389230
GYk:__ZNK15dense_hashtableI10KeyWrapperIPK17Il2CppGenericInstES4_N6il2cpp8metadata21Il2CppGenericInstHashEN14dense_hash_setIS4_S7_NS4_14EqualsComparerINS6_24Il2CppGenericInstCompareEEENSt3__29allocatorIS4_EEE8IdentityESB_SE_E12test_deletedEj
Sbf:_Array_combsort_m2486643569
Ufd:__ZNK5physx2Sc9ClothCore26getNbParticleAccelerationsEv
O8:__ZNSt3__27__sort5IR17CompareInstanceIDPP6ObjectEEjT0_S6_S6_S6_S6_T_
qib:__ZNSt3__26vectorI17SortingLayerEntryNS_9allocatorIS1_EEE12__move_rangeEPS1_S5_S5_
Kuj:_DefaultComparer_Equals_m145577182_gshared
kEa:__ZN18GfxFramebufferGLES10InvalidateEv
ycd:__ZN5physx7NpCloth16lockParticleDataENS_7PxFlagsINS_16PxDataAccessFlag4EnumEhEE
Ojg:_SmallXmlParser_SkipWhitespaces_m2923234398
bwf:_Decimal_System_IConvertible_ToSingle_m1736019752_AdjustorThunk
kHa:__ZN4crnd11crnd_deleteINS_13prefix_coding14decoder_tablesEEEvPT_
wvk:_TouchScreenKeyboard_Open_m2760130151
G$:__ZN10MemoryPoolD2Ev
i$j:_GCHandle__ctor_m2952050298_AdjustorThunk
Q2c:__ZN5physx7NpActor13getOwnerSceneERKNS_7PxActorE
Voc:__ZNSt3__26__treeINS_12__value_typeIN4core12basic_stringIcNS2_20StringStorageDefaultIcEEEEN5IMGUI12NamedControlEEENS_19__map_value_compareIS6_S9_NS_4lessIS6_EELb1EEENS_9allocatorIS9_EEE7destroyEPNS_11__tree_nodeIS9_PvEE
j2g:_SslClientStream_get_SelectedClientCertificate_m1580018944
YEd:__ZN5physx18PxcNpThreadContextC2EfffRKNS_2Cm12RenderOutputERNS_17PxcNpMemBlockPoolEb
epf:_DateTime_FromTicks_m75527956
Zeg:_KeyGeneratedEventHandler_Invoke_m4220935979
MCd:__ZN5physx2Cm12DelegateTaskINS_13PxsCCDContextEXadL_ZNS2_14postCCDAdvanceEPNS_10PxBaseTaskEEEE11runInternalEv
yth:_CompressedStack_Capture_m179370023
Ybe:__Z44Register_UnityEngine_MeshCollider_get_convexv
LEf:_Array_InternalArray__ICollection_Remove_TisVector3_t2243707580_m3881497481_gshared
rEl:___mmap
Icc:__ZN9Scripting26RaiseArgumentNullExceptionEPKc
JXd:__ZN5physx2Gu12TriangleMeshD0Ev
M_:__ZL18InternalLogConsolePKcz
lDl:_lseek
Dug:_List_1_System_Collections_IList_set_Item_m2267202349_gshared
Aog:_Enumerator_System_Collections_IEnumerator_get_Current_m3866069145_AdjustorThunk
mGg:_Collection_1_ConvertItem_m2972284337_gshared
U3:__Z37scripting_method_get_nth_argumenttype18ScriptingMethodPtri
qP:__ZN11AudioSource16UpdatePauseStateEv
v8:__ZL52StaticUnregisterSceneLoadedCallback_LightmapSettingsPv
Gx:__ZN7mecanim5human25HumanPoseAddAdditiveLayerERNS0_9HumanPoseERKS1_fRKNS_6bitsetILj70EEE
ejc:__Z48Register_UnityEngine_MonoBehaviour_StopCoroutinev
s6g:_RemoteCertificateValidationCallback_Invoke_m2237177542
z4e:_HorizontalOrVerticalLayoutGroup_set_childForceExpandWidth_m1140293254
add:__ZN5physx7NpCloth24setParticleAccelerationsEPKNS_6PxVec4E
_Al:__ZN6il2cpp5utils25NativeDelegateMethodCache17AddNativeDelegateEPFvvEPK10MethodInfo
Fbd:__ZN5physx3Scb5Shape18setMaterialsHelperEPKPNS_10PxMaterialEt
MCf:_Array_InternalArray__ICollection_Contains_TisKeyValuePair_2_t1174980068_m650645929_gshared
J$a:__ZN27DeviceViewProjMatricesStateD2Ev
_Vc:__ZN5physx6shdfnd5ArrayINS_19PxsArticulationLinkENS0_19ReflectionAllocatorIS2_EEE8recreateEj
WHe:_RNGCryptoServiceProvider_RngOpen_m2238023214
aJj:_Bounds__ctor_m1202659404_AdjustorThunk
p8h:_CustomAttributeData_GetCustomAttributes_m4124612360
LKb:__Z18Transfer_BlittableI24GenerateTypeTreeTransferLb0E8Vector3fEvRK29SerializationCommandArgumentsR31RuntimeSerializationCommandInfo
Okl:__ZN15dense_hashtableINSt3__24pairIK10KeyWrapperINS1_IPKcS4_EEEiEES6_24NamespaceAndNamePairHashN14dense_hash_mapIS6_iS9_NS6_14EqualsComparerI26NamespaceAndNamePairEqualsEENS0_9allocatorIS8_EEE9SelectKeyESD_SF_E14squash_deletedEv
uce:__ZNK13TextRendering4Font22GetTypeVirtualInternalEv
ifl:__ZN6il2cpp2vm6Thread16RequestInterruptEP12Il2CppThread
_3g:_TlsStream_get_Position_m3551173234
J1j:_LeaseManager_SetPollTime_m3137304074
Vkf:_Hashtable_CalcPrime_m1835281409
Vce:__ZNSt3__26vectorINS_4pairINS1_IttEEfEENS_9allocatorIS3_EEE8__appendEj
pvi:_Physics_RaycastAll_m3928448900
_0j:_SinkProviderData__ctor_m1828480392
Wua:__ZN6prcoreL10inner_flipILj2EEEvPhS1_j
Bdi:_TypeBuilder_has_ctor_method_m3449702467
qvc:__ZN9JSONWrite8TransferIbEEvRT_PKc17TransferMetaFlags
mbf:_Array_CreateInstance_m679102425
cfb:__ZN12TLSAllocatorI14StackAllocatorED0Ev
l$j:_GCHandle_GetTarget_m2056570211
Dzb:__ZN11TimeManager16CheckConsistencyEv
WTc:__ZN5physx3Scb5Scene12addRigidBodyERNS0_4BodyEb
cZa:__ZN21GfxDeviceAsyncCommand10ArgScratch15ThreadedCleanupEv
kOl:_emscripten_glDeleteTextures__wrapper
w6b:__Z14DoubleToStringd
bTg:_BigInteger_GenerateRandom_m1878468830
kKb:__ZN12NativeBufferI27Converter_UnityEngineObjectE15SetupForWritingER9ArrayInfo
a3e:_Graphic_UpdateGeometry_m2431537946
_e:_glTexImage3D
OS:__Z20RegisterModule_Audiov
LYg:_TlsCipherSuite__ctor_m2983563913
XGc:__ZNK5physx2Gu17ShrunkConvexHullV10planeShiftEjRKNS_6shdfnd3aos6FloatVE
bMd:__ZN5physx2GuL35fullContactsGenerationCapsuleConvexERKNS0_8CapsuleVERKNS0_11ConvexHullVERKNS_6shdfnd3aos15PsMatTransformVERKNS8_12PsTransformVESE_PNS0_17PersistentContactERjRNS0_13ContactBufferEbRNS0_25PersistentContactManifoldERNS8_5Vec3VERKNS8_6FloatVEb
t_c:__ZNK5physx14PxArticulation19getConcreteTypeNameEv
FId:__ZN3MBP17populateNewRegionERK5IAABB
Xn:FUNCTION_TABLE_vifiiiiiiiiiiiii
Qnl:__ZN6il2cpp2vm6Object13UnboxNullableEP12Il2CppObjectP11Il2CppClassPv
hf:_JS_SystemInfo_GetCurrentCanvasWidth
TNg:_ReadOnlyCollection_1_System_Collections_IList_Remove_m2668898250_gshared
icc:__ZL34GetComponentsImplementationRecurseILb1ELi0ELi1EEbR10GameObjectbRK17CompareParametersRK39GetComponentsImplementation_ReturnValue
bti:_Mesh_SetColors_m3438776703
Nek:_InternalEnumerator_1_System_Collections_IEnumerator_get_Current_m1533037706_AdjustorThunk
whl:__ZN6il2cpp2vm14PlatformInvoke30MarshalCSharpStringToCppStringEP12Il2CppString
ynl:__ZN6il2cpp2vm5Field10IsInstanceEP9FieldInfo
Ixh:_Type_GetTypeHandle_m2405042843
kLc:__Z11raycast_boxRKN5physx10PxGeometryERKNS_11PxTransformERKNS_6PxVec3ES8_fNS_7PxFlagsINS_9PxHitFlag4EnumEtEEjPNS_12PxRaycastHitEbPFbRSD_PvESG_
XAb:__ZN10VRSettings8TransferI18StreamedBinaryReadILb0EEEEvRT_
Kw:__ZN22AnimationMixerPlayable12MixerProcessEP35AnimationPlayableEvaluationConstantP32AnimationPlayableEvaluationInputP33AnimationPlayableEvaluationOutputM17AnimationPlayableFvS1_S3_S5_EPFvS1_S3_S5_ESA_PFvS5_S1_S3_S5_PN7mecanim16ValueArrayWeightEfEPFvS1_S3_S5_SD_fE
X9j:_InternalEnumerator_1_System_Collections_IEnumerator_get_Current_m1322273508_AdjustorThunk
XRe:_DecoderFallbackException__ctor_m3081822699
f8d:__Z13RegisterClassI11BoxColliderEvv
bQh:__Z145RuntimeInvoker_Void_t1841601450_RuntimeObject_RuntimeObject_RuntimeObject_Int32_t2071877448_Int32_t2071877448_Int32_t2071877448_Int32_t2071877448PFvvEPK10MethodInfoPvPS4_
bub:__ZN6Sprite8TransferI14SafeBinaryReadEEvRT_
XNb:__Z19TransferField_ArrayI19StreamedBinaryWriteILb0EE27Converter_SimpleNativeClassI8GradientEEvRK23StaticTransferFieldInfoR31RuntimeSerializationCommandInfoRT0_
w1f:_FileLoadException_ToString_m319701103
N3f:_NullStream_Seek_m1809916110
axc:__Z18Transfer_BlittableI8JSONReadLb0E12PropertyNameEvRK29SerializationCommandArgumentsR31RuntimeSerializationCommandInfo
IRc:__ZN5physx6shdfnd4sortIPvNS0_4LessIS2_EENS0_19ReflectionAllocatorINS_2Sc26ActorPairContactReportDataEEEEEvPT_jRKT0_RKT1_j
Ywf:_Delegate_SetMulticastInvoke_m361277268
Nph:_EncoderReplacementFallbackBuffer_get_Remaining_m2777488845
Qub:__ZN7SubMesh8TransferI18StreamedBinaryReadILb0EEEEvRT_
iIc:__ZN5physx2Gu14sweepBoxSphereERKNS0_3BoxEfRKNS_6PxVec3ES6_fRfRS4_NS_7PxFlagsINS_9PxHitFlag4EnumEtEE
pmb:__ZN15SharedLightData17MainThreadCleanupEv
hth:_UTF8Encoding_GetCharCount_m3557355060
B9j:_InternalEnumerator_1_System_Collections_IEnumerator_get_Current_m127456009_gshared
Of:_emscripten_glIsEnabled
NPb:__ZN18StreamedBinaryReadILb1EE21TransferSTLStyleArrayI13dynamic_arrayIdLj8EEEEvRT_17TransferMetaFlags
Ogc:__Z45Register_UnityEngine_GameObject_get_transformv
b3:__Z29scripting_class_instance_size17ScriptingClassPtr
bSk:_Func_2_Invoke_m2929712329_gshared
L2g:_SslHandshakeHash_initializePad_m4132246594
xbh:_X509CertificateCollection_get_Item_m848456018
iY:__ZN11UnityEngine15CloudWebService19SessionEventManager26ProcessEventQueueJobStaticEPv
Clk:_AnchorInfo_get_IsUnknownWidth_m3747592836
G_h:__Z99RuntimeInvoker_Void_t1841601450_Int32_t2071877448_Int32_t2071877448_Int32_t2071877448_RuntimeObjectPFvvEPK10MethodInfoPvPS4_
rdd:__ZN5physx7NpCloth21removeCollisionSphereEj
pHl:dynCall_fiff
Gz:__ZN23AnimationPlayableOutputC2EjP13PlayableGraph
gvk:_Texture2D_GetPixelBilinear_m3063031185
aCl:__ZN6il2cpp6icalls8mscorlib6System10Reflection4Emit11DerivedType21create_unmanaged_typeEP20Il2CppReflectionType
fG:__ZN7mecanim12statemachine13GetStateIndexEPKNS0_20StateMachineConstantEj
kkh:_FormatterConverter_ToInt32_m1004171952
raf:_Array_System_Collections_IList_set_Item_m4290470392
Vih:_RemotingConfiguration_RegisterActivatedServiceType_m4003543022
Vkc:__Z39Register_UnityEngine_Sprite_get_texturev
TJd:__ZN5physx2Cm12DelegateTaskINS_10PxsContextEXadL_ZNS2_23prepareCMDiscreteUpdateEPNS_10PxBaseTaskEEEE11runInternalEv
C1j:_ConfigHandler_GetNotNull_m2454680251
ESk:__ZL10rescale128PyS_Piiiii
FK:__ZN9AudioClip7WWWSeekEPvjS0_
pWc:__ZN5physx2Sc15ArticulationSimD2Ev
nDf:_Array_InternalArray__ICollection_Contains_TisUInt32_t2149682021_m672455245_gshared
tBh:_UIntPtr_System_Runtime_Serialization_ISerializable_GetObjectData_m3481735378
L6:__ZL32StaticInitializeIUnityInterfacesPv
DYa:__Z13CameraProjectRK8Vector3fRK10Matrix4x4fS4_RK5RectTIiERS_b
SCb:__ZN30RuntimeInitializeOnLoadManager15ClassMethodInfo8TransferI19StreamedBinaryWriteILb0EEEEvRT_
K7:__Z22CreateMutexLockedStackv
utf:_DateTime_System_IConvertible_ToType_m3821835592
Teh:_IntervalCollection_get_Item_m1667788970
c5d:__ZN5physx7profile8ZoneImplINS_28PxProfileNameProviderForwardEE7releaseEv
Nya:__ZNSt3__27__sort5IRNS_4lessIN22BuiltinResourceManager8ResourceEEEPS3_EEjT0_S7_S7_S7_S7_T_
Tqh:_Latin1Encoding_GetByteCount_m2812921286
qUa:__ZN9ShaderLab11ShaderStateD2Ev
Lvf:_Decimal_System_IConvertible_ToByte_m3432160840
sLc:__ZN5physxmlERKNS_11PxMeshScaleERKNS_11PxTransformE
mpe:_Ins_DELTAP
R4e:_Image_get_fillCenter_m3441725367
Mqh:_UTF7Encoding__ctor_m1941256679
pEb:__Z23TransferScriptingObjectI24GenerateTypeTreeTransferEvRT_18ScriptingObjectPtr17ScriptingClassPtrPK15MonoScriptCache
nkh:_BinaryCommon__cctor_m3619690968
qBk:_X509Chain_FindCertificateRoot_m589250107
DNb:__ZL17Transfer_GUIStyleI19StreamedBinaryWriteILb0EELb0EEvRK29SerializationCommandArgumentsR31RuntimeSerializationCommandInfo
cqk:_UnityString_Format_m2949645127
Bkf:_Comparer_GetObjectData_m3370677985
lGk:_UnityEvent_4_GetDelegate_m2704961864_gshared
k2f:_FileStream_WriteInternal_m115274124
cxd:__ZNK5physx2Sc15ArticulationSim10isSleepingEv
hlh:_ObjectManager_RaiseOnDeserializingEvent_m1841526046
QQe:_String_CreateString_m560359261
Hhe:_UNITY_FT_Init_Class_tt_service_get_cmap_info
eph:_DSA_ToXmlString_m1014346120
xCl:___shlim
mJe:_SHA256Managed__ctor_m1410575277
yBf:_CompareInfo_internal_index_managed_m859405335
wdf:_Boolean_System_IConvertible_ToDateTime_m2613818037_AdjustorThunk
O$k:__ZNSt3__211__tree_nextIPNS_16__tree_node_baseIPvEEEET_S5_
xPg:_ReadOnlyCollection_1_System_Collections_IList_Clear_m2240307498_gshared
rll:__ZN15dense_hashtableI10KeyWrapperIP18Il2CppGenericClassES3_N6il2cpp8metadata22Il2CppGenericClassHashEN14dense_hash_setIS3_S6_NS3_14EqualsComparerINS5_25Il2CppGenericClassCompareEEENSt3__29allocatorIS3_EEE8IdentityESA_SD_E14squash_deletedEv
aol:__ZN6il2cpp2vm11MethodStack17GetStackFramesRawEv
Hqa:__ZN6prcoreL17RemapGenericFloatI17TexFormatRGBAHalf17TexFormatRGBFloatEEvPKNS_9InnerInfoE
zkh:_BinaryFormatter_NoCheckDeserialize_m1968202401
s3e:_Graphic_CrossFadeAlpha_m4067047552
QYh:__Z92RuntimeInvoker_Void_t1841601450_RuntimeObject_RuntimeObject_Color32_t874517518_RuntimeObjectPFvvEPK10MethodInfoPvPS4_
Jkc:__Z35Sprite_Get_Custom_PropPixelsPerUnitP12Il2CppObject
ozc:__ZN9rapidjson12PrettyWriterI16TempBufferWriterNS_4UTF8IcEES3_13JSONAllocatorE10StartArrayEv
IYk:__ZNSt3__26__sortIRN6il2cpp5utils11collections13ArrayValueMapIPK10Il2CppType17Il2CppInteropData26InteropDataToTypeConverterNS1_8metadata14Il2CppTypeLessENSA_26Il2CppTypeEqualityComparerEE12SortComparerEPS8_EEvT0_SH_T_
_Eb:__ZN11PreloadDataD2Ev
WDe:__ZN15DownloadHandler14ProcessHeadersERK9HeaderMap
Cc:invoke_iifi
jaa:__ZZN15DirectorManager15InitializeClassEvEN44PostLateUpdateDirectorRenderImageRegistrator7ForwardEv
dLd:__ZN5physx2Gu31SinglePersistentContactManifold20refreshContactPointsERKNS_6shdfnd3aos15PsMatTransformVERKNS3_6FloatVES9_
tDi:__ZL79Hashtable_t909839986_CustomAttributesCacheGenerator_Hashtable__ctor_m3742489710P21CustomAttributesCache
onc:__ZN18CrashReportHandler10SendReportER16CrashReportEvent
usi:_Mesh__ctor_m2975981674
BZj:_VertexHelper_AddUIVertexStream_m3599763288
Sri:_Mathf_Abs_m1942863256
iwj:_EqualityComparer_1_System_Collections_IEqualityComparer_Equals_m1565968086_gshared
Yel:__ZN6il2cpp2vmL24thread_cleanup_on_cancelEPv
ltd:__ZN5physx7NpScene15getRenderBufferEv
TMf:_Array_InternalArray__set_Item_TisSlot_t2022531261_m3811041838_gshared
iwa:__ZN15SharedLightData15UpdateTransformERK9Transform
lHe:_RijndaelTransform__cctor_m1393306207
P2e:_Graphic_get_defaultMaterial_m1022773737
kle:_UNITY_FT_Init_Class_pscmaps_interface
oXj:_Slider_OnDidApplyAnimationProperties_m3202463395
fSe:_EncoderExceptionFallback__ctor_m3203614411
l4e:_GridLayoutGroup_SetLayoutVertical_m3233681648
sgc:__Z44Register_UnityEngine_RectOffset_get_verticalv
lyh:_Type_MakeGenericType_m973683242
DAl:__ZN6il2cpp2vm9LastError31InitializeLastErrorThreadStaticEv
X1b:__ZN13ProduceHelperI13RenderTextureLb0EE7ProduceE18MemLabelIdentifier18ObjectCreationMode
ggb:__ZN5Unity9Component8TransferI14SafeBinaryReadEEvRT_
Gbi:_FieldBuilder_GetCustomAttributes_m291168515
vIj:_AudioPlayableOutput_INTERNAL_CALL_InternalSetTarget_m3274611424
Sgi:_MonoGenericCMethod__ctor_m2520666358
Oh:_JS_SystemInfo_GetCurrentCanvasHeight
Cvi:_AudioPlayableGraphExtensions_InternalCreateAudioOutput_m433444197
f7j:_InternalEnumerator_1_System_Collections_IEnumerator_get_Current_m1313308902_gshared
khh:_ReturnMessage_get_OutArgs_m299904174
dma:__ZNK8Material22GetTypeVirtualInternalEv
Mqc:__Z34GUIStyle_Get_Custom_PropFixedWidthP12Il2CppObject
hae:__ZN25PostFilteredUserCollector10postFilterERKN5physx12PxFilterDataERKNS0_10PxQueryHitE
ehg:_RSAManaged_get_PublicOnly_m2603845138
$vf:_Decimal_System_IConvertible_ToSByte_m3745141000_AdjustorThunk
brd:__ZN5physx2Sc19ShapeInstancePairLL10onActivateEj
Eql:__ZN6il2cpp2gc16GarbageCollector11GetWeakLinkEPPv
l8f:_MonoType_GetMethods_m353342170
lDh:__Z108RuntimeInvoker_Boolean_t3825574718_SByte_t454417549_RuntimeObject_Int32_t2071877448_ExceptionU26_t1467204777PFvvEPK10MethodInfoPvPS4_
Nol:__GLOBAL__sub_I_Console_cpp
xqa:__ZN6prcoreL17RemapGenericFloatI14TexFormatRHalf17TexFormatRGBAHalfEEvPKNS_9InnerInfoE
I2k:__ZN6il2cpp2vm7Runtime11InvokeArrayEPK10MethodInfoPvP11Il2CppArrayPP15Il2CppException
UH:__Z71AnimatorControllerPlayable_CUSTOM_INTERNAL_CALL_PlayInFixedTimeInternalR9HPlayableiif
uVf:_GregorianCalendar_get_Eras_m4010603022
xzf:_Enum_System_IConvertible_ToUInt16_m1001858842
EEc:__ZN5physx2Gu18contactCapsuleMeshERKNS0_13GeometryUnionES3_RKNS_11PxTransformES6_RKfRNS0_5CacheERNS0_13ContactBufferE
_rj:_Dictionary_2_make_pair_m394533803_gshared
qpe:_Dual_Project
FJ:__ZN9AudioClip23VirtualRedirectTransferER14SafeBinaryRead
IMd:__ZN5physx24PxsParticleSystemBatcherC2ERNS_10PxsContextE
aAd:__ZN5physx11EdgeManagerD0Ev
gKa:__ZN4gles20EnsureTextureCreatedEP7ApiGLESP17RenderSurfaceGLES
eaf:_LayoutRebuilder_U3CRebuildU3Em__2_m3239837417
tZa:__ZN15ReplacementPass13PrepareSubsetEjRK10RenderNodeifRK17ShaderReplaceData
awf:_Decimal_System_IConvertible_ToSingle_m1736019752
AO:__Z32AudioMeasurement_GetTimeConstantff
apl:__ZN6il2cpp2os6Thread10RunWrapperEPv
frl:__ZN6il2cpp8metadata11FieldLayout12LayoutFieldsEjjjRKNSt3__26vectorIPK10Il2CppTypeNS2_9allocatorIS6_EEEERNS1_15FieldLayoutDataE
s8i:__ZL54ContextMenu_t2283362202_CustomAttributesCacheGeneratorP21CustomAttributesCache
b5a:__ZL27PrepareSceneNodesJobCombineP25ScheduleSceneNodesJobData
yHb:__Z22TransferField_NonArrayI14SafeBinaryRead27Converter_SimpleNativeClassI8GUIStyleEEvRK23StaticTransferFieldInfoR31RuntimeSerializationCommandInfoRT0_
Fgf:_Char_Parse_m2121403806
Kza:__ZN13GfxDeviceGLESD2Ev
k9:__ZN18AsyncUploadManager13StaticDestroyEPv
Rai:_EnumBuilder_GetConstructorImpl_m331611313
nTb:__ZN6Shader7SetNameEPKc
_ba:__ZN14dense_hash_mapIN4core12basic_stringIcNS0_20StringStorageDefaultIcEEEE13dynamic_arrayI4PPtrI6SpriteELj4EE20StringHash32FunctionIS4_ENSt3__28equal_toIS4_EE13stl_allocatorINSC_4pairIKS4_S9_EEL18MemLabelIdentifier79ELi16EEE13set_empty_keyERSH_
T$e:_DefaultControls_SetParentAndAlign_m3048898502
wab:__ZN19CustomRenderTexture22HandleBoundaryWrappingERKNS_14UpdateZoneInfoEj
K$k:__ZN6il2cpp2vm13MetadataCache32GenerateCustomAttributeTypeCacheEi
Mbh:_X509Chain__cctor_m826131835
WIg:_Collection_1_InsertItem_m1073626529_gshared
vSc:__ZN5physx6shdfnd5ArrayIPvNS0_15InlineAllocatorILj256ENS0_19ReflectionAllocatorINS_2Sc24ElementInteractionMarkerEEEEEE15growAndPushBackERKS2_
zA:__ZNK11UnityEngine9Animation30GenericBindingValueArrayUniqueclERKNS0_14GenericBindingES4_
pcf:_ArrayTypeMismatchException__ctor_m1923871345
Boh:_CspParameters__ctor_m3051314030
FOd:__ZN5physx2Sc8ClothSim18addCollisionConvexEPKNS0_8ShapeSimE
vpe:_Direct_Move_Y
tpe:_Direct_Move_X
Vah:_X509ChainElement_Set_m2634474339
rPj:_Event_get_isKey_m1145918225
sdf:_Boolean_System_IConvertible_ToByte_m1443044213_AdjustorThunk
Bnc:__ZN18CrashReportHandlerC2ERKN4core12basic_stringIcNS0_20StringStorageDefaultIcEEEES6_y
hj:_glClearDepthf
K1b:__ZN19SkinnedMeshRenderer7GetMeshEv
EZb:__ZN19RuntimeSceneManager14GetActiveSceneEv
XGl:_memcpy
LBd:__ZN15AABBTreeOverlapIN5physx2Gu14SphereAABBTestEEclEPNS0_2Sq13PrunerPayloadERKNS4_8AABBTreeERKS2_RNS4_14PrunerCallbackE
f2k:__ZN6il2cpp6icalls8mscorlib6SystemL8IsStaticEPK9EventInfo
bgc:__Z29RectOffset_Set_Custom_PropTopP12Il2CppObjecti
Xlc:__Z57Register_UnityEngine_Transform_INTERNAL_get_localPositionv
xig:_X509ExtensionCollection__ctor_m2745210602
y3a:__ZNSt3__27__sort4IR15ReflProbeSorterPP15ReflectionProbeEEjT0_S6_S6_S6_T_
Cmb:__ZN14SafeBinaryRead21TransferSTLStyleArrayI13dynamic_arrayI19LightProbeOcclusionLj4EEEEvRT_17TransferMetaFlags
kye:__Z55Register_UnityEngine_Analytics_CustomEventData_AddInt16v
cRj:_MaskableGraphic_Cull_m3130802047
kLj:_CanvasRenderer_Clear_m2419751129
u1g:_RecordProtocol_MapV2CipherCode_m4064211604
nRe:_ASCIIEncoding_GetByteCount_m2696039881
WHd:__ZN5physx16PxsBroadPhaseMBPD2Ev
h1g:_ReceiveRecordAsyncResult_SetComplete_m2441107665
qLj:_CanvasRenderer_AddUIVertexStream_m1988414477
lnb:__ZN20SphericalHarmonicsL28TransferI19StreamedBinaryWriteILb0EEEEvRT_
d_e:_CanvasUpdateRegistry_InternalUnRegisterCanvasElementForLayoutRebuild_m3740187734
T0b:__ZNK28RectTransformPropertyBinding9BindValueER6ObjectRKN11UnityEngine9Animation14GenericBindingERNS3_10BoundCurveE
lai:_DerivedType_get_AssemblyQualifiedName_m2010127631
Fxb:__ZN4Mesh14UploadMeshDataEb
asd:__ZN5physx7NpScene9addActorsEPKPNS_7PxActorEj
n2f:_FileStream_BeginWrite_m3895959548
WWc:__ZN5physx2Sc8ShapeSimD0Ev
Ikg:_ArgIterator_Equals_m2415994310
XQh:__Z85RuntimeInvoker_Char_t3454481338_RuntimeObject_Int32U26_t455636984_CharU26_t1894467670PFvvEPK10MethodInfoPvPS4_
CIk:_AesManaged_get_KeySize_m2773901127
$1b:__ZN14RenderSettings12CleanupClassEv
Rkc:__Z43DataUtility_CUSTOM_INTERNAL_CALL_GetPaddingP12Il2CppObjectR8Vector4f
IHa:__ZN18AsyncUploadManager15DoDeCruncherJobEP26FileAssetUploadInstruction
wCa:__ZN9GfxDevice15ImmediateNormalEfff
M4c:__ZN5physx7NpActor7releaseERNS_7PxActorE
Rph:_EncoderReplacementFallbackBuffer_GetNextChar_m1811006007
kpk:_Vector2__ctor_m3067419446
g9a:__ZN15SerializeTraitsI13dynamic_arrayIN10GameObject13ComponentPairELj4EEE19ResizeSTLStyleArrayERS3_i18MemLabelIdentifier
ULb:__ZN13GUIStyleState8TransferI24GenerateTypeTreeTransferEEvRT_
W4:__ZN20dynamic_block_vectorI14FileIdentifierE22push_back_no_constructEv
Dua:__ZN9Texture3D23VirtualRedirectTransferER14SafeBinaryRead
TCk:_Predicate_1_Invoke_m3539717340_gshared
Erh:_StringBuilder_Append_m1462406979
WUb:__ZNSt3__26vectorIN9ShaderLab20SerializedSubProgram16TextureParameterENS_9allocatorIS3_EEE8__appendEj
Vqb:__ZN9Texture2D13UploadTextureEi
wqh:_Type_GetType_m773255995
$ne:_cff_get_cid_from_glyph_index
L6b:__ZN13PlayableGraph4StopEv
hSj:_RawImage__ctor_m527845386
WN:__ZN4FMOD6System19setSoftwareChannelsEi
hNf:_Array_InternalArray__set_Item_TisResourceCacheItem_t333236149_m2074358118_gshared
LQd:__ZN5physx38PxsSolverCreateFinalizeConstraintsTask11runInternalEv
yOe:_Single_CompareTo_m2081476257_AdjustorThunk
x9g:_X500DistinguishedName_DecodeRawData_m3640767187
ZVj:_Selectable_set_colors_m3015002425
UCf:_Array_InternalArray__ICollection_Contains_TisDouble_t4078015681_m2262383923_gshared
Zdf:_Boolean_System_IConvertible_ToUInt64_m3594533761
s$h:__Z85RuntimeInvoker_Boolean_t3825574718_SpriteStateU26_t1330646292_SpriteState_t1353336012PFvvEPK10MethodInfoPvPS4_
Thc:__Z60Register_UnityEngine_Input_INTERNAL_set_compositionCursorPosv
bsj:_Dictionary_2_Resize_m2807616086_gshared
V$i:__ZL51Collider_t3497673348_CustomAttributesCacheGeneratorP21CustomAttributesCache
vmi:_GUISettings_Internal_GetCursorFlashSpeed_m3799968572
tcg:_BigInteger_get_Rng_m1268152318
Cxk:_Vector3_op_Division_m3315615850
d0c:__ZN5physx19NpArticulationJoint20setTargetOrientationERKNS_6PxQuatE
TIl:dynCall_viiiif
qgi:_MonoEvent_IsDefined_m3151861274
rke:_Cubic_To
YI:__Z85Register_UnityEngine_Animations_AnimatorControllerPlayable_INTERNAL_CALL_SetTriggerIDv
Vdc:__Z37Register_UnityEngine_Application_Quitv
oZg:_TlsStream_WriteInt24_m1660453494
$ec:__Z44Register_UnityEngine_Camera_get_farClipPlanev
_R:__ZNK12AudioManager15GetDSPBlockSizeEv
ZBb:__ZNK17IAnimationBinding30CurveAttributeToSerializedPathERKN11UnityEngine9Animation10BoundCurveE
pXh:__Z87RuntimeInvoker_Color_t2020392075_Color_t2020392075_Color_t2020392075_Single_t2076509932PFvvEPK10MethodInfoPvPS4_
Sml:__ZN6il2cpp2gc16GarbageCollector14GetOrCreateCCWEP12Il2CppObjectRK10Il2CppGuid
Wkl:__ZN6il2cpp2vm5Image21FromTypeNameParseInfoEPK11Il2CppImageRKNS0_17TypeNameParseInfoEb
agb:__ZNK5Unity9Component7GetNameEv
BFa:__ZN17BufferManagerGLES13AcquireBufferEjN14DataBufferGLES11BufferUsageEb
Jnf:_Console_OpenStandardError_m3676373108
o6f:_UnmanagedMemoryStream_SetLength_m1805321486
s_g:_Context_get_ProtocolNegotiated_m624488778
kc:invoke_viiiifi
Asg:_List_1_System_Collections_IList_IndexOf_m1671340024_gshared
jcf:_SimpleEnumerator_MoveNext_m1696906961
QBe:__ZN16UnityAdsSettingsD0Ev
f$g:_Context_StartSwitchingSecurityParameters_m373522596
aii:_MonoProperty_GetRequiredCustomModifiers_m576853384
vGa:__ZNK7ApiGLES10DebugLabelEN2gl10ObjectTypeEjPKc
sIf:_Array_InternalArray__IndexOf_TisInt16_t4041245914_m1619355230_gshared
Mvl:_GC_push_marked
EHd:__ZN3MBP5resetEv
FGl:__ZNK10__cxxabiv121__vmi_class_type_info16search_below_dstEPNS_19__dynamic_cast_infoEPKvib
c_f:_Int64_System_IConvertible_ToDateTime_m1002280174
Und:__ZN5physx20NpRigidActorTemplateINS_13PxRigidStaticEE13setActorFlagsENS_7PxFlagsINS_11PxActorFlag4EnumEtEE
Dof:_Convert_ToByte_m9159597
kBk:_X509Store_BuildCertificatesCollection_m4224672591
Skc:__Z38DataUtility_CUSTOM_Internal_GetMinSizeP12Il2CppObjectP13Vector2fIcall
F6b:__ZN8PlayableC2E17ScriptingClassPtr18DirectorPlayerType
c_j:_ResourceEnumerator_get_Key_m1012797265
d7d:__ZN5physx2Gu12TriangleMesh18setupMeshInterfaceEv
_Tf:_NumberFormatter_FormatPercent_m776769918
A3k:_il2cpp_class_has_attribute
smi:_GUISettings__ctor_m2453724887
rvh:_Scheduler_ShrinkIfNeeded_m2186823111
hXg:_Alert_get_IsCloseNotify_m577852330
x3:__Z27FindOrCreateMonoScriptCache17ScriptingClassPtr22InitScriptingCacheTypeP6Objecti
YQb:__Z18Transfer_BlittableI18StreamedBinaryReadILb0EELb1E8Vector3fEvRK29SerializationCommandArgumentsR31RuntimeSerializationCommandInfo
oqi:_GUIUtility__cctor_m46116445
Dte:__ZN2UI14CanvasRenderer13SyncVertexPtrER8JobFenceNS0_8SyncFlagE
Iad:__ZN5physx7NpShape23setSimulationFilterDataERKNS_12PxFilterDataE
O3:__Z35scripting_method_get_argument_count18ScriptingMethodPtr
Axa:__ZN18AssetBundleManager18SortPreloadObjectsER13dynamic_arrayIiLj4EEb
Iyh:_UInt16_System_IConvertible_ToChar_m4055364664_AdjustorThunk
ZPd:__ZN5physx16PxsIslandManager27setWokenPairContactManagersEv
Yvk:_Transform_set_rotation_m3411284563
wYj:_Text_set_fontStyle_m1766503514
_gc:__Z20Gradient_CUSTOM_InitP12Il2CppObject
Ksc:__Z48Register_UnityEngine_GUIUtility_Internal_ExitGUIv
Tcl:__ZN14dense_hash_mapI10KeyWrapperINSt3__24pairIPK9FieldInfoP11Il2CppClassEEEj17ReflectionMapHashIS8_ENS9_14EqualsComparerINS1_8equal_toIS8_EEEENS1_9allocatorINS2_IKS9_jEEEEE15set_deleted_keyERSH_
Nvi:_Playable_GetPlayableType_m2389123558
zAk:_X509Certificate_get_RawData_m1262574599
Vlb:__ZN5Light23VirtualRedirectTransferER19StreamedBinaryWriteILb0EE
Ief:_Byte_System_IConvertible_ToDouble_m4224320007
f5a:__ZL21CullDynamicObjectsJobP14CullingJobDataj
Xre:__ZN2UI15ClearCanvasDataER8JobFenceRNS_10CanvasDataE
f7g:_IPAddress_ToString_m1462985652
Uoj:_ValueCollection_System_Collections_Generic_ICollectionU3CTValueU3E_Clear_m3471385195_gshared
klj:_Enumerator_get_CurrentKey_m1408186928_AdjustorThunk
gbb:__ZN14ManagerContext17InitializeClassesEv
yRj:_MaskUtilities_GetRectMasksForClip_m1540508301
phb:__ZN19StreamedBinaryWriteILb0EE21TransferSTLStyleArrayINSt3__26vectorI14ConstantStringNS2_9allocatorIS4_EEEEEEvRT_17TransferMetaFlags
ev:__ZN7mecanim5human20MaskHasRightFootGoalERKNS_6bitsetILj70EEE
BPb:__ZN18StreamedBinaryReadILb1EE21TransferSTLStyleArrayI31ArrayOfManagedObjectsTransfererEEvRT_17TransferMetaFlags
x8c:__ZN5physx10NpMaterial14onRefCountZeroEv
o6d:__ZN5physx13GuMeshFactory14addHeightFieldEPNS_2Gu11HeightFieldEb
LVc:__ZN5physx6shdfnd8PoolBaseINS_2Cm5BlockIhLj128EEENS0_19ReflectionAllocatorIS4_EEE12allocateSlabEv
Qcd:__ZN5physx7NpCloth26setCentrifugalInertiaScaleENS_6PxVec3E
Izd:__ZN5physx11PxcPoolListINS_17PxsContactManagerENS_10PxsContextEE7destroyEv
JCh:_WeakReference_get_Target_m1672141897
